 binding

 Timestamp is 5c52a971 (Thu Jan 31 16:53:21 2019)

 Preferred load address is 0000000180000000

 Start         Length     Name                   Class
 0001:00000000 0000c6a0H .text$di                CODE
 0001:0000c6a0 00080c40H .text$mn                CODE
 0001:0008d2e0 00001020H .text$mn$00             CODE
 0001:0008e300 00011250H .text$x                 CODE
 0001:0009f550 0000159dH .text$yd                CODE
 0002:00000000 00000110H .CRT$XCA                DATA
 0002:00000110 00000110H .CRT$XCL                DATA
 0002:00000220 00000360H .CRT$XCU                DATA
 0002:00000580 00000110H .CRT$XCZ                DATA
 0002:00000690 00000110H .CRT$XIA                DATA
 0002:000007a0 00000110H .CRT$XIC                DATA
 0002:000008b0 00000110H .CRT$XIYB               DATA
 0002:000009c0 00000110H .CRT$XIZ                DATA
 0002:00000ad0 00000008H .CRT$XLA                DATA
 0002:00000ad8 00000008H .CRT$XLZ                DATA
 0002:00000ae0 00000110H .CRT$XPA                DATA
 0002:00000bf0 00000110H .CRT$XPZ                DATA
 0002:00000d00 00000110H .CRT$XTA                DATA
 0002:00000e10 00000110H .CRT$XTZ                DATA
 0002:00000f20 000119f0H .rdata                  DATA
 0002:00012910 00000130H .rdata$T                DATA
 0002:00012a40 00000648H .rdata$r                DATA
 0002:00013088 000001c0H .rdata$zzzdbg           DATA
 0002:00013248 00000110H .rtc$IAA                DATA
 0002:00013358 00000110H .rtc$IZZ                DATA
 0002:00013468 00000110H .rtc$TAA                DATA
 0002:00013578 00000118H .rtc$TZZ                DATA
 0002:00013690 00029140H .xdata                  DATA
 0002:0003c7d0 00000490H .xdata$x                DATA
 0002:0003cc60 00000162H .edata                  DATA
 0003:00000000 00009a30H .data                   DATA
 0003:00009a30 00002520H .data$r                 DATA
 0003:0000bf50 00000b21H .bss                    DATA
 0004:00000000 00008b98H .pdata                  DATA
 0005:00000000 00000828H .idata$5                DATA
 0005:00000828 000000c8H .idata$2                DATA
 0005:000008f0 00000018H .idata$3                DATA
 0005:00000908 00000828H .idata$4                DATA
 0005:00001130 0000133cH .idata$6                DATA
 0006:00000000 00000020H .didat$2                DATA
 0006:00000020 00000020H .didat$3                DATA
 0006:00000040 000003a0H .didat$4                DATA
 0006:000003e0 000003a0H .didat$5                DATA
 0006:00000780 00001b30H .didat$6                DATA
 0006:000022b0 0000040fH .didat$7                DATA
 0007:00000000 00000110H minATL$__a              DATA
 0007:00000110 00000110H minATL$__m              DATA
 0007:00000220 00000109H minATL$__z              DATA
 0008:00000000 00000232H .gfids$y                DATA
 0009:00000000 00000104H .tls                    DATA
 0009:00000104 00000104H .tls$                   DATA
 0009:00000208 00000101H .tls$ZZZ                DATA
 000a:00000000 0000011bH .00cfg                  DATA
 000b:00000000 00000170H .rsrc$01                DATA
 000b:00000170 000002ccH .rsrc$02                DATA

  Address         Publics by Value              Rva+Base               Lib:Object

 0000:00000000       __guard_longjmp_table      0000000000000000     <absolute>
 0000:00000000       ___safe_se_handler_count   0000000000000000     <absolute>
 0000:00000000       __guard_iat_count          0000000000000000     <absolute>
 0000:00000000       __guard_longjmp_count      0000000000000000     <absolute>
 0000:00000000       __guard_fids_count         0000000000000000     <absolute>
 0000:00000000       __guard_fids_table         0000000000000000     <absolute>
 0000:00000000       ___safe_se_handler_table   0000000000000000     <absolute>
 0000:00000000       __guard_iat_table          0000000000000000     <absolute>
 0000:00000000       __dynamic_value_reloc_table 0000000000000000     <absolute>
 0000:00000100       __guard_flags              0000000000000100     <absolute>
 0000:00000000       __ImageBase                0000000180000000     <linker-defined>
 0001:0000c6a0       ?_Copy@?$_Func_impl@V<lambda_101ef24be3ae91b5b5fe22623582d26c>@@V?$allocator@H@std@@_NV?$Local@VValue@v8@@@v8@@@std@@EEBAPEAV?$_Func_base@_NV?$Local@VValue@v8@@@v8@@@2@PEAX@Z 000000018000d6a0 f i _nodert_generated.obj
 0001:0000c6c0       ?_Move@?$_Func_impl@V<lambda_101ef24be3ae91b5b5fe22623582d26c>@@V?$allocator@H@std@@_NV?$Local@VValue@v8@@@v8@@@std@@EEAAPEAV?$_Func_base@_NV?$Local@VValue@v8@@@v8@@@2@PEAX@Z 000000018000d6c0 f i _nodert_generated.obj
 0001:0000c6e0       ?_Do_call@?$_Func_impl@V<lambda_101ef24be3ae91b5b5fe22623582d26c>@@V?$allocator@H@std@@_NV?$Local@VValue@v8@@@v8@@@std@@EEAA_N$$QEAV?$Local@VValue@v8@@@v8@@@Z 000000018000d6e0 f i _nodert_generated.obj
 0001:0000c710       ?_Target_type@?$_Func_impl@V<lambda_101ef24be3ae91b5b5fe22623582d26c>@@V?$allocator@H@std@@_NV?$Local@VValue@v8@@@v8@@@std@@EEBAAEBVtype_info@@XZ 000000018000d710 f i _nodert_generated.obj
 0001:0000c720       ?_Get@?$_Func_impl@V<lambda_101ef24be3ae91b5b5fe22623582d26c>@@V?$allocator@H@std@@_NV?$Local@VValue@v8@@@v8@@@std@@EEBAPEBXXZ 000000018000d720 f i _nodert_generated.obj
 0001:0000c730       ?_Delete_this@?$_Func_impl@V<lambda_101ef24be3ae91b5b5fe22623582d26c>@@V?$allocator@H@std@@_NV?$Local@VValue@v8@@@v8@@@std@@EEAAX_N@Z 000000018000d730 f i _nodert_generated.obj
 0001:0000c750       ?init@@YAXV?$Local@VObject@v8@@@v8@@@Z 000000018000d750 f   _nodert_generated.obj
 0001:0000c870       ?__abi_winrt_cast_use_helper@@YAPE$AAVObject@Platform@@_NPEAXAEBU_GUID@@PEAU__abi_IUnknown@@@Z 000000018000d870 f i _nodert_generated.obj
 0001:0000c8f0       ?<Dispose>@?QIDisposable@Platform@@?$Array@E$00@2@UE$AAAXXZ 000000018000d8f0 f i _nodert_generated.obj
 0001:0000c95c       ?<Dispose>@?QIDisposable@Platform@@?$Array@E$00@2@WBI@E$AAAXXZ 000000018000d95c f i _nodert_generated.obj
 0001:0000c968       ?<Dispose>@?QIDisposable@Platform@@?$Array@E$00@2@WCI@E$AAAXXZ 000000018000d968 f i _nodert_generated.obj
 0001:0000c980       ?<Dispose>@?QIDisposable@Platform@@?$Array@F$00@2@UE$AAAXXZ 000000018000d980 f i _nodert_generated.obj
 0001:0000c9ec       ?<Dispose>@?QIDisposable@Platform@@?$Array@F$00@2@WBI@E$AAAXXZ 000000018000d9ec f i _nodert_generated.obj
 0001:0000c9f8       ?<Dispose>@?QIDisposable@Platform@@?$Array@F$00@2@WCI@E$AAAXXZ 000000018000d9f8 f i _nodert_generated.obj
 0001:0000ca10       ?<Dispose>@?QIDisposable@Platform@@?$Array@G$00@2@UE$AAAXXZ 000000018000da10 f i _nodert_generated.obj
 0001:0000ca7c       ?<Dispose>@?QIDisposable@Platform@@?$Array@G$00@2@WBI@E$AAAXXZ 000000018000da7c f i _nodert_generated.obj
 0001:0000ca88       ?<Dispose>@?QIDisposable@Platform@@?$Array@G$00@2@WCI@E$AAAXXZ 000000018000da88 f i _nodert_generated.obj
 0001:0000caa0       ?<Dispose>@?QIDisposable@Platform@@?$Array@H$00@2@UE$AAAXXZ 000000018000daa0 f i _nodert_generated.obj
 0001:0000cb0c       ?<Dispose>@?QIDisposable@Platform@@?$Array@H$00@2@WBI@E$AAAXXZ 000000018000db0c f i _nodert_generated.obj
 0001:0000cb18       ?<Dispose>@?QIDisposable@Platform@@?$Array@H$00@2@WCI@E$AAAXXZ 000000018000db18 f i _nodert_generated.obj
 0001:0000cb30       ?<Dispose>@?QIDisposable@Platform@@?$Array@I$00@2@UE$AAAXXZ 000000018000db30 f i _nodert_generated.obj
 0001:0000cb9c       ?<Dispose>@?QIDisposable@Platform@@?$Array@I$00@2@WBI@E$AAAXXZ 000000018000db9c f i _nodert_generated.obj
 0001:0000cba8       ?<Dispose>@?QIDisposable@Platform@@?$Array@I$00@2@WCI@E$AAAXXZ 000000018000dba8 f i _nodert_generated.obj
 0001:0000cbc0       ?<Dispose>@?QIDisposable@Platform@@?$Array@M$00@2@UE$AAAXXZ 000000018000dbc0 f i _nodert_generated.obj
 0001:0000cc2c       ?<Dispose>@?QIDisposable@Platform@@?$Array@M$00@2@WBI@E$AAAXXZ 000000018000dc2c f i _nodert_generated.obj
 0001:0000cc38       ?<Dispose>@?QIDisposable@Platform@@?$Array@M$00@2@WCI@E$AAAXXZ 000000018000dc38 f i _nodert_generated.obj
 0001:0000cc50       ?<Dispose>@?QIDisposable@Platform@@?$Array@N$00@2@UE$AAAXXZ 000000018000dc50 f i _nodert_generated.obj
 0001:0000ccbc       ?<Dispose>@?QIDisposable@Platform@@?$Array@N$00@2@WBI@E$AAAXXZ 000000018000dcbc f i _nodert_generated.obj
 0001:0000ccc8       ?<Dispose>@?QIDisposable@Platform@@?$Array@N$00@2@WCI@E$AAAXXZ 000000018000dcc8 f i _nodert_generated.obj
 0001:0000cce0       ?<Dispose>@?QIDisposable@Platform@@?$Array@PE$AAVObject@Platform@@$00@2@UE$AAAXXZ 000000018000dce0 f i _nodert_generated.obj
 0001:0000cd10       ?<Dispose>@?QIDisposable@Platform@@?$Array@PE$AAVObject@Platform@@$00@2@WBI@E$AAAXXZ 000000018000dd10 f i _nodert_generated.obj
 0001:0000cd1c       ?<Dispose>@?QIDisposable@Platform@@?$Array@PE$AAVObject@Platform@@$00@2@WCI@E$AAAXXZ 000000018000dd1c f i _nodert_generated.obj
 0001:0000cd30       ?<Dispose>@?QIDisposable@Platform@@?$Array@PE$AAVString@Platform@@$00@2@UE$AAAXXZ 000000018000dd30 f i _nodert_generated.obj
 0001:0000cd60       ?<Dispose>@?QIDisposable@Platform@@?$Array@PE$AAVString@Platform@@$00@2@WBI@E$AAAXXZ 000000018000dd60 f i _nodert_generated.obj
 0001:0000cd6c       ?<Dispose>@?QIDisposable@Platform@@?$Array@PE$AAVString@Platform@@$00@2@WCI@E$AAAXXZ 000000018000dd6c f i _nodert_generated.obj
 0001:0000cd80       ?<Dispose>@?QIDisposable@Platform@@?$Array@VDateTime@Foundation@Windows@@$00@2@UE$AAAXXZ 000000018000dd80 f i _nodert_generated.obj
 0001:0000cdec       ?<Dispose>@?QIDisposable@Platform@@?$Array@VDateTime@Foundation@Windows@@$00@2@WBI@E$AAAXXZ 000000018000ddec f i _nodert_generated.obj
 0001:0000cdf8       ?<Dispose>@?QIDisposable@Platform@@?$Array@VDateTime@Foundation@Windows@@$00@2@WCI@E$AAAXXZ 000000018000ddf8 f i _nodert_generated.obj
 0001:0000ce10       ?<Dispose>@?QIDisposable@Platform@@?$Array@VGuid@Platform@@$00@2@UE$AAAXXZ 000000018000de10 f i _nodert_generated.obj
 0001:0000ce7c       ?<Dispose>@?QIDisposable@Platform@@?$Array@VGuid@Platform@@$00@2@WBI@E$AAAXXZ 000000018000de7c f i _nodert_generated.obj
 0001:0000ce88       ?<Dispose>@?QIDisposable@Platform@@?$Array@VGuid@Platform@@$00@2@WCI@E$AAAXXZ 000000018000de88 f i _nodert_generated.obj
 0001:0000cea0       ?<Dispose>@?QIDisposable@Platform@@?$Array@VPoint@Foundation@Windows@@$00@2@UE$AAAXXZ 000000018000dea0 f i _nodert_generated.obj
 0001:0000cf0c       ?<Dispose>@?QIDisposable@Platform@@?$Array@VPoint@Foundation@Windows@@$00@2@WBI@E$AAAXXZ 000000018000df0c f i _nodert_generated.obj
 0001:0000cf18       ?<Dispose>@?QIDisposable@Platform@@?$Array@VPoint@Foundation@Windows@@$00@2@WCI@E$AAAXXZ 000000018000df18 f i _nodert_generated.obj
 0001:0000cf30       ?<Dispose>@?QIDisposable@Platform@@?$Array@VRect@Foundation@Windows@@$00@2@UE$AAAXXZ 000000018000df30 f i _nodert_generated.obj
 0001:0000cf9c       ?<Dispose>@?QIDisposable@Platform@@?$Array@VRect@Foundation@Windows@@$00@2@WBI@E$AAAXXZ 000000018000df9c f i _nodert_generated.obj
 0001:0000cfa8       ?<Dispose>@?QIDisposable@Platform@@?$Array@VRect@Foundation@Windows@@$00@2@WCI@E$AAAXXZ 000000018000dfa8 f i _nodert_generated.obj
 0001:0000cfc0       ?<Dispose>@?QIDisposable@Platform@@?$Array@VSize@Foundation@Windows@@$00@2@UE$AAAXXZ 000000018000dfc0 f i _nodert_generated.obj
 0001:0000d02c       ?<Dispose>@?QIDisposable@Platform@@?$Array@VSize@Foundation@Windows@@$00@2@WBI@E$AAAXXZ 000000018000e02c f i _nodert_generated.obj
 0001:0000d038       ?<Dispose>@?QIDisposable@Platform@@?$Array@VSize@Foundation@Windows@@$00@2@WCI@E$AAAXXZ 000000018000e038 f i _nodert_generated.obj
 0001:0000d050       ?<Dispose>@?QIDisposable@Platform@@?$Array@VTimeSpan@Foundation@Windows@@$00@2@UE$AAAXXZ 000000018000e050 f i _nodert_generated.obj
 0001:0000d0bc       ?<Dispose>@?QIDisposable@Platform@@?$Array@VTimeSpan@Foundation@Windows@@$00@2@WBI@E$AAAXXZ 000000018000e0bc f i _nodert_generated.obj
 0001:0000d0c8       ?<Dispose>@?QIDisposable@Platform@@?$Array@VTimeSpan@Foundation@Windows@@$00@2@WCI@E$AAAXXZ 000000018000e0c8 f i _nodert_generated.obj
 0001:0000d0e0       ?<Dispose>@?QIDisposable@Platform@@?$Array@_J$00@2@UE$AAAXXZ 000000018000e0e0 f i _nodert_generated.obj
 0001:0000d14c       ?<Dispose>@?QIDisposable@Platform@@?$Array@_J$00@2@WBI@E$AAAXXZ 000000018000e14c f i _nodert_generated.obj
 0001:0000d158       ?<Dispose>@?QIDisposable@Platform@@?$Array@_J$00@2@WCI@E$AAAXXZ 000000018000e158 f i _nodert_generated.obj
 0001:0000d170       ?<Dispose>@?QIDisposable@Platform@@?$Array@_K$00@2@UE$AAAXXZ 000000018000e170 f i _nodert_generated.obj
 0001:0000d1dc       ?<Dispose>@?QIDisposable@Platform@@?$Array@_K$00@2@WBI@E$AAAXXZ 000000018000e1dc f i _nodert_generated.obj
 0001:0000d1e8       ?<Dispose>@?QIDisposable@Platform@@?$Array@_K$00@2@WCI@E$AAAXXZ 000000018000e1e8 f i _nodert_generated.obj
 0001:0000d200       ?<Dispose>@?QIDisposable@Platform@@?$Array@_N$00@2@UE$AAAXXZ 000000018000e200 f i _nodert_generated.obj
 0001:0000d26c       ?<Dispose>@?QIDisposable@Platform@@?$Array@_N$00@2@WBI@E$AAAXXZ 000000018000e26c f i _nodert_generated.obj
 0001:0000d278       ?<Dispose>@?QIDisposable@Platform@@?$Array@_N$00@2@WCI@E$AAAXXZ 000000018000e278 f i _nodert_generated.obj
 0001:0000d290       ?<Dispose>@?QIDisposable@Platform@@?$Array@_W$00@2@UE$AAAXXZ 000000018000e290 f i _nodert_generated.obj
 0001:0000d2fc       ?<Dispose>@?QIDisposable@Platform@@?$Array@_W$00@2@WBI@E$AAAXXZ 000000018000e2fc f i _nodert_generated.obj
 0001:0000d308       ?<Dispose>@?QIDisposable@Platform@@?$Array@_W$00@2@WCI@E$AAAXXZ 000000018000e308 f i _nodert_generated.obj
 0001:0000d320       ?<Dispose>@?QIDisposable@Platform@@?$WriteOnlyArray@E$00@2@UE$AAAXXZ 000000018000e320 f i _nodert_generated.obj
 0001:0000d368       ?<Dispose>@?QIDisposable@Platform@@?$WriteOnlyArray@E$00@2@W7E$AAAXXZ 000000018000e368 f i _nodert_generated.obj
 0001:0000d380       ?<Dispose>@?QIDisposable@Platform@@?$WriteOnlyArray@F$00@2@UE$AAAXXZ 000000018000e380 f i _nodert_generated.obj
 0001:0000d3c8       ?<Dispose>@?QIDisposable@Platform@@?$WriteOnlyArray@F$00@2@W7E$AAAXXZ 000000018000e3c8 f i _nodert_generated.obj
 0001:0000d3e0       ?<Dispose>@?QIDisposable@Platform@@?$WriteOnlyArray@G$00@2@UE$AAAXXZ 000000018000e3e0 f i _nodert_generated.obj
 0001:0000d428       ?<Dispose>@?QIDisposable@Platform@@?$WriteOnlyArray@G$00@2@W7E$AAAXXZ 000000018000e428 f i _nodert_generated.obj
 0001:0000d440       ?<Dispose>@?QIDisposable@Platform@@?$WriteOnlyArray@H$00@2@UE$AAAXXZ 000000018000e440 f i _nodert_generated.obj
 0001:0000d488       ?<Dispose>@?QIDisposable@Platform@@?$WriteOnlyArray@H$00@2@W7E$AAAXXZ 000000018000e488 f i _nodert_generated.obj
 0001:0000d4a0       ?<Dispose>@?QIDisposable@Platform@@?$WriteOnlyArray@I$00@2@UE$AAAXXZ 000000018000e4a0 f i _nodert_generated.obj
 0001:0000d4e8       ?<Dispose>@?QIDisposable@Platform@@?$WriteOnlyArray@I$00@2@W7E$AAAXXZ 000000018000e4e8 f i _nodert_generated.obj
 0001:0000d500       ?<Dispose>@?QIDisposable@Platform@@?$WriteOnlyArray@M$00@2@UE$AAAXXZ 000000018000e500 f i _nodert_generated.obj
 0001:0000d548       ?<Dispose>@?QIDisposable@Platform@@?$WriteOnlyArray@M$00@2@W7E$AAAXXZ 000000018000e548 f i _nodert_generated.obj
 0001:0000d560       ?<Dispose>@?QIDisposable@Platform@@?$WriteOnlyArray@N$00@2@UE$AAAXXZ 000000018000e560 f i _nodert_generated.obj
 0001:0000d5a8       ?<Dispose>@?QIDisposable@Platform@@?$WriteOnlyArray@N$00@2@W7E$AAAXXZ 000000018000e5a8 f i _nodert_generated.obj
 0001:0000d5c0       ?<Dispose>@?QIDisposable@Platform@@?$WriteOnlyArray@PE$AAVObject@Platform@@$00@2@UE$AAAXXZ 000000018000e5c0 f i _nodert_generated.obj
 0001:0000d5d4       ?<Dispose>@?QIDisposable@Platform@@?$WriteOnlyArray@PE$AAVObject@Platform@@$00@2@W7E$AAAXXZ 000000018000e5d4 f i _nodert_generated.obj
 0001:0000d5e0       ?<Dispose>@?QIDisposable@Platform@@?$WriteOnlyArray@PE$AAVString@Platform@@$00@2@UE$AAAXXZ 000000018000e5e0 f i _nodert_generated.obj
 0001:0000d5f4       ?<Dispose>@?QIDisposable@Platform@@?$WriteOnlyArray@PE$AAVString@Platform@@$00@2@W7E$AAAXXZ 000000018000e5f4 f i _nodert_generated.obj
 0001:0000d600       ?<Dispose>@?QIDisposable@Platform@@?$WriteOnlyArray@VDateTime@Foundation@Windows@@$00@2@UE$AAAXXZ 000000018000e600 f i _nodert_generated.obj
 0001:0000d648       ?<Dispose>@?QIDisposable@Platform@@?$WriteOnlyArray@VDateTime@Foundation@Windows@@$00@2@W7E$AAAXXZ 000000018000e648 f i _nodert_generated.obj
 0001:0000d660       ?<Dispose>@?QIDisposable@Platform@@?$WriteOnlyArray@VGuid@Platform@@$00@2@UE$AAAXXZ 000000018000e660 f i _nodert_generated.obj
 0001:0000d6a8       ?<Dispose>@?QIDisposable@Platform@@?$WriteOnlyArray@VGuid@Platform@@$00@2@W7E$AAAXXZ 000000018000e6a8 f i _nodert_generated.obj
 0001:0000d6c0       ?<Dispose>@?QIDisposable@Platform@@?$WriteOnlyArray@VPoint@Foundation@Windows@@$00@2@UE$AAAXXZ 000000018000e6c0 f i _nodert_generated.obj
 0001:0000d708       ?<Dispose>@?QIDisposable@Platform@@?$WriteOnlyArray@VPoint@Foundation@Windows@@$00@2@W7E$AAAXXZ 000000018000e708 f i _nodert_generated.obj
 0001:0000d720       ?<Dispose>@?QIDisposable@Platform@@?$WriteOnlyArray@VRect@Foundation@Windows@@$00@2@UE$AAAXXZ 000000018000e720 f i _nodert_generated.obj
 0001:0000d768       ?<Dispose>@?QIDisposable@Platform@@?$WriteOnlyArray@VRect@Foundation@Windows@@$00@2@W7E$AAAXXZ 000000018000e768 f i _nodert_generated.obj
 0001:0000d780       ?<Dispose>@?QIDisposable@Platform@@?$WriteOnlyArray@VSize@Foundation@Windows@@$00@2@UE$AAAXXZ 000000018000e780 f i _nodert_generated.obj
 0001:0000d7c8       ?<Dispose>@?QIDisposable@Platform@@?$WriteOnlyArray@VSize@Foundation@Windows@@$00@2@W7E$AAAXXZ 000000018000e7c8 f i _nodert_generated.obj
 0001:0000d7e0       ?<Dispose>@?QIDisposable@Platform@@?$WriteOnlyArray@VTimeSpan@Foundation@Windows@@$00@2@UE$AAAXXZ 000000018000e7e0 f i _nodert_generated.obj
 0001:0000d828       ?<Dispose>@?QIDisposable@Platform@@?$WriteOnlyArray@VTimeSpan@Foundation@Windows@@$00@2@W7E$AAAXXZ 000000018000e828 f i _nodert_generated.obj
 0001:0000d840       ?<Dispose>@?QIDisposable@Platform@@?$WriteOnlyArray@_J$00@2@UE$AAAXXZ 000000018000e840 f i _nodert_generated.obj
 0001:0000d888       ?<Dispose>@?QIDisposable@Platform@@?$WriteOnlyArray@_J$00@2@W7E$AAAXXZ 000000018000e888 f i _nodert_generated.obj
 0001:0000d8a0       ?<Dispose>@?QIDisposable@Platform@@?$WriteOnlyArray@_K$00@2@UE$AAAXXZ 000000018000e8a0 f i _nodert_generated.obj
 0001:0000d8e8       ?<Dispose>@?QIDisposable@Platform@@?$WriteOnlyArray@_K$00@2@W7E$AAAXXZ 000000018000e8e8 f i _nodert_generated.obj
 0001:0000d900       ?<Dispose>@?QIDisposable@Platform@@?$WriteOnlyArray@_N$00@2@UE$AAAXXZ 000000018000e900 f i _nodert_generated.obj
 0001:0000d948       ?<Dispose>@?QIDisposable@Platform@@?$WriteOnlyArray@_N$00@2@W7E$AAAXXZ 000000018000e948 f i _nodert_generated.obj
 0001:0000d960       ?<Dispose>@?QIDisposable@Platform@@?$WriteOnlyArray@_W$00@2@UE$AAAXXZ 000000018000e960 f i _nodert_generated.obj
 0001:0000d9a8       ?<Dispose>@?QIDisposable@Platform@@?$WriteOnlyArray@_W$00@2@W7E$AAAXXZ 000000018000e9a8 f i _nodert_generated.obj
 0001:0000d9c0       ?<Dispose>@IDisposable@Platform@@UE$AAAXXZ 000000018000e9c0 f i _nodert_generated.obj
 0001:0000d9f0       ??$?0AEBV?$allocator@H@std@@@?$_Wrap_alloc@V?$allocator@V?$_Func_impl@V<lambda_101ef24be3ae91b5b5fe22623582d26c>@@V?$allocator@H@std@@_NV?$Local@VValue@v8@@@v8@@@std@@@std@@@std@@QEAA@AEBV?$allocator@H@1@@Z 000000018000e9f0 f i _nodert_generated.obj
 0001:0000da00       ??$?0AEBV?$allocator@H@std@@V<lambda_101ef24be3ae91b5b5fe22623582d26c>@@@?$_Compressed_pair@V?$allocator@H@std@@V<lambda_101ef24be3ae91b5b5fe22623582d26c>@@$00@std@@QEAA@U_One_then_variadic_args_t@1@AEBV?$allocator@H@1@$$QEAV<lambda_101ef24be3ae91b5b5fe22623582d26c>@@@Z 000000018000ea00 f i _nodert_generated.obj
 0001:0000da10       ??$?0V<lambda_4c7fa631be439f28ed06a48699f7804a>@@@?$TypedEventHandler@PE$AAUIMemoryBufferReference@Foundation@Windows@@PE$AAVObject@Platform@@@Foundation@Windows@@QE$AAA@V<lambda_4c7fa631be439f28ed06a48699f7804a>@@W4CallbackContext@Platform@@_N@Z 000000018000ea10 f i _nodert_generated.obj
 0001:0000db70       ??$?4AEAV?$function@$$A6AXXZ@std@@XX@?$function@$$A6AXXZ@std@@QEAAAEAV01@AEAV01@@Z 000000018000eb70 f i _nodert_generated.obj
 0001:0000f720       ??$IsWinRtWrapperOf@P$01E$AAV?$Array@E$00@Platform@@@Utils@NodeRT@@YA_NV?$Local@VValue@v8@@@v8@@@Z 0000000180010720 f i _nodert_generated.obj
 0001:0000f890       ??$IsWinRtWrapperOf@P$01E$AAV?$Array@F$00@Platform@@@Utils@NodeRT@@YA_NV?$Local@VValue@v8@@@v8@@@Z 0000000180010890 f i _nodert_generated.obj
 0001:0000fa00       ??$IsWinRtWrapperOf@P$01E$AAV?$Array@G$00@Platform@@@Utils@NodeRT@@YA_NV?$Local@VValue@v8@@@v8@@@Z 0000000180010a00 f i _nodert_generated.obj
 0001:0000fb70       ??$IsWinRtWrapperOf@P$01E$AAV?$Array@H$00@Platform@@@Utils@NodeRT@@YA_NV?$Local@VValue@v8@@@v8@@@Z 0000000180010b70 f i _nodert_generated.obj
 0001:0000fce0       ??$IsWinRtWrapperOf@P$01E$AAV?$Array@I$00@Platform@@@Utils@NodeRT@@YA_NV?$Local@VValue@v8@@@v8@@@Z 0000000180010ce0 f i _nodert_generated.obj
 0001:0000fe50       ??$IsWinRtWrapperOf@P$01E$AAV?$Array@M$00@Platform@@@Utils@NodeRT@@YA_NV?$Local@VValue@v8@@@v8@@@Z 0000000180010e50 f i _nodert_generated.obj
 0001:0000ffc0       ??$IsWinRtWrapperOf@P$01E$AAV?$Array@N$00@Platform@@@Utils@NodeRT@@YA_NV?$Local@VValue@v8@@@v8@@@Z 0000000180010fc0 f i _nodert_generated.obj
 0001:00010130       ??$IsWinRtWrapperOf@P$01E$AAV?$Array@PE$AAVObject@Platform@@$00@Platform@@@Utils@NodeRT@@YA_NV?$Local@VValue@v8@@@v8@@@Z 0000000180011130 f i _nodert_generated.obj
 0001:000102a0       ??$IsWinRtWrapperOf@P$01E$AAV?$Array@PE$AAVString@Platform@@$00@Platform@@@Utils@NodeRT@@YA_NV?$Local@VValue@v8@@@v8@@@Z 00000001800112a0 f i _nodert_generated.obj
 0001:00010410       ??$IsWinRtWrapperOf@P$01E$AAV?$Array@VDateTime@Foundation@Windows@@$00@Platform@@@Utils@NodeRT@@YA_NV?$Local@VValue@v8@@@v8@@@Z 0000000180011410 f i _nodert_generated.obj
 0001:00010580       ??$IsWinRtWrapperOf@P$01E$AAV?$Array@VGuid@Platform@@$00@Platform@@@Utils@NodeRT@@YA_NV?$Local@VValue@v8@@@v8@@@Z 0000000180011580 f i _nodert_generated.obj
 0001:000106f0       ??$IsWinRtWrapperOf@P$01E$AAV?$Array@VPoint@Foundation@Windows@@$00@Platform@@@Utils@NodeRT@@YA_NV?$Local@VValue@v8@@@v8@@@Z 00000001800116f0 f i _nodert_generated.obj
 0001:00010860       ??$IsWinRtWrapperOf@P$01E$AAV?$Array@VRect@Foundation@Windows@@$00@Platform@@@Utils@NodeRT@@YA_NV?$Local@VValue@v8@@@v8@@@Z 0000000180011860 f i _nodert_generated.obj
 0001:000109d0       ??$IsWinRtWrapperOf@P$01E$AAV?$Array@VSize@Foundation@Windows@@$00@Platform@@@Utils@NodeRT@@YA_NV?$Local@VValue@v8@@@v8@@@Z 00000001800119d0 f i _nodert_generated.obj
 0001:00010b40       ??$IsWinRtWrapperOf@P$01E$AAV?$Array@VTimeSpan@Foundation@Windows@@$00@Platform@@@Utils@NodeRT@@YA_NV?$Local@VValue@v8@@@v8@@@Z 0000000180011b40 f i _nodert_generated.obj
 0001:00010cb0       ??$IsWinRtWrapperOf@P$01E$AAV?$Array@_J$00@Platform@@@Utils@NodeRT@@YA_NV?$Local@VValue@v8@@@v8@@@Z 0000000180011cb0 f i _nodert_generated.obj
 0001:00010e20       ??$IsWinRtWrapperOf@P$01E$AAV?$Array@_K$00@Platform@@@Utils@NodeRT@@YA_NV?$Local@VValue@v8@@@v8@@@Z 0000000180011e20 f i _nodert_generated.obj
 0001:00010f90       ??$IsWinRtWrapperOf@P$01E$AAV?$Array@_N$00@Platform@@@Utils@NodeRT@@YA_NV?$Local@VValue@v8@@@v8@@@Z 0000000180011f90 f i _nodert_generated.obj
 0001:00011100       ??$IsWinRtWrapperOf@P$01E$AAV?$Array@_W$00@Platform@@@Utils@NodeRT@@YA_NV?$Local@VValue@v8@@@v8@@@Z 0000000180012100 f i _nodert_generated.obj
 0001:00011270       ??$IsWinRtWrapperOf@PE$AAU?$IIterator@PE$AAUIWwwFormUrlDecoderEntry@Foundation@Windows@@@Collections@Foundation@Windows@@@Utils@NodeRT@@YA_NV?$Local@VValue@v8@@@v8@@@Z 0000000180012270 f i _nodert_generated.obj
 0001:000113e0       ??$IsWinRtWrapperOf@PE$AAUIAsyncAction@Foundation@Windows@@@Utils@NodeRT@@YA_NV?$Local@VValue@v8@@@v8@@@Z 00000001800123e0 f i _nodert_generated.obj
 0001:00011550       ??$IsWinRtWrapperOf@PE$AAUIAsyncInfo@Foundation@Windows@@@Utils@NodeRT@@YA_NV?$Local@VValue@v8@@@v8@@@Z 0000000180012550 f i _nodert_generated.obj
 0001:000116c0       ??$IsWinRtWrapperOf@PE$AAUIGetActivationFactory@Foundation@Windows@@@Utils@NodeRT@@YA_NV?$Local@VValue@v8@@@v8@@@Z 00000001800126c0 f i _nodert_generated.obj
 0001:00011830       ??$IsWinRtWrapperOf@PE$AAUIMemoryBuffer@Foundation@Windows@@@Utils@NodeRT@@YA_NV?$Local@VValue@v8@@@v8@@@Z 0000000180012830 f i _nodert_generated.obj
 0001:000119a0       ??$IsWinRtWrapperOf@PE$AAUIMemoryBufferReference@Foundation@Windows@@@Utils@NodeRT@@YA_NV?$Local@VValue@v8@@@v8@@@Z 00000001800129a0 f i _nodert_generated.obj
 0001:00011b10       ??$IsWinRtWrapperOf@PE$AAUIPropertyValue@Foundation@Windows@@@Utils@NodeRT@@YA_NV?$Local@VValue@v8@@@v8@@@Z 0000000180012b10 f i _nodert_generated.obj
 0001:00011c80       ??$IsWinRtWrapperOf@PE$AAUIStringable@Foundation@Windows@@@Utils@NodeRT@@YA_NV?$Local@VValue@v8@@@v8@@@Z 0000000180012c80 f i _nodert_generated.obj
 0001:00011df0       ??$IsWinRtWrapperOf@PE$AAUIWwwFormUrlDecoderEntry@Foundation@Windows@@@Utils@NodeRT@@YA_NV?$Local@VValue@v8@@@v8@@@Z 0000000180012df0 f i _nodert_generated.obj
 0001:00011f60       ??$IsWinRtWrapperOf@PE$AAVAsyncActionCompletedHandler@Foundation@Windows@@@Utils@NodeRT@@YA_NV?$Local@VValue@v8@@@v8@@@Z 0000000180012f60 f i _nodert_generated.obj
 0001:000120b0       ??$IsWinRtWrapperOf@PE$AAVDeferral@Foundation@Windows@@@Utils@NodeRT@@YA_NV?$Local@VValue@v8@@@v8@@@Z 00000001800130b0 f i _nodert_generated.obj
 0001:00012220       ??$IsWinRtWrapperOf@PE$AAVDeferralCompletedHandler@Foundation@Windows@@@Utils@NodeRT@@YA_NV?$Local@VValue@v8@@@v8@@@Z 0000000180013220 f i _nodert_generated.obj
 0001:00012370       ??$IsWinRtWrapperOf@PE$AAVMemoryBuffer@Foundation@Windows@@@Utils@NodeRT@@YA_NV?$Local@VValue@v8@@@v8@@@Z 0000000180013370 f i _nodert_generated.obj
 0001:000124e0       ??$IsWinRtWrapperOf@PE$AAVObject@Platform@@@Utils@NodeRT@@YA_NV?$Local@VValue@v8@@@v8@@@Z 00000001800134e0 f i _nodert_generated.obj
 0001:00012600       ??$IsWinRtWrapperOf@PE$AAVPropertyValue@Foundation@Windows@@@Utils@NodeRT@@YA_NV?$Local@VValue@v8@@@v8@@@Z 0000000180013600 f i _nodert_generated.obj
 0001:00012770       ??$IsWinRtWrapperOf@PE$AAVUri@Foundation@Windows@@@Utils@NodeRT@@YA_NV?$Local@VValue@v8@@@v8@@@Z 0000000180013770 f i _nodert_generated.obj
 0001:000128e0       ??$IsWinRtWrapperOf@PE$AAVWwwFormUrlDecoder@Foundation@Windows@@@Utils@NodeRT@@YA_NV?$Local@VValue@v8@@@v8@@@Z 00000001800138e0 f i _nodert_generated.obj
 0001:00012a50       ??$IsWinRtWrapperOf@PE$AAVWwwFormUrlDecoderEntry@Foundation@Windows@@@Utils@NodeRT@@YA_NV?$Local@VValue@v8@@@v8@@@Z 0000000180013a50 f i _nodert_generated.obj
 0001:00012bc0       ??$New@VBoolean@v8@@_N@Nan@@YA?AV?$Local@VBoolean@v8@@@v8@@_N@Z 0000000180013bc0 f i _nodert_generated.obj
 0001:00012c20       ??$New@VExternal@v8@@PEAX@Nan@@YA?AV?$Local@VExternal@v8@@@v8@@PEAX@Z 0000000180013c20 f i _nodert_generated.obj
 0001:00012c60       ??$New@VFunctionTemplate@v8@@@Nan@@YA?AV?$Local@VFunctionTemplate@v8@@@v8@@P6AXAEBV?$FunctionCallbackInfo@VValue@v8@@@0@@ZV?$Local@VValue@v8@@@2@@Z 0000000180013c60 f i _nodert_generated.obj
 0001:00012c80       ??$New@VFunctionTemplate@v8@@V?$Local@VSignature@v8@@@2@@Nan@@YA?AV?$Local@VFunctionTemplate@v8@@@v8@@P6AXAEBV?$FunctionCallbackInfo@VValue@v8@@@0@@ZV?$Local@VValue@v8@@@2@V?$Local@VSignature@v8@@@2@@Z 0000000180013c80 f i _nodert_generated.obj
 0001:00012ca0       ??$New@VInteger@v8@@E@Nan@@YA?AV?$Local@VInteger@v8@@@v8@@E@Z 0000000180013ca0 f i _nodert_generated.obj
 0001:00012d10       ??$New@VInteger@v8@@F@Nan@@YA?AV?$Local@VInteger@v8@@@v8@@F@Z 0000000180013d10 f i _nodert_generated.obj
 0001:00012d80       ??$New@VInteger@v8@@G@Nan@@YA?AV?$Local@VInteger@v8@@@v8@@G@Z 0000000180013d80 f i _nodert_generated.obj
 0001:00012df0       ??$New@VInteger@v8@@H@Nan@@YA?AV?$Local@VInteger@v8@@@v8@@H@Z 0000000180013df0 f i _nodert_generated.obj
 0001:00012e60       ??$New@VInteger@v8@@I@Nan@@YA?AV?$Local@VInteger@v8@@@v8@@I@Z 0000000180013e60 f i _nodert_generated.obj
 0001:00012ed0       ??$New@VNumber@v8@@N@Nan@@YA?AV?$Local@VNumber@v8@@@v8@@N@Z 0000000180013ed0 f i _nodert_generated.obj
 0001:00012f20       ??$New@VObject@v8@@@Nan@@YA?AV?$Local@VObject@v8@@@v8@@XZ 0000000180013f20 f i _nodert_generated.obj
 0001:00012f50       ??$New@VObjectTemplate@v8@@@Nan@@YA?AV?$Local@VObjectTemplate@v8@@@v8@@XZ 0000000180013f50 f i _nodert_generated.obj
 0001:00012f80       ??$New@VSignature@v8@@V?$Local@VFunctionTemplate@v8@@@2@@Nan@@YA?AV?$Local@VSignature@v8@@@v8@@V?$Local@VFunctionTemplate@v8@@@2@@Z 0000000180013f80 f i _nodert_generated.obj
 0001:00012fc0       ??$New@VString@v8@@PEBD@Nan@@YA?AV?$MaybeLocal@VString@v8@@@v8@@PEBD@Z 0000000180013fc0 f i _nodert_generated.obj
 0001:00013010       ??$Reset@VObject@v8@@@?$Persistent@VObject@v8@@V?$NonCopyablePersistentTraits@VObject@v8@@@2@@Nan@@QEAAXAEBV?$Local@VObject@v8@@@v8@@@Z 0000000180014010 f i _nodert_generated.obj
 0001:00013080       ??$SetMethod@VObject@v8@@VLocal@2@@Nan@@YAXV?$Local@VObject@v8@@@v8@@PEBDP6AXAEBV?$FunctionCallbackInfo@VValue@v8@@@0@@Z@Z 0000000180014080 f i _nodert_generated.obj
 0001:00013170       ??$SetMethodAux@V?$Local@VObject@v8@@@v8@@@imp@Nan@@YAXV?$Local@VObject@v8@@@v8@@V?$Local@VString@v8@@@3@V?$Local@VFunctionTemplate@v8@@@3@ZZ 0000000180014170 f i _nodert_generated.obj
 0001:000131e0       ??$Unwrap@V?$ArrayWrapper@E@Collections@NodeRT@@@ObjectWrap@Nan@@SAPEAV?$ArrayWrapper@E@Collections@NodeRT@@V?$Local@VObject@v8@@@v8@@@Z 00000001800141e0 f i _nodert_generated.obj
 0001:00013290       ??$Unwrap@V?$ArrayWrapper@F@Collections@NodeRT@@@ObjectWrap@Nan@@SAPEAV?$ArrayWrapper@F@Collections@NodeRT@@V?$Local@VObject@v8@@@v8@@@Z 0000000180014290 f i _nodert_generated.obj
 0001:00013340       ??$Unwrap@V?$ArrayWrapper@G@Collections@NodeRT@@@ObjectWrap@Nan@@SAPEAV?$ArrayWrapper@G@Collections@NodeRT@@V?$Local@VObject@v8@@@v8@@@Z 0000000180014340 f i _nodert_generated.obj
 0001:000133f0       ??$Unwrap@V?$ArrayWrapper@H@Collections@NodeRT@@@ObjectWrap@Nan@@SAPEAV?$ArrayWrapper@H@Collections@NodeRT@@V?$Local@VObject@v8@@@v8@@@Z 00000001800143f0 f i _nodert_generated.obj
 0001:000134a0       ??$Unwrap@V?$ArrayWrapper@I@Collections@NodeRT@@@ObjectWrap@Nan@@SAPEAV?$ArrayWrapper@I@Collections@NodeRT@@V?$Local@VObject@v8@@@v8@@@Z 00000001800144a0 f i _nodert_generated.obj
 0001:00013550       ??$Unwrap@V?$ArrayWrapper@M@Collections@NodeRT@@@ObjectWrap@Nan@@SAPEAV?$ArrayWrapper@M@Collections@NodeRT@@V?$Local@VObject@v8@@@v8@@@Z 0000000180014550 f i _nodert_generated.obj
 0001:00013600       ??$Unwrap@V?$ArrayWrapper@N@Collections@NodeRT@@@ObjectWrap@Nan@@SAPEAV?$ArrayWrapper@N@Collections@NodeRT@@V?$Local@VObject@v8@@@v8@@@Z 0000000180014600 f i _nodert_generated.obj
 0001:000136b0       ??$Unwrap@V?$ArrayWrapper@PE$AAVObject@Platform@@@Collections@NodeRT@@@ObjectWrap@Nan@@SAPEAV?$ArrayWrapper@PE$AAVObject@Platform@@@Collections@NodeRT@@V?$Local@VObject@v8@@@v8@@@Z 00000001800146b0 f i _nodert_generated.obj
 0001:00013760       ??$Unwrap@V?$ArrayWrapper@PE$AAVString@Platform@@@Collections@NodeRT@@@ObjectWrap@Nan@@SAPEAV?$ArrayWrapper@PE$AAVString@Platform@@@Collections@NodeRT@@V?$Local@VObject@v8@@@v8@@@Z 0000000180014760 f i _nodert_generated.obj
 0001:00013810       ??$Unwrap@V?$ArrayWrapper@VDateTime@Foundation@Windows@@@Collections@NodeRT@@@ObjectWrap@Nan@@SAPEAV?$ArrayWrapper@VDateTime@Foundation@Windows@@@Collections@NodeRT@@V?$Local@VObject@v8@@@v8@@@Z 0000000180014810 f i _nodert_generated.obj
 0001:000138c0       ??$Unwrap@V?$ArrayWrapper@VGuid@Platform@@@Collections@NodeRT@@@ObjectWrap@Nan@@SAPEAV?$ArrayWrapper@VGuid@Platform@@@Collections@NodeRT@@V?$Local@VObject@v8@@@v8@@@Z 00000001800148c0 f i _nodert_generated.obj
 0001:00013970       ??$Unwrap@V?$ArrayWrapper@VPoint@Foundation@Windows@@@Collections@NodeRT@@@ObjectWrap@Nan@@SAPEAV?$ArrayWrapper@VPoint@Foundation@Windows@@@Collections@NodeRT@@V?$Local@VObject@v8@@@v8@@@Z 0000000180014970 f i _nodert_generated.obj
 0001:00013a20       ??$Unwrap@V?$ArrayWrapper@VRect@Foundation@Windows@@@Collections@NodeRT@@@ObjectWrap@Nan@@SAPEAV?$ArrayWrapper@VRect@Foundation@Windows@@@Collections@NodeRT@@V?$Local@VObject@v8@@@v8@@@Z 0000000180014a20 f i _nodert_generated.obj
 0001:00013ad0       ??$Unwrap@V?$ArrayWrapper@VSize@Foundation@Windows@@@Collections@NodeRT@@@ObjectWrap@Nan@@SAPEAV?$ArrayWrapper@VSize@Foundation@Windows@@@Collections@NodeRT@@V?$Local@VObject@v8@@@v8@@@Z 0000000180014ad0 f i _nodert_generated.obj
 0001:00013b80       ??$Unwrap@V?$ArrayWrapper@VTimeSpan@Foundation@Windows@@@Collections@NodeRT@@@ObjectWrap@Nan@@SAPEAV?$ArrayWrapper@VTimeSpan@Foundation@Windows@@@Collections@NodeRT@@V?$Local@VObject@v8@@@v8@@@Z 0000000180014b80 f i _nodert_generated.obj
 0001:00013c30       ??$Unwrap@V?$ArrayWrapper@_J@Collections@NodeRT@@@ObjectWrap@Nan@@SAPEAV?$ArrayWrapper@_J@Collections@NodeRT@@V?$Local@VObject@v8@@@v8@@@Z 0000000180014c30 f i _nodert_generated.obj
 0001:00013ce0       ??$Unwrap@V?$ArrayWrapper@_K@Collections@NodeRT@@@ObjectWrap@Nan@@SAPEAV?$ArrayWrapper@_K@Collections@NodeRT@@V?$Local@VObject@v8@@@v8@@@Z 0000000180014ce0 f i _nodert_generated.obj
 0001:00013d90       ??$Unwrap@V?$ArrayWrapper@_N@Collections@NodeRT@@@ObjectWrap@Nan@@SAPEAV?$ArrayWrapper@_N@Collections@NodeRT@@V?$Local@VObject@v8@@@v8@@@Z 0000000180014d90 f i _nodert_generated.obj
 0001:00013e40       ??$Unwrap@V?$ArrayWrapper@_W@Collections@NodeRT@@@ObjectWrap@Nan@@SAPEAV?$ArrayWrapper@_W@Collections@NodeRT@@V?$Local@VObject@v8@@@v8@@@Z 0000000180014e40 f i _nodert_generated.obj
 0001:00013ef0       ??$Unwrap@V?$IteratorWrapper@PE$AAUIWwwFormUrlDecoderEntry@Foundation@Windows@@@Collections@NodeRT@@@ObjectWrap@Nan@@SAPEAV?$IteratorWrapper@PE$AAUIWwwFormUrlDecoderEntry@Foundation@Windows@@@Collections@NodeRT@@V?$Local@VObject@v8@@@v8@@@Z 0000000180014ef0 f i _nodert_generated.obj
 0001:00013fa0       ??$Unwrap@VDeferral@Foundation@Windows@NodeRT@@@ObjectWrap@Nan@@SAPEAVDeferral@Foundation@Windows@NodeRT@@V?$Local@VObject@v8@@@v8@@@Z 0000000180014fa0 f i _nodert_generated.obj
 0001:00014050       ??$Unwrap@VIAsyncAction@Foundation@Windows@NodeRT@@@ObjectWrap@Nan@@SAPEAVIAsyncAction@Foundation@Windows@NodeRT@@V?$Local@VObject@v8@@@v8@@@Z 0000000180015050 f i _nodert_generated.obj
 0001:00014100       ??$Unwrap@VIAsyncInfo@Foundation@Windows@NodeRT@@@ObjectWrap@Nan@@SAPEAVIAsyncInfo@Foundation@Windows@NodeRT@@V?$Local@VObject@v8@@@v8@@@Z 0000000180015100 f i _nodert_generated.obj
 0001:000141b0       ??$Unwrap@VIGetActivationFactory@Foundation@Windows@NodeRT@@@ObjectWrap@Nan@@SAPEAVIGetActivationFactory@Foundation@Windows@NodeRT@@V?$Local@VObject@v8@@@v8@@@Z 00000001800151b0 f i _nodert_generated.obj
 0001:00014260       ??$Unwrap@VIMemoryBuffer@Foundation@Windows@NodeRT@@@ObjectWrap@Nan@@SAPEAVIMemoryBuffer@Foundation@Windows@NodeRT@@V?$Local@VObject@v8@@@v8@@@Z 0000000180015260 f i _nodert_generated.obj
 0001:00014310       ??$Unwrap@VIMemoryBufferReference@Foundation@Windows@NodeRT@@@ObjectWrap@Nan@@SAPEAVIMemoryBufferReference@Foundation@Windows@NodeRT@@V?$Local@VObject@v8@@@v8@@@Z 0000000180015310 f i _nodert_generated.obj
 0001:000143c0       ??$Unwrap@VIPropertyValue@Foundation@Windows@NodeRT@@@ObjectWrap@Nan@@SAPEAVIPropertyValue@Foundation@Windows@NodeRT@@V?$Local@VObject@v8@@@v8@@@Z 00000001800153c0 f i _nodert_generated.obj
 0001:00014470       ??$Unwrap@VIStringable@Foundation@Windows@NodeRT@@@ObjectWrap@Nan@@SAPEAVIStringable@Foundation@Windows@NodeRT@@V?$Local@VObject@v8@@@v8@@@Z 0000000180015470 f i _nodert_generated.obj
 0001:00014520       ??$Unwrap@VIWwwFormUrlDecoderEntry@Foundation@Windows@NodeRT@@@ObjectWrap@Nan@@SAPEAVIWwwFormUrlDecoderEntry@Foundation@Windows@NodeRT@@V?$Local@VObject@v8@@@v8@@@Z 0000000180015520 f i _nodert_generated.obj
 0001:000145d0       ??$Unwrap@VMemoryBuffer@Foundation@Windows@NodeRT@@@ObjectWrap@Nan@@SAPEAVMemoryBuffer@Foundation@Windows@NodeRT@@V?$Local@VObject@v8@@@v8@@@Z 00000001800155d0 f i _nodert_generated.obj
 0001:00014680       ??$Unwrap@VOpaqueWrapper@NodeRT@@@ObjectWrap@Nan@@SAPEAVOpaqueWrapper@NodeRT@@V?$Local@VObject@v8@@@v8@@@Z 0000000180015680 f i _nodert_generated.obj
 0001:00014730       ??$Unwrap@VPropertyValue@Foundation@Windows@NodeRT@@@ObjectWrap@Nan@@SAPEAVPropertyValue@Foundation@Windows@NodeRT@@V?$Local@VObject@v8@@@v8@@@Z 0000000180015730 f i _nodert_generated.obj
 0001:000147e0       ??$Unwrap@VUri@Foundation@Windows@NodeRT@@@ObjectWrap@Nan@@SAPEAVUri@Foundation@Windows@NodeRT@@V?$Local@VObject@v8@@@v8@@@Z 00000001800157e0 f i _nodert_generated.obj
 0001:00014890       ??$Unwrap@VWrapperBase@NodeRT@@@ObjectWrap@Nan@@SAPEAVWrapperBase@NodeRT@@V?$Local@VObject@v8@@@v8@@@Z 0000000180015890 f i _nodert_generated.obj
 0001:00014940       ??$Unwrap@VWwwFormUrlDecoder@Foundation@Windows@NodeRT@@@ObjectWrap@Nan@@SAPEAVWwwFormUrlDecoder@Foundation@Windows@NodeRT@@V?$Local@VObject@v8@@@v8@@@Z 0000000180015940 f i _nodert_generated.obj
 0001:000149f0       ??$Unwrap@VWwwFormUrlDecoderEntry@Foundation@Windows@NodeRT@@@ObjectWrap@Nan@@SAPEAVWwwFormUrlDecoderEntry@Foundation@Windows@NodeRT@@V?$Local@VObject@v8@@@v8@@@Z 00000001800159f0 f i _nodert_generated.obj
 0001:00014aa0       ??$_Invoke_ret@PE$AAVString@Platform@@AEAV<lambda_74ec8ac5a3b0c17e7f27f46e754c1be1>@@V?$Local@VValue@v8@@@v8@@@std@@YAPE$AAVString@Platform@@U?$_Forced@PE$AAVString@Platform@@$0A@@0@AEAV<lambda_74ec8ac5a3b0c17e7f27f46e754c1be1>@@$$QEAV?$Local@VValue@v8@@@v8@@@Z 0000000180015aa0 f i _nodert_generated.obj
 0001:00014b70       ??$_Invoke_ret@PE$AAVString@Platform@@AEAV<lambda_d38773f6115850a0f88ad40409222155>@@V?$Local@VValue@v8@@@v8@@@std@@YAPE$AAVString@Platform@@U?$_Forced@PE$AAVString@Platform@@$0A@@0@AEAV<lambda_d38773f6115850a0f88ad40409222155>@@$$QEAV?$Local@VValue@v8@@@v8@@@Z 0000000180015b70 f i _nodert_generated.obj
 0001:00014c40       ??$__abi_array_to_raw@EE$00@Details@Platform@@YAPEAEP$01E$ABV?$Array@E$00@1@@Z 0000000180015c40 f i _nodert_generated.obj
 0001:00014c50       ??$__abi_array_to_raw@FF$00@Details@Platform@@YAPEAFP$01E$ABV?$Array@F$00@1@@Z 0000000180015c50 f i _nodert_generated.obj
 0001:00014c60       ??$__abi_array_to_raw@GG$00@Details@Platform@@YAPEAGP$01E$ABV?$Array@G$00@1@@Z 0000000180015c60 f i _nodert_generated.obj
 0001:00014c70       ??$__abi_array_to_raw@HH$00@Details@Platform@@YAPEAHP$01E$ABV?$Array@H$00@1@@Z 0000000180015c70 f i _nodert_generated.obj
 0001:00014c80       ??$__abi_array_to_raw@II$00@Details@Platform@@YAPEAIP$01E$ABV?$Array@I$00@1@@Z 0000000180015c80 f i _nodert_generated.obj
 0001:00014c90       ??$__abi_array_to_raw@MM$00@Details@Platform@@YAPEAMP$01E$ABV?$Array@M$00@1@@Z 0000000180015c90 f i _nodert_generated.obj
 0001:00014ca0       ??$__abi_array_to_raw@NN$00@Details@Platform@@YAPEANP$01E$ABV?$Array@N$00@1@@Z 0000000180015ca0 f i _nodert_generated.obj
 0001:00014cb0       ??$__abi_array_to_raw@PE$AAVObject@Platform@@PE$AAV12@$00@Details@Platform@@YAPEAPE$AAVObject@1@P$01E$ABV?$Array@PE$AAVObject@Platform@@$00@1@@Z 0000000180015cb0 f i _nodert_generated.obj
 0001:00014cc0       ??$__abi_array_to_raw@PE$AAVString@Platform@@PE$AAV12@$00@Details@Platform@@YAPEAPE$AAVString@1@P$01E$ABV?$Array@PE$AAVString@Platform@@$00@1@@Z 0000000180015cc0 f i _nodert_generated.obj
 0001:00014cd0       ??$__abi_array_to_raw@VDateTime@Foundation@Windows@@V123@$00@Details@Platform@@YAPEAVDateTime@Foundation@Windows@@P$01E$ABV?$Array@VDateTime@Foundation@Windows@@$00@1@@Z 0000000180015cd0 f i _nodert_generated.obj
 0001:00014ce0       ??$__abi_array_to_raw@VGuid@Platform@@V12@$00@Details@Platform@@YAPEAVGuid@1@P$01E$ABV?$Array@VGuid@Platform@@$00@1@@Z 0000000180015ce0 f i _nodert_generated.obj
 0001:00014cf0       ??$__abi_array_to_raw@VPoint@Foundation@Windows@@V123@$00@Details@Platform@@YAPEAVPoint@Foundation@Windows@@P$01E$ABV?$Array@VPoint@Foundation@Windows@@$00@1@@Z 0000000180015cf0 f i _nodert_generated.obj
 0001:00014d00       ??$__abi_array_to_raw@VRect@Foundation@Windows@@V123@$00@Details@Platform@@YAPEAVRect@Foundation@Windows@@P$01E$ABV?$Array@VRect@Foundation@Windows@@$00@1@@Z 0000000180015d00 f i _nodert_generated.obj
 0001:00014d10       ??$__abi_array_to_raw@VSize@Foundation@Windows@@V123@$00@Details@Platform@@YAPEAVSize@Foundation@Windows@@P$01E$ABV?$Array@VSize@Foundation@Windows@@$00@1@@Z 0000000180015d10 f i _nodert_generated.obj
 0001:00014d20       ??$__abi_array_to_raw@VTimeSpan@Foundation@Windows@@V123@$00@Details@Platform@@YAPEAVTimeSpan@Foundation@Windows@@P$01E$ABV?$Array@VTimeSpan@Foundation@Windows@@$00@1@@Z 0000000180015d20 f i _nodert_generated.obj
 0001:00014d30       ??$__abi_array_to_raw@_J_J$00@Details@Platform@@YAPEA_JP$01E$ABV?$Array@_J$00@1@@Z 0000000180015d30 f i _nodert_generated.obj
 0001:00014d40       ??$__abi_array_to_raw@_K_K$00@Details@Platform@@YAPEA_KP$01E$ABV?$Array@_K$00@1@@Z 0000000180015d40 f i _nodert_generated.obj
 0001:00014d50       ??$__abi_array_to_raw@_N_N$00@Details@Platform@@YAPEA_NP$01E$ABV?$Array@_N$00@1@@Z 0000000180015d50 f i _nodert_generated.obj
 0001:00014d60       ??$__abi_array_to_raw@_W_W$00@Details@Platform@@YAPEA_WP$01E$ABV?$Array@_W$00@1@@Z 0000000180015d60 f i _nodert_generated.obj
 0001:00014d70       ??$__abi_create_box@E@@YAPE$AAV?$Box@E@Platform@@E@Z 0000000180015d70 f i _nodert_generated.obj
 0001:00014db0       ??$__abi_create_box@F@@YAPE$AAV?$Box@F@Platform@@F@Z 0000000180015db0 f i _nodert_generated.obj
 0001:00014df0       ??$__abi_create_box@G@@YAPE$AAV?$Box@G@Platform@@G@Z 0000000180015df0 f i _nodert_generated.obj
 0001:00014e30       ??$__abi_create_box@H@@YAPE$AAV?$Box@H@Platform@@H@Z 0000000180015e30 f i _nodert_generated.obj
 0001:00014e70       ??$__abi_create_box@I@@YAPE$AAV?$Box@I@Platform@@I@Z 0000000180015e70 f i _nodert_generated.obj
 0001:00014eb0       ??$__abi_create_box@M@@YAPE$AAV?$Box@M@Platform@@M@Z 0000000180015eb0 f i _nodert_generated.obj
 0001:00014ef0       ??$__abi_create_box@N@@YAPE$AAV?$Box@N@Platform@@N@Z 0000000180015ef0 f i _nodert_generated.obj
 0001:00014f30       ??$__abi_create_box@VDateTime@Foundation@Windows@@@@YAPE$AAV?$Box@VDateTime@Foundation@Windows@@@Platform@@VDateTime@Foundation@Windows@@@Z 0000000180015f30 f i _nodert_generated.obj
 0001:00014f70       ??$__abi_create_box@VGuid@Platform@@@@YAPE$AAV?$Box@VGuid@Platform@@@Platform@@VGuid@1@@Z 0000000180015f70 f i _nodert_generated.obj
 0001:00014fc0       ??$__abi_create_box@VPoint@Foundation@Windows@@@@YAPE$AAV?$Box@VPoint@Foundation@Windows@@@Platform@@VPoint@Foundation@Windows@@@Z 0000000180015fc0 f i _nodert_generated.obj
 0001:00015010       ??$__abi_create_box@VRect@Foundation@Windows@@@@YAPE$AAV?$Box@VRect@Foundation@Windows@@@Platform@@VRect@Foundation@Windows@@@Z 0000000180016010 f i _nodert_generated.obj
 0001:00015060       ??$__abi_create_box@VSize@Foundation@Windows@@@@YAPE$AAV?$Box@VSize@Foundation@Windows@@@Platform@@VSize@Foundation@Windows@@@Z 0000000180016060 f i _nodert_generated.obj
 0001:000150b0       ??$__abi_create_box@VTimeSpan@Foundation@Windows@@@@YAPE$AAV?$Box@VTimeSpan@Foundation@Windows@@@Platform@@VTimeSpan@Foundation@Windows@@@Z 00000001800160b0 f i _nodert_generated.obj
 0001:000150f0       ??$__abi_create_box@_J@@YAPE$AAV?$Box@_J@Platform@@_J@Z 00000001800160f0 f i _nodert_generated.obj
 0001:00015130       ??$__abi_create_box@_K@@YAPE$AAV?$Box@_K@Platform@@_K@Z 0000000180016130 f i _nodert_generated.obj
 0001:00015170       ??$__abi_create_box@_N@@YAPE$AAV?$Box@_N@Platform@@_N@Z 0000000180016170 f i _nodert_generated.obj
 0001:000151b0       ??$__abi_create_box@_W@@YAPE$AAV?$Box@_W@Platform@@_W@Z 00000001800161b0 f i _nodert_generated.obj
 0001:000151f0       ??$__abi_unbox@_J@@YA_JPE$AAVObject@Platform@@@Z 00000001800161f0 f i _nodert_generated.obj
 0001:00015280       ??$__abi_winrt_cast_from_object_to_delegate@VAsyncActionCompletedHandler@Foundation@Windows@@@@YAPE$AAVAsyncActionCompletedHandler@Foundation@Windows@@_NPE$AAVObject@Platform@@@Z 0000000180016280 f i _nodert_generated.obj
 0001:00015380       ??$__abi_winrt_cast_from_object_to_delegate@VDeferralCompletedHandler@Foundation@Windows@@@@YAPE$AAVDeferralCompletedHandler@Foundation@Windows@@_NPE$AAVObject@Platform@@@Z 0000000180016380 f i _nodert_generated.obj
 0001:00015480       ??$__abi_winrt_ptrto_array_assign@E$00@@YAPEAXPEAPEAXP$01E$ADV?$Array@E$00@Platform@@@Z 0000000180016480 f i _nodert_generated.obj
 0001:00015520       ??$__abi_winrt_ptrto_array_assign@F$00@@YAPEAXPEAPEAXP$01E$ADV?$Array@F$00@Platform@@@Z 0000000180016520 f i _nodert_generated.obj
 0001:000155c0       ??$__abi_winrt_ptrto_array_assign@G$00@@YAPEAXPEAPEAXP$01E$ADV?$Array@G$00@Platform@@@Z 00000001800165c0 f i _nodert_generated.obj
 0001:00015660       ??$__abi_winrt_ptrto_array_assign@H$00@@YAPEAXPEAPEAXP$01E$ADV?$Array@H$00@Platform@@@Z 0000000180016660 f i _nodert_generated.obj
 0001:00015700       ??$__abi_winrt_ptrto_array_assign@I$00@@YAPEAXPEAPEAXP$01E$ADV?$Array@I$00@Platform@@@Z 0000000180016700 f i _nodert_generated.obj
 0001:000157a0       ??$__abi_winrt_ptrto_array_assign@M$00@@YAPEAXPEAPEAXP$01E$ADV?$Array@M$00@Platform@@@Z 00000001800167a0 f i _nodert_generated.obj
 0001:00015840       ??$__abi_winrt_ptrto_array_assign@N$00@@YAPEAXPEAPEAXP$01E$ADV?$Array@N$00@Platform@@@Z 0000000180016840 f i _nodert_generated.obj
 0001:000158e0       ??$__abi_winrt_ptrto_array_assign@PE$AAVObject@Platform@@$00@@YAPEAXPEAPEAXP$01E$ADV?$Array@PE$AAVObject@Platform@@$00@Platform@@@Z 00000001800168e0 f i _nodert_generated.obj
 0001:00015980       ??$__abi_winrt_ptrto_array_assign@PE$AAVString@Platform@@$00@@YAPEAXPEAPEAXP$01E$ADV?$Array@PE$AAVString@Platform@@$00@Platform@@@Z 0000000180016980 f i _nodert_generated.obj
 0001:00015a20       ??$__abi_winrt_ptrto_array_assign@VDateTime@Foundation@Windows@@$00@@YAPEAXPEAPEAXP$01E$ADV?$Array@VDateTime@Foundation@Windows@@$00@Platform@@@Z 0000000180016a20 f i _nodert_generated.obj
 0001:00015ac0       ??$__abi_winrt_ptrto_array_assign@VGuid@Platform@@$00@@YAPEAXPEAPEAXP$01E$ADV?$Array@VGuid@Platform@@$00@Platform@@@Z 0000000180016ac0 f i _nodert_generated.obj
 0001:00015b60       ??$__abi_winrt_ptrto_array_assign@VPoint@Foundation@Windows@@$00@@YAPEAXPEAPEAXP$01E$ADV?$Array@VPoint@Foundation@Windows@@$00@Platform@@@Z 0000000180016b60 f i _nodert_generated.obj
 0001:00015c00       ??$__abi_winrt_ptrto_array_assign@VRect@Foundation@Windows@@$00@@YAPEAXPEAPEAXP$01E$ADV?$Array@VRect@Foundation@Windows@@$00@Platform@@@Z 0000000180016c00 f i _nodert_generated.obj
 0001:00015ca0       ??$__abi_winrt_ptrto_array_assign@VSize@Foundation@Windows@@$00@@YAPEAXPEAPEAXP$01E$ADV?$Array@VSize@Foundation@Windows@@$00@Platform@@@Z 0000000180016ca0 f i _nodert_generated.obj
 0001:00015d40       ??$__abi_winrt_ptrto_array_assign@VTimeSpan@Foundation@Windows@@$00@@YAPEAXPEAPEAXP$01E$ADV?$Array@VTimeSpan@Foundation@Windows@@$00@Platform@@@Z 0000000180016d40 f i _nodert_generated.obj
 0001:00015de0       ??$__abi_winrt_ptrto_array_assign@_J$00@@YAPEAXPEAPEAXP$01E$ADV?$Array@_J$00@Platform@@@Z 0000000180016de0 f i _nodert_generated.obj
 0001:00015e80       ??$__abi_winrt_ptrto_array_assign@_K$00@@YAPEAXPEAPEAXP$01E$ADV?$Array@_K$00@Platform@@@Z 0000000180016e80 f i _nodert_generated.obj
 0001:00015f20       ??$__abi_winrt_ptrto_array_assign@_N$00@@YAPEAXPEAPEAXP$01E$ADV?$Array@_N$00@Platform@@@Z 0000000180016f20 f i _nodert_generated.obj
 0001:00015fc0       ??$__abi_winrt_ptrto_array_assign@_W$00@@YAPEAXPEAPEAXP$01E$ADV?$Array@_W$00@Platform@@@Z 0000000180016fc0 f i _nodert_generated.obj
 0001:00016060       ??$__abi_winrt_ptrto_array_ctor@E$00@@YAPEAXQ$01E$ADV?$Array@E$00@Platform@@@Z 0000000180017060 f i _nodert_generated.obj
 0001:000160d0       ??$__abi_winrt_ptrto_array_ctor@F$00@@YAPEAXQ$01E$ADV?$Array@F$00@Platform@@@Z 00000001800170d0 f i _nodert_generated.obj
 0001:00016140       ??$__abi_winrt_ptrto_array_ctor@G$00@@YAPEAXQ$01E$ADV?$Array@G$00@Platform@@@Z 0000000180017140 f i _nodert_generated.obj
 0001:000161b0       ??$__abi_winrt_ptrto_array_ctor@H$00@@YAPEAXQ$01E$ADV?$Array@H$00@Platform@@@Z 00000001800171b0 f i _nodert_generated.obj
 0001:00016220       ??$__abi_winrt_ptrto_array_ctor@I$00@@YAPEAXQ$01E$ADV?$Array@I$00@Platform@@@Z 0000000180017220 f i _nodert_generated.obj
 0001:00016290       ??$__abi_winrt_ptrto_array_ctor@M$00@@YAPEAXQ$01E$ADV?$Array@M$00@Platform@@@Z 0000000180017290 f i _nodert_generated.obj
 0001:00016300       ??$__abi_winrt_ptrto_array_ctor@N$00@@YAPEAXQ$01E$ADV?$Array@N$00@Platform@@@Z 0000000180017300 f i _nodert_generated.obj
 0001:00016370       ??$__abi_winrt_ptrto_array_ctor@PE$AAVObject@Platform@@$00@@YAPEAXQ$01E$ADV?$Array@PE$AAVObject@Platform@@$00@Platform@@@Z 0000000180017370 f i _nodert_generated.obj
 0001:000163e0       ??$__abi_winrt_ptrto_array_ctor@PE$AAVString@Platform@@$00@@YAPEAXQ$01E$ADV?$Array@PE$AAVString@Platform@@$00@Platform@@@Z 00000001800173e0 f i _nodert_generated.obj
 0001:00016450       ??$__abi_winrt_ptrto_array_ctor@VDateTime@Foundation@Windows@@$00@@YAPEAXQ$01E$ADV?$Array@VDateTime@Foundation@Windows@@$00@Platform@@@Z 0000000180017450 f i _nodert_generated.obj
 0001:000164c0       ??$__abi_winrt_ptrto_array_ctor@VGuid@Platform@@$00@@YAPEAXQ$01E$ADV?$Array@VGuid@Platform@@$00@Platform@@@Z 00000001800174c0 f i _nodert_generated.obj
 0001:00016530       ??$__abi_winrt_ptrto_array_ctor@VPoint@Foundation@Windows@@$00@@YAPEAXQ$01E$ADV?$Array@VPoint@Foundation@Windows@@$00@Platform@@@Z 0000000180017530 f i _nodert_generated.obj
 0001:000165a0       ??$__abi_winrt_ptrto_array_ctor@VRect@Foundation@Windows@@$00@@YAPEAXQ$01E$ADV?$Array@VRect@Foundation@Windows@@$00@Platform@@@Z 00000001800175a0 f i _nodert_generated.obj
 0001:00016610       ??$__abi_winrt_ptrto_array_ctor@VSize@Foundation@Windows@@$00@@YAPEAXQ$01E$ADV?$Array@VSize@Foundation@Windows@@$00@Platform@@@Z 0000000180017610 f i _nodert_generated.obj
 0001:00016680       ??$__abi_winrt_ptrto_array_ctor@VTimeSpan@Foundation@Windows@@$00@@YAPEAXQ$01E$ADV?$Array@VTimeSpan@Foundation@Windows@@$00@Platform@@@Z 0000000180017680 f i _nodert_generated.obj
 0001:000166f0       ??$__abi_winrt_ptrto_array_ctor@_J$00@@YAPEAXQ$01E$ADV?$Array@_J$00@Platform@@@Z 00000001800176f0 f i _nodert_generated.obj
 0001:00016760       ??$__abi_winrt_ptrto_array_ctor@_K$00@@YAPEAXQ$01E$ADV?$Array@_K$00@Platform@@@Z 0000000180017760 f i _nodert_generated.obj
 0001:000167d0       ??$__abi_winrt_ptrto_array_ctor@_N$00@@YAPEAXQ$01E$ADV?$Array@_N$00@Platform@@@Z 00000001800177d0 f i _nodert_generated.obj
 0001:00016840       ??$__abi_winrt_ptrto_array_ctor@_W$00@@YAPEAXQ$01E$ADV?$Array@_W$00@Platform@@@Z 0000000180017840 f i _nodert_generated.obj
 0001:000168b0       ??$__abi_winrt_ptrto_delegate_dtor@V?$TypedEventHandler@PE$AAUIMemoryBufferReference@Foundation@Windows@@PE$AAVObject@Platform@@@Foundation@Windows@@@@YAXPE$ADV?$TypedEventHandler@PE$AAUIMemoryBufferReference@Foundation@Windows@@PE$AAVObject@Platform@@@Foundation@Windows@@@Z 00000001800178b0 f i _nodert_generated.obj
 0001:000168c0       ??$__abi_winrt_ptrto_delegate_dtor@VAsyncActionCompletedHandler@Foundation@Windows@@@@YAXPE$ADVAsyncActionCompletedHandler@Foundation@Windows@@@Z 00000001800178c0 f i _nodert_generated.obj
 0001:000168d0       ??$__abi_winrt_ptrto_delegate_dtor@VDeferralCompletedHandler@Foundation@Windows@@@@YAXPE$ADVDeferralCompletedHandler@Foundation@Windows@@@Z 00000001800178d0 f i _nodert_generated.obj
 0001:00016a20       ??0?$Array@E$00@Platform@@QE$AAA@I@Z 0000000180017a20 f i _nodert_generated.obj
 0001:00016b10       ??0?$Array@E$00@Platform@@QE$AAA@PEAEI@Z 0000000180017b10 f i _nodert_generated.obj
 0001:00016c00       ??0?$Array@F$00@Platform@@QE$AAA@I@Z 0000000180017c00 f i _nodert_generated.obj
 0001:00016cf0       ??0?$Array@F$00@Platform@@QE$AAA@PEAFI@Z 0000000180017cf0 f i _nodert_generated.obj
 0001:00016de0       ??0?$Array@G$00@Platform@@QE$AAA@I@Z 0000000180017de0 f i _nodert_generated.obj
 0001:00016ed0       ??0?$Array@G$00@Platform@@QE$AAA@PEAGI@Z 0000000180017ed0 f i _nodert_generated.obj
 0001:00016fc0       ??0?$Array@H$00@Platform@@QE$AAA@I@Z 0000000180017fc0 f i _nodert_generated.obj
 0001:000170b0       ??0?$Array@H$00@Platform@@QE$AAA@PEAHI@Z 00000001800180b0 f i _nodert_generated.obj
 0001:000171a0       ??0?$Array@I$00@Platform@@QE$AAA@I@Z 00000001800181a0 f i _nodert_generated.obj
 0001:00017290       ??0?$Array@I$00@Platform@@QE$AAA@PEAII@Z 0000000180018290 f i _nodert_generated.obj
 0001:00017380       ??0?$Array@M$00@Platform@@QE$AAA@I@Z 0000000180018380 f i _nodert_generated.obj
 0001:00017470       ??0?$Array@M$00@Platform@@QE$AAA@PEAMI@Z 0000000180018470 f i _nodert_generated.obj
 0001:00017560       ??0?$Array@N$00@Platform@@QE$AAA@I@Z 0000000180018560 f i _nodert_generated.obj
 0001:00017650       ??0?$Array@N$00@Platform@@QE$AAA@PEANI@Z 0000000180018650 f i _nodert_generated.obj
 0001:00017740       ??0?$Array@PE$AAVObject@Platform@@$00@Platform@@QE$AAA@I@Z 0000000180018740 f i _nodert_generated.obj
 0001:00017830       ??0?$Array@PE$AAVObject@Platform@@$00@Platform@@QE$AAA@PEAPE$AAVObject@1@I@Z 0000000180018830 f i _nodert_generated.obj
 0001:00017920       ??0?$Array@PE$AAVString@Platform@@$00@Platform@@QE$AAA@I@Z 0000000180018920 f i _nodert_generated.obj
 0001:00017a10       ??0?$Array@PE$AAVString@Platform@@$00@Platform@@QE$AAA@PEAPE$AAVString@1@I@Z 0000000180018a10 f i _nodert_generated.obj
 0001:00017b00       ??0?$Array@VDateTime@Foundation@Windows@@$00@Platform@@QE$AAA@I@Z 0000000180018b00 f i _nodert_generated.obj
 0001:00017bf0       ??0?$Array@VDateTime@Foundation@Windows@@$00@Platform@@QE$AAA@PEAVDateTime@Foundation@Windows@@I@Z 0000000180018bf0 f i _nodert_generated.obj
 0001:00017ce0       ??0?$Array@VGuid@Platform@@$00@Platform@@QE$AAA@I@Z 0000000180018ce0 f i _nodert_generated.obj
 0001:00017dd0       ??0?$Array@VGuid@Platform@@$00@Platform@@QE$AAA@PEAVGuid@1@I@Z 0000000180018dd0 f i _nodert_generated.obj
 0001:00017ec0       ??0?$Array@VPoint@Foundation@Windows@@$00@Platform@@QE$AAA@I@Z 0000000180018ec0 f i _nodert_generated.obj
 0001:00017fb0       ??0?$Array@VPoint@Foundation@Windows@@$00@Platform@@QE$AAA@PEAVPoint@Foundation@Windows@@I@Z 0000000180018fb0 f i _nodert_generated.obj
 0001:000180a0       ??0?$Array@VRect@Foundation@Windows@@$00@Platform@@QE$AAA@I@Z 00000001800190a0 f i _nodert_generated.obj
 0001:00018190       ??0?$Array@VRect@Foundation@Windows@@$00@Platform@@QE$AAA@PEAVRect@Foundation@Windows@@I@Z 0000000180019190 f i _nodert_generated.obj
 0001:00018280       ??0?$Array@VSize@Foundation@Windows@@$00@Platform@@QE$AAA@I@Z 0000000180019280 f i _nodert_generated.obj
 0001:00018370       ??0?$Array@VSize@Foundation@Windows@@$00@Platform@@QE$AAA@PEAVSize@Foundation@Windows@@I@Z 0000000180019370 f i _nodert_generated.obj
 0001:00018460       ??0?$Array@VTimeSpan@Foundation@Windows@@$00@Platform@@QE$AAA@I@Z 0000000180019460 f i _nodert_generated.obj
 0001:00018550       ??0?$Array@VTimeSpan@Foundation@Windows@@$00@Platform@@QE$AAA@PEAVTimeSpan@Foundation@Windows@@I@Z 0000000180019550 f i _nodert_generated.obj
 0001:00018640       ??0?$Array@_J$00@Platform@@QE$AAA@I@Z 0000000180019640 f i _nodert_generated.obj
 0001:00018730       ??0?$Array@_J$00@Platform@@QE$AAA@PEA_JI@Z 0000000180019730 f i _nodert_generated.obj
 0001:00018820       ??0?$Array@_K$00@Platform@@QE$AAA@I@Z 0000000180019820 f i _nodert_generated.obj
 0001:00018910       ??0?$Array@_K$00@Platform@@QE$AAA@PEA_KI@Z 0000000180019910 f i _nodert_generated.obj
 0001:00018a00       ??0?$Array@_N$00@Platform@@QE$AAA@I@Z 0000000180019a00 f i _nodert_generated.obj
 0001:00018af0       ??0?$Array@_N$00@Platform@@QE$AAA@PEA_NI@Z 0000000180019af0 f i _nodert_generated.obj
 0001:00018be0       ??0?$Array@_W$00@Platform@@QE$AAA@I@Z 0000000180019be0 f i _nodert_generated.obj
 0001:00018cd0       ??0?$Array@_W$00@Platform@@QE$AAA@PEA_WI@Z 0000000180019cd0 f i _nodert_generated.obj
 0001:00018dc0       ??0?$ArrayWrapper@E@Collections@NodeRT@@AEAA@P$01E$AAV?$Array@E$00@Platform@@AEBV?$function@$$A6A?AV?$Local@VValue@v8@@@v8@@E@Z@std@@AEBV?$function@$$A6A_NV?$Local@VValue@v8@@@v8@@@Z@6@AEBV?$function@$$A6AEV?$Local@VValue@v8@@@v8@@@Z@6@@Z 0000000180019dc0 f i _nodert_generated.obj
 0001:00018f10       ??0?$ArrayWrapper@F@Collections@NodeRT@@AEAA@P$01E$AAV?$Array@F$00@Platform@@AEBV?$function@$$A6A?AV?$Local@VValue@v8@@@v8@@F@Z@std@@AEBV?$function@$$A6A_NV?$Local@VValue@v8@@@v8@@@Z@6@AEBV?$function@$$A6AFV?$Local@VValue@v8@@@v8@@@Z@6@@Z 0000000180019f10 f i _nodert_generated.obj
 0001:00019060       ??0?$ArrayWrapper@G@Collections@NodeRT@@AEAA@P$01E$AAV?$Array@G$00@Platform@@AEBV?$function@$$A6A?AV?$Local@VValue@v8@@@v8@@G@Z@std@@AEBV?$function@$$A6A_NV?$Local@VValue@v8@@@v8@@@Z@6@AEBV?$function@$$A6AGV?$Local@VValue@v8@@@v8@@@Z@6@@Z 000000018001a060 f i _nodert_generated.obj
 0001:000191b0       ??0?$ArrayWrapper@H@Collections@NodeRT@@AEAA@P$01E$AAV?$Array@H$00@Platform@@AEBV?$function@$$A6A?AV?$Local@VValue@v8@@@v8@@H@Z@std@@AEBV?$function@$$A6A_NV?$Local@VValue@v8@@@v8@@@Z@6@AEBV?$function@$$A6AHV?$Local@VValue@v8@@@v8@@@Z@6@@Z 000000018001a1b0 f i _nodert_generated.obj
 0001:00019300       ??0?$ArrayWrapper@I@Collections@NodeRT@@AEAA@P$01E$AAV?$Array@I$00@Platform@@AEBV?$function@$$A6A?AV?$Local@VValue@v8@@@v8@@I@Z@std@@AEBV?$function@$$A6A_NV?$Local@VValue@v8@@@v8@@@Z@6@AEBV?$function@$$A6AIV?$Local@VValue@v8@@@v8@@@Z@6@@Z 000000018001a300 f i _nodert_generated.obj
 0001:00019450       ??0?$ArrayWrapper@M@Collections@NodeRT@@AEAA@P$01E$AAV?$Array@M$00@Platform@@AEBV?$function@$$A6A?AV?$Local@VValue@v8@@@v8@@M@Z@std@@AEBV?$function@$$A6A_NV?$Local@VValue@v8@@@v8@@@Z@6@AEBV?$function@$$A6AMV?$Local@VValue@v8@@@v8@@@Z@6@@Z 000000018001a450 f i _nodert_generated.obj
 0001:000195a0       ??0?$ArrayWrapper@N@Collections@NodeRT@@AEAA@P$01E$AAV?$Array@N$00@Platform@@AEBV?$function@$$A6A?AV?$Local@VValue@v8@@@v8@@N@Z@std@@AEBV?$function@$$A6A_NV?$Local@VValue@v8@@@v8@@@Z@6@AEBV?$function@$$A6ANV?$Local@VValue@v8@@@v8@@@Z@6@@Z 000000018001a5a0 f i _nodert_generated.obj
 0001:000196f0       ??0?$ArrayWrapper@PE$AAVObject@Platform@@@Collections@NodeRT@@AEAA@P$01E$AAV?$Array@PE$AAVObject@Platform@@$00@Platform@@AEBV?$function@$$A6A?AV?$Local@VValue@v8@@@v8@@PE$AAVObject@Platform@@@Z@std@@AEBV?$function@$$A6A_NV?$Local@VValue@v8@@@v8@@@Z@6@AEBV?$function@$$A6APE$AAVObject@Platform@@V?$Local@VValue@v8@@@v8@@@Z@6@@Z 000000018001a6f0 f i _nodert_generated.obj
 0001:00019840       ??0?$ArrayWrapper@PE$AAVString@Platform@@@Collections@NodeRT@@AEAA@P$01E$AAV?$Array@PE$AAVString@Platform@@$00@Platform@@AEBV?$function@$$A6A?AV?$Local@VValue@v8@@@v8@@PE$AAVString@Platform@@@Z@std@@AEBV?$function@$$A6A_NV?$Local@VValue@v8@@@v8@@@Z@6@AEBV?$function@$$A6APE$AAVString@Platform@@V?$Local@VValue@v8@@@v8@@@Z@6@@Z 000000018001a840 f i _nodert_generated.obj
 0001:00019990       ??0?$ArrayWrapper@VDateTime@Foundation@Windows@@@Collections@NodeRT@@AEAA@P$01E$AAV?$Array@VDateTime@Foundation@Windows@@$00@Platform@@AEBV?$function@$$A6A?AV?$Local@VValue@v8@@@v8@@VDateTime@Foundation@Windows@@@Z@std@@AEBV?$function@$$A6A_NV?$Local@VValue@v8@@@v8@@@Z@6@AEBV?$function@$$A6A?AVDateTime@Foundation@Windows@@V?$Local@VValue@v8@@@v8@@@Z@6@@Z 000000018001a990 f i _nodert_generated.obj
 0001:00019ae0       ??0?$ArrayWrapper@VGuid@Platform@@@Collections@NodeRT@@AEAA@P$01E$AAV?$Array@VGuid@Platform@@$00@Platform@@AEBV?$function@$$A6A?AV?$Local@VValue@v8@@@v8@@VGuid@Platform@@@Z@std@@AEBV?$function@$$A6A_NV?$Local@VValue@v8@@@v8@@@Z@6@AEBV?$function@$$A6A?AVGuid@Platform@@V?$Local@VValue@v8@@@v8@@@Z@6@@Z 000000018001aae0 f i _nodert_generated.obj
 0001:00019c30       ??0?$ArrayWrapper@VPoint@Foundation@Windows@@@Collections@NodeRT@@AEAA@P$01E$AAV?$Array@VPoint@Foundation@Windows@@$00@Platform@@AEBV?$function@$$A6A?AV?$Local@VValue@v8@@@v8@@VPoint@Foundation@Windows@@@Z@std@@AEBV?$function@$$A6A_NV?$Local@VValue@v8@@@v8@@@Z@6@AEBV?$function@$$A6A?AVPoint@Foundation@Windows@@V?$Local@VValue@v8@@@v8@@@Z@6@@Z 000000018001ac30 f i _nodert_generated.obj
 0001:00019d80       ??0?$ArrayWrapper@VRect@Foundation@Windows@@@Collections@NodeRT@@AEAA@P$01E$AAV?$Array@VRect@Foundation@Windows@@$00@Platform@@AEBV?$function@$$A6A?AV?$Local@VValue@v8@@@v8@@VRect@Foundation@Windows@@@Z@std@@AEBV?$function@$$A6A_NV?$Local@VValue@v8@@@v8@@@Z@6@AEBV?$function@$$A6A?AVRect@Foundation@Windows@@V?$Local@VValue@v8@@@v8@@@Z@6@@Z 000000018001ad80 f i _nodert_generated.obj
 0001:00019ed0       ??0?$ArrayWrapper@VSize@Foundation@Windows@@@Collections@NodeRT@@AEAA@P$01E$AAV?$Array@VSize@Foundation@Windows@@$00@Platform@@AEBV?$function@$$A6A?AV?$Local@VValue@v8@@@v8@@VSize@Foundation@Windows@@@Z@std@@AEBV?$function@$$A6A_NV?$Local@VValue@v8@@@v8@@@Z@6@AEBV?$function@$$A6A?AVSize@Foundation@Windows@@V?$Local@VValue@v8@@@v8@@@Z@6@@Z 000000018001aed0 f i _nodert_generated.obj
 0001:0001a020       ??0?$ArrayWrapper@VTimeSpan@Foundation@Windows@@@Collections@NodeRT@@AEAA@P$01E$AAV?$Array@VTimeSpan@Foundation@Windows@@$00@Platform@@AEBV?$function@$$A6A?AV?$Local@VValue@v8@@@v8@@VTimeSpan@Foundation@Windows@@@Z@std@@AEBV?$function@$$A6A_NV?$Local@VValue@v8@@@v8@@@Z@6@AEBV?$function@$$A6A?AVTimeSpan@Foundation@Windows@@V?$Local@VValue@v8@@@v8@@@Z@6@@Z 000000018001b020 f i _nodert_generated.obj
 0001:0001a170       ??0?$ArrayWrapper@_J@Collections@NodeRT@@AEAA@P$01E$AAV?$Array@_J$00@Platform@@AEBV?$function@$$A6A?AV?$Local@VValue@v8@@@v8@@_J@Z@std@@AEBV?$function@$$A6A_NV?$Local@VValue@v8@@@v8@@@Z@6@AEBV?$function@$$A6A_JV?$Local@VValue@v8@@@v8@@@Z@6@@Z 000000018001b170 f i _nodert_generated.obj
 0001:0001a2c0       ??0?$ArrayWrapper@_K@Collections@NodeRT@@AEAA@P$01E$AAV?$Array@_K$00@Platform@@AEBV?$function@$$A6A?AV?$Local@VValue@v8@@@v8@@_K@Z@std@@AEBV?$function@$$A6A_NV?$Local@VValue@v8@@@v8@@@Z@6@AEBV?$function@$$A6A_KV?$Local@VValue@v8@@@v8@@@Z@6@@Z 000000018001b2c0 f i _nodert_generated.obj
 0001:0001a410       ??0?$ArrayWrapper@_N@Collections@NodeRT@@AEAA@P$01E$AAV?$Array@_N$00@Platform@@AEBV?$function@$$A6A?AV?$Local@VValue@v8@@@v8@@_N@Z@std@@AEBV?$function@$$A6A_NV?$Local@VValue@v8@@@v8@@@Z@6@2@Z 000000018001b410 f i _nodert_generated.obj
 0001:0001a560       ??0?$ArrayWrapper@_W@Collections@NodeRT@@AEAA@P$01E$AAV?$Array@_W$00@Platform@@AEBV?$function@$$A6A?AV?$Local@VValue@v8@@@v8@@_W@Z@std@@AEBV?$function@$$A6A_NV?$Local@VValue@v8@@@v8@@@Z@6@AEBV?$function@$$A6A_WV?$Local@VValue@v8@@@v8@@@Z@6@@Z 000000018001b560 f i _nodert_generated.obj
 0001:0001a6b0       ??0?$Box@E@Platform@@QE$AAA@E@Z 000000018001b6b0 f i _nodert_generated.obj
 0001:0001a8b0       ??0?$Box@F@Platform@@QE$AAA@F@Z 000000018001b8b0 f i _nodert_generated.obj
 0001:0001aab0       ??0?$Box@G@Platform@@QE$AAA@G@Z 000000018001bab0 f i _nodert_generated.obj
 0001:0001acb0       ??0?$Box@H@Platform@@QE$AAA@H@Z 000000018001bcb0 f i _nodert_generated.obj
 0001:0001aeb0       ??0?$Box@I@Platform@@QE$AAA@I@Z 000000018001beb0 f i _nodert_generated.obj
 0001:0001b0b0       ??0?$Box@M@Platform@@QE$AAA@M@Z 000000018001c0b0 f i _nodert_generated.obj
 0001:0001b2b0       ??0?$Box@N@Platform@@QE$AAA@N@Z 000000018001c2b0 f i _nodert_generated.obj
 0001:0001b4b0       ??0?$Box@VDateTime@Foundation@Windows@@@Platform@@QE$AAA@VDateTime@Foundation@Windows@@@Z 000000018001c4b0 f i _nodert_generated.obj
 0001:0001b6b0       ??0?$Box@VGuid@Platform@@@Platform@@QE$AAA@VGuid@1@@Z 000000018001c6b0 f i _nodert_generated.obj
 0001:0001b8c0       ??0?$Box@VPoint@Foundation@Windows@@@Platform@@QE$AAA@VPoint@Foundation@Windows@@@Z 000000018001c8c0 f i _nodert_generated.obj
 0001:0001bac0       ??0?$Box@VRect@Foundation@Windows@@@Platform@@QE$AAA@VRect@Foundation@Windows@@@Z 000000018001cac0 f i _nodert_generated.obj
 0001:0001bcd0       ??0?$Box@VSize@Foundation@Windows@@@Platform@@QE$AAA@VSize@Foundation@Windows@@@Z 000000018001ccd0 f i _nodert_generated.obj
 0001:0001bed0       ??0?$Box@VTimeSpan@Foundation@Windows@@@Platform@@QE$AAA@VTimeSpan@Foundation@Windows@@@Z 000000018001ced0 f i _nodert_generated.obj
 0001:0001c0d0       ??0?$Box@_J@Platform@@QE$AAA@_J@Z 000000018001d0d0 f i _nodert_generated.obj
 0001:0001c2d0       ??0?$Box@_K@Platform@@QE$AAA@_K@Z 000000018001d2d0 f i _nodert_generated.obj
 0001:0001c4d0       ??0?$Box@_N@Platform@@QE$AAA@_N@Z 000000018001d4d0 f i _nodert_generated.obj
 0001:0001c6d0       ??0?$Box@_W@Platform@@QE$AAA@_W@Z 000000018001d6d0 f i _nodert_generated.obj
 0001:0001c8d0       ??0?$CustomBox@E@Details@Platform@@QE$AAA@E@Z 000000018001d8d0 f i _nodert_generated.obj
 0001:0001c9b0       ??0?$CustomBox@F@Details@Platform@@QE$AAA@F@Z 000000018001d9b0 f i _nodert_generated.obj
 0001:0001ca90       ??0?$CustomBox@G@Details@Platform@@QE$AAA@G@Z 000000018001da90 f i _nodert_generated.obj
 0001:0001cb70       ??0?$CustomBox@H@Details@Platform@@QE$AAA@H@Z 000000018001db70 f i _nodert_generated.obj
 0001:0001cc50       ??0?$CustomBox@I@Details@Platform@@QE$AAA@I@Z 000000018001dc50 f i _nodert_generated.obj
 0001:0001cd30       ??0?$CustomBox@M@Details@Platform@@QE$AAA@M@Z 000000018001dd30 f i _nodert_generated.obj
 0001:0001ce10       ??0?$CustomBox@N@Details@Platform@@QE$AAA@N@Z 000000018001de10 f i _nodert_generated.obj
 0001:0001cef0       ??0?$CustomBox@PE$AAVAsyncActionCompletedHandler@Foundation@Windows@@@Details@Platform@@QE$AAA@PE$AAVAsyncActionCompletedHandler@Foundation@Windows@@@Z 000000018001def0 f i _nodert_generated.obj
 0001:0001cfe0       ??0?$CustomBox@VDateTime@Foundation@Windows@@@Details@Platform@@QE$AAA@VDateTime@Foundation@Windows@@@Z 000000018001dfe0 f i _nodert_generated.obj
 0001:0001d0b0       ??0?$CustomBox@VGuid@Platform@@@Details@Platform@@QE$AAA@VGuid@2@@Z 000000018001e0b0 f i _nodert_generated.obj
 0001:0001d190       ??0?$CustomBox@VPoint@Foundation@Windows@@@Details@Platform@@QE$AAA@VPoint@Foundation@Windows@@@Z 000000018001e190 f i _nodert_generated.obj
 0001:0001d270       ??0?$CustomBox@VRect@Foundation@Windows@@@Details@Platform@@QE$AAA@VRect@Foundation@Windows@@@Z 000000018001e270 f i _nodert_generated.obj
 0001:0001d350       ??0?$CustomBox@VSize@Foundation@Windows@@@Details@Platform@@QE$AAA@VSize@Foundation@Windows@@@Z 000000018001e350 f i _nodert_generated.obj
 0001:0001d430       ??0?$CustomBox@VTimeSpan@Foundation@Windows@@@Details@Platform@@QE$AAA@VTimeSpan@Foundation@Windows@@@Z 000000018001e430 f i _nodert_generated.obj
 0001:0001d500       ??0?$CustomBox@_J@Details@Platform@@QE$AAA@_J@Z 000000018001e500 f i _nodert_generated.obj
 0001:0001d5e0       ??0?$CustomBox@_K@Details@Platform@@QE$AAA@_K@Z 000000018001e5e0 f i _nodert_generated.obj
 0001:0001d6c0       ??0?$CustomBox@_N@Details@Platform@@QE$AAA@_N@Z 000000018001e6c0 f i _nodert_generated.obj
 0001:0001d7a0       ??0?$CustomBox@_W@Details@Platform@@QE$AAA@_W@Z 000000018001e7a0 f i _nodert_generated.obj
 0001:0001d880       ??0?$IteratorWrapper@PE$AAUIWwwFormUrlDecoderEntry@Foundation@Windows@@@Collections@NodeRT@@AEAA@PE$AAU?$IIterator@PE$AAUIWwwFormUrlDecoderEntry@Foundation@Windows@@@1Foundation@Windows@@AEBV?$function@$$A6A?AV?$Local@VValue@v8@@@v8@@PE$AAUIWwwFormUrlDecoderEntry@Foundation@Windows@@@Z@std@@@Z 000000018001e880 f i _nodert_generated.obj
 0001:0001d930       ??0?$Local@VValue@v8@@@v8@@QEAA@XZ 000000018001e930 f i _nodert_generated.obj
 0001:0001d940       ??0?$WriteOnlyArray@E$00@Platform@@IE$AAA@I@Z 000000018001e940 f i _nodert_generated.obj
 0001:0001da50       ??0?$WriteOnlyArray@E$00@Platform@@IE$AAA@PEAEI@Z 000000018001ea50 f i _nodert_generated.obj
 0001:0001db40       ??0?$WriteOnlyArray@F$00@Platform@@IE$AAA@I@Z 000000018001eb40 f i _nodert_generated.obj
 0001:0001dc20       ??0?$WriteOnlyArray@F$00@Platform@@IE$AAA@PEAFI@Z 000000018001ec20 f i _nodert_generated.obj
 0001:0001dd10       ??0?$WriteOnlyArray@G$00@Platform@@IE$AAA@I@Z 000000018001ed10 f i _nodert_generated.obj
 0001:0001ddf0       ??0?$WriteOnlyArray@G$00@Platform@@IE$AAA@PEAGI@Z 000000018001edf0 f i _nodert_generated.obj
 0001:0001dee0       ??0?$WriteOnlyArray@H$00@Platform@@IE$AAA@I@Z 000000018001eee0 f i _nodert_generated.obj
 0001:0001dfc0       ??0?$WriteOnlyArray@H$00@Platform@@IE$AAA@PEAHI@Z 000000018001efc0 f i _nodert_generated.obj
 0001:0001e0b0       ??0?$WriteOnlyArray@I$00@Platform@@IE$AAA@I@Z 000000018001f0b0 f i _nodert_generated.obj
 0001:0001e190       ??0?$WriteOnlyArray@I$00@Platform@@IE$AAA@PEAII@Z 000000018001f190 f i _nodert_generated.obj
 0001:0001e280       ??0?$WriteOnlyArray@M$00@Platform@@IE$AAA@I@Z 000000018001f280 f i _nodert_generated.obj
 0001:0001e360       ??0?$WriteOnlyArray@M$00@Platform@@IE$AAA@PEAMI@Z 000000018001f360 f i _nodert_generated.obj
 0001:0001e450       ??0?$WriteOnlyArray@N$00@Platform@@IE$AAA@I@Z 000000018001f450 f i _nodert_generated.obj
 0001:0001e530       ??0?$WriteOnlyArray@N$00@Platform@@IE$AAA@PEANI@Z 000000018001f530 f i _nodert_generated.obj
 0001:0001e620       ??0?$WriteOnlyArray@PE$AAVObject@Platform@@$00@Platform@@IE$AAA@I@Z 000000018001f620 f i _nodert_generated.obj
 0001:0001e700       ??0?$WriteOnlyArray@PE$AAVObject@Platform@@$00@Platform@@IE$AAA@PEAPE$AAVObject@1@I@Z 000000018001f700 f i _nodert_generated.obj
 0001:0001e7f0       ??0?$WriteOnlyArray@PE$AAVString@Platform@@$00@Platform@@IE$AAA@I@Z 000000018001f7f0 f i _nodert_generated.obj
 0001:0001e8d0       ??0?$WriteOnlyArray@PE$AAVString@Platform@@$00@Platform@@IE$AAA@PEAPE$AAVString@1@I@Z 000000018001f8d0 f i _nodert_generated.obj
 0001:0001e9c0       ??0?$WriteOnlyArray@VDateTime@Foundation@Windows@@$00@Platform@@IE$AAA@I@Z 000000018001f9c0 f i _nodert_generated.obj
 0001:0001eaa0       ??0?$WriteOnlyArray@VDateTime@Foundation@Windows@@$00@Platform@@IE$AAA@PEAVDateTime@Foundation@Windows@@I@Z 000000018001faa0 f i _nodert_generated.obj
 0001:0001eb90       ??0?$WriteOnlyArray@VGuid@Platform@@$00@Platform@@IE$AAA@I@Z 000000018001fb90 f i _nodert_generated.obj
 0001:0001ec70       ??0?$WriteOnlyArray@VGuid@Platform@@$00@Platform@@IE$AAA@PEAVGuid@1@I@Z 000000018001fc70 f i _nodert_generated.obj
 0001:0001ed60       ??0?$WriteOnlyArray@VPoint@Foundation@Windows@@$00@Platform@@IE$AAA@I@Z 000000018001fd60 f i _nodert_generated.obj
 0001:0001ee40       ??0?$WriteOnlyArray@VPoint@Foundation@Windows@@$00@Platform@@IE$AAA@PEAVPoint@Foundation@Windows@@I@Z 000000018001fe40 f i _nodert_generated.obj
 0001:0001ef30       ??0?$WriteOnlyArray@VRect@Foundation@Windows@@$00@Platform@@IE$AAA@I@Z 000000018001ff30 f i _nodert_generated.obj
 0001:0001f010       ??0?$WriteOnlyArray@VRect@Foundation@Windows@@$00@Platform@@IE$AAA@PEAVRect@Foundation@Windows@@I@Z 0000000180020010 f i _nodert_generated.obj
 0001:0001f100       ??0?$WriteOnlyArray@VSize@Foundation@Windows@@$00@Platform@@IE$AAA@I@Z 0000000180020100 f i _nodert_generated.obj
 0001:0001f1e0       ??0?$WriteOnlyArray@VSize@Foundation@Windows@@$00@Platform@@IE$AAA@PEAVSize@Foundation@Windows@@I@Z 00000001800201e0 f i _nodert_generated.obj
 0001:0001f2d0       ??0?$WriteOnlyArray@VTimeSpan@Foundation@Windows@@$00@Platform@@IE$AAA@I@Z 00000001800202d0 f i _nodert_generated.obj
 0001:0001f3b0       ??0?$WriteOnlyArray@VTimeSpan@Foundation@Windows@@$00@Platform@@IE$AAA@PEAVTimeSpan@Foundation@Windows@@I@Z 00000001800203b0 f i _nodert_generated.obj
 0001:0001f4a0       ??0?$WriteOnlyArray@_J$00@Platform@@IE$AAA@I@Z 00000001800204a0 f i _nodert_generated.obj
 0001:0001f580       ??0?$WriteOnlyArray@_J$00@Platform@@IE$AAA@PEA_JI@Z 0000000180020580 f i _nodert_generated.obj
 0001:0001f670       ??0?$WriteOnlyArray@_K$00@Platform@@IE$AAA@I@Z 0000000180020670 f i _nodert_generated.obj
 0001:0001f750       ??0?$WriteOnlyArray@_K$00@Platform@@IE$AAA@PEA_KI@Z 0000000180020750 f i _nodert_generated.obj
 0001:0001f840       ??0?$WriteOnlyArray@_N$00@Platform@@IE$AAA@I@Z 0000000180020840 f i _nodert_generated.obj
 0001:0001f950       ??0?$WriteOnlyArray@_N$00@Platform@@IE$AAA@PEA_NI@Z 0000000180020950 f i _nodert_generated.obj
 0001:0001fa40       ??0?$WriteOnlyArray@_W$00@Platform@@IE$AAA@I@Z 0000000180020a40 f i _nodert_generated.obj
 0001:0001fb20       ??0?$WriteOnlyArray@_W$00@Platform@@IE$AAA@PEA_WI@Z 0000000180020b20 f i _nodert_generated.obj
 0001:0001fc10       ??0?$__abi_FunctorCapture@V<lambda_4c7fa631be439f28ed06a48699f7804a>@@XPE$AAUIMemoryBufferReference@Foundation@Windows@@PE$AAVObject@Platform@@@Details@Platform@@QEAA@V<lambda_4c7fa631be439f28ed06a48699f7804a>@@@Z 0000000180020c10 f i _nodert_generated.obj
 0001:0001fcd0       ??0Deferral@Foundation@Windows@@QE$AAA@PE$AAVDeferralCompletedHandler@12@@Z 0000000180020cd0 f i _nodert_generated.obj
 0001:0001fde0       ??0Deferral@Foundation@Windows@NodeRT@@AEAA@PE$AAV012@@Z 0000000180020de0 f i _nodert_generated.obj
 0001:0001fe70       ??0IAsyncAction@Foundation@Windows@NodeRT@@AEAA@PE$AAU012@@Z 0000000180020e70 f i _nodert_generated.obj
 0001:0001ff00       ??0IAsyncInfo@Foundation@Windows@NodeRT@@AEAA@PE$AAU012@@Z 0000000180020f00 f i _nodert_generated.obj
 0001:0001ff90       ??0IGetActivationFactory@Foundation@Windows@NodeRT@@AEAA@PE$AAU012@@Z 0000000180020f90 f i _nodert_generated.obj
 0001:00020020       ??0IMemoryBuffer@Foundation@Windows@NodeRT@@AEAA@PE$AAU012@@Z 0000000180021020 f i _nodert_generated.obj
 0001:000200b0       ??0IMemoryBufferReference@Foundation@Windows@NodeRT@@AEAA@PE$AAU012@@Z 00000001800210b0 f i _nodert_generated.obj
 0001:00020140       ??0IPropertyValue@Foundation@Windows@NodeRT@@AEAA@PE$AAU012@@Z 0000000180021140 f i _nodert_generated.obj
 0001:000201d0       ??0IStringable@Foundation@Windows@NodeRT@@AEAA@PE$AAU012@@Z 00000001800211d0 f i _nodert_generated.obj
 0001:00020260       ??0IWwwFormUrlDecoderEntry@Foundation@Windows@NodeRT@@AEAA@PE$AAU012@@Z 0000000180021260 f i _nodert_generated.obj
 0001:000202f0       ??0MemoryBuffer@Foundation@Windows@@QE$AAA@I@Z 00000001800212f0 f i _nodert_generated.obj
 0001:00020400       ??0MemoryBuffer@Foundation@Windows@NodeRT@@AEAA@PE$AAV012@@Z 0000000180021400 f i _nodert_generated.obj
 0001:00020490       ??0PropertyValue@Foundation@Windows@NodeRT@@AEAA@PE$AAV012@@Z 0000000180021490 f i _nodert_generated.obj
 0001:00020520       ??0String@Platform@@QE$AAA@PEB_W@Z 0000000180021520 f i _nodert_generated.obj
 0001:00020580       ??0Uri@Foundation@Windows@@QE$AAA@PE$AAVString@Platform@@0@Z 0000000180021580 f i _nodert_generated.obj
 0001:000206a0       ??0Uri@Foundation@Windows@@QE$AAA@PE$AAVString@Platform@@@Z 00000001800216a0 f i _nodert_generated.obj
 0001:000207b0       ??0Uri@Foundation@Windows@NodeRT@@AEAA@PE$AAV012@@Z 00000001800217b0 f i _nodert_generated.obj
 0001:00020840       ??0WwwFormUrlDecoder@Foundation@Windows@@QE$AAA@PE$AAVString@Platform@@@Z 0000000180021840 f i _nodert_generated.obj
 0001:00020950       ??0WwwFormUrlDecoder@Foundation@Windows@NodeRT@@AEAA@PE$AAV012@@Z 0000000180021950 f i _nodert_generated.obj
 0001:000209e0       ??0WwwFormUrlDecoderEntry@Foundation@Windows@NodeRT@@AEAA@PE$AAV012@@Z 00000001800219e0 f i _nodert_generated.obj
 0001:00020b80       ??1?$Array@E$00@Platform@@QE$AAA@XZ 0000000180021b80 f i _nodert_generated.obj
 0001:00020bd0       ??1?$Array@F$00@Platform@@QE$AAA@XZ 0000000180021bd0 f i _nodert_generated.obj
 0001:00020c20       ??1?$Array@G$00@Platform@@QE$AAA@XZ 0000000180021c20 f i _nodert_generated.obj
 0001:00020c70       ??1?$Array@H$00@Platform@@QE$AAA@XZ 0000000180021c70 f i _nodert_generated.obj
 0001:00020cc0       ??1?$Array@I$00@Platform@@QE$AAA@XZ 0000000180021cc0 f i _nodert_generated.obj
 0001:00020d10       ??1?$Array@M$00@Platform@@QE$AAA@XZ 0000000180021d10 f i _nodert_generated.obj
 0001:00020d60       ??1?$Array@N$00@Platform@@QE$AAA@XZ 0000000180021d60 f i _nodert_generated.obj
 0001:00020db0       ??1?$Array@PE$AAVObject@Platform@@$00@Platform@@QE$AAA@XZ 0000000180021db0 f i _nodert_generated.obj
 0001:00020dd0       ??1?$Array@PE$AAVString@Platform@@$00@Platform@@QE$AAA@XZ 0000000180021dd0 f i _nodert_generated.obj
 0001:00020df0       ??1?$Array@VDateTime@Foundation@Windows@@$00@Platform@@QE$AAA@XZ 0000000180021df0 f i _nodert_generated.obj
 0001:00020e40       ??1?$Array@VGuid@Platform@@$00@Platform@@QE$AAA@XZ 0000000180021e40 f i _nodert_generated.obj
 0001:00020e90       ??1?$Array@VPoint@Foundation@Windows@@$00@Platform@@QE$AAA@XZ 0000000180021e90 f i _nodert_generated.obj
 0001:00020ee0       ??1?$Array@VRect@Foundation@Windows@@$00@Platform@@QE$AAA@XZ 0000000180021ee0 f i _nodert_generated.obj
 0001:00020f30       ??1?$Array@VSize@Foundation@Windows@@$00@Platform@@QE$AAA@XZ 0000000180021f30 f i _nodert_generated.obj
 0001:00020f80       ??1?$Array@VTimeSpan@Foundation@Windows@@$00@Platform@@QE$AAA@XZ 0000000180021f80 f i _nodert_generated.obj
 0001:00020fd0       ??1?$Array@_J$00@Platform@@QE$AAA@XZ 0000000180021fd0 f i _nodert_generated.obj
 0001:00021020       ??1?$Array@_K$00@Platform@@QE$AAA@XZ 0000000180022020 f i _nodert_generated.obj
 0001:00021070       ??1?$Array@_N$00@Platform@@QE$AAA@XZ 0000000180022070 f i _nodert_generated.obj
 0001:000210c0       ??1?$Array@_W$00@Platform@@QE$AAA@XZ 00000001800220c0 f i _nodert_generated.obj
 0001:00021110       ??1?$ArrayWrapper@E@Collections@NodeRT@@UEAA@XZ 0000000180022110 f i _nodert_generated.obj
 0001:000211e0       ??1?$ArrayWrapper@F@Collections@NodeRT@@UEAA@XZ 00000001800221e0 f i _nodert_generated.obj
 0001:000212b0       ??1?$ArrayWrapper@G@Collections@NodeRT@@UEAA@XZ 00000001800222b0 f i _nodert_generated.obj
 0001:00021380       ??1?$ArrayWrapper@H@Collections@NodeRT@@UEAA@XZ 0000000180022380 f i _nodert_generated.obj
 0001:00021450       ??1?$ArrayWrapper@I@Collections@NodeRT@@UEAA@XZ 0000000180022450 f i _nodert_generated.obj
 0001:00021520       ??1?$ArrayWrapper@M@Collections@NodeRT@@UEAA@XZ 0000000180022520 f i _nodert_generated.obj
 0001:000215f0       ??1?$ArrayWrapper@N@Collections@NodeRT@@UEAA@XZ 00000001800225f0 f i _nodert_generated.obj
 0001:000216c0       ??1?$ArrayWrapper@PE$AAVObject@Platform@@@Collections@NodeRT@@UEAA@XZ 00000001800226c0 f i _nodert_generated.obj
 0001:00021790       ??1?$ArrayWrapper@PE$AAVString@Platform@@@Collections@NodeRT@@UEAA@XZ 0000000180022790 f i _nodert_generated.obj
 0001:00021860       ??1?$ArrayWrapper@VDateTime@Foundation@Windows@@@Collections@NodeRT@@UEAA@XZ 0000000180022860 f i _nodert_generated.obj
 0001:00021930       ??1?$ArrayWrapper@VGuid@Platform@@@Collections@NodeRT@@UEAA@XZ 0000000180022930 f i _nodert_generated.obj
 0001:00021a00       ??1?$ArrayWrapper@VPoint@Foundation@Windows@@@Collections@NodeRT@@UEAA@XZ 0000000180022a00 f i _nodert_generated.obj
 0001:00021ad0       ??1?$ArrayWrapper@VRect@Foundation@Windows@@@Collections@NodeRT@@UEAA@XZ 0000000180022ad0 f i _nodert_generated.obj
 0001:00021ba0       ??1?$ArrayWrapper@VSize@Foundation@Windows@@@Collections@NodeRT@@UEAA@XZ 0000000180022ba0 f i _nodert_generated.obj
 0001:00021c70       ??1?$ArrayWrapper@VTimeSpan@Foundation@Windows@@@Collections@NodeRT@@UEAA@XZ 0000000180022c70 f i _nodert_generated.obj
 0001:00021d40       ??1?$ArrayWrapper@_J@Collections@NodeRT@@UEAA@XZ 0000000180022d40 f i _nodert_generated.obj
 0001:00021e10       ??1?$ArrayWrapper@_K@Collections@NodeRT@@UEAA@XZ 0000000180022e10 f i _nodert_generated.obj
 0001:00021ee0       ??1?$ArrayWrapper@_N@Collections@NodeRT@@UEAA@XZ 0000000180022ee0 f i _nodert_generated.obj
 0001:00021fb0       ??1?$ArrayWrapper@_W@Collections@NodeRT@@UEAA@XZ 0000000180022fb0 f i _nodert_generated.obj
 0001:00022080       ??1?$WriteOnlyArray@E$00@Platform@@QE$AAA@XZ 0000000180023080 f i _nodert_generated.obj
 0001:000220c0       ??1?$WriteOnlyArray@F$00@Platform@@QE$AAA@XZ 00000001800230c0 f i _nodert_generated.obj
 0001:00022100       ??1?$WriteOnlyArray@G$00@Platform@@QE$AAA@XZ 0000000180023100 f i _nodert_generated.obj
 0001:00022140       ??1?$WriteOnlyArray@H$00@Platform@@QE$AAA@XZ 0000000180023140 f i _nodert_generated.obj
 0001:00022180       ??1?$WriteOnlyArray@I$00@Platform@@QE$AAA@XZ 0000000180023180 f i _nodert_generated.obj
 0001:000221c0       ??1?$WriteOnlyArray@M$00@Platform@@QE$AAA@XZ 00000001800231c0 f i _nodert_generated.obj
 0001:00022200       ??1?$WriteOnlyArray@N$00@Platform@@QE$AAA@XZ 0000000180023200 f i _nodert_generated.obj
 0001:00022240       ??1?$WriteOnlyArray@PE$AAVObject@Platform@@$00@Platform@@QE$AAA@XZ 0000000180023240 f i _nodert_generated.obj
 0001:000222e0       ??1?$WriteOnlyArray@PE$AAVString@Platform@@$00@Platform@@QE$AAA@XZ 00000001800232e0 f i _nodert_generated.obj
 0001:00022370       ??1?$WriteOnlyArray@VDateTime@Foundation@Windows@@$00@Platform@@QE$AAA@XZ 0000000180023370 f i _nodert_generated.obj
 0001:000223b0       ??1?$WriteOnlyArray@VGuid@Platform@@$00@Platform@@QE$AAA@XZ 00000001800233b0 f i _nodert_generated.obj
 0001:000223f0       ??1?$WriteOnlyArray@VPoint@Foundation@Windows@@$00@Platform@@QE$AAA@XZ 00000001800233f0 f i _nodert_generated.obj
 0001:00022430       ??1?$WriteOnlyArray@VRect@Foundation@Windows@@$00@Platform@@QE$AAA@XZ 0000000180023430 f i _nodert_generated.obj
 0001:00022470       ??1?$WriteOnlyArray@VSize@Foundation@Windows@@$00@Platform@@QE$AAA@XZ 0000000180023470 f i _nodert_generated.obj
 0001:000224b0       ??1?$WriteOnlyArray@VTimeSpan@Foundation@Windows@@$00@Platform@@QE$AAA@XZ 00000001800234b0 f i _nodert_generated.obj
 0001:000224f0       ??1?$WriteOnlyArray@_J$00@Platform@@QE$AAA@XZ 00000001800234f0 f i _nodert_generated.obj
 0001:00022530       ??1?$WriteOnlyArray@_K$00@Platform@@QE$AAA@XZ 0000000180023530 f i _nodert_generated.obj
 0001:00022570       ??1?$WriteOnlyArray@_N$00@Platform@@QE$AAA@XZ 0000000180023570 f i _nodert_generated.obj
 0001:000225b0       ??1?$WriteOnlyArray@_W$00@Platform@@QE$AAA@XZ 00000001800235b0 f i _nodert_generated.obj
 0001:000225f0       ??1?$_Func_class@EV?$Local@VValue@v8@@@v8@@@std@@QEAA@XZ 00000001800235f0 f i _nodert_generated.obj
 0001:00022630       ??1?$_Func_class@FV?$Local@VValue@v8@@@v8@@@std@@QEAA@XZ 0000000180023630 f i _nodert_generated.obj
 0001:00022670       ??1?$_Func_class@GV?$Local@VValue@v8@@@v8@@@std@@QEAA@XZ 0000000180023670 f i _nodert_generated.obj
 0001:000226b0       ??1?$_Func_class@HV?$Local@VValue@v8@@@v8@@@std@@QEAA@XZ 00000001800236b0 f i _nodert_generated.obj
 0001:000226f0       ??1?$_Func_class@IV?$Local@VValue@v8@@@v8@@@std@@QEAA@XZ 00000001800236f0 f i _nodert_generated.obj
 0001:00022730       ??1?$_Func_class@MV?$Local@VValue@v8@@@v8@@@std@@QEAA@XZ 0000000180023730 f i _nodert_generated.obj
 0001:00022770       ??1?$_Func_class@NV?$Local@VValue@v8@@@v8@@@std@@QEAA@XZ 0000000180023770 f i _nodert_generated.obj
 0001:000227b0       ??1?$_Func_class@PE$AAVObject@Platform@@V?$Local@VValue@v8@@@v8@@@std@@QEAA@XZ 00000001800237b0 f i _nodert_generated.obj
 0001:000227f0       ??1?$_Func_class@PE$AAVString@Platform@@V?$Local@VValue@v8@@@v8@@@std@@QEAA@XZ 00000001800237f0 f i _nodert_generated.obj
 0001:00022830       ??1?$_Func_class@V?$Local@VValue@v8@@@v8@@E@std@@QEAA@XZ 0000000180023830 f i _nodert_generated.obj
 0001:00022870       ??1?$_Func_class@V?$Local@VValue@v8@@@v8@@F@std@@QEAA@XZ 0000000180023870 f i _nodert_generated.obj
 0001:000228b0       ??1?$_Func_class@V?$Local@VValue@v8@@@v8@@G@std@@QEAA@XZ 00000001800238b0 f i _nodert_generated.obj
 0001:000228f0       ??1?$_Func_class@V?$Local@VValue@v8@@@v8@@H@std@@QEAA@XZ 00000001800238f0 f i _nodert_generated.obj
 0001:00022930       ??1?$_Func_class@V?$Local@VValue@v8@@@v8@@I@std@@QEAA@XZ 0000000180023930 f i _nodert_generated.obj
 0001:00022970       ??1?$_Func_class@V?$Local@VValue@v8@@@v8@@M@std@@QEAA@XZ 0000000180023970 f i _nodert_generated.obj
 0001:000229b0       ??1?$_Func_class@V?$Local@VValue@v8@@@v8@@N@std@@QEAA@XZ 00000001800239b0 f i _nodert_generated.obj
 0001:000229f0       ??1?$_Func_class@V?$Local@VValue@v8@@@v8@@PE$AAUIWwwFormUrlDecoderEntry@Foundation@Windows@@@std@@QEAA@XZ 00000001800239f0 f i _nodert_generated.obj
 0001:00022a30       ??1?$_Func_class@V?$Local@VValue@v8@@@v8@@PE$AAVObject@Platform@@@std@@QEAA@XZ 0000000180023a30 f i _nodert_generated.obj
 0001:00022a70       ??1?$_Func_class@V?$Local@VValue@v8@@@v8@@PE$AAVString@Platform@@@std@@QEAA@XZ 0000000180023a70 f i _nodert_generated.obj
 0001:00022ab0       ??1?$_Func_class@V?$Local@VValue@v8@@@v8@@VDateTime@Foundation@Windows@@@std@@QEAA@XZ 0000000180023ab0 f i _nodert_generated.obj
 0001:00022af0       ??1?$_Func_class@V?$Local@VValue@v8@@@v8@@VGuid@Platform@@@std@@QEAA@XZ 0000000180023af0 f i _nodert_generated.obj
 0001:00022b30       ??1?$_Func_class@V?$Local@VValue@v8@@@v8@@VPoint@Foundation@Windows@@@std@@QEAA@XZ 0000000180023b30 f i _nodert_generated.obj
 0001:00022b70       ??1?$_Func_class@V?$Local@VValue@v8@@@v8@@VRect@Foundation@Windows@@@std@@QEAA@XZ 0000000180023b70 f i _nodert_generated.obj
 0001:00022bb0       ??1?$_Func_class@V?$Local@VValue@v8@@@v8@@VSize@Foundation@Windows@@@std@@QEAA@XZ 0000000180023bb0 f i _nodert_generated.obj
 0001:00022bf0       ??1?$_Func_class@V?$Local@VValue@v8@@@v8@@VTimeSpan@Foundation@Windows@@@std@@QEAA@XZ 0000000180023bf0 f i _nodert_generated.obj
 0001:00022c30       ??1?$_Func_class@V?$Local@VValue@v8@@@v8@@_J@std@@QEAA@XZ 0000000180023c30 f i _nodert_generated.obj
 0001:00022c70       ??1?$_Func_class@V?$Local@VValue@v8@@@v8@@_K@std@@QEAA@XZ 0000000180023c70 f i _nodert_generated.obj
 0001:00022cb0       ??1?$_Func_class@V?$Local@VValue@v8@@@v8@@_N@std@@QEAA@XZ 0000000180023cb0 f i _nodert_generated.obj
 0001:00022cf0       ??1?$_Func_class@V?$Local@VValue@v8@@@v8@@_W@std@@QEAA@XZ 0000000180023cf0 f i _nodert_generated.obj
 0001:00022d30       ??1?$_Func_class@VDateTime@Foundation@Windows@@V?$Local@VValue@v8@@@v8@@@std@@QEAA@XZ 0000000180023d30 f i _nodert_generated.obj
 0001:00022d70       ??1?$_Func_class@VGuid@Platform@@V?$Local@VValue@v8@@@v8@@@std@@QEAA@XZ 0000000180023d70 f i _nodert_generated.obj
 0001:00022db0       ??1?$_Func_class@VPoint@Foundation@Windows@@V?$Local@VValue@v8@@@v8@@@std@@QEAA@XZ 0000000180023db0 f i _nodert_generated.obj
 0001:00022df0       ??1?$_Func_class@VRect@Foundation@Windows@@V?$Local@VValue@v8@@@v8@@@std@@QEAA@XZ 0000000180023df0 f i _nodert_generated.obj
 0001:00022e30       ??1?$_Func_class@VSize@Foundation@Windows@@V?$Local@VValue@v8@@@v8@@@std@@QEAA@XZ 0000000180023e30 f i _nodert_generated.obj
 0001:00022e70       ??1?$_Func_class@VTimeSpan@Foundation@Windows@@V?$Local@VValue@v8@@@v8@@@std@@QEAA@XZ 0000000180023e70 f i _nodert_generated.obj
 0001:00022eb0       ??1?$_Func_class@X$$V@std@@QEAA@XZ 0000000180023eb0 f i _nodert_generated.obj
 0001:00022ef0       ??1?$_Func_class@_JV?$Local@VValue@v8@@@v8@@@std@@QEAA@XZ 0000000180023ef0 f i _nodert_generated.obj
 0001:00022f30       ??1?$_Func_class@_KV?$Local@VValue@v8@@@v8@@@std@@QEAA@XZ 0000000180023f30 f i _nodert_generated.obj
 0001:00022f70       ??1?$_Func_class@_NV?$Local@VValue@v8@@@v8@@@std@@QEAA@XZ 0000000180023f70 f i _nodert_generated.obj
 0001:00022fb0       ??1?$_Func_class@_WV?$Local@VValue@v8@@@v8@@@std@@QEAA@XZ 0000000180023fb0 f i _nodert_generated.obj
 0001:00022ff0       ??1?$__abi_FunctorCapture@V<lambda_4c7fa631be439f28ed06a48699f7804a>@@XPE$AAUIMemoryBufferReference@Foundation@Windows@@PE$AAVObject@Platform@@@Details@Platform@@UEAA@XZ 0000000180023ff0 f i _nodert_generated.obj
 0001:00023090       ??1?$function@$$A6A?AV?$Local@VValue@v8@@@v8@@E@Z@std@@QEAA@XZ 0000000180024090 f i _nodert_generated.obj
 0001:000230d0       ??1?$function@$$A6A?AV?$Local@VValue@v8@@@v8@@F@Z@std@@QEAA@XZ 00000001800240d0 f i _nodert_generated.obj
 0001:00023110       ??1?$function@$$A6A?AV?$Local@VValue@v8@@@v8@@G@Z@std@@QEAA@XZ 0000000180024110 f i _nodert_generated.obj
 0001:00023150       ??1?$function@$$A6A?AV?$Local@VValue@v8@@@v8@@H@Z@std@@QEAA@XZ 0000000180024150 f i _nodert_generated.obj
 0001:00023190       ??1?$function@$$A6A?AV?$Local@VValue@v8@@@v8@@I@Z@std@@QEAA@XZ 0000000180024190 f i _nodert_generated.obj
 0001:000231d0       ??1?$function@$$A6A?AV?$Local@VValue@v8@@@v8@@M@Z@std@@QEAA@XZ 00000001800241d0 f i _nodert_generated.obj
 0001:00023210       ??1?$function@$$A6A?AV?$Local@VValue@v8@@@v8@@N@Z@std@@QEAA@XZ 0000000180024210 f i _nodert_generated.obj
 0001:00023250       ??1?$function@$$A6A?AV?$Local@VValue@v8@@@v8@@PE$AAUIWwwFormUrlDecoderEntry@Foundation@Windows@@@Z@std@@QEAA@XZ 0000000180024250 f i _nodert_generated.obj
 0001:00023290       ??1?$function@$$A6A?AV?$Local@VValue@v8@@@v8@@PE$AAVObject@Platform@@@Z@std@@QEAA@XZ 0000000180024290 f i _nodert_generated.obj
 0001:000232d0       ??1?$function@$$A6A?AV?$Local@VValue@v8@@@v8@@PE$AAVString@Platform@@@Z@std@@QEAA@XZ 00000001800242d0 f i _nodert_generated.obj
 0001:00023310       ??1?$function@$$A6A?AV?$Local@VValue@v8@@@v8@@VDateTime@Foundation@Windows@@@Z@std@@QEAA@XZ 0000000180024310 f i _nodert_generated.obj
 0001:00023350       ??1?$function@$$A6A?AV?$Local@VValue@v8@@@v8@@VGuid@Platform@@@Z@std@@QEAA@XZ 0000000180024350 f i _nodert_generated.obj
 0001:00023390       ??1?$function@$$A6A?AV?$Local@VValue@v8@@@v8@@VPoint@Foundation@Windows@@@Z@std@@QEAA@XZ 0000000180024390 f i _nodert_generated.obj
 0001:000233d0       ??1?$function@$$A6A?AV?$Local@VValue@v8@@@v8@@VRect@Foundation@Windows@@@Z@std@@QEAA@XZ 00000001800243d0 f i _nodert_generated.obj
 0001:00023410       ??1?$function@$$A6A?AV?$Local@VValue@v8@@@v8@@VSize@Foundation@Windows@@@Z@std@@QEAA@XZ 0000000180024410 f i _nodert_generated.obj
 0001:00023450       ??1?$function@$$A6A?AV?$Local@VValue@v8@@@v8@@VTimeSpan@Foundation@Windows@@@Z@std@@QEAA@XZ 0000000180024450 f i _nodert_generated.obj
 0001:00023490       ??1?$function@$$A6A?AV?$Local@VValue@v8@@@v8@@_J@Z@std@@QEAA@XZ 0000000180024490 f i _nodert_generated.obj
 0001:000234d0       ??1?$function@$$A6A?AV?$Local@VValue@v8@@@v8@@_K@Z@std@@QEAA@XZ 00000001800244d0 f i _nodert_generated.obj
 0001:00023510       ??1?$function@$$A6A?AV?$Local@VValue@v8@@@v8@@_N@Z@std@@QEAA@XZ 0000000180024510 f i _nodert_generated.obj
 0001:00023550       ??1?$function@$$A6A?AV?$Local@VValue@v8@@@v8@@_W@Z@std@@QEAA@XZ 0000000180024550 f i _nodert_generated.obj
 0001:00023590       ??1?$function@$$A6A?AVDateTime@Foundation@Windows@@V?$Local@VValue@v8@@@v8@@@Z@std@@QEAA@XZ 0000000180024590 f i _nodert_generated.obj
 0001:000235d0       ??1?$function@$$A6A?AVGuid@Platform@@V?$Local@VValue@v8@@@v8@@@Z@std@@QEAA@XZ 00000001800245d0 f i _nodert_generated.obj
 0001:00023610       ??1?$function@$$A6A?AVPoint@Foundation@Windows@@V?$Local@VValue@v8@@@v8@@@Z@std@@QEAA@XZ 0000000180024610 f i _nodert_generated.obj
 0001:00023650       ??1?$function@$$A6A?AVRect@Foundation@Windows@@V?$Local@VValue@v8@@@v8@@@Z@std@@QEAA@XZ 0000000180024650 f i _nodert_generated.obj
 0001:00023690       ??1?$function@$$A6A?AVSize@Foundation@Windows@@V?$Local@VValue@v8@@@v8@@@Z@std@@QEAA@XZ 0000000180024690 f i _nodert_generated.obj
 0001:000236d0       ??1?$function@$$A6A?AVTimeSpan@Foundation@Windows@@V?$Local@VValue@v8@@@v8@@@Z@std@@QEAA@XZ 00000001800246d0 f i _nodert_generated.obj
 0001:00023710       ??1?$function@$$A6AEV?$Local@VValue@v8@@@v8@@@Z@std@@QEAA@XZ 0000000180024710 f i _nodert_generated.obj
 0001:00023750       ??1?$function@$$A6AFV?$Local@VValue@v8@@@v8@@@Z@std@@QEAA@XZ 0000000180024750 f i _nodert_generated.obj
 0001:00023790       ??1?$function@$$A6AGV?$Local@VValue@v8@@@v8@@@Z@std@@QEAA@XZ 0000000180024790 f i _nodert_generated.obj
 0001:000237d0       ??1?$function@$$A6AHV?$Local@VValue@v8@@@v8@@@Z@std@@QEAA@XZ 00000001800247d0 f i _nodert_generated.obj
 0001:00023810       ??1?$function@$$A6AIV?$Local@VValue@v8@@@v8@@@Z@std@@QEAA@XZ 0000000180024810 f i _nodert_generated.obj
 0001:00023850       ??1?$function@$$A6AMV?$Local@VValue@v8@@@v8@@@Z@std@@QEAA@XZ 0000000180024850 f i _nodert_generated.obj
 0001:00023890       ??1?$function@$$A6ANV?$Local@VValue@v8@@@v8@@@Z@std@@QEAA@XZ 0000000180024890 f i _nodert_generated.obj
 0001:000238d0       ??1?$function@$$A6APE$AAVObject@Platform@@V?$Local@VValue@v8@@@v8@@@Z@std@@QEAA@XZ 00000001800248d0 f i _nodert_generated.obj
 0001:00023910       ??1?$function@$$A6APE$AAVString@Platform@@V?$Local@VValue@v8@@@v8@@@Z@std@@QEAA@XZ 0000000180024910 f i _nodert_generated.obj
 0001:00023950       ??1?$function@$$A6AXXZ@std@@QEAA@XZ 0000000180024950 f i _nodert_generated.obj
 0001:00023990       ??1?$function@$$A6A_JV?$Local@VValue@v8@@@v8@@@Z@std@@QEAA@XZ 0000000180024990 f i _nodert_generated.obj
 0001:000239d0       ??1?$function@$$A6A_KV?$Local@VValue@v8@@@v8@@@Z@std@@QEAA@XZ 00000001800249d0 f i _nodert_generated.obj
 0001:00023a10       ??1?$function@$$A6A_NV?$Local@VValue@v8@@@v8@@@Z@std@@QEAA@XZ 0000000180024a10 f i _nodert_generated.obj
 0001:00023a50       ??1?$function@$$A6A_WV?$Local@VValue@v8@@@v8@@@Z@std@@QEAA@XZ 0000000180024a50 f i _nodert_generated.obj
 0001:00023a90       ??1?$shared_ptr@V?$Persistent@VObject@v8@@V?$NonCopyablePersistentTraits@VObject@v8@@@2@@Nan@@@std@@QEAA@XZ 0000000180024a90 f i _nodert_generated.obj
 0001:00023af0       ??1?$unique_ptr@$$BY0A@V?$Local@VValue@v8@@@v8@@U?$default_delete@$$BY0A@V?$Local@VValue@v8@@@v8@@@std@@@std@@QEAA@XZ 0000000180024af0 f i _nodert_generated.obj
 0001:00023b00       ??1EscapableHandleScope@Nan@@QEAA@XZ 0000000180024b00 f i _nodert_generated.obj
 0001:00023b10       ??1HandleScope@Nan@@QEAA@XZ 0000000180024b10 f i _nodert_generated.obj
 0001:00023b20       ??1ObjectWrap@Nan@@UEAA@XZ 0000000180024b20 f i _nodert_generated.obj
 0001:00023bc0       ??1TokenData@Async@NodeUtils@@UEAA@XZ 0000000180024bc0 f i _nodert_generated.obj
 0001:00023c40       ??1TryCatch@Nan@@QEAA@XZ   0000000180024c40 f i _nodert_generated.obj
 0001:00023c50       ??1WrapperBase@NodeRT@@UEAA@XZ 0000000180024c50 f i _nodert_generated.obj
 0001:00023c60       ??1_Ref_count_base@std@@UEAA@XZ 0000000180024c60 f i _nodert_generated.obj
 0001:00023c70       ??1__abi_CaptureBase@Details@Platform@@MEAA@XZ 0000000180024c70 f i _nodert_generated.obj
 0001:00023c80       ??1__abi_CapturePtr@Details@Platform@@QEAA@XZ 0000000180024c80 f i _nodert_generated.obj
 0001:00023ce0       ??3__abi_CaptureBase@Details@Platform@@SAXPEAX0@Z 0000000180024ce0 f i _nodert_generated.obj
 0001:00023d30       ??B?$Box@_J@Platform@@QE$AAA_JXZ 0000000180024d30 f i _nodert_generated.obj
 0001:000283c0       ??R?$_Func_class@V?$Local@VValue@v8@@@v8@@PE$AAUIWwwFormUrlDecoderEntry@Foundation@Windows@@@std@@QEBA?AV?$Local@VValue@v8@@@v8@@PE$AAUIWwwFormUrlDecoderEntry@Foundation@Windows@@@Z 00000001800293c0 f i _nodert_generated.obj
 0001:00028460       ??R?$_Func_class@V?$Local@VValue@v8@@@v8@@PE$AAVObject@Platform@@@std@@QEBA?AV?$Local@VValue@v8@@@v8@@PE$AAVObject@Platform@@@Z 0000000180029460 f i _nodert_generated.obj
 0001:00028500       ??R?$_Func_class@V?$Local@VValue@v8@@@v8@@PE$AAVString@Platform@@@std@@QEBA?AV?$Local@VValue@v8@@@v8@@PE$AAVString@Platform@@@Z 0000000180029500 f i _nodert_generated.obj
 0001:000285b0       ??_G?$ArrayWrapper@E@Collections@NodeRT@@UEAAPEAXI@Z 00000001800295b0 f i _nodert_generated.obj
 0001:000285b0       ??_E?$ArrayWrapper@E@Collections@NodeRT@@UEAAPEAXI@Z 00000001800295b0 f i _nodert_generated.obj
 0001:00028600       ??_G?$ArrayWrapper@F@Collections@NodeRT@@UEAAPEAXI@Z 0000000180029600 f i _nodert_generated.obj
 0001:00028600       ??_E?$ArrayWrapper@F@Collections@NodeRT@@UEAAPEAXI@Z 0000000180029600 f i _nodert_generated.obj
 0001:00028650       ??_G?$ArrayWrapper@G@Collections@NodeRT@@UEAAPEAXI@Z 0000000180029650 f i _nodert_generated.obj
 0001:00028650       ??_E?$ArrayWrapper@G@Collections@NodeRT@@UEAAPEAXI@Z 0000000180029650 f i _nodert_generated.obj
 0001:000286a0       ??_E?$ArrayWrapper@H@Collections@NodeRT@@UEAAPEAXI@Z 00000001800296a0 f i _nodert_generated.obj
 0001:000286a0       ??_G?$ArrayWrapper@H@Collections@NodeRT@@UEAAPEAXI@Z 00000001800296a0 f i _nodert_generated.obj
 0001:000286f0       ??_E?$ArrayWrapper@I@Collections@NodeRT@@UEAAPEAXI@Z 00000001800296f0 f i _nodert_generated.obj
 0001:000286f0       ??_G?$ArrayWrapper@I@Collections@NodeRT@@UEAAPEAXI@Z 00000001800296f0 f i _nodert_generated.obj
 0001:00028740       ??_G?$ArrayWrapper@M@Collections@NodeRT@@UEAAPEAXI@Z 0000000180029740 f i _nodert_generated.obj
 0001:00028740       ??_E?$ArrayWrapper@M@Collections@NodeRT@@UEAAPEAXI@Z 0000000180029740 f i _nodert_generated.obj
 0001:00028790       ??_G?$ArrayWrapper@N@Collections@NodeRT@@UEAAPEAXI@Z 0000000180029790 f i _nodert_generated.obj
 0001:00028790       ??_E?$ArrayWrapper@N@Collections@NodeRT@@UEAAPEAXI@Z 0000000180029790 f i _nodert_generated.obj
 0001:000287e0       ??_G?$ArrayWrapper@PE$AAVObject@Platform@@@Collections@NodeRT@@UEAAPEAXI@Z 00000001800297e0 f i _nodert_generated.obj
 0001:000287e0       ??_E?$ArrayWrapper@PE$AAVObject@Platform@@@Collections@NodeRT@@UEAAPEAXI@Z 00000001800297e0 f i _nodert_generated.obj
 0001:00028830       ??_G?$ArrayWrapper@PE$AAVString@Platform@@@Collections@NodeRT@@UEAAPEAXI@Z 0000000180029830 f i _nodert_generated.obj
 0001:00028830       ??_E?$ArrayWrapper@PE$AAVString@Platform@@@Collections@NodeRT@@UEAAPEAXI@Z 0000000180029830 f i _nodert_generated.obj
 0001:00028880       ??_E?$ArrayWrapper@VDateTime@Foundation@Windows@@@Collections@NodeRT@@UEAAPEAXI@Z 0000000180029880 f i _nodert_generated.obj
 0001:00028880       ??_G?$ArrayWrapper@VDateTime@Foundation@Windows@@@Collections@NodeRT@@UEAAPEAXI@Z 0000000180029880 f i _nodert_generated.obj
 0001:000288d0       ??_G?$ArrayWrapper@VGuid@Platform@@@Collections@NodeRT@@UEAAPEAXI@Z 00000001800298d0 f i _nodert_generated.obj
 0001:000288d0       ??_E?$ArrayWrapper@VGuid@Platform@@@Collections@NodeRT@@UEAAPEAXI@Z 00000001800298d0 f i _nodert_generated.obj
 0001:00028920       ??_E?$ArrayWrapper@VPoint@Foundation@Windows@@@Collections@NodeRT@@UEAAPEAXI@Z 0000000180029920 f i _nodert_generated.obj
 0001:00028920       ??_G?$ArrayWrapper@VPoint@Foundation@Windows@@@Collections@NodeRT@@UEAAPEAXI@Z 0000000180029920 f i _nodert_generated.obj
 0001:00028970       ??_E?$ArrayWrapper@VRect@Foundation@Windows@@@Collections@NodeRT@@UEAAPEAXI@Z 0000000180029970 f i _nodert_generated.obj
 0001:00028970       ??_G?$ArrayWrapper@VRect@Foundation@Windows@@@Collections@NodeRT@@UEAAPEAXI@Z 0000000180029970 f i _nodert_generated.obj
 0001:000289c0       ??_E?$ArrayWrapper@VSize@Foundation@Windows@@@Collections@NodeRT@@UEAAPEAXI@Z 00000001800299c0 f i _nodert_generated.obj
 0001:000289c0       ??_G?$ArrayWrapper@VSize@Foundation@Windows@@@Collections@NodeRT@@UEAAPEAXI@Z 00000001800299c0 f i _nodert_generated.obj
 0001:00028a10       ??_G?$ArrayWrapper@VTimeSpan@Foundation@Windows@@@Collections@NodeRT@@UEAAPEAXI@Z 0000000180029a10 f i _nodert_generated.obj
 0001:00028a10       ??_E?$ArrayWrapper@VTimeSpan@Foundation@Windows@@@Collections@NodeRT@@UEAAPEAXI@Z 0000000180029a10 f i _nodert_generated.obj
 0001:00028a60       ??_G?$ArrayWrapper@_J@Collections@NodeRT@@UEAAPEAXI@Z 0000000180029a60 f i _nodert_generated.obj
 0001:00028a60       ??_E?$ArrayWrapper@_J@Collections@NodeRT@@UEAAPEAXI@Z 0000000180029a60 f i _nodert_generated.obj
 0001:00028ab0       ??_E?$ArrayWrapper@_K@Collections@NodeRT@@UEAAPEAXI@Z 0000000180029ab0 f i _nodert_generated.obj
 0001:00028ab0       ??_G?$ArrayWrapper@_K@Collections@NodeRT@@UEAAPEAXI@Z 0000000180029ab0 f i _nodert_generated.obj
 0001:00028b00       ??_G?$ArrayWrapper@_N@Collections@NodeRT@@UEAAPEAXI@Z 0000000180029b00 f i _nodert_generated.obj
 0001:00028b00       ??_E?$ArrayWrapper@_N@Collections@NodeRT@@UEAAPEAXI@Z 0000000180029b00 f i _nodert_generated.obj
 0001:00028b50       ??_E?$ArrayWrapper@_W@Collections@NodeRT@@UEAAPEAXI@Z 0000000180029b50 f i _nodert_generated.obj
 0001:00028b50       ??_G?$ArrayWrapper@_W@Collections@NodeRT@@UEAAPEAXI@Z 0000000180029b50 f i _nodert_generated.obj
 0001:00028ba0       ??_E?$IteratorWrapper@PE$AAUIWwwFormUrlDecoderEntry@Foundation@Windows@@@Collections@NodeRT@@UEAAPEAXI@Z 0000000180029ba0 f i _nodert_generated.obj
 0001:00028ba0       ??_G?$IteratorWrapper@PE$AAUIWwwFormUrlDecoderEntry@Foundation@Windows@@@Collections@NodeRT@@UEAAPEAXI@Z 0000000180029ba0 f i _nodert_generated.obj
 0001:00028c40       ??_G?$_Ref_count_del@V?$Persistent@VObject@v8@@V?$NonCopyablePersistentTraits@VObject@v8@@@2@@Nan@@V<lambda_c3ff08df8b12ff96a6780e084058b7f5>@@@std@@UEAAPEAXI@Z 0000000180029c40 f i _nodert_generated.obj
 0001:00028c40       ??_E?$_Ref_count_del@V?$Persistent@VObject@v8@@V?$NonCopyablePersistentTraits@VObject@v8@@@2@@Nan@@V<lambda_c3ff08df8b12ff96a6780e084058b7f5>@@@std@@UEAAPEAXI@Z 0000000180029c40 f i _nodert_generated.obj
 0001:00028c80       ??_E?$__abi_FunctorCapture@V<lambda_4c7fa631be439f28ed06a48699f7804a>@@XPE$AAUIMemoryBufferReference@Foundation@Windows@@PE$AAVObject@Platform@@@Details@Platform@@UEAAPEAXI@Z 0000000180029c80 f i _nodert_generated.obj
 0001:00028c80       ??_G?$__abi_FunctorCapture@V<lambda_4c7fa631be439f28ed06a48699f7804a>@@XPE$AAUIMemoryBufferReference@Foundation@Windows@@PE$AAVObject@Platform@@@Details@Platform@@UEAAPEAXI@Z 0000000180029c80 f i _nodert_generated.obj
 0001:00028cd0       ??_EDeferral@Foundation@Windows@NodeRT@@UEAAPEAXI@Z 0000000180029cd0 f i _nodert_generated.obj
 0001:00028cd0       ??_GDeferral@Foundation@Windows@NodeRT@@UEAAPEAXI@Z 0000000180029cd0 f i _nodert_generated.obj
 0001:00028d40       ??_EIAsyncAction@Foundation@Windows@NodeRT@@UEAAPEAXI@Z 0000000180029d40 f i _nodert_generated.obj
 0001:00028d40       ??_GIAsyncAction@Foundation@Windows@NodeRT@@UEAAPEAXI@Z 0000000180029d40 f i _nodert_generated.obj
 0001:00028db0       ??_EIAsyncInfo@Foundation@Windows@NodeRT@@UEAAPEAXI@Z 0000000180029db0 f i _nodert_generated.obj
 0001:00028db0       ??_GIAsyncInfo@Foundation@Windows@NodeRT@@UEAAPEAXI@Z 0000000180029db0 f i _nodert_generated.obj
 0001:00028e20       ??_GIGetActivationFactory@Foundation@Windows@NodeRT@@UEAAPEAXI@Z 0000000180029e20 f i _nodert_generated.obj
 0001:00028e20       ??_EIGetActivationFactory@Foundation@Windows@NodeRT@@UEAAPEAXI@Z 0000000180029e20 f i _nodert_generated.obj
 0001:00028e90       ??_GIMemoryBuffer@Foundation@Windows@NodeRT@@UEAAPEAXI@Z 0000000180029e90 f i _nodert_generated.obj
 0001:00028e90       ??_EIMemoryBuffer@Foundation@Windows@NodeRT@@UEAAPEAXI@Z 0000000180029e90 f i _nodert_generated.obj
 0001:00028f00       ??_EIMemoryBufferReference@Foundation@Windows@NodeRT@@UEAAPEAXI@Z 0000000180029f00 f i _nodert_generated.obj
 0001:00028f00       ??_GIMemoryBufferReference@Foundation@Windows@NodeRT@@UEAAPEAXI@Z 0000000180029f00 f i _nodert_generated.obj
 0001:00028f70       ??_EIPropertyValue@Foundation@Windows@NodeRT@@UEAAPEAXI@Z 0000000180029f70 f i _nodert_generated.obj
 0001:00028f70       ??_GIPropertyValue@Foundation@Windows@NodeRT@@UEAAPEAXI@Z 0000000180029f70 f i _nodert_generated.obj
 0001:00028fe0       ??_GIStringable@Foundation@Windows@NodeRT@@UEAAPEAXI@Z 0000000180029fe0 f i _nodert_generated.obj
 0001:00028fe0       ??_EIStringable@Foundation@Windows@NodeRT@@UEAAPEAXI@Z 0000000180029fe0 f i _nodert_generated.obj
 0001:00029050       ??_EIWwwFormUrlDecoderEntry@Foundation@Windows@NodeRT@@UEAAPEAXI@Z 000000018002a050 f i _nodert_generated.obj
 0001:00029050       ??_GIWwwFormUrlDecoderEntry@Foundation@Windows@NodeRT@@UEAAPEAXI@Z 000000018002a050 f i _nodert_generated.obj
 0001:000290c0       ??_EMemoryBuffer@Foundation@Windows@NodeRT@@UEAAPEAXI@Z 000000018002a0c0 f i _nodert_generated.obj
 0001:000290c0       ??_GMemoryBuffer@Foundation@Windows@NodeRT@@UEAAPEAXI@Z 000000018002a0c0 f i _nodert_generated.obj
 0001:00029130       ??_EObjectWrap@Nan@@UEAAPEAXI@Z 000000018002a130 f i _nodert_generated.obj
 0001:00029130       ??_GObjectWrap@Nan@@UEAAPEAXI@Z 000000018002a130 f i _nodert_generated.obj
 0001:00029180       ??_EPropertyValue@Foundation@Windows@NodeRT@@UEAAPEAXI@Z 000000018002a180 f i _nodert_generated.obj
 0001:00029180       ??_GPropertyValue@Foundation@Windows@NodeRT@@UEAAPEAXI@Z 000000018002a180 f i _nodert_generated.obj
 0001:000291f0       ??_ETokenData@Async@NodeUtils@@UEAAPEAXI@Z 000000018002a1f0 f i _nodert_generated.obj
 0001:000291f0       ??_GTokenData@Async@NodeUtils@@UEAAPEAXI@Z 000000018002a1f0 f i _nodert_generated.obj
 0001:000292a0       ??_EUri@Foundation@Windows@NodeRT@@UEAAPEAXI@Z 000000018002a2a0 f i _nodert_generated.obj
 0001:000292a0       ??_GUri@Foundation@Windows@NodeRT@@UEAAPEAXI@Z 000000018002a2a0 f i _nodert_generated.obj
 0001:00029310       ??_EWrapperBase@NodeRT@@UEAAPEAXI@Z 000000018002a310 f i _nodert_generated.obj
 0001:00029310       ??_GWrapperBase@NodeRT@@UEAAPEAXI@Z 000000018002a310 f i _nodert_generated.obj
 0001:00029360       ??_EWwwFormUrlDecoder@Foundation@Windows@NodeRT@@UEAAPEAXI@Z 000000018002a360 f i _nodert_generated.obj
 0001:00029360       ??_GWwwFormUrlDecoder@Foundation@Windows@NodeRT@@UEAAPEAXI@Z 000000018002a360 f i _nodert_generated.obj
 0001:000293d0       ??_EWwwFormUrlDecoderEntry@Foundation@Windows@NodeRT@@UEAAPEAXI@Z 000000018002a3d0 f i _nodert_generated.obj
 0001:000293d0       ??_GWwwFormUrlDecoderEntry@Foundation@Windows@NodeRT@@UEAAPEAXI@Z 000000018002a3d0 f i _nodert_generated.obj
 0001:00029440       ??_G_Ref_count_base@std@@UEAAPEAXI@Z 000000018002a440 f i _nodert_generated.obj
 0001:00029440       ??_E_Ref_count_base@std@@UEAAPEAXI@Z 000000018002a440 f i _nodert_generated.obj
 0001:00029480       ??_G__abi_CaptureBase@Details@Platform@@MEAAPEAXI@Z 000000018002a480 f i _nodert_generated.obj
 0001:00029480       ??_E__abi_CaptureBase@Details@Platform@@MEAAPEAXI@Z 000000018002a480 f i _nodert_generated.obj
 0001:000294c0       ??_H@YAXPEAX_K1P6APEAX0@Z@Z 000000018002a4c0 f i _nodert_generated.obj
 0001:00029520       ?AbsoluteCanonicalUriGetter@Uri@Foundation@Windows@NodeRT@@CAXV?$Local@VString@v8@@@v8@@AEBV?$PropertyCallbackInfo@VValue@v8@@@Nan@@@Z 000000018002a520 f i _nodert_generated.obj
 0001:000296d0       ?AbsoluteUriGetter@Uri@Foundation@Windows@NodeRT@@CAXV?$Local@VString@v8@@@v8@@AEBV?$PropertyCallbackInfo@VValue@v8@@@Nan@@@Z 000000018002a6d0 f i _nodert_generated.obj
 0001:00029810       ?AddListener@IMemoryBufferReference@Foundation@Windows@NodeRT@@CAXAEBV?$FunctionCallbackInfo@VValue@v8@@@Nan@@@Z 000000018002a810 f i _nodert_generated.obj
 0001:00029ea0       ?AllocateAndCopyElements@?$WriteOnlyArray@E$00@Platform@@KAPEAEPEBEI@Z 000000018002aea0 f i _nodert_generated.obj
 0001:00029f50       ?AllocateAndCopyElements@?$WriteOnlyArray@F$00@Platform@@KAPEAFPEBFI@Z 000000018002af50 f i _nodert_generated.obj
 0001:0002a020       ?AllocateAndCopyElements@?$WriteOnlyArray@G$00@Platform@@KAPEAGPEBGI@Z 000000018002b020 f i _nodert_generated.obj
 0001:0002a0f0       ?AllocateAndCopyElements@?$WriteOnlyArray@H$00@Platform@@KAPEAHPEBHI@Z 000000018002b0f0 f i _nodert_generated.obj
 0001:0002a1c0       ?AllocateAndCopyElements@?$WriteOnlyArray@I$00@Platform@@KAPEAIPEBII@Z 000000018002b1c0 f i _nodert_generated.obj
 0001:0002a290       ?AllocateAndCopyElements@?$WriteOnlyArray@M$00@Platform@@KAPEAMPEBMI@Z 000000018002b290 f i _nodert_generated.obj
 0001:0002a3c0       ?AllocateAndCopyElements@?$WriteOnlyArray@N$00@Platform@@KAPEANPEBNI@Z 000000018002b3c0 f i _nodert_generated.obj
 0001:0002a500       ?AllocateAndCopyElements@?$WriteOnlyArray@PE$AAVObject@Platform@@$00@Platform@@KAPEAPE$AAVObject@2@PEBQE$AAV32@I@Z 000000018002b500 f i _nodert_generated.obj
 0001:0002a5f0       ?AllocateAndCopyElements@?$WriteOnlyArray@PE$AAVString@Platform@@$00@Platform@@KAPEAPE$AAVString@2@PEBQE$AAV32@I@Z 000000018002b5f0 f i _nodert_generated.obj
 0001:0002a710       ?AllocateAndCopyElements@?$WriteOnlyArray@VDateTime@Foundation@Windows@@$00@Platform@@KAPEAVDateTime@Foundation@Windows@@PEBV345@I@Z 000000018002b710 f i _nodert_generated.obj
 0001:0002a7e0       ?AllocateAndCopyElements@?$WriteOnlyArray@VGuid@Platform@@$00@Platform@@KAPEAVGuid@2@PEBV32@I@Z 000000018002b7e0 f i _nodert_generated.obj
 0001:0002a8b0       ?AllocateAndCopyElements@?$WriteOnlyArray@VPoint@Foundation@Windows@@$00@Platform@@KAPEAVPoint@Foundation@Windows@@PEBV345@I@Z 000000018002b8b0 f i _nodert_generated.obj
 0001:0002a980       ?AllocateAndCopyElements@?$WriteOnlyArray@VRect@Foundation@Windows@@$00@Platform@@KAPEAVRect@Foundation@Windows@@PEBV345@I@Z 000000018002b980 f i _nodert_generated.obj
 0001:0002aa50       ?AllocateAndCopyElements@?$WriteOnlyArray@VSize@Foundation@Windows@@$00@Platform@@KAPEAVSize@Foundation@Windows@@PEBV345@I@Z 000000018002ba50 f i _nodert_generated.obj
 0001:0002ab20       ?AllocateAndCopyElements@?$WriteOnlyArray@VTimeSpan@Foundation@Windows@@$00@Platform@@KAPEAVTimeSpan@Foundation@Windows@@PEBV345@I@Z 000000018002bb20 f i _nodert_generated.obj
 0001:0002abf0       ?AllocateAndCopyElements@?$WriteOnlyArray@_J$00@Platform@@KAPEA_JPEB_JI@Z 000000018002bbf0 f i _nodert_generated.obj
 0001:0002acc0       ?AllocateAndCopyElements@?$WriteOnlyArray@_K$00@Platform@@KAPEA_KPEB_KI@Z 000000018002bcc0 f i _nodert_generated.obj
 0001:0002ad90       ?AllocateAndCopyElements@?$WriteOnlyArray@_N$00@Platform@@KAPEA_NPEB_NI@Z 000000018002bd90 f i _nodert_generated.obj
 0001:0002ae40       ?AllocateAndCopyElements@?$WriteOnlyArray@_W$00@Platform@@KAPEA_WPEB_WI@Z 000000018002be40 f i _nodert_generated.obj
 0001:0002af10       ?AllocateAndZeroInitialize@?$WriteOnlyArray@F$00@Platform@@KAPEAFI@Z 000000018002bf10 f i _nodert_generated.obj
 0001:0002af90       ?AllocateAndZeroInitialize@?$WriteOnlyArray@G$00@Platform@@KAPEAGI@Z 000000018002bf90 f i _nodert_generated.obj
 0001:0002b010       ?AllocateAndZeroInitialize@?$WriteOnlyArray@H$00@Platform@@KAPEAHI@Z 000000018002c010 f i _nodert_generated.obj
 0001:0002b090       ?AllocateAndZeroInitialize@?$WriteOnlyArray@I$00@Platform@@KAPEAII@Z 000000018002c090 f i _nodert_generated.obj
 0001:0002b110       ?AllocateAndZeroInitialize@?$WriteOnlyArray@M$00@Platform@@KAPEAMI@Z 000000018002c110 f i _nodert_generated.obj
 0001:0002b190       ?AllocateAndZeroInitialize@?$WriteOnlyArray@N$00@Platform@@KAPEANI@Z 000000018002c190 f i _nodert_generated.obj
 0001:0002b210       ?AllocateAndZeroInitialize@?$WriteOnlyArray@PE$AAVObject@Platform@@$00@Platform@@KAPEAPE$AAVObject@2@I@Z 000000018002c210 f i _nodert_generated.obj
 0001:0002b290       ?AllocateAndZeroInitialize@?$WriteOnlyArray@PE$AAVString@Platform@@$00@Platform@@KAPEAPE$AAVString@2@I@Z 000000018002c290 f i _nodert_generated.obj
 0001:0002b310       ?AllocateAndZeroInitialize@?$WriteOnlyArray@VDateTime@Foundation@Windows@@$00@Platform@@KAPEAVDateTime@Foundation@Windows@@I@Z 000000018002c310 f i _nodert_generated.obj
 0001:0002b390       ?AllocateAndZeroInitialize@?$WriteOnlyArray@VGuid@Platform@@$00@Platform@@KAPEAVGuid@2@I@Z 000000018002c390 f i _nodert_generated.obj
 0001:0002b410       ?AllocateAndZeroInitialize@?$WriteOnlyArray@VPoint@Foundation@Windows@@$00@Platform@@KAPEAVPoint@Foundation@Windows@@I@Z 000000018002c410 f i _nodert_generated.obj
 0001:0002b490       ?AllocateAndZeroInitialize@?$WriteOnlyArray@VRect@Foundation@Windows@@$00@Platform@@KAPEAVRect@Foundation@Windows@@I@Z 000000018002c490 f i _nodert_generated.obj
 0001:0002b510       ?AllocateAndZeroInitialize@?$WriteOnlyArray@VSize@Foundation@Windows@@$00@Platform@@KAPEAVSize@Foundation@Windows@@I@Z 000000018002c510 f i _nodert_generated.obj
 0001:0002b590       ?AllocateAndZeroInitialize@?$WriteOnlyArray@VTimeSpan@Foundation@Windows@@$00@Platform@@KAPEAVTimeSpan@Foundation@Windows@@I@Z 000000018002c590 f i _nodert_generated.obj
 0001:0002b610       ?AllocateAndZeroInitialize@?$WriteOnlyArray@_J$00@Platform@@KAPEA_JI@Z 000000018002c610 f i _nodert_generated.obj
 0001:0002b690       ?AllocateAndZeroInitialize@?$WriteOnlyArray@_K$00@Platform@@KAPEA_KI@Z 000000018002c690 f i _nodert_generated.obj
 0001:0002b710       ?AllocateAndZeroInitialize@?$WriteOnlyArray@_W$00@Platform@@KAPEA_WI@Z 000000018002c710 f i _nodert_generated.obj
 0001:0002b790       ?AsyncCb@Async@NodeUtils@@CAXPEAUuv_async_s@@@Z 000000018002c790 f i _nodert_generated.obj
 0001:0002b800       ?AyncCloseCb@Async@NodeUtils@@CAXPEAUuv_handle_s@@@Z 000000018002c800 f i _nodert_generated.obj
 0001:0002b820       ?Cancel@IAsyncInfo@Foundation@Windows@@UE$AAAXXZ 000000018002c820 f i _nodert_generated.obj
 0001:0002b850       ?Cancel@IAsyncInfo@Foundation@Windows@NodeRT@@CAXAEBV?$FunctionCallbackInfo@VValue@v8@@@Nan@@@Z 000000018002c850 f i _nodert_generated.obj
 0001:0002b950       ?CapacityGetter@IMemoryBufferReference@Foundation@Windows@NodeRT@@CAXV?$Local@VString@v8@@@v8@@AEBV?$PropertyCallbackInfo@VValue@v8@@@Nan@@@Z 000000018002c950 f i _nodert_generated.obj
 0001:0002ba70       ?CastFrom@Deferral@Foundation@Windows@NodeRT@@CAXAEBV?$FunctionCallbackInfo@VValue@v8@@@Nan@@@Z 000000018002ca70 f i _nodert_generated.obj
 0001:0002bca0       ?CastFrom@IAsyncAction@Foundation@Windows@NodeRT@@CAXAEBV?$FunctionCallbackInfo@VValue@v8@@@Nan@@@Z 000000018002cca0 f i _nodert_generated.obj
 0001:0002bed0       ?CastFrom@IAsyncInfo@Foundation@Windows@NodeRT@@CAXAEBV?$FunctionCallbackInfo@VValue@v8@@@Nan@@@Z 000000018002ced0 f i _nodert_generated.obj
 0001:0002c100       ?CastFrom@IGetActivationFactory@Foundation@Windows@NodeRT@@CAXAEBV?$FunctionCallbackInfo@VValue@v8@@@Nan@@@Z 000000018002d100 f i _nodert_generated.obj
 0001:0002c330       ?CastFrom@IMemoryBuffer@Foundation@Windows@NodeRT@@CAXAEBV?$FunctionCallbackInfo@VValue@v8@@@Nan@@@Z 000000018002d330 f i _nodert_generated.obj
 0001:0002c560       ?CastFrom@IMemoryBufferReference@Foundation@Windows@NodeRT@@CAXAEBV?$FunctionCallbackInfo@VValue@v8@@@Nan@@@Z 000000018002d560 f i _nodert_generated.obj
 0001:0002c790       ?CastFrom@IPropertyValue@Foundation@Windows@NodeRT@@CAXAEBV?$FunctionCallbackInfo@VValue@v8@@@Nan@@@Z 000000018002d790 f i _nodert_generated.obj
 0001:0002c9c0       ?CastFrom@IStringable@Foundation@Windows@NodeRT@@CAXAEBV?$FunctionCallbackInfo@VValue@v8@@@Nan@@@Z 000000018002d9c0 f i _nodert_generated.obj
 0001:0002cbf0       ?CastFrom@IWwwFormUrlDecoderEntry@Foundation@Windows@NodeRT@@CAXAEBV?$FunctionCallbackInfo@VValue@v8@@@Nan@@@Z 000000018002dbf0 f i _nodert_generated.obj
 0001:0002ce20       ?CastFrom@MemoryBuffer@Foundation@Windows@NodeRT@@CAXAEBV?$FunctionCallbackInfo@VValue@v8@@@Nan@@@Z 000000018002de20 f i _nodert_generated.obj
 0001:0002d050       ?CastFrom@PropertyValue@Foundation@Windows@NodeRT@@CAXAEBV?$FunctionCallbackInfo@VValue@v8@@@Nan@@@Z 000000018002e050 f i _nodert_generated.obj
 0001:0002d280       ?CastFrom@Uri@Foundation@Windows@NodeRT@@CAXAEBV?$FunctionCallbackInfo@VValue@v8@@@Nan@@@Z 000000018002e280 f i _nodert_generated.obj
 0001:0002d4b0       ?CastFrom@WwwFormUrlDecoder@Foundation@Windows@NodeRT@@CAXAEBV?$FunctionCallbackInfo@VValue@v8@@@Nan@@@Z 000000018002e4b0 f i _nodert_generated.obj
 0001:0002d6e0       ?CastFrom@WwwFormUrlDecoderEntry@Foundation@Windows@NodeRT@@CAXAEBV?$FunctionCallbackInfo@VValue@v8@@@Nan@@@Z 000000018002e6e0 f i _nodert_generated.obj
 0001:0002d910       ?Close@Deferral@Foundation@Windows@NodeRT@@CAXAEBV?$FunctionCallbackInfo@VValue@v8@@@Nan@@@Z 000000018002e910 f i _nodert_generated.obj
 0001:0002daa0       ?Close@IAsyncInfo@Foundation@Windows@@UE$AAAXXZ 000000018002eaa0 f i _nodert_generated.obj
 0001:0002dad0       ?Close@IAsyncInfo@Foundation@Windows@NodeRT@@CAXAEBV?$FunctionCallbackInfo@VValue@v8@@@Nan@@@Z 000000018002ead0 f i _nodert_generated.obj
 0001:0002dbd0       ?Close@MemoryBuffer@Foundation@Windows@NodeRT@@CAXAEBV?$FunctionCallbackInfo@VValue@v8@@@Nan@@@Z 000000018002ebd0 f i _nodert_generated.obj
 0001:0002dd60       ?CombineUri@IUriRuntimeClass@Foundation@Windows@@UE$AAAPE$AAVUri@23@PE$AAVString@Platform@@@Z 000000018002ed60 f i _nodert_generated.obj
 0001:0002dde0       ?CombineUri@Uri@Foundation@Windows@NodeRT@@CAXAEBV?$FunctionCallbackInfo@VValue@v8@@@Nan@@@Z 000000018002ede0 f i _nodert_generated.obj
 0001:0002e0c0       ?Complete@Deferral@Foundation@Windows@NodeRT@@CAXAEBV?$FunctionCallbackInfo@VValue@v8@@@Nan@@@Z 000000018002f0c0 f i _nodert_generated.obj
 0001:0002e1c0       ?Complete@IDeferral@Foundation@Windows@@UE$AAAXXZ 000000018002f1c0 f i _nodert_generated.obj
 0001:0002e1f0       ?CompletedGetter@IAsyncAction@Foundation@Windows@NodeRT@@CAXV?$Local@VString@v8@@@v8@@AEBV?$PropertyCallbackInfo@VValue@v8@@@Nan@@@Z 000000018002f1f0 f i _nodert_generated.obj
 0001:0002e3c0       ?CompletedSetter@IAsyncAction@Foundation@Windows@NodeRT@@CAXV?$Local@VString@v8@@@v8@@V?$Local@VValue@v8@@@6@AEBV?$PropertyCallbackInfo@X@Nan@@@Z 000000018002f3c0 f i _nodert_generated.obj
 0001:0002e570       ?CopyToOrDetach@?$Array@E$00@Platform@@AE$AAAXPEAPEAEPEAI@Z 000000018002f570 f i _nodert_generated.obj
 0001:0002e690       ?CopyToOrDetach@?$Array@F$00@Platform@@AE$AAAXPEAPEAFPEAI@Z 000000018002f690 f i _nodert_generated.obj
 0001:0002e7b0       ?CopyToOrDetach@?$Array@G$00@Platform@@AE$AAAXPEAPEAGPEAI@Z 000000018002f7b0 f i _nodert_generated.obj
 0001:0002e8d0       ?CopyToOrDetach@?$Array@H$00@Platform@@AE$AAAXPEAPEAHPEAI@Z 000000018002f8d0 f i _nodert_generated.obj
 0001:0002e9f0       ?CopyToOrDetach@?$Array@I$00@Platform@@AE$AAAXPEAPEAIPEAI@Z 000000018002f9f0 f i _nodert_generated.obj
 0001:0002eb10       ?CopyToOrDetach@?$Array@M$00@Platform@@AE$AAAXPEAPEAMPEAI@Z 000000018002fb10 f i _nodert_generated.obj
 0001:0002ec30       ?CopyToOrDetach@?$Array@N$00@Platform@@AE$AAAXPEAPEANPEAI@Z 000000018002fc30 f i _nodert_generated.obj
 0001:0002ed50       ?CopyToOrDetach@?$Array@PE$AAVObject@Platform@@$00@Platform@@AE$AAAXPEAPEAPE$AAVObject@2@PEAI@Z 000000018002fd50 f i _nodert_generated.obj
 0001:0002ee70       ?CopyToOrDetach@?$Array@PE$AAVString@Platform@@$00@Platform@@AE$AAAXPEAPEAPE$AAVString@2@PEAI@Z 000000018002fe70 f i _nodert_generated.obj
 0001:0002ef90       ?CopyToOrDetach@?$Array@VDateTime@Foundation@Windows@@$00@Platform@@AE$AAAXPEAPEAVDateTime@Foundation@Windows@@PEAI@Z 000000018002ff90 f i _nodert_generated.obj
 0001:0002f0b0       ?CopyToOrDetach@?$Array@VGuid@Platform@@$00@Platform@@AE$AAAXPEAPEAVGuid@2@PEAI@Z 00000001800300b0 f i _nodert_generated.obj
 0001:0002f1d0       ?CopyToOrDetach@?$Array@VPoint@Foundation@Windows@@$00@Platform@@AE$AAAXPEAPEAVPoint@Foundation@Windows@@PEAI@Z 00000001800301d0 f i _nodert_generated.obj
 0001:0002f2f0       ?CopyToOrDetach@?$Array@VRect@Foundation@Windows@@$00@Platform@@AE$AAAXPEAPEAVRect@Foundation@Windows@@PEAI@Z 00000001800302f0 f i _nodert_generated.obj
 0001:0002f410       ?CopyToOrDetach@?$Array@VSize@Foundation@Windows@@$00@Platform@@AE$AAAXPEAPEAVSize@Foundation@Windows@@PEAI@Z 0000000180030410 f i _nodert_generated.obj
 0001:0002f530       ?CopyToOrDetach@?$Array@VTimeSpan@Foundation@Windows@@$00@Platform@@AE$AAAXPEAPEAVTimeSpan@Foundation@Windows@@PEAI@Z 0000000180030530 f i _nodert_generated.obj
 0001:0002f650       ?CopyToOrDetach@?$Array@_J$00@Platform@@AE$AAAXPEAPEA_JPEAI@Z 0000000180030650 f i _nodert_generated.obj
 0001:0002f770       ?CopyToOrDetach@?$Array@_K$00@Platform@@AE$AAAXPEAPEA_KPEAI@Z 0000000180030770 f i _nodert_generated.obj
 0001:0002f890       ?CopyToOrDetach@?$Array@_N$00@Platform@@AE$AAAXPEAPEA_NPEAI@Z 0000000180030890 f i _nodert_generated.obj
 0001:0002f9b0       ?CopyToOrDetach@?$Array@_W$00@Platform@@AE$AAAXPEAPEA_WPEAI@Z 00000001800309b0 f i _nodert_generated.obj
 0001:0002fad0       ?Create@IDeferralFactory@Foundation@Windows@@UE$AAAPE$AAVDeferral@23@PE$AAVDeferralCompletedHandler@23@@Z 0000000180030ad0 f i _nodert_generated.obj
 0001:0002fb50       ?Create@IMemoryBufferFactory@Foundation@Windows@@UE$AAAPE$AAVMemoryBuffer@23@I@Z 0000000180030b50 f i _nodert_generated.obj
 0001:0002fbd0       ?CreateArrayWrapper@?$ArrayWrapper@E@Collections@NodeRT@@SA?AV?$Local@VValue@v8@@@v8@@P$01E$AAV?$Array@E$00@Platform@@AEBV?$function@$$A6A?AV?$Local@VValue@v8@@@v8@@E@Z@std@@AEBV?$function@$$A6A_NV?$Local@VValue@v8@@@v8@@@Z@9@AEBV?$function@$$A6AEV?$Local@VValue@v8@@@v8@@@Z@9@@Z 0000000180030bd0 f i _nodert_generated.obj
 0001:0002fd90       ?CreateArrayWrapper@?$ArrayWrapper@F@Collections@NodeRT@@SA?AV?$Local@VValue@v8@@@v8@@P$01E$AAV?$Array@F$00@Platform@@AEBV?$function@$$A6A?AV?$Local@VValue@v8@@@v8@@F@Z@std@@AEBV?$function@$$A6A_NV?$Local@VValue@v8@@@v8@@@Z@9@AEBV?$function@$$A6AFV?$Local@VValue@v8@@@v8@@@Z@9@@Z 0000000180030d90 f i _nodert_generated.obj
 0001:0002ff50       ?CreateArrayWrapper@?$ArrayWrapper@G@Collections@NodeRT@@SA?AV?$Local@VValue@v8@@@v8@@P$01E$AAV?$Array@G$00@Platform@@AEBV?$function@$$A6A?AV?$Local@VValue@v8@@@v8@@G@Z@std@@AEBV?$function@$$A6A_NV?$Local@VValue@v8@@@v8@@@Z@9@AEBV?$function@$$A6AGV?$Local@VValue@v8@@@v8@@@Z@9@@Z 0000000180030f50 f i _nodert_generated.obj
 0001:00030110       ?CreateArrayWrapper@?$ArrayWrapper@H@Collections@NodeRT@@SA?AV?$Local@VValue@v8@@@v8@@P$01E$AAV?$Array@H$00@Platform@@AEBV?$function@$$A6A?AV?$Local@VValue@v8@@@v8@@H@Z@std@@AEBV?$function@$$A6A_NV?$Local@VValue@v8@@@v8@@@Z@9@AEBV?$function@$$A6AHV?$Local@VValue@v8@@@v8@@@Z@9@@Z 0000000180031110 f i _nodert_generated.obj
 0001:000302d0       ?CreateArrayWrapper@?$ArrayWrapper@I@Collections@NodeRT@@SA?AV?$Local@VValue@v8@@@v8@@P$01E$AAV?$Array@I$00@Platform@@AEBV?$function@$$A6A?AV?$Local@VValue@v8@@@v8@@I@Z@std@@AEBV?$function@$$A6A_NV?$Local@VValue@v8@@@v8@@@Z@9@AEBV?$function@$$A6AIV?$Local@VValue@v8@@@v8@@@Z@9@@Z 00000001800312d0 f i _nodert_generated.obj
 0001:00030490       ?CreateArrayWrapper@?$ArrayWrapper@M@Collections@NodeRT@@SA?AV?$Local@VValue@v8@@@v8@@P$01E$AAV?$Array@M$00@Platform@@AEBV?$function@$$A6A?AV?$Local@VValue@v8@@@v8@@M@Z@std@@AEBV?$function@$$A6A_NV?$Local@VValue@v8@@@v8@@@Z@9@AEBV?$function@$$A6AMV?$Local@VValue@v8@@@v8@@@Z@9@@Z 0000000180031490 f i _nodert_generated.obj
 0001:00030650       ?CreateArrayWrapper@?$ArrayWrapper@N@Collections@NodeRT@@SA?AV?$Local@VValue@v8@@@v8@@P$01E$AAV?$Array@N$00@Platform@@AEBV?$function@$$A6A?AV?$Local@VValue@v8@@@v8@@N@Z@std@@AEBV?$function@$$A6A_NV?$Local@VValue@v8@@@v8@@@Z@9@AEBV?$function@$$A6ANV?$Local@VValue@v8@@@v8@@@Z@9@@Z 0000000180031650 f i _nodert_generated.obj
 0001:00030810       ?CreateArrayWrapper@?$ArrayWrapper@PE$AAVObject@Platform@@@Collections@NodeRT@@SA?AV?$Local@VValue@v8@@@v8@@P$01E$AAV?$Array@PE$AAVObject@Platform@@$00@Platform@@AEBV?$function@$$A6A?AV?$Local@VValue@v8@@@v8@@PE$AAVObject@Platform@@@Z@std@@AEBV?$function@$$A6A_NV?$Local@VValue@v8@@@v8@@@Z@9@AEBV?$function@$$A6APE$AAVObject@Platform@@V?$Local@VValue@v8@@@v8@@@Z@9@@Z 0000000180031810 f i _nodert_generated.obj
 0001:000309d0       ?CreateArrayWrapper@?$ArrayWrapper@PE$AAVString@Platform@@@Collections@NodeRT@@SA?AV?$Local@VValue@v8@@@v8@@P$01E$AAV?$Array@PE$AAVString@Platform@@$00@Platform@@AEBV?$function@$$A6A?AV?$Local@VValue@v8@@@v8@@PE$AAVString@Platform@@@Z@std@@AEBV?$function@$$A6A_NV?$Local@VValue@v8@@@v8@@@Z@9@AEBV?$function@$$A6APE$AAVString@Platform@@V?$Local@VValue@v8@@@v8@@@Z@9@@Z 00000001800319d0 f i _nodert_generated.obj
 0001:00030b90       ?CreateArrayWrapper@?$ArrayWrapper@VDateTime@Foundation@Windows@@@Collections@NodeRT@@SA?AV?$Local@VValue@v8@@@v8@@P$01E$AAV?$Array@VDateTime@Foundation@Windows@@$00@Platform@@AEBV?$function@$$A6A?AV?$Local@VValue@v8@@@v8@@VDateTime@Foundation@Windows@@@Z@std@@AEBV?$function@$$A6A_NV?$Local@VValue@v8@@@v8@@@Z@9@AEBV?$function@$$A6A?AVDateTime@Foundation@Windows@@V?$Local@VValue@v8@@@v8@@@Z@9@@Z 0000000180031b90 f i _nodert_generated.obj
 0001:00030d50       ?CreateArrayWrapper@?$ArrayWrapper@VGuid@Platform@@@Collections@NodeRT@@SA?AV?$Local@VValue@v8@@@v8@@P$01E$AAV?$Array@VGuid@Platform@@$00@Platform@@AEBV?$function@$$A6A?AV?$Local@VValue@v8@@@v8@@VGuid@Platform@@@Z@std@@AEBV?$function@$$A6A_NV?$Local@VValue@v8@@@v8@@@Z@9@AEBV?$function@$$A6A?AVGuid@Platform@@V?$Local@VValue@v8@@@v8@@@Z@9@@Z 0000000180031d50 f i _nodert_generated.obj
 0001:00030f10       ?CreateArrayWrapper@?$ArrayWrapper@VPoint@Foundation@Windows@@@Collections@NodeRT@@SA?AV?$Local@VValue@v8@@@v8@@P$01E$AAV?$Array@VPoint@Foundation@Windows@@$00@Platform@@AEBV?$function@$$A6A?AV?$Local@VValue@v8@@@v8@@VPoint@Foundation@Windows@@@Z@std@@AEBV?$function@$$A6A_NV?$Local@VValue@v8@@@v8@@@Z@9@AEBV?$function@$$A6A?AVPoint@Foundation@Windows@@V?$Local@VValue@v8@@@v8@@@Z@9@@Z 0000000180031f10 f i _nodert_generated.obj
 0001:000310d0       ?CreateArrayWrapper@?$ArrayWrapper@VRect@Foundation@Windows@@@Collections@NodeRT@@SA?AV?$Local@VValue@v8@@@v8@@P$01E$AAV?$Array@VRect@Foundation@Windows@@$00@Platform@@AEBV?$function@$$A6A?AV?$Local@VValue@v8@@@v8@@VRect@Foundation@Windows@@@Z@std@@AEBV?$function@$$A6A_NV?$Local@VValue@v8@@@v8@@@Z@9@AEBV?$function@$$A6A?AVRect@Foundation@Windows@@V?$Local@VValue@v8@@@v8@@@Z@9@@Z 00000001800320d0 f i _nodert_generated.obj
 0001:00031290       ?CreateArrayWrapper@?$ArrayWrapper@VSize@Foundation@Windows@@@Collections@NodeRT@@SA?AV?$Local@VValue@v8@@@v8@@P$01E$AAV?$Array@VSize@Foundation@Windows@@$00@Platform@@AEBV?$function@$$A6A?AV?$Local@VValue@v8@@@v8@@VSize@Foundation@Windows@@@Z@std@@AEBV?$function@$$A6A_NV?$Local@VValue@v8@@@v8@@@Z@9@AEBV?$function@$$A6A?AVSize@Foundation@Windows@@V?$Local@VValue@v8@@@v8@@@Z@9@@Z 0000000180032290 f i _nodert_generated.obj
 0001:00031450       ?CreateArrayWrapper@?$ArrayWrapper@VTimeSpan@Foundation@Windows@@@Collections@NodeRT@@SA?AV?$Local@VValue@v8@@@v8@@P$01E$AAV?$Array@VTimeSpan@Foundation@Windows@@$00@Platform@@AEBV?$function@$$A6A?AV?$Local@VValue@v8@@@v8@@VTimeSpan@Foundation@Windows@@@Z@std@@AEBV?$function@$$A6A_NV?$Local@VValue@v8@@@v8@@@Z@9@AEBV?$function@$$A6A?AVTimeSpan@Foundation@Windows@@V?$Local@VValue@v8@@@v8@@@Z@9@@Z 0000000180032450 f i _nodert_generated.obj
 0001:00031610       ?CreateArrayWrapper@?$ArrayWrapper@_J@Collections@NodeRT@@SA?AV?$Local@VValue@v8@@@v8@@P$01E$AAV?$Array@_J$00@Platform@@AEBV?$function@$$A6A?AV?$Local@VValue@v8@@@v8@@_J@Z@std@@AEBV?$function@$$A6A_NV?$Local@VValue@v8@@@v8@@@Z@9@AEBV?$function@$$A6A_JV?$Local@VValue@v8@@@v8@@@Z@9@@Z 0000000180032610 f i _nodert_generated.obj
 0001:000317d0       ?CreateArrayWrapper@?$ArrayWrapper@_K@Collections@NodeRT@@SA?AV?$Local@VValue@v8@@@v8@@P$01E$AAV?$Array@_K$00@Platform@@AEBV?$function@$$A6A?AV?$Local@VValue@v8@@@v8@@_K@Z@std@@AEBV?$function@$$A6A_NV?$Local@VValue@v8@@@v8@@@Z@9@AEBV?$function@$$A6A_KV?$Local@VValue@v8@@@v8@@@Z@9@@Z 00000001800327d0 f i _nodert_generated.obj
 0001:00031990       ?CreateArrayWrapper@?$ArrayWrapper@_N@Collections@NodeRT@@SA?AV?$Local@VValue@v8@@@v8@@P$01E$AAV?$Array@_N$00@Platform@@AEBV?$function@$$A6A?AV?$Local@VValue@v8@@@v8@@_N@Z@std@@AEBV?$function@$$A6A_NV?$Local@VValue@v8@@@v8@@@Z@9@2@Z 0000000180032990 f i _nodert_generated.obj
 0001:00031b50       ?CreateArrayWrapper@?$ArrayWrapper@_W@Collections@NodeRT@@SA?AV?$Local@VValue@v8@@@v8@@P$01E$AAV?$Array@_W$00@Platform@@AEBV?$function@$$A6A?AV?$Local@VValue@v8@@@v8@@_W@Z@std@@AEBV?$function@$$A6A_NV?$Local@VValue@v8@@@v8@@@Z@9@AEBV?$function@$$A6A_WV?$Local@VValue@v8@@@v8@@@Z@9@@Z 0000000180032b50 f i _nodert_generated.obj
 0001:00031d10       ?CreateBoolean@IPropertyValueStatics@Foundation@Windows@@UE$AAAPE$AAVObject@Platform@@_N@Z 0000000180032d10 f i _nodert_generated.obj
 0001:00031d90       ?CreateBoolean@PropertyValue@Foundation@Windows@@SAPE$AAVObject@Platform@@_N@Z 0000000180032d90 f i _nodert_generated.obj
 0001:00031ea0       ?CreateBoolean@PropertyValue@Foundation@Windows@NodeRT@@CAXAEBV?$FunctionCallbackInfo@VValue@v8@@@Nan@@@Z 0000000180032ea0 f i _nodert_generated.obj
 0001:00032060       ?CreateBooleanArray@IPropertyValueStatics@Foundation@Windows@@UE$AAAPE$AAVObject@Platform@@P$01E$ABV?$Array@_N$00@5@@Z 0000000180033060 f i _nodert_generated.obj
 0001:000320f0       ?CreateBooleanArray@PropertyValue@Foundation@Windows@@SAPE$AAVObject@Platform@@P$01E$ABV?$Array@_N$00@5@@Z 00000001800330f0 f i _nodert_generated.obj
 0001:000321c0       ?CreateBooleanArray@PropertyValue@Foundation@Windows@NodeRT@@CAXAEBV?$FunctionCallbackInfo@VValue@v8@@@Nan@@@Z 00000001800331c0 f i _nodert_generated.obj
 0001:00032440       ?CreateChar16@IPropertyValueStatics@Foundation@Windows@@UE$AAAPE$AAVObject@Platform@@_W@Z 0000000180033440 f i _nodert_generated.obj
 0001:000324c0       ?CreateChar16@PropertyValue@Foundation@Windows@@SAPE$AAVObject@Platform@@_W@Z 00000001800334c0 f i _nodert_generated.obj
 0001:000325d0       ?CreateChar16@PropertyValue@Foundation@Windows@NodeRT@@CAXAEBV?$FunctionCallbackInfo@VValue@v8@@@Nan@@@Z 00000001800335d0 f i _nodert_generated.obj
 0001:00032790       ?CreateChar16Array@IPropertyValueStatics@Foundation@Windows@@UE$AAAPE$AAVObject@Platform@@P$01E$ABV?$Array@_W$00@5@@Z 0000000180033790 f i _nodert_generated.obj
 0001:00032820       ?CreateChar16Array@PropertyValue@Foundation@Windows@@SAPE$AAVObject@Platform@@P$01E$ABV?$Array@_W$00@5@@Z 0000000180033820 f i _nodert_generated.obj
 0001:000328f0       ?CreateChar16Array@PropertyValue@Foundation@Windows@NodeRT@@CAXAEBV?$FunctionCallbackInfo@VValue@v8@@@Nan@@@Z 00000001800338f0 f i _nodert_generated.obj
 0001:00032b70       ?CreateDateTime@IPropertyValueStatics@Foundation@Windows@@UE$AAAPE$AAVObject@Platform@@VDateTime@23@@Z 0000000180033b70 f i _nodert_generated.obj
 0001:00032bf0       ?CreateDateTime@PropertyValue@Foundation@Windows@@SAPE$AAVObject@Platform@@VDateTime@23@@Z 0000000180033bf0 f i _nodert_generated.obj
 0001:00032cf0       ?CreateDateTime@PropertyValue@Foundation@Windows@NodeRT@@CAXAEBV?$FunctionCallbackInfo@VValue@v8@@@Nan@@@Z 0000000180033cf0 f i _nodert_generated.obj
 0001:00032ea0       ?CreateDateTimeArray@IPropertyValueStatics@Foundation@Windows@@UE$AAAPE$AAVObject@Platform@@P$01E$ABV?$Array@VDateTime@Foundation@Windows@@$00@5@@Z 0000000180033ea0 f i _nodert_generated.obj
 0001:00032f30       ?CreateDateTimeArray@PropertyValue@Foundation@Windows@@SAPE$AAVObject@Platform@@P$01E$ABV?$Array@VDateTime@Foundation@Windows@@$00@5@@Z 0000000180033f30 f i _nodert_generated.obj
 0001:00033000       ?CreateDateTimeArray@PropertyValue@Foundation@Windows@NodeRT@@CAXAEBV?$FunctionCallbackInfo@VValue@v8@@@Nan@@@Z 0000000180034000 f i _nodert_generated.obj
 0001:00033280       ?CreateDouble@IPropertyValueStatics@Foundation@Windows@@UE$AAAPE$AAVObject@Platform@@N@Z 0000000180034280 f i _nodert_generated.obj
 0001:00033300       ?CreateDouble@PropertyValue@Foundation@Windows@@SAPE$AAVObject@Platform@@N@Z 0000000180034300 f i _nodert_generated.obj
 0001:00033420       ?CreateDouble@PropertyValue@Foundation@Windows@NodeRT@@CAXAEBV?$FunctionCallbackInfo@VValue@v8@@@Nan@@@Z 0000000180034420 f i _nodert_generated.obj
 0001:00033600       ?CreateDoubleArray@IPropertyValueStatics@Foundation@Windows@@UE$AAAPE$AAVObject@Platform@@P$01E$ABV?$Array@N$00@5@@Z 0000000180034600 f i _nodert_generated.obj
 0001:00033690       ?CreateDoubleArray@PropertyValue@Foundation@Windows@@SAPE$AAVObject@Platform@@P$01E$ABV?$Array@N$00@5@@Z 0000000180034690 f i _nodert_generated.obj
 0001:00033760       ?CreateDoubleArray@PropertyValue@Foundation@Windows@NodeRT@@CAXAEBV?$FunctionCallbackInfo@VValue@v8@@@Nan@@@Z 0000000180034760 f i _nodert_generated.obj
 0001:000339e0       ?CreateEmpty@IPropertyValueStatics@Foundation@Windows@@UE$AAAPE$AAVObject@Platform@@XZ 00000001800349e0 f i _nodert_generated.obj
 0001:00033a60       ?CreateEmpty@PropertyValue@Foundation@Windows@@SAPE$AAVObject@Platform@@XZ 0000000180034a60 f i _nodert_generated.obj
 0001:00033b70       ?CreateEmpty@PropertyValue@Foundation@Windows@NodeRT@@CAXAEBV?$FunctionCallbackInfo@VValue@v8@@@Nan@@@Z 0000000180034b70 f i _nodert_generated.obj
 0001:00033cc0       ?CreateGuid@IPropertyValueStatics@Foundation@Windows@@UE$AAAPE$AAVObject@Platform@@VGuid@5@@Z 0000000180034cc0 f i _nodert_generated.obj
 0001:00033d50       ?CreateGuid@PropertyValue@Foundation@Windows@@SAPE$AAVObject@Platform@@VGuid@5@@Z 0000000180034d50 f i _nodert_generated.obj
 0001:00033e70       ?CreateGuid@PropertyValue@Foundation@Windows@NodeRT@@CAXAEBV?$FunctionCallbackInfo@VValue@v8@@@Nan@@@Z 0000000180034e70 f i _nodert_generated.obj
 0001:00034050       ?CreateGuidArray@IPropertyValueStatics@Foundation@Windows@@UE$AAAPE$AAVObject@Platform@@P$01E$ABV?$Array@VGuid@Platform@@$00@5@@Z 0000000180035050 f i _nodert_generated.obj
 0001:000340e0       ?CreateGuidArray@PropertyValue@Foundation@Windows@@SAPE$AAVObject@Platform@@P$01E$ABV?$Array@VGuid@Platform@@$00@5@@Z 00000001800350e0 f i _nodert_generated.obj
 0001:000341b0       ?CreateGuidArray@PropertyValue@Foundation@Windows@NodeRT@@CAXAEBV?$FunctionCallbackInfo@VValue@v8@@@Nan@@@Z 00000001800351b0 f i _nodert_generated.obj
 0001:00034430       ?CreateInspectable@IPropertyValueStatics@Foundation@Windows@@UE$AAAPE$AAVObject@Platform@@PE$AAV45@@Z 0000000180035430 f i _nodert_generated.obj
 0001:000344b0       ?CreateInspectable@PropertyValue@Foundation@Windows@@SAPE$AAVObject@Platform@@PE$AAV45@@Z 00000001800354b0 f i _nodert_generated.obj
 0001:000345c0       ?CreateInspectable@PropertyValue@Foundation@Windows@NodeRT@@CAXAEBV?$FunctionCallbackInfo@VValue@v8@@@Nan@@@Z 00000001800355c0 f i _nodert_generated.obj
 0001:000347d0       ?CreateInspectableArray@IPropertyValueStatics@Foundation@Windows@@UE$AAAPE$AAVObject@Platform@@P$01E$ABV?$Array@PE$AAVObject@Platform@@$00@5@@Z 00000001800357d0 f i _nodert_generated.obj
 0001:00034860       ?CreateInspectableArray@PropertyValue@Foundation@Windows@@SAPE$AAVObject@Platform@@P$01E$ABV?$Array@PE$AAVObject@Platform@@$00@5@@Z 0000000180035860 f i _nodert_generated.obj
 0001:00034930       ?CreateInspectableArray@PropertyValue@Foundation@Windows@NodeRT@@CAXAEBV?$FunctionCallbackInfo@VValue@v8@@@Nan@@@Z 0000000180035930 f i _nodert_generated.obj
 0001:00034bb0       ?CreateInt16@IPropertyValueStatics@Foundation@Windows@@UE$AAAPE$AAVObject@Platform@@F@Z 0000000180035bb0 f i _nodert_generated.obj
 0001:00034c30       ?CreateInt16@PropertyValue@Foundation@Windows@@SAPE$AAVObject@Platform@@F@Z 0000000180035c30 f i _nodert_generated.obj
 0001:00034d40       ?CreateInt16@PropertyValue@Foundation@Windows@NodeRT@@CAXAEBV?$FunctionCallbackInfo@VValue@v8@@@Nan@@@Z 0000000180035d40 f i _nodert_generated.obj
 0001:00034f00       ?CreateInt16Array@IPropertyValueStatics@Foundation@Windows@@UE$AAAPE$AAVObject@Platform@@P$01E$ABV?$Array@F$00@5@@Z 0000000180035f00 f i _nodert_generated.obj
 0001:00034f90       ?CreateInt16Array@PropertyValue@Foundation@Windows@@SAPE$AAVObject@Platform@@P$01E$ABV?$Array@F$00@5@@Z 0000000180035f90 f i _nodert_generated.obj
 0001:00035060       ?CreateInt16Array@PropertyValue@Foundation@Windows@NodeRT@@CAXAEBV?$FunctionCallbackInfo@VValue@v8@@@Nan@@@Z 0000000180036060 f i _nodert_generated.obj
 0001:000352e0       ?CreateInt32@IPropertyValueStatics@Foundation@Windows@@UE$AAAPE$AAVObject@Platform@@H@Z 00000001800362e0 f i _nodert_generated.obj
 0001:00035360       ?CreateInt32@PropertyValue@Foundation@Windows@@SAPE$AAVObject@Platform@@H@Z 0000000180036360 f i _nodert_generated.obj
 0001:00035470       ?CreateInt32@PropertyValue@Foundation@Windows@NodeRT@@CAXAEBV?$FunctionCallbackInfo@VValue@v8@@@Nan@@@Z 0000000180036470 f i _nodert_generated.obj
 0001:00035630       ?CreateInt32Array@IPropertyValueStatics@Foundation@Windows@@UE$AAAPE$AAVObject@Platform@@P$01E$ABV?$Array@H$00@5@@Z 0000000180036630 f i _nodert_generated.obj
 0001:000356c0       ?CreateInt32Array@PropertyValue@Foundation@Windows@@SAPE$AAVObject@Platform@@P$01E$ABV?$Array@H$00@5@@Z 00000001800366c0 f i _nodert_generated.obj
 0001:00035790       ?CreateInt32Array@PropertyValue@Foundation@Windows@NodeRT@@CAXAEBV?$FunctionCallbackInfo@VValue@v8@@@Nan@@@Z 0000000180036790 f i _nodert_generated.obj
 0001:00035a10       ?CreateInt64@IPropertyValueStatics@Foundation@Windows@@UE$AAAPE$AAVObject@Platform@@_J@Z 0000000180036a10 f i _nodert_generated.obj
 0001:00035a90       ?CreateInt64@PropertyValue@Foundation@Windows@@SAPE$AAVObject@Platform@@_J@Z 0000000180036a90 f i _nodert_generated.obj
 0001:00035ba0       ?CreateInt64@PropertyValue@Foundation@Windows@NodeRT@@CAXAEBV?$FunctionCallbackInfo@VValue@v8@@@Nan@@@Z 0000000180036ba0 f i _nodert_generated.obj
 0001:00035d80       ?CreateInt64Array@IPropertyValueStatics@Foundation@Windows@@UE$AAAPE$AAVObject@Platform@@P$01E$ABV?$Array@_J$00@5@@Z 0000000180036d80 f i _nodert_generated.obj
 0001:00035e10       ?CreateInt64Array@PropertyValue@Foundation@Windows@@SAPE$AAVObject@Platform@@P$01E$ABV?$Array@_J$00@5@@Z 0000000180036e10 f i _nodert_generated.obj
 0001:00035ee0       ?CreateInt64Array@PropertyValue@Foundation@Windows@NodeRT@@CAXAEBV?$FunctionCallbackInfo@VValue@v8@@@Nan@@@Z 0000000180036ee0 f i _nodert_generated.obj
 0001:00036160       ?CreateIteratorWrapper@?$IteratorWrapper@PE$AAUIWwwFormUrlDecoderEntry@Foundation@Windows@@@Collections@NodeRT@@SA?AV?$Local@VValue@v8@@@v8@@PE$AAU?$IIterator@PE$AAUIWwwFormUrlDecoderEntry@Foundation@Windows@@@2Foundation@Windows@@AEBV?$function@$$A6A?AV?$Local@VValue@v8@@@v8@@PE$AAUIWwwFormUrlDecoderEntry@Foundation@Windows@@@Z@std@@@Z 0000000180037160 f i _nodert_generated.obj
 0001:00036300       ?CreatePoint@IPropertyValueStatics@Foundation@Windows@@UE$AAAPE$AAVObject@Platform@@VPoint@23@@Z 0000000180037300 f i _nodert_generated.obj
 0001:00036380       ?CreatePoint@PropertyValue@Foundation@Windows@@SAPE$AAVObject@Platform@@VPoint@23@@Z 0000000180037380 f i _nodert_generated.obj
 0001:00036480       ?CreatePoint@PropertyValue@Foundation@Windows@NodeRT@@CAXAEBV?$FunctionCallbackInfo@VValue@v8@@@Nan@@@Z 0000000180037480 f i _nodert_generated.obj
 0001:00036640       ?CreatePointArray@IPropertyValueStatics@Foundation@Windows@@UE$AAAPE$AAVObject@Platform@@P$01E$ABV?$Array@VPoint@Foundation@Windows@@$00@5@@Z 0000000180037640 f i _nodert_generated.obj
 0001:000366d0       ?CreatePointArray@PropertyValue@Foundation@Windows@@SAPE$AAVObject@Platform@@P$01E$ABV?$Array@VPoint@Foundation@Windows@@$00@5@@Z 00000001800376d0 f i _nodert_generated.obj
 0001:000367a0       ?CreatePointArray@PropertyValue@Foundation@Windows@NodeRT@@CAXAEBV?$FunctionCallbackInfo@VValue@v8@@@Nan@@@Z 00000001800377a0 f i _nodert_generated.obj
 0001:00036a20       ?CreateRect@IPropertyValueStatics@Foundation@Windows@@UE$AAAPE$AAVObject@Platform@@VRect@23@@Z 0000000180037a20 f i _nodert_generated.obj
 0001:00036ab0       ?CreateRect@PropertyValue@Foundation@Windows@@SAPE$AAVObject@Platform@@VRect@23@@Z 0000000180037ab0 f i _nodert_generated.obj
 0001:00036bd0       ?CreateRect@PropertyValue@Foundation@Windows@NodeRT@@CAXAEBV?$FunctionCallbackInfo@VValue@v8@@@Nan@@@Z 0000000180037bd0 f i _nodert_generated.obj
 0001:00036db0       ?CreateRectArray@IPropertyValueStatics@Foundation@Windows@@UE$AAAPE$AAVObject@Platform@@P$01E$ABV?$Array@VRect@Foundation@Windows@@$00@5@@Z 0000000180037db0 f i _nodert_generated.obj
 0001:00036e40       ?CreateRectArray@PropertyValue@Foundation@Windows@@SAPE$AAVObject@Platform@@P$01E$ABV?$Array@VRect@Foundation@Windows@@$00@5@@Z 0000000180037e40 f i _nodert_generated.obj
 0001:00036f10       ?CreateRectArray@PropertyValue@Foundation@Windows@NodeRT@@CAXAEBV?$FunctionCallbackInfo@VValue@v8@@@Nan@@@Z 0000000180037f10 f i _nodert_generated.obj
 0001:00037190       ?CreateReference@IMemoryBuffer@Foundation@Windows@@UE$AAAPE$AAUIMemoryBufferReference@23@XZ 0000000180038190 f i _nodert_generated.obj
 0001:00037210       ?CreateReference@IMemoryBuffer@Foundation@Windows@NodeRT@@CAXAEBV?$FunctionCallbackInfo@VValue@v8@@@Nan@@@Z 0000000180038210 f i _nodert_generated.obj
 0001:000373a0       ?CreateReference@MemoryBuffer@Foundation@Windows@NodeRT@@CAXAEBV?$FunctionCallbackInfo@VValue@v8@@@Nan@@@Z 00000001800383a0 f i _nodert_generated.obj
 0001:00037530       ?CreateSingle@IPropertyValueStatics@Foundation@Windows@@UE$AAAPE$AAVObject@Platform@@M@Z 0000000180038530 f i _nodert_generated.obj
 0001:000375b0       ?CreateSingle@PropertyValue@Foundation@Windows@@SAPE$AAVObject@Platform@@M@Z 00000001800385b0 f i _nodert_generated.obj
 0001:000376d0       ?CreateSingle@PropertyValue@Foundation@Windows@NodeRT@@CAXAEBV?$FunctionCallbackInfo@VValue@v8@@@Nan@@@Z 00000001800386d0 f i _nodert_generated.obj
 0001:000378b0       ?CreateSingleArray@IPropertyValueStatics@Foundation@Windows@@UE$AAAPE$AAVObject@Platform@@P$01E$ABV?$Array@M$00@5@@Z 00000001800388b0 f i _nodert_generated.obj
 0001:00037940       ?CreateSingleArray@PropertyValue@Foundation@Windows@@SAPE$AAVObject@Platform@@P$01E$ABV?$Array@M$00@5@@Z 0000000180038940 f i _nodert_generated.obj
 0001:00037a10       ?CreateSingleArray@PropertyValue@Foundation@Windows@NodeRT@@CAXAEBV?$FunctionCallbackInfo@VValue@v8@@@Nan@@@Z 0000000180038a10 f i _nodert_generated.obj
 0001:00037c90       ?CreateSize@IPropertyValueStatics@Foundation@Windows@@UE$AAAPE$AAVObject@Platform@@VSize@23@@Z 0000000180038c90 f i _nodert_generated.obj
 0001:00037d10       ?CreateSize@PropertyValue@Foundation@Windows@@SAPE$AAVObject@Platform@@VSize@23@@Z 0000000180038d10 f i _nodert_generated.obj
 0001:00037e10       ?CreateSize@PropertyValue@Foundation@Windows@NodeRT@@CAXAEBV?$FunctionCallbackInfo@VValue@v8@@@Nan@@@Z 0000000180038e10 f i _nodert_generated.obj
 0001:00037fd0       ?CreateSizeArray@IPropertyValueStatics@Foundation@Windows@@UE$AAAPE$AAVObject@Platform@@P$01E$ABV?$Array@VSize@Foundation@Windows@@$00@5@@Z 0000000180038fd0 f i _nodert_generated.obj
 0001:00038060       ?CreateSizeArray@PropertyValue@Foundation@Windows@@SAPE$AAVObject@Platform@@P$01E$ABV?$Array@VSize@Foundation@Windows@@$00@5@@Z 0000000180039060 f i _nodert_generated.obj
 0001:00038130       ?CreateSizeArray@PropertyValue@Foundation@Windows@NodeRT@@CAXAEBV?$FunctionCallbackInfo@VValue@v8@@@Nan@@@Z 0000000180039130 f i _nodert_generated.obj
 0001:000383b0       ?CreateString@IPropertyValueStatics@Foundation@Windows@@UE$AAAPE$AAVObject@Platform@@PE$AAVString@5@@Z 00000001800393b0 f i _nodert_generated.obj
 0001:00038430       ?CreateString@PropertyValue@Foundation@Windows@@SAPE$AAVObject@Platform@@PE$AAVString@5@@Z 0000000180039430 f i _nodert_generated.obj
 0001:00038540       ?CreateString@PropertyValue@Foundation@Windows@NodeRT@@CAXAEBV?$FunctionCallbackInfo@VValue@v8@@@Nan@@@Z 0000000180039540 f i _nodert_generated.obj
 0001:000387d0       ?CreateStringArray@IPropertyValueStatics@Foundation@Windows@@UE$AAAPE$AAVObject@Platform@@P$01E$ABV?$Array@PE$AAVString@Platform@@$00@5@@Z 00000001800397d0 f i _nodert_generated.obj
 0001:00038860       ?CreateStringArray@PropertyValue@Foundation@Windows@@SAPE$AAVObject@Platform@@P$01E$ABV?$Array@PE$AAVString@Platform@@$00@5@@Z 0000000180039860 f i _nodert_generated.obj
 0001:00038930       ?CreateStringArray@PropertyValue@Foundation@Windows@NodeRT@@CAXAEBV?$FunctionCallbackInfo@VValue@v8@@@Nan@@@Z 0000000180039930 f i _nodert_generated.obj
 0001:00038bb0       ?CreateTimeSpan@IPropertyValueStatics@Foundation@Windows@@UE$AAAPE$AAVObject@Platform@@VTimeSpan@23@@Z 0000000180039bb0 f i _nodert_generated.obj
 0001:00038c30       ?CreateTimeSpan@PropertyValue@Foundation@Windows@@SAPE$AAVObject@Platform@@VTimeSpan@23@@Z 0000000180039c30 f i _nodert_generated.obj
 0001:00038d30       ?CreateTimeSpan@PropertyValue@Foundation@Windows@NodeRT@@CAXAEBV?$FunctionCallbackInfo@VValue@v8@@@Nan@@@Z 0000000180039d30 f i _nodert_generated.obj
 0001:00038f10       ?CreateTimeSpanArray@IPropertyValueStatics@Foundation@Windows@@UE$AAAPE$AAVObject@Platform@@P$01E$ABV?$Array@VTimeSpan@Foundation@Windows@@$00@5@@Z 0000000180039f10 f i _nodert_generated.obj
 0001:00038fa0       ?CreateTimeSpanArray@PropertyValue@Foundation@Windows@@SAPE$AAVObject@Platform@@P$01E$ABV?$Array@VTimeSpan@Foundation@Windows@@$00@5@@Z 0000000180039fa0 f i _nodert_generated.obj
 0001:00039070       ?CreateTimeSpanArray@PropertyValue@Foundation@Windows@NodeRT@@CAXAEBV?$FunctionCallbackInfo@VValue@v8@@@Nan@@@Z 000000018003a070 f i _nodert_generated.obj
 0001:000392f0       ?CreateUInt16@IPropertyValueStatics@Foundation@Windows@@UE$AAAPE$AAVObject@Platform@@G@Z 000000018003a2f0 f i _nodert_generated.obj
 0001:00039370       ?CreateUInt16@PropertyValue@Foundation@Windows@@SAPE$AAVObject@Platform@@G@Z 000000018003a370 f i _nodert_generated.obj
 0001:00039480       ?CreateUInt16@PropertyValue@Foundation@Windows@NodeRT@@CAXAEBV?$FunctionCallbackInfo@VValue@v8@@@Nan@@@Z 000000018003a480 f i _nodert_generated.obj
 0001:00039640       ?CreateUInt16Array@IPropertyValueStatics@Foundation@Windows@@UE$AAAPE$AAVObject@Platform@@P$01E$ABV?$Array@G$00@5@@Z 000000018003a640 f i _nodert_generated.obj
 0001:000396d0       ?CreateUInt16Array@PropertyValue@Foundation@Windows@@SAPE$AAVObject@Platform@@P$01E$ABV?$Array@G$00@5@@Z 000000018003a6d0 f i _nodert_generated.obj
 0001:000397a0       ?CreateUInt16Array@PropertyValue@Foundation@Windows@NodeRT@@CAXAEBV?$FunctionCallbackInfo@VValue@v8@@@Nan@@@Z 000000018003a7a0 f i _nodert_generated.obj
 0001:00039a20       ?CreateUInt32@IPropertyValueStatics@Foundation@Windows@@UE$AAAPE$AAVObject@Platform@@I@Z 000000018003aa20 f i _nodert_generated.obj
 0001:00039aa0       ?CreateUInt32@PropertyValue@Foundation@Windows@@SAPE$AAVObject@Platform@@I@Z 000000018003aaa0 f i _nodert_generated.obj
 0001:00039bb0       ?CreateUInt32@PropertyValue@Foundation@Windows@NodeRT@@CAXAEBV?$FunctionCallbackInfo@VValue@v8@@@Nan@@@Z 000000018003abb0 f i _nodert_generated.obj
 0001:00039d70       ?CreateUInt32Array@IPropertyValueStatics@Foundation@Windows@@UE$AAAPE$AAVObject@Platform@@P$01E$ABV?$Array@I$00@5@@Z 000000018003ad70 f i _nodert_generated.obj
 0001:00039e00       ?CreateUInt32Array@PropertyValue@Foundation@Windows@@SAPE$AAVObject@Platform@@P$01E$ABV?$Array@I$00@5@@Z 000000018003ae00 f i _nodert_generated.obj
 0001:00039ed0       ?CreateUInt32Array@PropertyValue@Foundation@Windows@NodeRT@@CAXAEBV?$FunctionCallbackInfo@VValue@v8@@@Nan@@@Z 000000018003aed0 f i _nodert_generated.obj
 0001:0003a150       ?CreateUInt64@IPropertyValueStatics@Foundation@Windows@@UE$AAAPE$AAVObject@Platform@@_K@Z 000000018003b150 f i _nodert_generated.obj
 0001:0003a1d0       ?CreateUInt64@PropertyValue@Foundation@Windows@@SAPE$AAVObject@Platform@@_K@Z 000000018003b1d0 f i _nodert_generated.obj
 0001:0003a2e0       ?CreateUInt64@PropertyValue@Foundation@Windows@NodeRT@@CAXAEBV?$FunctionCallbackInfo@VValue@v8@@@Nan@@@Z 000000018003b2e0 f i _nodert_generated.obj
 0001:0003a4c0       ?CreateUInt64Array@IPropertyValueStatics@Foundation@Windows@@UE$AAAPE$AAVObject@Platform@@P$01E$ABV?$Array@_K$00@5@@Z 000000018003b4c0 f i _nodert_generated.obj
 0001:0003a550       ?CreateUInt64Array@PropertyValue@Foundation@Windows@@SAPE$AAVObject@Platform@@P$01E$ABV?$Array@_K$00@5@@Z 000000018003b550 f i _nodert_generated.obj
 0001:0003a620       ?CreateUInt64Array@PropertyValue@Foundation@Windows@NodeRT@@CAXAEBV?$FunctionCallbackInfo@VValue@v8@@@Nan@@@Z 000000018003b620 f i _nodert_generated.obj
 0001:0003a8a0       ?CreateUInt8@IPropertyValueStatics@Foundation@Windows@@UE$AAAPE$AAVObject@Platform@@E@Z 000000018003b8a0 f i _nodert_generated.obj
 0001:0003a920       ?CreateUInt8@PropertyValue@Foundation@Windows@@SAPE$AAVObject@Platform@@E@Z 000000018003b920 f i _nodert_generated.obj
 0001:0003aa30       ?CreateUInt8@PropertyValue@Foundation@Windows@NodeRT@@CAXAEBV?$FunctionCallbackInfo@VValue@v8@@@Nan@@@Z 000000018003ba30 f i _nodert_generated.obj
 0001:0003abf0       ?CreateUInt8Array@IPropertyValueStatics@Foundation@Windows@@UE$AAAPE$AAVObject@Platform@@P$01E$ABV?$Array@E$00@5@@Z 000000018003bbf0 f i _nodert_generated.obj
 0001:0003ac80       ?CreateUInt8Array@PropertyValue@Foundation@Windows@@SAPE$AAVObject@Platform@@P$01E$ABV?$Array@E$00@5@@Z 000000018003bc80 f i _nodert_generated.obj
 0001:0003ad50       ?CreateUInt8Array@PropertyValue@Foundation@Windows@NodeRT@@CAXAEBV?$FunctionCallbackInfo@VValue@v8@@@Nan@@@Z 000000018003bd50 f i _nodert_generated.obj
 0001:0003afd0       ?CreateUri@IUriRuntimeClassFactory@Foundation@Windows@@UE$AAAPE$AAVUri@23@PE$AAVString@Platform@@@Z 000000018003bfd0 f i _nodert_generated.obj
 0001:0003b050       ?CreateWithRelativeUri@IUriRuntimeClassFactory@Foundation@Windows@@UE$AAAPE$AAVUri@23@PE$AAVString@Platform@@0@Z 000000018003c050 f i _nodert_generated.obj
 0001:0003b0d0       ?CreateWwwFormUrlDecoder@IWwwFormUrlDecoderRuntimeClassFactory@Foundation@Windows@@UE$AAAPE$AAVWwwFormUrlDecoder@23@PE$AAVString@Platform@@@Z 000000018003c0d0 f i _nodert_generated.obj
 0001:0003b150       ?CurrentGetter@?$IteratorWrapper@PE$AAUIWwwFormUrlDecoderEntry@Foundation@Windows@@@Collections@NodeRT@@CAXV?$Local@VString@v8@@@v8@@AEBV?$PropertyCallbackInfo@VValue@v8@@@Nan@@@Z 000000018003c150 f i _nodert_generated.obj
 0001:0003b2e0       ?Decrement@__abi_FTMWeakRefData@@QECAKXZ 000000018003c2e0 f i _nodert_generated.obj
 0001:0003b390       ?Delete@Nan@@YA?AV?$Maybe@_N@v8@@V?$Local@VObject@v8@@@3@V?$Local@VString@v8@@@3@@Z 000000018003c390 f i _nodert_generated.obj
 0001:0003b430       ?DisplayIriGetter@Uri@Foundation@Windows@NodeRT@@CAXV?$Local@VString@v8@@@v8@@AEBV?$PropertyCallbackInfo@VValue@v8@@@Nan@@@Z 000000018003c430 f i _nodert_generated.obj
 0001:0003b5e0       ?DisplayUriGetter@Uri@Foundation@Windows@NodeRT@@CAXV?$Local@VString@v8@@@v8@@AEBV?$PropertyCallbackInfo@VValue@v8@@@Nan@@@Z 000000018003c5e0 f i _nodert_generated.obj
 0001:0003b720       ?DomainGetter@Uri@Foundation@Windows@NodeRT@@CAXV?$Local@VString@v8@@@v8@@AEBV?$PropertyCallbackInfo@VValue@v8@@@Nan@@@Z 000000018003c720 f i _nodert_generated.obj
 0001:0003b860       ?Equals@IUriRuntimeClass@Foundation@Windows@@UE$AAA_NPE$AAVUri@23@@Z 000000018003c860 f i _nodert_generated.obj
 0001:0003b8a0       ?Equals@Nan@@YA?AV?$Maybe@_N@v8@@V?$Local@VValue@v8@@@3@0@Z 000000018003c8a0 f i _nodert_generated.obj
 0001:0003b930       ?Equals@Uri@Foundation@Windows@NodeRT@@CAXAEBV?$FunctionCallbackInfo@VValue@v8@@@Nan@@@Z 000000018003c930 f i _nodert_generated.obj
 0001:0003bbb0       ?ErrorCodeGetter@IAsyncInfo@Foundation@Windows@NodeRT@@CAXV?$Local@VString@v8@@@v8@@AEBV?$PropertyCallbackInfo@VValue@v8@@@Nan@@@Z 000000018003cbb0 f i _nodert_generated.obj
 0001:0003bcd0       ?EscapeComponent@IUriEscapeStatics@Foundation@Windows@@UE$AAAPE$AAVString@Platform@@PE$AAV45@@Z 000000018003ccd0 f i _nodert_generated.obj
 0001:0003bd50       ?EscapeComponent@Uri@Foundation@Windows@@SAPE$AAVString@Platform@@PE$AAV45@@Z 000000018003cd50 f i _nodert_generated.obj
 0001:0003be70       ?EscapeComponent@Uri@Foundation@Windows@NodeRT@@CAXAEBV?$FunctionCallbackInfo@VValue@v8@@@Nan@@@Z 000000018003ce70 f i _nodert_generated.obj
 0001:0003c120       ?ExtensionGetter@Uri@Foundation@Windows@NodeRT@@CAXV?$Local@VString@v8@@@v8@@AEBV?$PropertyCallbackInfo@VValue@v8@@@Nan@@@Z 000000018003d120 f i _nodert_generated.obj
 0001:0003c260       ?First@?$IIterable@PE$AAUIWwwFormUrlDecoderEntry@Foundation@Windows@@@Collections@Foundation@Windows@@UE$AAAPE$AAU?$IIterator@PE$AAUIWwwFormUrlDecoderEntry@Foundation@Windows@@@234@XZ 000000018003d260 f i _nodert_generated.obj
 0001:0003c2e0       ?First@WwwFormUrlDecoder@Foundation@Windows@NodeRT@@CAXAEBV?$FunctionCallbackInfo@VValue@v8@@@Nan@@@Z 000000018003d2e0 f i _nodert_generated.obj
 0001:0003c560       ?FoundationContractFromJsObject@Foundation@Windows@NodeRT@@YA?AVFoundationContract@12@V?$Local@VValue@v8@@@v8@@@Z 000000018003d560 f   _nodert_generated.obj
 0001:0003c640       ?FoundationContractToJsObject@Foundation@Windows@NodeRT@@YA?AV?$Local@VValue@v8@@@v8@@VFoundationContract@12@@Z 000000018003d640 f   _nodert_generated.obj
 0001:0003c6c0       ?FragmentGetter@Uri@Foundation@Windows@NodeRT@@CAXV?$Local@VString@v8@@@v8@@AEBV?$PropertyCallbackInfo@VValue@v8@@@Nan@@@Z 000000018003d6c0 f i _nodert_generated.obj
 0001:0003c910       ?Get@?$ArrayWrapper@E@Collections@NodeRT@@CAXIAEBV?$PropertyCallbackInfo@VValue@v8@@@Nan@@@Z 000000018003d910 f i _nodert_generated.obj
 0001:0003cae0       ?Get@?$ArrayWrapper@F@Collections@NodeRT@@CAXIAEBV?$PropertyCallbackInfo@VValue@v8@@@Nan@@@Z 000000018003dae0 f i _nodert_generated.obj
 0001:0003ccb0       ?Get@?$ArrayWrapper@G@Collections@NodeRT@@CAXIAEBV?$PropertyCallbackInfo@VValue@v8@@@Nan@@@Z 000000018003dcb0 f i _nodert_generated.obj
 0001:0003ce80       ?Get@?$ArrayWrapper@H@Collections@NodeRT@@CAXIAEBV?$PropertyCallbackInfo@VValue@v8@@@Nan@@@Z 000000018003de80 f i _nodert_generated.obj
 0001:0003d050       ?Get@?$ArrayWrapper@I@Collections@NodeRT@@CAXIAEBV?$PropertyCallbackInfo@VValue@v8@@@Nan@@@Z 000000018003e050 f i _nodert_generated.obj
 0001:0003d220       ?Get@?$ArrayWrapper@M@Collections@NodeRT@@CAXIAEBV?$PropertyCallbackInfo@VValue@v8@@@Nan@@@Z 000000018003e220 f i _nodert_generated.obj
 0001:0003d400       ?Get@?$ArrayWrapper@N@Collections@NodeRT@@CAXIAEBV?$PropertyCallbackInfo@VValue@v8@@@Nan@@@Z 000000018003e400 f i _nodert_generated.obj
 0001:0003d5e0       ?Get@?$ArrayWrapper@PE$AAVObject@Platform@@@Collections@NodeRT@@CAXIAEBV?$PropertyCallbackInfo@VValue@v8@@@Nan@@@Z 000000018003e5e0 f i _nodert_generated.obj
 0001:0003d730       ?Get@?$ArrayWrapper@PE$AAVString@Platform@@@Collections@NodeRT@@CAXIAEBV?$PropertyCallbackInfo@VValue@v8@@@Nan@@@Z 000000018003e730 f i _nodert_generated.obj
 0001:0003d8c0       ?Get@?$ArrayWrapper@VDateTime@Foundation@Windows@@@Collections@NodeRT@@CAXIAEBV?$PropertyCallbackInfo@VValue@v8@@@Nan@@@Z 000000018003e8c0 f i _nodert_generated.obj
 0001:0003da90       ?Get@?$ArrayWrapper@VGuid@Platform@@@Collections@NodeRT@@CAXIAEBV?$PropertyCallbackInfo@VValue@v8@@@Nan@@@Z 000000018003ea90 f i _nodert_generated.obj
 0001:0003dc90       ?Get@?$ArrayWrapper@VPoint@Foundation@Windows@@@Collections@NodeRT@@CAXIAEBV?$PropertyCallbackInfo@VValue@v8@@@Nan@@@Z 000000018003ec90 f i _nodert_generated.obj
 0001:0003de60       ?Get@?$ArrayWrapper@VRect@Foundation@Windows@@@Collections@NodeRT@@CAXIAEBV?$PropertyCallbackInfo@VValue@v8@@@Nan@@@Z 000000018003ee60 f i _nodert_generated.obj
 0001:0003e060       ?Get@?$ArrayWrapper@VSize@Foundation@Windows@@@Collections@NodeRT@@CAXIAEBV?$PropertyCallbackInfo@VValue@v8@@@Nan@@@Z 000000018003f060 f i _nodert_generated.obj
 0001:0003e230       ?Get@?$ArrayWrapper@VTimeSpan@Foundation@Windows@@@Collections@NodeRT@@CAXIAEBV?$PropertyCallbackInfo@VValue@v8@@@Nan@@@Z 000000018003f230 f i _nodert_generated.obj
 0001:0003e400       ?Get@?$ArrayWrapper@_J@Collections@NodeRT@@CAXIAEBV?$PropertyCallbackInfo@VValue@v8@@@Nan@@@Z 000000018003f400 f i _nodert_generated.obj
 0001:0003e5d0       ?Get@?$ArrayWrapper@_K@Collections@NodeRT@@CAXIAEBV?$PropertyCallbackInfo@VValue@v8@@@Nan@@@Z 000000018003f5d0 f i _nodert_generated.obj
 0001:0003e7a0       ?Get@?$ArrayWrapper@_N@Collections@NodeRT@@CAXIAEBV?$PropertyCallbackInfo@VValue@v8@@@Nan@@@Z 000000018003f7a0 f i _nodert_generated.obj
 0001:0003e970       ?Get@?$ArrayWrapper@_W@Collections@NodeRT@@CAXIAEBV?$PropertyCallbackInfo@VValue@v8@@@Nan@@@Z 000000018003f970 f i _nodert_generated.obj
 0001:0003eb40       ?Get@Nan@@YA?AV?$MaybeLocal@VValue@v8@@@v8@@V?$Local@VObject@v8@@@3@I@Z 000000018003fb40 f i _nodert_generated.obj
 0001:0003ec00       ?Get@Nan@@YA?AV?$MaybeLocal@VValue@v8@@@v8@@V?$Local@VObject@v8@@@3@V?$Local@VValue@v8@@@3@@Z 000000018003fc00 f i _nodert_generated.obj
 0001:0003ecb0       ?GetActivationFactory@IGetActivationFactory@Foundation@Windows@@UE$AAAPE$AAVObject@Platform@@PE$AAVString@5@@Z 000000018003fcb0 f i _nodert_generated.obj
 0001:0003ed30       ?GetActivationFactory@IGetActivationFactory@Foundation@Windows@NodeRT@@CAXAEBV?$FunctionCallbackInfo@VValue@v8@@@Nan@@@Z 000000018003fd30 f i _nodert_generated.obj
 0001:0003f000       ?GetAt@?$IVectorView@PE$AAUIWwwFormUrlDecoderEntry@Foundation@Windows@@@Collections@Foundation@Windows@@UE$AAAPE$AAUIWwwFormUrlDecoderEntry@34@I@Z 0000000180040000 f i _nodert_generated.obj
 0001:0003f080       ?GetAt@WwwFormUrlDecoder@Foundation@Windows@NodeRT@@CAXAEBV?$FunctionCallbackInfo@VValue@v8@@@Nan@@@Z 0000000180040080 f i _nodert_generated.obj
 0001:0003f310       ?GetBoolean@IPropertyValue@Foundation@Windows@@UE$AAA_NXZ 0000000180040310 f i _nodert_generated.obj
 0001:0003f350       ?GetBoolean@IPropertyValue@Foundation@Windows@NodeRT@@CAXAEBV?$FunctionCallbackInfo@VValue@v8@@@Nan@@@Z 0000000180040350 f i _nodert_generated.obj
 0001:0003f4a0       ?GetBooleanArray@IPropertyValue@Foundation@Windows@@UE$AAAXPEAP$01E$AAV?$Array@_N$00@Platform@@@Z 00000001800404a0 f i _nodert_generated.obj
 0001:0003f5a0       ?GetBooleanArray@IPropertyValue@Foundation@Windows@NodeRT@@CAXAEBV?$FunctionCallbackInfo@VValue@v8@@@Nan@@@Z 00000001800405a0 f i _nodert_generated.obj
 0001:0003f900       ?GetChar16@IPropertyValue@Foundation@Windows@@UE$AAA_WXZ 0000000180040900 f i _nodert_generated.obj
 0001:0003f940       ?GetChar16@IPropertyValue@Foundation@Windows@NodeRT@@CAXAEBV?$FunctionCallbackInfo@VValue@v8@@@Nan@@@Z 0000000180040940 f i _nodert_generated.obj
 0001:0003fa80       ?GetChar16Array@IPropertyValue@Foundation@Windows@@UE$AAAXPEAP$01E$AAV?$Array@_W$00@Platform@@@Z 0000000180040a80 f i _nodert_generated.obj
 0001:0003fb90       ?GetChar16Array@IPropertyValue@Foundation@Windows@NodeRT@@CAXAEBV?$FunctionCallbackInfo@VValue@v8@@@Nan@@@Z 0000000180040b90 f i _nodert_generated.obj
 0001:0003fef0       ?GetDateTime@IPropertyValue@Foundation@Windows@@UE$AAA?AVDateTime@23@XZ 0000000180040ef0 f i _nodert_generated.obj
 0001:0003ff30       ?GetDateTime@IPropertyValue@Foundation@Windows@NodeRT@@CAXAEBV?$FunctionCallbackInfo@VValue@v8@@@Nan@@@Z 0000000180040f30 f i _nodert_generated.obj
 0001:00040080       ?GetDateTimeArray@IPropertyValue@Foundation@Windows@@UE$AAAXPEAP$01E$AAV?$Array@VDateTime@Foundation@Windows@@$00@Platform@@@Z 0000000180041080 f i _nodert_generated.obj
 0001:00040190       ?GetDateTimeArray@IPropertyValue@Foundation@Windows@NodeRT@@CAXAEBV?$FunctionCallbackInfo@VValue@v8@@@Nan@@@Z 0000000180041190 f i _nodert_generated.obj
 0001:000404f0       ?GetDouble@IPropertyValue@Foundation@Windows@@UE$AAANXZ 00000001800414f0 f i _nodert_generated.obj
 0001:00040530       ?GetDouble@IPropertyValue@Foundation@Windows@NodeRT@@CAXAEBV?$FunctionCallbackInfo@VValue@v8@@@Nan@@@Z 0000000180041530 f i _nodert_generated.obj
 0001:00040680       ?GetDoubleArray@IPropertyValue@Foundation@Windows@@UE$AAAXPEAP$01E$AAV?$Array@N$00@Platform@@@Z 0000000180041680 f i _nodert_generated.obj
 0001:00040790       ?GetDoubleArray@IPropertyValue@Foundation@Windows@NodeRT@@CAXAEBV?$FunctionCallbackInfo@VValue@v8@@@Nan@@@Z 0000000180041790 f i _nodert_generated.obj
 0001:00040af0       ?GetFirstValueByName@IWwwFormUrlDecoderRuntimeClass@Foundation@Windows@@UE$AAAPE$AAVString@Platform@@PE$AAV45@@Z 0000000180041af0 f i _nodert_generated.obj
 0001:00040b70       ?GetFirstValueByName@WwwFormUrlDecoder@Foundation@Windows@NodeRT@@CAXAEBV?$FunctionCallbackInfo@VValue@v8@@@Nan@@@Z 0000000180041b70 f i _nodert_generated.obj
 0001:00040e60       ?GetFunction@Nan@@YA?AV?$MaybeLocal@VFunction@v8@@@v8@@V?$Local@VFunctionTemplate@v8@@@3@@Z 0000000180041e60 f i _nodert_generated.obj
 0001:00040f00       ?GetGuid@IPropertyValue@Foundation@Windows@@UE$AAA?AVGuid@Platform@@XZ 0000000180041f00 f i _nodert_generated.obj
 0001:00040f40       ?GetGuid@IPropertyValue@Foundation@Windows@NodeRT@@CAXAEBV?$FunctionCallbackInfo@VValue@v8@@@Nan@@@Z 0000000180041f40 f i _nodert_generated.obj
 0001:000410a0       ?GetGuidArray@IPropertyValue@Foundation@Windows@@UE$AAAXPEAP$01E$AAV?$Array@VGuid@Platform@@$00@Platform@@@Z 00000001800420a0 f i _nodert_generated.obj
 0001:000411b0       ?GetGuidArray@IPropertyValue@Foundation@Windows@NodeRT@@CAXAEBV?$FunctionCallbackInfo@VValue@v8@@@Nan@@@Z 00000001800421b0 f i _nodert_generated.obj
 0001:00041510       ?GetInspectableArray@IPropertyValue@Foundation@Windows@@UE$AAAXPEAP$01E$AAV?$Array@PE$AAVObject@Platform@@$00@Platform@@@Z 0000000180042510 f i _nodert_generated.obj
 0001:00041620       ?GetInspectableArray@IPropertyValue@Foundation@Windows@NodeRT@@CAXAEBV?$FunctionCallbackInfo@VValue@v8@@@Nan@@@Z 0000000180042620 f i _nodert_generated.obj
 0001:00041980       ?GetInt16@IPropertyValue@Foundation@Windows@@UE$AAAFXZ 0000000180042980 f i _nodert_generated.obj
 0001:000419b0       ?GetInt16@IPropertyValue@Foundation@Windows@NodeRT@@CAXAEBV?$FunctionCallbackInfo@VValue@v8@@@Nan@@@Z 00000001800429b0 f i _nodert_generated.obj
 0001:00041b20       ?GetInt16Array@IPropertyValue@Foundation@Windows@@UE$AAAXPEAP$01E$AAV?$Array@F$00@Platform@@@Z 0000000180042b20 f i _nodert_generated.obj
 0001:00041c30       ?GetInt16Array@IPropertyValue@Foundation@Windows@NodeRT@@CAXAEBV?$FunctionCallbackInfo@VValue@v8@@@Nan@@@Z 0000000180042c30 f i _nodert_generated.obj
 0001:00041f90       ?GetInt32@IPropertyValue@Foundation@Windows@@UE$AAAHXZ 0000000180042f90 f i _nodert_generated.obj
 0001:00041fc0       ?GetInt32@IPropertyValue@Foundation@Windows@NodeRT@@CAXAEBV?$FunctionCallbackInfo@VValue@v8@@@Nan@@@Z 0000000180042fc0 f i _nodert_generated.obj
 0001:00042130       ?GetInt32Array@IPropertyValue@Foundation@Windows@@UE$AAAXPEAP$01E$AAV?$Array@H$00@Platform@@@Z 0000000180043130 f i _nodert_generated.obj
 0001:00042240       ?GetInt32Array@IPropertyValue@Foundation@Windows@NodeRT@@CAXAEBV?$FunctionCallbackInfo@VValue@v8@@@Nan@@@Z 0000000180043240 f i _nodert_generated.obj
 0001:000425a0       ?GetInt64@IPropertyValue@Foundation@Windows@@UE$AAA_JXZ 00000001800435a0 f i _nodert_generated.obj
 0001:000425d0       ?GetInt64@IPropertyValue@Foundation@Windows@NodeRT@@CAXAEBV?$FunctionCallbackInfo@VValue@v8@@@Nan@@@Z 00000001800435d0 f i _nodert_generated.obj
 0001:00042720       ?GetInt64Array@IPropertyValue@Foundation@Windows@@UE$AAAXPEAP$01E$AAV?$Array@_J$00@Platform@@@Z 0000000180043720 f i _nodert_generated.obj
 0001:00042830       ?GetInt64Array@IPropertyValue@Foundation@Windows@NodeRT@@CAXAEBV?$FunctionCallbackInfo@VValue@v8@@@Nan@@@Z 0000000180043830 f i _nodert_generated.obj
 0001:00042b90       ?GetMany@?$IteratorWrapper@PE$AAUIWwwFormUrlDecoderEntry@Foundation@Windows@@@Collections@NodeRT@@CAXAEBV?$FunctionCallbackInfo@VValue@v8@@@Nan@@@Z 0000000180043b90 f i _nodert_generated.obj
 0001:00042c20       ?GetMany@WwwFormUrlDecoder@Foundation@Windows@NodeRT@@CAXAEBV?$FunctionCallbackInfo@VValue@v8@@@Nan@@@Z 0000000180043c20 f i _nodert_generated.obj
 0001:00042cb0       ?GetObjectInstance@?$ArrayWrapper@E@Collections@NodeRT@@UEBAPE$AAVObject@Platform@@XZ 0000000180043cb0 f i _nodert_generated.obj
 0001:00042ce0       ?GetObjectInstance@?$ArrayWrapper@F@Collections@NodeRT@@UEBAPE$AAVObject@Platform@@XZ 0000000180043ce0 f i _nodert_generated.obj
 0001:00042d10       ?GetObjectInstance@?$ArrayWrapper@G@Collections@NodeRT@@UEBAPE$AAVObject@Platform@@XZ 0000000180043d10 f i _nodert_generated.obj
 0001:00042d40       ?GetObjectInstance@?$ArrayWrapper@H@Collections@NodeRT@@UEBAPE$AAVObject@Platform@@XZ 0000000180043d40 f i _nodert_generated.obj
 0001:00042d70       ?GetObjectInstance@?$ArrayWrapper@I@Collections@NodeRT@@UEBAPE$AAVObject@Platform@@XZ 0000000180043d70 f i _nodert_generated.obj
 0001:00042da0       ?GetObjectInstance@?$ArrayWrapper@M@Collections@NodeRT@@UEBAPE$AAVObject@Platform@@XZ 0000000180043da0 f i _nodert_generated.obj
 0001:00042dd0       ?GetObjectInstance@?$ArrayWrapper@N@Collections@NodeRT@@UEBAPE$AAVObject@Platform@@XZ 0000000180043dd0 f i _nodert_generated.obj
 0001:00042e00       ?GetObjectInstance@?$ArrayWrapper@PE$AAVObject@Platform@@@Collections@NodeRT@@UEBAPE$AAVObject@Platform@@XZ 0000000180043e00 f i _nodert_generated.obj
 0001:00042e30       ?GetObjectInstance@?$ArrayWrapper@PE$AAVString@Platform@@@Collections@NodeRT@@UEBAPE$AAVObject@Platform@@XZ 0000000180043e30 f i _nodert_generated.obj
 0001:00042e60       ?GetObjectInstance@?$ArrayWrapper@VDateTime@Foundation@Windows@@@Collections@NodeRT@@UEBAPE$AAVObject@Platform@@XZ 0000000180043e60 f i _nodert_generated.obj
 0001:00042e90       ?GetObjectInstance@?$ArrayWrapper@VGuid@Platform@@@Collections@NodeRT@@UEBAPE$AAVObject@Platform@@XZ 0000000180043e90 f i _nodert_generated.obj
 0001:00042ec0       ?GetObjectInstance@?$ArrayWrapper@VPoint@Foundation@Windows@@@Collections@NodeRT@@UEBAPE$AAVObject@Platform@@XZ 0000000180043ec0 f i _nodert_generated.obj
 0001:00042ef0       ?GetObjectInstance@?$ArrayWrapper@VRect@Foundation@Windows@@@Collections@NodeRT@@UEBAPE$AAVObject@Platform@@XZ 0000000180043ef0 f i _nodert_generated.obj
 0001:00042f20       ?GetObjectInstance@?$ArrayWrapper@VSize@Foundation@Windows@@@Collections@NodeRT@@UEBAPE$AAVObject@Platform@@XZ 0000000180043f20 f i _nodert_generated.obj
 0001:00042f50       ?GetObjectInstance@?$ArrayWrapper@VTimeSpan@Foundation@Windows@@@Collections@NodeRT@@UEBAPE$AAVObject@Platform@@XZ 0000000180043f50 f i _nodert_generated.obj
 0001:00042f80       ?GetObjectInstance@?$ArrayWrapper@_J@Collections@NodeRT@@UEBAPE$AAVObject@Platform@@XZ 0000000180043f80 f i _nodert_generated.obj
 0001:00042fb0       ?GetObjectInstance@?$ArrayWrapper@_K@Collections@NodeRT@@UEBAPE$AAVObject@Platform@@XZ 0000000180043fb0 f i _nodert_generated.obj
 0001:00042fe0       ?GetObjectInstance@?$ArrayWrapper@_N@Collections@NodeRT@@UEBAPE$AAVObject@Platform@@XZ 0000000180043fe0 f i _nodert_generated.obj
 0001:00043010       ?GetObjectInstance@?$ArrayWrapper@_W@Collections@NodeRT@@UEBAPE$AAVObject@Platform@@XZ 0000000180044010 f i _nodert_generated.obj
 0001:00043040       ?GetObjectInstance@?$IteratorWrapper@PE$AAUIWwwFormUrlDecoderEntry@Foundation@Windows@@@Collections@NodeRT@@UEBAPE$AAVObject@Platform@@XZ 0000000180044040 f i _nodert_generated.obj
 0001:00043070       ?GetObjectInstance@Deferral@Foundation@Windows@NodeRT@@UEBAPE$AAVObject@Platform@@XZ 0000000180044070 f i _nodert_generated.obj
 0001:000430a0       ?GetObjectInstance@IAsyncAction@Foundation@Windows@NodeRT@@UEBAPE$AAVObject@Platform@@XZ 00000001800440a0 f i _nodert_generated.obj
 0001:000430d0       ?GetObjectInstance@IAsyncInfo@Foundation@Windows@NodeRT@@UEBAPE$AAVObject@Platform@@XZ 00000001800440d0 f i _nodert_generated.obj
 0001:00043100       ?GetObjectInstance@IGetActivationFactory@Foundation@Windows@NodeRT@@UEBAPE$AAVObject@Platform@@XZ 0000000180044100 f i _nodert_generated.obj
 0001:00043130       ?GetObjectInstance@IMemoryBuffer@Foundation@Windows@NodeRT@@UEBAPE$AAVObject@Platform@@XZ 0000000180044130 f i _nodert_generated.obj
 0001:00043160       ?GetObjectInstance@IMemoryBufferReference@Foundation@Windows@NodeRT@@UEBAPE$AAVObject@Platform@@XZ 0000000180044160 f i _nodert_generated.obj
 0001:00043190       ?GetObjectInstance@IPropertyValue@Foundation@Windows@NodeRT@@UEBAPE$AAVObject@Platform@@XZ 0000000180044190 f i _nodert_generated.obj
 0001:000431c0       ?GetObjectInstance@IStringable@Foundation@Windows@NodeRT@@UEBAPE$AAVObject@Platform@@XZ 00000001800441c0 f i _nodert_generated.obj
 0001:000431f0       ?GetObjectInstance@IWwwFormUrlDecoderEntry@Foundation@Windows@NodeRT@@UEBAPE$AAVObject@Platform@@XZ 00000001800441f0 f i _nodert_generated.obj
 0001:00043220       ?GetObjectInstance@MemoryBuffer@Foundation@Windows@NodeRT@@UEBAPE$AAVObject@Platform@@XZ 0000000180044220 f i _nodert_generated.obj
 0001:00043250       ?GetObjectInstance@PropertyValue@Foundation@Windows@NodeRT@@UEBAPE$AAVObject@Platform@@XZ 0000000180044250 f i _nodert_generated.obj
 0001:00043280       ?GetObjectInstance@Uri@Foundation@Windows@NodeRT@@UEBAPE$AAVObject@Platform@@XZ 0000000180044280 f i _nodert_generated.obj
 0001:000432b0       ?GetObjectInstance@WwwFormUrlDecoder@Foundation@Windows@NodeRT@@UEBAPE$AAVObject@Platform@@XZ 00000001800442b0 f i _nodert_generated.obj
 0001:000432e0       ?GetObjectInstance@WwwFormUrlDecoderEntry@Foundation@Windows@NodeRT@@UEBAPE$AAVObject@Platform@@XZ 00000001800442e0 f i _nodert_generated.obj
 0001:00043310       ?GetPoint@IPropertyValue@Foundation@Windows@@UE$AAA?AVPoint@23@XZ 0000000180044310 f i _nodert_generated.obj
 0001:00043340       ?GetPoint@IPropertyValue@Foundation@Windows@NodeRT@@CAXAEBV?$FunctionCallbackInfo@VValue@v8@@@Nan@@@Z 0000000180044340 f i _nodert_generated.obj
 0001:00043480       ?GetPointArray@IPropertyValue@Foundation@Windows@@UE$AAAXPEAP$01E$AAV?$Array@VPoint@Foundation@Windows@@$00@Platform@@@Z 0000000180044480 f i _nodert_generated.obj
 0001:00043590       ?GetPointArray@IPropertyValue@Foundation@Windows@NodeRT@@CAXAEBV?$FunctionCallbackInfo@VValue@v8@@@Nan@@@Z 0000000180044590 f i _nodert_generated.obj
 0001:000438f0       ?GetRect@IPropertyValue@Foundation@Windows@@UE$AAA?AVRect@23@XZ 00000001800448f0 f i _nodert_generated.obj
 0001:00043920       ?GetRect@IPropertyValue@Foundation@Windows@NodeRT@@CAXAEBV?$FunctionCallbackInfo@VValue@v8@@@Nan@@@Z 0000000180044920 f i _nodert_generated.obj
 0001:00043a70       ?GetRectArray@IPropertyValue@Foundation@Windows@@UE$AAAXPEAP$01E$AAV?$Array@VRect@Foundation@Windows@@$00@Platform@@@Z 0000000180044a70 f i _nodert_generated.obj
 0001:00043b80       ?GetRectArray@IPropertyValue@Foundation@Windows@NodeRT@@CAXAEBV?$FunctionCallbackInfo@VValue@v8@@@Nan@@@Z 0000000180044b80 f i _nodert_generated.obj
 0001:00043ee0       ?GetResults@IAsyncAction@Foundation@Windows@@UE$AAAXXZ 0000000180044ee0 f i _nodert_generated.obj
 0001:00043f10       ?GetResults@IAsyncAction@Foundation@Windows@NodeRT@@CAXAEBV?$FunctionCallbackInfo@VValue@v8@@@Nan@@@Z 0000000180044f10 f i _nodert_generated.obj
 0001:00044010       ?GetSingle@IPropertyValue@Foundation@Windows@@UE$AAAMXZ 0000000180045010 f i _nodert_generated.obj
 0001:00044040       ?GetSingle@IPropertyValue@Foundation@Windows@NodeRT@@CAXAEBV?$FunctionCallbackInfo@VValue@v8@@@Nan@@@Z 0000000180045040 f i _nodert_generated.obj
 0001:00044190       ?GetSingleArray@IPropertyValue@Foundation@Windows@@UE$AAAXPEAP$01E$AAV?$Array@M$00@Platform@@@Z 0000000180045190 f i _nodert_generated.obj
 0001:000442a0       ?GetSingleArray@IPropertyValue@Foundation@Windows@NodeRT@@CAXAEBV?$FunctionCallbackInfo@VValue@v8@@@Nan@@@Z 00000001800452a0 f i _nodert_generated.obj
 0001:00044600       ?GetSize@IPropertyValue@Foundation@Windows@@UE$AAA?AVSize@23@XZ 0000000180045600 f i _nodert_generated.obj
 0001:00044630       ?GetSize@IPropertyValue@Foundation@Windows@NodeRT@@CAXAEBV?$FunctionCallbackInfo@VValue@v8@@@Nan@@@Z 0000000180045630 f i _nodert_generated.obj
 0001:00044770       ?GetSizeArray@IPropertyValue@Foundation@Windows@@UE$AAAXPEAP$01E$AAV?$Array@VSize@Foundation@Windows@@$00@Platform@@@Z 0000000180045770 f i _nodert_generated.obj
 0001:00044880       ?GetSizeArray@IPropertyValue@Foundation@Windows@NodeRT@@CAXAEBV?$FunctionCallbackInfo@VValue@v8@@@Nan@@@Z 0000000180045880 f i _nodert_generated.obj
 0001:00044be0       ?GetString@IPropertyValue@Foundation@Windows@@UE$AAAPE$AAVString@Platform@@XZ 0000000180045be0 f i _nodert_generated.obj
 0001:00044c70       ?GetString@IPropertyValue@Foundation@Windows@NodeRT@@CAXAEBV?$FunctionCallbackInfo@VValue@v8@@@Nan@@@Z 0000000180045c70 f i _nodert_generated.obj
 0001:00044e20       ?GetStringArray@IPropertyValue@Foundation@Windows@@UE$AAAXPEAP$01E$AAV?$Array@PE$AAVString@Platform@@$00@Platform@@@Z 0000000180045e20 f i _nodert_generated.obj
 0001:00044f30       ?GetStringArray@IPropertyValue@Foundation@Windows@NodeRT@@CAXAEBV?$FunctionCallbackInfo@VValue@v8@@@Nan@@@Z 0000000180045f30 f i _nodert_generated.obj
 0001:00045290       ?GetTimeSpan@IPropertyValue@Foundation@Windows@@UE$AAA?AVTimeSpan@23@XZ 0000000180046290 f i _nodert_generated.obj
 0001:000452d0       ?GetTimeSpan@IPropertyValue@Foundation@Windows@NodeRT@@CAXAEBV?$FunctionCallbackInfo@VValue@v8@@@Nan@@@Z 00000001800462d0 f i _nodert_generated.obj
 0001:00045450       ?GetTimeSpanArray@IPropertyValue@Foundation@Windows@@UE$AAAXPEAP$01E$AAV?$Array@VTimeSpan@Foundation@Windows@@$00@Platform@@@Z 0000000180046450 f i _nodert_generated.obj
 0001:00045560       ?GetTimeSpanArray@IPropertyValue@Foundation@Windows@NodeRT@@CAXAEBV?$FunctionCallbackInfo@VValue@v8@@@Nan@@@Z 0000000180046560 f i _nodert_generated.obj
 0001:000458c0       ?GetUInt16@IPropertyValue@Foundation@Windows@@UE$AAAGXZ 00000001800468c0 f i _nodert_generated.obj
 0001:000458f0       ?GetUInt16@IPropertyValue@Foundation@Windows@NodeRT@@CAXAEBV?$FunctionCallbackInfo@VValue@v8@@@Nan@@@Z 00000001800468f0 f i _nodert_generated.obj
 0001:00045a60       ?GetUInt16Array@IPropertyValue@Foundation@Windows@@UE$AAAXPEAP$01E$AAV?$Array@G$00@Platform@@@Z 0000000180046a60 f i _nodert_generated.obj
 0001:00045b70       ?GetUInt16Array@IPropertyValue@Foundation@Windows@NodeRT@@CAXAEBV?$FunctionCallbackInfo@VValue@v8@@@Nan@@@Z 0000000180046b70 f i _nodert_generated.obj
 0001:00045ed0       ?GetUInt32@IPropertyValue@Foundation@Windows@@UE$AAAIXZ 0000000180046ed0 f i _nodert_generated.obj
 0001:00045f00       ?GetUInt32@IPropertyValue@Foundation@Windows@NodeRT@@CAXAEBV?$FunctionCallbackInfo@VValue@v8@@@Nan@@@Z 0000000180046f00 f i _nodert_generated.obj
 0001:00046070       ?GetUInt32Array@IPropertyValue@Foundation@Windows@@UE$AAAXPEAP$01E$AAV?$Array@I$00@Platform@@@Z 0000000180047070 f i _nodert_generated.obj
 0001:00046180       ?GetUInt32Array@IPropertyValue@Foundation@Windows@NodeRT@@CAXAEBV?$FunctionCallbackInfo@VValue@v8@@@Nan@@@Z 0000000180047180 f i _nodert_generated.obj
 0001:000464e0       ?GetUInt64@IPropertyValue@Foundation@Windows@@UE$AAA_KXZ 00000001800474e0 f i _nodert_generated.obj
 0001:00046510       ?GetUInt64@IPropertyValue@Foundation@Windows@NodeRT@@CAXAEBV?$FunctionCallbackInfo@VValue@v8@@@Nan@@@Z 0000000180047510 f i _nodert_generated.obj
 0001:00046680       ?GetUInt64Array@IPropertyValue@Foundation@Windows@@UE$AAAXPEAP$01E$AAV?$Array@_K$00@Platform@@@Z 0000000180047680 f i _nodert_generated.obj
 0001:00046790       ?GetUInt64Array@IPropertyValue@Foundation@Windows@NodeRT@@CAXAEBV?$FunctionCallbackInfo@VValue@v8@@@Nan@@@Z 0000000180047790 f i _nodert_generated.obj
 0001:00046af0       ?GetUInt8@IPropertyValue@Foundation@Windows@@UE$AAAEXZ 0000000180047af0 f i _nodert_generated.obj
 0001:00046b20       ?GetUInt8@IPropertyValue@Foundation@Windows@NodeRT@@CAXAEBV?$FunctionCallbackInfo@VValue@v8@@@Nan@@@Z 0000000180047b20 f i _nodert_generated.obj
 0001:00046c90       ?GetUInt8Array@IPropertyValue@Foundation@Windows@@UE$AAAXPEAP$01E$AAV?$Array@E$00@Platform@@@Z 0000000180047c90 f i _nodert_generated.obj
 0001:00046d90       ?GetUInt8Array@IPropertyValue@Foundation@Windows@NodeRT@@CAXAEBV?$FunctionCallbackInfo@VValue@v8@@@Nan@@@Z 0000000180047d90 f i _nodert_generated.obj
 0001:000470f0       ?GetWeakReference@?QIWeakReferenceSource@Details@Platform@@?$Array@E$00@3@UE$AAAPE$AAUIWeakReference@23@XZ 00000001800480f0 f i _nodert_generated.obj
 0001:00047138       ?GetWeakReference@?QIWeakReferenceSource@Details@Platform@@?$Array@E$00@3@WDI@E$AAAPE$AAUIWeakReference@23@XZ 0000000180048138 f i _nodert_generated.obj
 0001:00047144       ?GetWeakReference@?QIWeakReferenceSource@Details@Platform@@?$Array@E$00@3@WHA@E$AAAPE$AAUIWeakReference@23@XZ 0000000180048144 f i _nodert_generated.obj
 0001:00047150       ?GetWeakReference@?QIWeakReferenceSource@Details@Platform@@?$Array@F$00@3@UE$AAAPE$AAUIWeakReference@23@XZ 0000000180048150 f i _nodert_generated.obj
 0001:00047198       ?GetWeakReference@?QIWeakReferenceSource@Details@Platform@@?$Array@F$00@3@WDI@E$AAAPE$AAUIWeakReference@23@XZ 0000000180048198 f i _nodert_generated.obj
 0001:000471a4       ?GetWeakReference@?QIWeakReferenceSource@Details@Platform@@?$Array@F$00@3@WHA@E$AAAPE$AAUIWeakReference@23@XZ 00000001800481a4 f i _nodert_generated.obj
 0001:000471b0       ?GetWeakReference@?QIWeakReferenceSource@Details@Platform@@?$Array@G$00@3@UE$AAAPE$AAUIWeakReference@23@XZ 00000001800481b0 f i _nodert_generated.obj
 0001:000471f8       ?GetWeakReference@?QIWeakReferenceSource@Details@Platform@@?$Array@G$00@3@WDI@E$AAAPE$AAUIWeakReference@23@XZ 00000001800481f8 f i _nodert_generated.obj
 0001:00047204       ?GetWeakReference@?QIWeakReferenceSource@Details@Platform@@?$Array@G$00@3@WHA@E$AAAPE$AAUIWeakReference@23@XZ 0000000180048204 f i _nodert_generated.obj
 0001:00047210       ?GetWeakReference@?QIWeakReferenceSource@Details@Platform@@?$Array@H$00@3@UE$AAAPE$AAUIWeakReference@23@XZ 0000000180048210 f i _nodert_generated.obj
 0001:00047258       ?GetWeakReference@?QIWeakReferenceSource@Details@Platform@@?$Array@H$00@3@WDI@E$AAAPE$AAUIWeakReference@23@XZ 0000000180048258 f i _nodert_generated.obj
 0001:00047264       ?GetWeakReference@?QIWeakReferenceSource@Details@Platform@@?$Array@H$00@3@WHA@E$AAAPE$AAUIWeakReference@23@XZ 0000000180048264 f i _nodert_generated.obj
 0001:00047270       ?GetWeakReference@?QIWeakReferenceSource@Details@Platform@@?$Array@I$00@3@UE$AAAPE$AAUIWeakReference@23@XZ 0000000180048270 f i _nodert_generated.obj
 0001:000472b8       ?GetWeakReference@?QIWeakReferenceSource@Details@Platform@@?$Array@I$00@3@WDI@E$AAAPE$AAUIWeakReference@23@XZ 00000001800482b8 f i _nodert_generated.obj
 0001:000472c4       ?GetWeakReference@?QIWeakReferenceSource@Details@Platform@@?$Array@I$00@3@WHA@E$AAAPE$AAUIWeakReference@23@XZ 00000001800482c4 f i _nodert_generated.obj
 0001:000472d0       ?GetWeakReference@?QIWeakReferenceSource@Details@Platform@@?$Array@M$00@3@UE$AAAPE$AAUIWeakReference@23@XZ 00000001800482d0 f i _nodert_generated.obj
 0001:00047318       ?GetWeakReference@?QIWeakReferenceSource@Details@Platform@@?$Array@M$00@3@WDI@E$AAAPE$AAUIWeakReference@23@XZ 0000000180048318 f i _nodert_generated.obj
 0001:00047324       ?GetWeakReference@?QIWeakReferenceSource@Details@Platform@@?$Array@M$00@3@WHA@E$AAAPE$AAUIWeakReference@23@XZ 0000000180048324 f i _nodert_generated.obj
 0001:00047330       ?GetWeakReference@?QIWeakReferenceSource@Details@Platform@@?$Array@N$00@3@UE$AAAPE$AAUIWeakReference@23@XZ 0000000180048330 f i _nodert_generated.obj
 0001:00047378       ?GetWeakReference@?QIWeakReferenceSource@Details@Platform@@?$Array@N$00@3@WDI@E$AAAPE$AAUIWeakReference@23@XZ 0000000180048378 f i _nodert_generated.obj
 0001:00047384       ?GetWeakReference@?QIWeakReferenceSource@Details@Platform@@?$Array@N$00@3@WHA@E$AAAPE$AAUIWeakReference@23@XZ 0000000180048384 f i _nodert_generated.obj
 0001:00047390       ?GetWeakReference@?QIWeakReferenceSource@Details@Platform@@?$Array@PE$AAVObject@Platform@@$00@3@UE$AAAPE$AAUIWeakReference@23@XZ 0000000180048390 f i _nodert_generated.obj
 0001:000473d8       ?GetWeakReference@?QIWeakReferenceSource@Details@Platform@@?$Array@PE$AAVObject@Platform@@$00@3@WDI@E$AAAPE$AAUIWeakReference@23@XZ 00000001800483d8 f i _nodert_generated.obj
 0001:000473e4       ?GetWeakReference@?QIWeakReferenceSource@Details@Platform@@?$Array@PE$AAVObject@Platform@@$00@3@WHA@E$AAAPE$AAUIWeakReference@23@XZ 00000001800483e4 f i _nodert_generated.obj
 0001:000473f0       ?GetWeakReference@?QIWeakReferenceSource@Details@Platform@@?$Array@PE$AAVString@Platform@@$00@3@UE$AAAPE$AAUIWeakReference@23@XZ 00000001800483f0 f i _nodert_generated.obj
 0001:00047438       ?GetWeakReference@?QIWeakReferenceSource@Details@Platform@@?$Array@PE$AAVString@Platform@@$00@3@WDI@E$AAAPE$AAUIWeakReference@23@XZ 0000000180048438 f i _nodert_generated.obj
 0001:00047444       ?GetWeakReference@?QIWeakReferenceSource@Details@Platform@@?$Array@PE$AAVString@Platform@@$00@3@WHA@E$AAAPE$AAUIWeakReference@23@XZ 0000000180048444 f i _nodert_generated.obj
 0001:00047450       ?GetWeakReference@?QIWeakReferenceSource@Details@Platform@@?$Array@VDateTime@Foundation@Windows@@$00@3@UE$AAAPE$AAUIWeakReference@23@XZ 0000000180048450 f i _nodert_generated.obj
 0001:00047498       ?GetWeakReference@?QIWeakReferenceSource@Details@Platform@@?$Array@VDateTime@Foundation@Windows@@$00@3@WDI@E$AAAPE$AAUIWeakReference@23@XZ 0000000180048498 f i _nodert_generated.obj
 0001:000474a4       ?GetWeakReference@?QIWeakReferenceSource@Details@Platform@@?$Array@VDateTime@Foundation@Windows@@$00@3@WHA@E$AAAPE$AAUIWeakReference@23@XZ 00000001800484a4 f i _nodert_generated.obj
 0001:000474b0       ?GetWeakReference@?QIWeakReferenceSource@Details@Platform@@?$Array@VGuid@Platform@@$00@3@UE$AAAPE$AAUIWeakReference@23@XZ 00000001800484b0 f i _nodert_generated.obj
 0001:000474f8       ?GetWeakReference@?QIWeakReferenceSource@Details@Platform@@?$Array@VGuid@Platform@@$00@3@WDI@E$AAAPE$AAUIWeakReference@23@XZ 00000001800484f8 f i _nodert_generated.obj
 0001:00047504       ?GetWeakReference@?QIWeakReferenceSource@Details@Platform@@?$Array@VGuid@Platform@@$00@3@WHA@E$AAAPE$AAUIWeakReference@23@XZ 0000000180048504 f i _nodert_generated.obj
 0001:00047510       ?GetWeakReference@?QIWeakReferenceSource@Details@Platform@@?$Array@VPoint@Foundation@Windows@@$00@3@UE$AAAPE$AAUIWeakReference@23@XZ 0000000180048510 f i _nodert_generated.obj
 0001:00047558       ?GetWeakReference@?QIWeakReferenceSource@Details@Platform@@?$Array@VPoint@Foundation@Windows@@$00@3@WDI@E$AAAPE$AAUIWeakReference@23@XZ 0000000180048558 f i _nodert_generated.obj
 0001:00047564       ?GetWeakReference@?QIWeakReferenceSource@Details@Platform@@?$Array@VPoint@Foundation@Windows@@$00@3@WHA@E$AAAPE$AAUIWeakReference@23@XZ 0000000180048564 f i _nodert_generated.obj
 0001:00047570       ?GetWeakReference@?QIWeakReferenceSource@Details@Platform@@?$Array@VRect@Foundation@Windows@@$00@3@UE$AAAPE$AAUIWeakReference@23@XZ 0000000180048570 f i _nodert_generated.obj
 0001:000475b8       ?GetWeakReference@?QIWeakReferenceSource@Details@Platform@@?$Array@VRect@Foundation@Windows@@$00@3@WDI@E$AAAPE$AAUIWeakReference@23@XZ 00000001800485b8 f i _nodert_generated.obj
 0001:000475c4       ?GetWeakReference@?QIWeakReferenceSource@Details@Platform@@?$Array@VRect@Foundation@Windows@@$00@3@WHA@E$AAAPE$AAUIWeakReference@23@XZ 00000001800485c4 f i _nodert_generated.obj
 0001:000475d0       ?GetWeakReference@?QIWeakReferenceSource@Details@Platform@@?$Array@VSize@Foundation@Windows@@$00@3@UE$AAAPE$AAUIWeakReference@23@XZ 00000001800485d0 f i _nodert_generated.obj
 0001:00047618       ?GetWeakReference@?QIWeakReferenceSource@Details@Platform@@?$Array@VSize@Foundation@Windows@@$00@3@WDI@E$AAAPE$AAUIWeakReference@23@XZ 0000000180048618 f i _nodert_generated.obj
 0001:00047624       ?GetWeakReference@?QIWeakReferenceSource@Details@Platform@@?$Array@VSize@Foundation@Windows@@$00@3@WHA@E$AAAPE$AAUIWeakReference@23@XZ 0000000180048624 f i _nodert_generated.obj
 0001:00047630       ?GetWeakReference@?QIWeakReferenceSource@Details@Platform@@?$Array@VTimeSpan@Foundation@Windows@@$00@3@UE$AAAPE$AAUIWeakReference@23@XZ 0000000180048630 f i _nodert_generated.obj
 0001:00047678       ?GetWeakReference@?QIWeakReferenceSource@Details@Platform@@?$Array@VTimeSpan@Foundation@Windows@@$00@3@WDI@E$AAAPE$AAUIWeakReference@23@XZ 0000000180048678 f i _nodert_generated.obj
 0001:00047684       ?GetWeakReference@?QIWeakReferenceSource@Details@Platform@@?$Array@VTimeSpan@Foundation@Windows@@$00@3@WHA@E$AAAPE$AAUIWeakReference@23@XZ 0000000180048684 f i _nodert_generated.obj
 0001:00047690       ?GetWeakReference@?QIWeakReferenceSource@Details@Platform@@?$Array@_J$00@3@UE$AAAPE$AAUIWeakReference@23@XZ 0000000180048690 f i _nodert_generated.obj
 0001:000476d8       ?GetWeakReference@?QIWeakReferenceSource@Details@Platform@@?$Array@_J$00@3@WDI@E$AAAPE$AAUIWeakReference@23@XZ 00000001800486d8 f i _nodert_generated.obj
 0001:000476e4       ?GetWeakReference@?QIWeakReferenceSource@Details@Platform@@?$Array@_J$00@3@WHA@E$AAAPE$AAUIWeakReference@23@XZ 00000001800486e4 f i _nodert_generated.obj
 0001:000476f0       ?GetWeakReference@?QIWeakReferenceSource@Details@Platform@@?$Array@_K$00@3@UE$AAAPE$AAUIWeakReference@23@XZ 00000001800486f0 f i _nodert_generated.obj
 0001:00047738       ?GetWeakReference@?QIWeakReferenceSource@Details@Platform@@?$Array@_K$00@3@WDI@E$AAAPE$AAUIWeakReference@23@XZ 0000000180048738 f i _nodert_generated.obj
 0001:00047744       ?GetWeakReference@?QIWeakReferenceSource@Details@Platform@@?$Array@_K$00@3@WHA@E$AAAPE$AAUIWeakReference@23@XZ 0000000180048744 f i _nodert_generated.obj
 0001:00047750       ?GetWeakReference@?QIWeakReferenceSource@Details@Platform@@?$Array@_N$00@3@UE$AAAPE$AAUIWeakReference@23@XZ 0000000180048750 f i _nodert_generated.obj
 0001:00047798       ?GetWeakReference@?QIWeakReferenceSource@Details@Platform@@?$Array@_N$00@3@WDI@E$AAAPE$AAUIWeakReference@23@XZ 0000000180048798 f i _nodert_generated.obj
 0001:000477a4       ?GetWeakReference@?QIWeakReferenceSource@Details@Platform@@?$Array@_N$00@3@WHA@E$AAAPE$AAUIWeakReference@23@XZ 00000001800487a4 f i _nodert_generated.obj
 0001:000477b0       ?GetWeakReference@?QIWeakReferenceSource@Details@Platform@@?$Array@_W$00@3@UE$AAAPE$AAUIWeakReference@23@XZ 00000001800487b0 f i _nodert_generated.obj
 0001:000477f8       ?GetWeakReference@?QIWeakReferenceSource@Details@Platform@@?$Array@_W$00@3@WDI@E$AAAPE$AAUIWeakReference@23@XZ 00000001800487f8 f i _nodert_generated.obj
 0001:00047804       ?GetWeakReference@?QIWeakReferenceSource@Details@Platform@@?$Array@_W$00@3@WHA@E$AAAPE$AAUIWeakReference@23@XZ 0000000180048804 f i _nodert_generated.obj
 0001:00047810       ?GetWeakReference@?QIWeakReferenceSource@Details@Platform@@?$CustomBox@E@23@UE$AAAPE$AAUIWeakReference@23@XZ 0000000180048810 f i _nodert_generated.obj
 0001:00047858       ?GetWeakReference@?QIWeakReferenceSource@Details@Platform@@?$CustomBox@E@23@WCA@E$AAAPE$AAUIWeakReference@23@XZ 0000000180048858 f i _nodert_generated.obj
 0001:00047870       ?GetWeakReference@?QIWeakReferenceSource@Details@Platform@@?$CustomBox@F@23@UE$AAAPE$AAUIWeakReference@23@XZ 0000000180048870 f i _nodert_generated.obj
 0001:000478b8       ?GetWeakReference@?QIWeakReferenceSource@Details@Platform@@?$CustomBox@F@23@WCA@E$AAAPE$AAUIWeakReference@23@XZ 00000001800488b8 f i _nodert_generated.obj
 0001:000478d0       ?GetWeakReference@?QIWeakReferenceSource@Details@Platform@@?$CustomBox@G@23@UE$AAAPE$AAUIWeakReference@23@XZ 00000001800488d0 f i _nodert_generated.obj
 0001:00047918       ?GetWeakReference@?QIWeakReferenceSource@Details@Platform@@?$CustomBox@G@23@WCA@E$AAAPE$AAUIWeakReference@23@XZ 0000000180048918 f i _nodert_generated.obj
 0001:00047930       ?GetWeakReference@?QIWeakReferenceSource@Details@Platform@@?$CustomBox@H@23@UE$AAAPE$AAUIWeakReference@23@XZ 0000000180048930 f i _nodert_generated.obj
 0001:00047978       ?GetWeakReference@?QIWeakReferenceSource@Details@Platform@@?$CustomBox@H@23@WCA@E$AAAPE$AAUIWeakReference@23@XZ 0000000180048978 f i _nodert_generated.obj
 0001:00047990       ?GetWeakReference@?QIWeakReferenceSource@Details@Platform@@?$CustomBox@I@23@UE$AAAPE$AAUIWeakReference@23@XZ 0000000180048990 f i _nodert_generated.obj
 0001:000479d8       ?GetWeakReference@?QIWeakReferenceSource@Details@Platform@@?$CustomBox@I@23@WCA@E$AAAPE$AAUIWeakReference@23@XZ 00000001800489d8 f i _nodert_generated.obj
 0001:000479f0       ?GetWeakReference@?QIWeakReferenceSource@Details@Platform@@?$CustomBox@M@23@UE$AAAPE$AAUIWeakReference@23@XZ 00000001800489f0 f i _nodert_generated.obj
 0001:00047a38       ?GetWeakReference@?QIWeakReferenceSource@Details@Platform@@?$CustomBox@M@23@WCA@E$AAAPE$AAUIWeakReference@23@XZ 0000000180048a38 f i _nodert_generated.obj
 0001:00047a50       ?GetWeakReference@?QIWeakReferenceSource@Details@Platform@@?$CustomBox@N@23@UE$AAAPE$AAUIWeakReference@23@XZ 0000000180048a50 f i _nodert_generated.obj
 0001:00047a98       ?GetWeakReference@?QIWeakReferenceSource@Details@Platform@@?$CustomBox@N@23@WCA@E$AAAPE$AAUIWeakReference@23@XZ 0000000180048a98 f i _nodert_generated.obj
 0001:00047ab0       ?GetWeakReference@?QIWeakReferenceSource@Details@Platform@@?$CustomBox@PE$AAVAsyncActionCompletedHandler@Foundation@Windows@@@23@UE$AAAPE$AAUIWeakReference@23@XZ 0000000180048ab0 f i _nodert_generated.obj
 0001:00047af8       ?GetWeakReference@?QIWeakReferenceSource@Details@Platform@@?$CustomBox@PE$AAVAsyncActionCompletedHandler@Foundation@Windows@@@23@WCA@E$AAAPE$AAUIWeakReference@23@XZ 0000000180048af8 f i _nodert_generated.obj
 0001:00047b10       ?GetWeakReference@?QIWeakReferenceSource@Details@Platform@@?$CustomBox@VDateTime@Foundation@Windows@@@23@UE$AAAPE$AAUIWeakReference@23@XZ 0000000180048b10 f i _nodert_generated.obj
 0001:00047b58       ?GetWeakReference@?QIWeakReferenceSource@Details@Platform@@?$CustomBox@VDateTime@Foundation@Windows@@@23@WCA@E$AAAPE$AAUIWeakReference@23@XZ 0000000180048b58 f i _nodert_generated.obj
 0001:00047b70       ?GetWeakReference@?QIWeakReferenceSource@Details@Platform@@?$CustomBox@VGuid@Platform@@@23@UE$AAAPE$AAUIWeakReference@23@XZ 0000000180048b70 f i _nodert_generated.obj
 0001:00047bb8       ?GetWeakReference@?QIWeakReferenceSource@Details@Platform@@?$CustomBox@VGuid@Platform@@@23@WCA@E$AAAPE$AAUIWeakReference@23@XZ 0000000180048bb8 f i _nodert_generated.obj
 0001:00047bd0       ?GetWeakReference@?QIWeakReferenceSource@Details@Platform@@?$CustomBox@VPoint@Foundation@Windows@@@23@UE$AAAPE$AAUIWeakReference@23@XZ 0000000180048bd0 f i _nodert_generated.obj
 0001:00047c18       ?GetWeakReference@?QIWeakReferenceSource@Details@Platform@@?$CustomBox@VPoint@Foundation@Windows@@@23@WCA@E$AAAPE$AAUIWeakReference@23@XZ 0000000180048c18 f i _nodert_generated.obj
 0001:00047c30       ?GetWeakReference@?QIWeakReferenceSource@Details@Platform@@?$CustomBox@VRect@Foundation@Windows@@@23@UE$AAAPE$AAUIWeakReference@23@XZ 0000000180048c30 f i _nodert_generated.obj
 0001:00047c78       ?GetWeakReference@?QIWeakReferenceSource@Details@Platform@@?$CustomBox@VRect@Foundation@Windows@@@23@WCA@E$AAAPE$AAUIWeakReference@23@XZ 0000000180048c78 f i _nodert_generated.obj
 0001:00047c90       ?GetWeakReference@?QIWeakReferenceSource@Details@Platform@@?$CustomBox@VSize@Foundation@Windows@@@23@UE$AAAPE$AAUIWeakReference@23@XZ 0000000180048c90 f i _nodert_generated.obj
 0001:00047cd8       ?GetWeakReference@?QIWeakReferenceSource@Details@Platform@@?$CustomBox@VSize@Foundation@Windows@@@23@WCA@E$AAAPE$AAUIWeakReference@23@XZ 0000000180048cd8 f i _nodert_generated.obj
 0001:00047cf0       ?GetWeakReference@?QIWeakReferenceSource@Details@Platform@@?$CustomBox@VTimeSpan@Foundation@Windows@@@23@UE$AAAPE$AAUIWeakReference@23@XZ 0000000180048cf0 f i _nodert_generated.obj
 0001:00047d38       ?GetWeakReference@?QIWeakReferenceSource@Details@Platform@@?$CustomBox@VTimeSpan@Foundation@Windows@@@23@WCA@E$AAAPE$AAUIWeakReference@23@XZ 0000000180048d38 f i _nodert_generated.obj
 0001:00047d50       ?GetWeakReference@?QIWeakReferenceSource@Details@Platform@@?$CustomBox@_J@23@UE$AAAPE$AAUIWeakReference@23@XZ 0000000180048d50 f i _nodert_generated.obj
 0001:00047d98       ?GetWeakReference@?QIWeakReferenceSource@Details@Platform@@?$CustomBox@_J@23@WCA@E$AAAPE$AAUIWeakReference@23@XZ 0000000180048d98 f i _nodert_generated.obj
 0001:00047db0       ?GetWeakReference@?QIWeakReferenceSource@Details@Platform@@?$CustomBox@_K@23@UE$AAAPE$AAUIWeakReference@23@XZ 0000000180048db0 f i _nodert_generated.obj
 0001:00047df8       ?GetWeakReference@?QIWeakReferenceSource@Details@Platform@@?$CustomBox@_K@23@WCA@E$AAAPE$AAUIWeakReference@23@XZ 0000000180048df8 f i _nodert_generated.obj
 0001:00047e10       ?GetWeakReference@?QIWeakReferenceSource@Details@Platform@@?$CustomBox@_N@23@UE$AAAPE$AAUIWeakReference@23@XZ 0000000180048e10 f i _nodert_generated.obj
 0001:00047e58       ?GetWeakReference@?QIWeakReferenceSource@Details@Platform@@?$CustomBox@_N@23@WCA@E$AAAPE$AAUIWeakReference@23@XZ 0000000180048e58 f i _nodert_generated.obj
 0001:00047e70       ?GetWeakReference@?QIWeakReferenceSource@Details@Platform@@?$CustomBox@_W@23@UE$AAAPE$AAUIWeakReference@23@XZ 0000000180048e70 f i _nodert_generated.obj
 0001:00047eb8       ?GetWeakReference@?QIWeakReferenceSource@Details@Platform@@?$CustomBox@_W@23@WCA@E$AAAPE$AAUIWeakReference@23@XZ 0000000180048eb8 f i _nodert_generated.obj
 0001:00047ed0       ?GetWeakReference@?QIWeakReferenceSource@Details@Platform@@?$WriteOnlyArray@E$00@3@UE$AAAPE$AAUIWeakReference@23@XZ 0000000180048ed0 f i _nodert_generated.obj
 0001:00047f18       ?GetWeakReference@?QIWeakReferenceSource@Details@Platform@@?$WriteOnlyArray@E$00@3@WBI@E$AAAPE$AAUIWeakReference@23@XZ 0000000180048f18 f i _nodert_generated.obj
 0001:00047f30       ?GetWeakReference@?QIWeakReferenceSource@Details@Platform@@?$WriteOnlyArray@F$00@3@UE$AAAPE$AAUIWeakReference@23@XZ 0000000180048f30 f i _nodert_generated.obj
 0001:00047f78       ?GetWeakReference@?QIWeakReferenceSource@Details@Platform@@?$WriteOnlyArray@F$00@3@WBI@E$AAAPE$AAUIWeakReference@23@XZ 0000000180048f78 f i _nodert_generated.obj
 0001:00047f90       ?GetWeakReference@?QIWeakReferenceSource@Details@Platform@@?$WriteOnlyArray@G$00@3@UE$AAAPE$AAUIWeakReference@23@XZ 0000000180048f90 f i _nodert_generated.obj
 0001:00047fd8       ?GetWeakReference@?QIWeakReferenceSource@Details@Platform@@?$WriteOnlyArray@G$00@3@WBI@E$AAAPE$AAUIWeakReference@23@XZ 0000000180048fd8 f i _nodert_generated.obj
 0001:00047ff0       ?GetWeakReference@?QIWeakReferenceSource@Details@Platform@@?$WriteOnlyArray@H$00@3@UE$AAAPE$AAUIWeakReference@23@XZ 0000000180048ff0 f i _nodert_generated.obj
 0001:00048038       ?GetWeakReference@?QIWeakReferenceSource@Details@Platform@@?$WriteOnlyArray@H$00@3@WBI@E$AAAPE$AAUIWeakReference@23@XZ 0000000180049038 f i _nodert_generated.obj
 0001:00048050       ?GetWeakReference@?QIWeakReferenceSource@Details@Platform@@?$WriteOnlyArray@I$00@3@UE$AAAPE$AAUIWeakReference@23@XZ 0000000180049050 f i _nodert_generated.obj
 0001:00048098       ?GetWeakReference@?QIWeakReferenceSource@Details@Platform@@?$WriteOnlyArray@I$00@3@WBI@E$AAAPE$AAUIWeakReference@23@XZ 0000000180049098 f i _nodert_generated.obj
 0001:000480b0       ?GetWeakReference@?QIWeakReferenceSource@Details@Platform@@?$WriteOnlyArray@M$00@3@UE$AAAPE$AAUIWeakReference@23@XZ 00000001800490b0 f i _nodert_generated.obj
 0001:000480f8       ?GetWeakReference@?QIWeakReferenceSource@Details@Platform@@?$WriteOnlyArray@M$00@3@WBI@E$AAAPE$AAUIWeakReference@23@XZ 00000001800490f8 f i _nodert_generated.obj
 0001:00048110       ?GetWeakReference@?QIWeakReferenceSource@Details@Platform@@?$WriteOnlyArray@N$00@3@UE$AAAPE$AAUIWeakReference@23@XZ 0000000180049110 f i _nodert_generated.obj
 0001:00048158       ?GetWeakReference@?QIWeakReferenceSource@Details@Platform@@?$WriteOnlyArray@N$00@3@WBI@E$AAAPE$AAUIWeakReference@23@XZ 0000000180049158 f i _nodert_generated.obj
 0001:00048170       ?GetWeakReference@?QIWeakReferenceSource@Details@Platform@@?$WriteOnlyArray@PE$AAVObject@Platform@@$00@3@UE$AAAPE$AAUIWeakReference@23@XZ 0000000180049170 f i _nodert_generated.obj
 0001:000481b8       ?GetWeakReference@?QIWeakReferenceSource@Details@Platform@@?$WriteOnlyArray@PE$AAVObject@Platform@@$00@3@WBI@E$AAAPE$AAUIWeakReference@23@XZ 00000001800491b8 f i _nodert_generated.obj
 0001:000481d0       ?GetWeakReference@?QIWeakReferenceSource@Details@Platform@@?$WriteOnlyArray@PE$AAVString@Platform@@$00@3@UE$AAAPE$AAUIWeakReference@23@XZ 00000001800491d0 f i _nodert_generated.obj
 0001:00048218       ?GetWeakReference@?QIWeakReferenceSource@Details@Platform@@?$WriteOnlyArray@PE$AAVString@Platform@@$00@3@WBI@E$AAAPE$AAUIWeakReference@23@XZ 0000000180049218 f i _nodert_generated.obj
 0001:00048230       ?GetWeakReference@?QIWeakReferenceSource@Details@Platform@@?$WriteOnlyArray@VDateTime@Foundation@Windows@@$00@3@UE$AAAPE$AAUIWeakReference@23@XZ 0000000180049230 f i _nodert_generated.obj
 0001:00048278       ?GetWeakReference@?QIWeakReferenceSource@Details@Platform@@?$WriteOnlyArray@VDateTime@Foundation@Windows@@$00@3@WBI@E$AAAPE$AAUIWeakReference@23@XZ 0000000180049278 f i _nodert_generated.obj
 0001:00048290       ?GetWeakReference@?QIWeakReferenceSource@Details@Platform@@?$WriteOnlyArray@VGuid@Platform@@$00@3@UE$AAAPE$AAUIWeakReference@23@XZ 0000000180049290 f i _nodert_generated.obj
 0001:000482d8       ?GetWeakReference@?QIWeakReferenceSource@Details@Platform@@?$WriteOnlyArray@VGuid@Platform@@$00@3@WBI@E$AAAPE$AAUIWeakReference@23@XZ 00000001800492d8 f i _nodert_generated.obj
 0001:000482f0       ?GetWeakReference@?QIWeakReferenceSource@Details@Platform@@?$WriteOnlyArray@VPoint@Foundation@Windows@@$00@3@UE$AAAPE$AAUIWeakReference@23@XZ 00000001800492f0 f i _nodert_generated.obj
 0001:00048338       ?GetWeakReference@?QIWeakReferenceSource@Details@Platform@@?$WriteOnlyArray@VPoint@Foundation@Windows@@$00@3@WBI@E$AAAPE$AAUIWeakReference@23@XZ 0000000180049338 f i _nodert_generated.obj
 0001:00048350       ?GetWeakReference@?QIWeakReferenceSource@Details@Platform@@?$WriteOnlyArray@VRect@Foundation@Windows@@$00@3@UE$AAAPE$AAUIWeakReference@23@XZ 0000000180049350 f i _nodert_generated.obj
 0001:00048398       ?GetWeakReference@?QIWeakReferenceSource@Details@Platform@@?$WriteOnlyArray@VRect@Foundation@Windows@@$00@3@WBI@E$AAAPE$AAUIWeakReference@23@XZ 0000000180049398 f i _nodert_generated.obj
 0001:000483b0       ?GetWeakReference@?QIWeakReferenceSource@Details@Platform@@?$WriteOnlyArray@VSize@Foundation@Windows@@$00@3@UE$AAAPE$AAUIWeakReference@23@XZ 00000001800493b0 f i _nodert_generated.obj
 0001:000483f8       ?GetWeakReference@?QIWeakReferenceSource@Details@Platform@@?$WriteOnlyArray@VSize@Foundation@Windows@@$00@3@WBI@E$AAAPE$AAUIWeakReference@23@XZ 00000001800493f8 f i _nodert_generated.obj
 0001:00048410       ?GetWeakReference@?QIWeakReferenceSource@Details@Platform@@?$WriteOnlyArray@VTimeSpan@Foundation@Windows@@$00@3@UE$AAAPE$AAUIWeakReference@23@XZ 0000000180049410 f i _nodert_generated.obj
 0001:00048458       ?GetWeakReference@?QIWeakReferenceSource@Details@Platform@@?$WriteOnlyArray@VTimeSpan@Foundation@Windows@@$00@3@WBI@E$AAAPE$AAUIWeakReference@23@XZ 0000000180049458 f i _nodert_generated.obj
 0001:00048470       ?GetWeakReference@?QIWeakReferenceSource@Details@Platform@@?$WriteOnlyArray@_J$00@3@UE$AAAPE$AAUIWeakReference@23@XZ 0000000180049470 f i _nodert_generated.obj
 0001:000484b8       ?GetWeakReference@?QIWeakReferenceSource@Details@Platform@@?$WriteOnlyArray@_J$00@3@WBI@E$AAAPE$AAUIWeakReference@23@XZ 00000001800494b8 f i _nodert_generated.obj
 0001:000484d0       ?GetWeakReference@?QIWeakReferenceSource@Details@Platform@@?$WriteOnlyArray@_K$00@3@UE$AAAPE$AAUIWeakReference@23@XZ 00000001800494d0 f i _nodert_generated.obj
 0001:00048518       ?GetWeakReference@?QIWeakReferenceSource@Details@Platform@@?$WriteOnlyArray@_K$00@3@WBI@E$AAAPE$AAUIWeakReference@23@XZ 0000000180049518 f i _nodert_generated.obj
 0001:00048530       ?GetWeakReference@?QIWeakReferenceSource@Details@Platform@@?$WriteOnlyArray@_N$00@3@UE$AAAPE$AAUIWeakReference@23@XZ 0000000180049530 f i _nodert_generated.obj
 0001:00048578       ?GetWeakReference@?QIWeakReferenceSource@Details@Platform@@?$WriteOnlyArray@_N$00@3@WBI@E$AAAPE$AAUIWeakReference@23@XZ 0000000180049578 f i _nodert_generated.obj
 0001:00048590       ?GetWeakReference@?QIWeakReferenceSource@Details@Platform@@?$WriteOnlyArray@_W$00@3@UE$AAAPE$AAUIWeakReference@23@XZ 0000000180049590 f i _nodert_generated.obj
 0001:000485d8       ?GetWeakReference@?QIWeakReferenceSource@Details@Platform@@?$WriteOnlyArray@_W$00@3@WBI@E$AAAPE$AAUIWeakReference@23@XZ 00000001800495d8 f i _nodert_generated.obj
 0001:000486f0       ?HasCurrentGetter@?$IteratorWrapper@PE$AAUIWwwFormUrlDecoderEntry@Foundation@Windows@@@Collections@NodeRT@@CAXV?$Local@VString@v8@@@v8@@AEBV?$PropertyCallbackInfo@VValue@v8@@@Nan@@@Z 00000001800496f0 f i _nodert_generated.obj
 0001:000487d0       ?HostGetter@Uri@Foundation@Windows@NodeRT@@CAXV?$Local@VString@v8@@@v8@@AEBV?$PropertyCallbackInfo@VValue@v8@@@Nan@@@Z 00000001800497d0 f i _nodert_generated.obj
 0001:00048910       ?IdGetter@IAsyncInfo@Foundation@Windows@NodeRT@@CAXV?$Local@VString@v8@@@v8@@AEBV?$PropertyCallbackInfo@VValue@v8@@@Nan@@@Z 0000000180049910 f i _nodert_generated.obj
 0001:00048a30       ?Increment@__abi_FTMWeakRefData@@QECAKXZ 0000000180049a30 f i _nodert_generated.obj
 0001:00048d80       ?IndexOf@?$IVectorView@PE$AAUIWwwFormUrlDecoderEntry@Foundation@Windows@@@Collections@Foundation@Windows@@UE$AAA_NPE$AAUIWwwFormUrlDecoderEntry@34@PEAI@Z 0000000180049d80 f i _nodert_generated.obj
 0001:00048dc0       ?IndexOf@WwwFormUrlDecoder@Foundation@Windows@NodeRT@@CAXAEBV?$FunctionCallbackInfo@VValue@v8@@@Nan@@@Z 0000000180049dc0 f i _nodert_generated.obj
 0001:000493b0       ?Init@?$ArrayWrapper@E@Collections@NodeRT@@SAXXZ 000000018004a3b0 f i _nodert_generated.obj
 0001:000496c0       ?Init@?$ArrayWrapper@F@Collections@NodeRT@@SAXXZ 000000018004a6c0 f i _nodert_generated.obj
 0001:000499d0       ?Init@?$ArrayWrapper@G@Collections@NodeRT@@SAXXZ 000000018004a9d0 f i _nodert_generated.obj
 0001:00049ce0       ?Init@?$ArrayWrapper@H@Collections@NodeRT@@SAXXZ 000000018004ace0 f i _nodert_generated.obj
 0001:00049ff0       ?Init@?$ArrayWrapper@I@Collections@NodeRT@@SAXXZ 000000018004aff0 f i _nodert_generated.obj
 0001:0004a300       ?Init@?$ArrayWrapper@M@Collections@NodeRT@@SAXXZ 000000018004b300 f i _nodert_generated.obj
 0001:0004a610       ?Init@?$ArrayWrapper@N@Collections@NodeRT@@SAXXZ 000000018004b610 f i _nodert_generated.obj
 0001:0004a920       ?Init@?$ArrayWrapper@PE$AAVObject@Platform@@@Collections@NodeRT@@SAXXZ 000000018004b920 f i _nodert_generated.obj
 0001:0004ac30       ?Init@?$ArrayWrapper@PE$AAVString@Platform@@@Collections@NodeRT@@SAXXZ 000000018004bc30 f i _nodert_generated.obj
 0001:0004af40       ?Init@?$ArrayWrapper@VDateTime@Foundation@Windows@@@Collections@NodeRT@@SAXXZ 000000018004bf40 f i _nodert_generated.obj
 0001:0004b250       ?Init@?$ArrayWrapper@VGuid@Platform@@@Collections@NodeRT@@SAXXZ 000000018004c250 f i _nodert_generated.obj
 0001:0004b560       ?Init@?$ArrayWrapper@VPoint@Foundation@Windows@@@Collections@NodeRT@@SAXXZ 000000018004c560 f i _nodert_generated.obj
 0001:0004b870       ?Init@?$ArrayWrapper@VRect@Foundation@Windows@@@Collections@NodeRT@@SAXXZ 000000018004c870 f i _nodert_generated.obj
 0001:0004bb80       ?Init@?$ArrayWrapper@VSize@Foundation@Windows@@@Collections@NodeRT@@SAXXZ 000000018004cb80 f i _nodert_generated.obj
 0001:0004be90       ?Init@?$ArrayWrapper@VTimeSpan@Foundation@Windows@@@Collections@NodeRT@@SAXXZ 000000018004ce90 f i _nodert_generated.obj
 0001:0004c1a0       ?Init@?$ArrayWrapper@_J@Collections@NodeRT@@SAXXZ 000000018004d1a0 f i _nodert_generated.obj
 0001:0004c4b0       ?Init@?$ArrayWrapper@_K@Collections@NodeRT@@SAXXZ 000000018004d4b0 f i _nodert_generated.obj
 0001:0004c7c0       ?Init@?$ArrayWrapper@_N@Collections@NodeRT@@SAXXZ 000000018004d7c0 f i _nodert_generated.obj
 0001:0004cad0       ?Init@?$ArrayWrapper@_W@Collections@NodeRT@@SAXXZ 000000018004dad0 f i _nodert_generated.obj
 0001:0004cde0       ?Init@?$IteratorWrapper@PE$AAUIWwwFormUrlDecoderEntry@Foundation@Windows@@@Collections@NodeRT@@SAXXZ 000000018004dde0 f i _nodert_generated.obj
 0001:0004d080       ?Init@Deferral@Foundation@Windows@NodeRT@@SAXV?$Local@VObject@v8@@@v8@@@Z 000000018004e080 f i _nodert_generated.obj
 0001:0004d2c0       ?Init@IAsyncAction@Foundation@Windows@NodeRT@@SAXV?$Local@VObject@v8@@@v8@@@Z 000000018004e2c0 f i _nodert_generated.obj
 0001:0004d550       ?Init@IAsyncInfo@Foundation@Windows@NodeRT@@SAXV?$Local@VObject@v8@@@v8@@@Z 000000018004e550 f i _nodert_generated.obj
 0001:0004d910       ?Init@IGetActivationFactory@Foundation@Windows@NodeRT@@SAXV?$Local@VObject@v8@@@v8@@@Z 000000018004e910 f i _nodert_generated.obj
 0001:0004db30       ?Init@IMemoryBuffer@Foundation@Windows@NodeRT@@SAXV?$Local@VObject@v8@@@v8@@@Z 000000018004eb30 f i _nodert_generated.obj
 0001:0004dd50       ?Init@IMemoryBufferReference@Foundation@Windows@NodeRT@@SAXV?$Local@VObject@v8@@@v8@@@Z 000000018004ed50 f i _nodert_generated.obj
 0001:0004e030       ?Init@IPropertyValue@Foundation@Windows@NodeRT@@SAXV?$Local@VObject@v8@@@v8@@@Z 000000018004f030 f i _nodert_generated.obj
 0001:0004e750       ?Init@IStringable@Foundation@Windows@NodeRT@@SAXV?$Local@VObject@v8@@@v8@@@Z 000000018004f750 f i _nodert_generated.obj
 0001:0004e970       ?Init@IWwwFormUrlDecoderEntry@Foundation@Windows@NodeRT@@SAXV?$Local@VObject@v8@@@v8@@@Z 000000018004f970 f i _nodert_generated.obj
 0001:0004ec70       ?Init@MemoryBuffer@Foundation@Windows@NodeRT@@SAXV?$Local@VObject@v8@@@v8@@@Z 000000018004fc70 f i _nodert_generated.obj
 0001:0004eeb0       ?Init@PropertyValue@Foundation@Windows@NodeRT@@SAXV?$Local@VObject@v8@@@v8@@@Z 000000018004feb0 f i _nodert_generated.obj
 0001:0004f4e0       ?Init@Uri@Foundation@Windows@NodeRT@@SAXV?$Local@VObject@v8@@@v8@@@Z 00000001800504e0 f i _nodert_generated.obj
 0001:00050060       ?Init@WwwFormUrlDecoder@Foundation@Windows@NodeRT@@SAXV?$Local@VObject@v8@@@v8@@@Z 0000000180051060 f i _nodert_generated.obj
 0001:000502e0       ?Init@WwwFormUrlDecoderEntry@Foundation@Windows@NodeRT@@SAXV?$Local@VObject@v8@@@v8@@@Z 00000001800512e0 f i _nodert_generated.obj
 0001:00050910       ?InitDeferral@Foundation@Windows@NodeRT@@YAXV?$Local@VObject@v8@@@v8@@@Z 0000000180051910 f   _nodert_generated.obj
 0001:00050930       ?InitIAsyncAction@Foundation@Windows@NodeRT@@YAXV?$Local@VObject@v8@@@v8@@@Z 0000000180051930 f   _nodert_generated.obj
 0001:00050950       ?InitIAsyncInfo@Foundation@Windows@NodeRT@@YAXV?$Local@VObject@v8@@@v8@@@Z 0000000180051950 f   _nodert_generated.obj
 0001:00050970       ?InitIGetActivationFactory@Foundation@Windows@NodeRT@@YAXV?$Local@VObject@v8@@@v8@@@Z 0000000180051970 f   _nodert_generated.obj
 0001:00050990       ?InitIMemoryBuffer@Foundation@Windows@NodeRT@@YAXV?$Local@VObject@v8@@@v8@@@Z 0000000180051990 f   _nodert_generated.obj
 0001:000509b0       ?InitIMemoryBufferReference@Foundation@Windows@NodeRT@@YAXV?$Local@VObject@v8@@@v8@@@Z 00000001800519b0 f   _nodert_generated.obj
 0001:000509d0       ?InitIPropertyValue@Foundation@Windows@NodeRT@@YAXV?$Local@VObject@v8@@@v8@@@Z 00000001800519d0 f   _nodert_generated.obj
 0001:000509f0       ?InitIStringable@Foundation@Windows@NodeRT@@YAXV?$Local@VObject@v8@@@v8@@@Z 00000001800519f0 f   _nodert_generated.obj
 0001:00050a10       ?InitIWwwFormUrlDecoderEntry@Foundation@Windows@NodeRT@@YAXV?$Local@VObject@v8@@@v8@@@Z 0000000180051a10 f   _nodert_generated.obj
 0001:00050a30       ?InitMemoryBuffer@Foundation@Windows@NodeRT@@YAXV?$Local@VObject@v8@@@v8@@@Z 0000000180051a30 f   _nodert_generated.obj
 0001:000523f0       ?InitPropertyValue@Foundation@Windows@NodeRT@@YAXV?$Local@VObject@v8@@@v8@@@Z 00000001800533f0 f   _nodert_generated.obj
 0001:00052410       ?InitUri@Foundation@Windows@NodeRT@@YAXV?$Local@VObject@v8@@@v8@@@Z 0000000180053410 f   _nodert_generated.obj
 0001:00052430       ?InitWwwFormUrlDecoder@Foundation@Windows@NodeRT@@YAXV?$Local@VObject@v8@@@v8@@@Z 0000000180053430 f   _nodert_generated.obj
 0001:00052450       ?InitWwwFormUrlDecoderEntry@Foundation@Windows@NodeRT@@YAXV?$Local@VObject@v8@@@v8@@@Z 0000000180053450 f   _nodert_generated.obj
 0001:00052470       ?Invoke@?$TypedEventHandler@PE$AAUIMemoryBufferReference@Foundation@Windows@@PE$AAVObject@Platform@@@Foundation@Windows@@UE$AAAXPE$AAUIMemoryBufferReference@23@PE$AAVObject@Platform@@@Z 0000000180053470 f i _nodert_generated.obj
 0001:000524c0       ?Invoke@?$__abi_FunctorCapture@V<lambda_4c7fa631be439f28ed06a48699f7804a>@@XPE$AAUIMemoryBufferReference@Foundation@Windows@@PE$AAVObject@Platform@@@Details@Platform@@UEAAXPE$AAUIMemoryBufferReference@Foundation@Windows@@PE$AAVObject@3@@Z 00000001800534c0 f i _nodert_generated.obj
 0001:000524d0       ?Invoke@__abi_IDelegate@?$TypedEventHandler@PE$AAUIMemoryBufferReference@Foundation@Windows@@PE$AAVObject@Platform@@@Foundation@Windows@@UE$AAAXPE$AAUIMemoryBufferReference@34@PE$AAVObject@Platform@@@Z 00000001800534d0 f i _nodert_generated.obj
 0001:00052500       ?IsNumericScalarGetter@IPropertyValue@Foundation@Windows@NodeRT@@CAXV?$Local@VString@v8@@@v8@@AEBV?$PropertyCallbackInfo@VValue@v8@@@Nan@@@Z 0000000180053500 f i _nodert_generated.obj
 0001:000525f0       ?IsOpaqueWrapper@OpaqueWrapper@NodeRT@@SA_NV?$Local@VValue@v8@@@v8@@@Z 00000001800535f0 f i _nodert_generated.obj
 0001:000526c0       ?LengthGetter@?$ArrayWrapper@E@Collections@NodeRT@@CAXV?$Local@VString@v8@@@v8@@AEBV?$PropertyCallbackInfo@VValue@v8@@@Nan@@@Z 00000001800536c0 f i _nodert_generated.obj
 0001:000527b0       ?LengthGetter@?$ArrayWrapper@F@Collections@NodeRT@@CAXV?$Local@VString@v8@@@v8@@AEBV?$PropertyCallbackInfo@VValue@v8@@@Nan@@@Z 00000001800537b0 f i _nodert_generated.obj
 0001:000528a0       ?LengthGetter@?$ArrayWrapper@G@Collections@NodeRT@@CAXV?$Local@VString@v8@@@v8@@AEBV?$PropertyCallbackInfo@VValue@v8@@@Nan@@@Z 00000001800538a0 f i _nodert_generated.obj
 0001:00052990       ?LengthGetter@?$ArrayWrapper@H@Collections@NodeRT@@CAXV?$Local@VString@v8@@@v8@@AEBV?$PropertyCallbackInfo@VValue@v8@@@Nan@@@Z 0000000180053990 f i _nodert_generated.obj
 0001:00052a80       ?LengthGetter@?$ArrayWrapper@I@Collections@NodeRT@@CAXV?$Local@VString@v8@@@v8@@AEBV?$PropertyCallbackInfo@VValue@v8@@@Nan@@@Z 0000000180053a80 f i _nodert_generated.obj
 0001:00052b70       ?LengthGetter@?$ArrayWrapper@M@Collections@NodeRT@@CAXV?$Local@VString@v8@@@v8@@AEBV?$PropertyCallbackInfo@VValue@v8@@@Nan@@@Z 0000000180053b70 f i _nodert_generated.obj
 0001:00052c60       ?LengthGetter@?$ArrayWrapper@N@Collections@NodeRT@@CAXV?$Local@VString@v8@@@v8@@AEBV?$PropertyCallbackInfo@VValue@v8@@@Nan@@@Z 0000000180053c60 f i _nodert_generated.obj
 0001:00052d50       ?LengthGetter@?$ArrayWrapper@PE$AAVObject@Platform@@@Collections@NodeRT@@CAXV?$Local@VString@v8@@@v8@@AEBV?$PropertyCallbackInfo@VValue@v8@@@Nan@@@Z 0000000180053d50 f i _nodert_generated.obj
 0001:00052e40       ?LengthGetter@?$ArrayWrapper@PE$AAVString@Platform@@@Collections@NodeRT@@CAXV?$Local@VString@v8@@@v8@@AEBV?$PropertyCallbackInfo@VValue@v8@@@Nan@@@Z 0000000180053e40 f i _nodert_generated.obj
 0001:00052f30       ?LengthGetter@?$ArrayWrapper@VDateTime@Foundation@Windows@@@Collections@NodeRT@@CAXV?$Local@VString@v8@@@v8@@AEBV?$PropertyCallbackInfo@VValue@v8@@@Nan@@@Z 0000000180053f30 f i _nodert_generated.obj
 0001:00053020       ?LengthGetter@?$ArrayWrapper@VGuid@Platform@@@Collections@NodeRT@@CAXV?$Local@VString@v8@@@v8@@AEBV?$PropertyCallbackInfo@VValue@v8@@@Nan@@@Z 0000000180054020 f i _nodert_generated.obj
 0001:00053110       ?LengthGetter@?$ArrayWrapper@VPoint@Foundation@Windows@@@Collections@NodeRT@@CAXV?$Local@VString@v8@@@v8@@AEBV?$PropertyCallbackInfo@VValue@v8@@@Nan@@@Z 0000000180054110 f i _nodert_generated.obj
 0001:00053200       ?LengthGetter@?$ArrayWrapper@VRect@Foundation@Windows@@@Collections@NodeRT@@CAXV?$Local@VString@v8@@@v8@@AEBV?$PropertyCallbackInfo@VValue@v8@@@Nan@@@Z 0000000180054200 f i _nodert_generated.obj
 0001:000532f0       ?LengthGetter@?$ArrayWrapper@VSize@Foundation@Windows@@@Collections@NodeRT@@CAXV?$Local@VString@v8@@@v8@@AEBV?$PropertyCallbackInfo@VValue@v8@@@Nan@@@Z 00000001800542f0 f i _nodert_generated.obj
 0001:000533e0       ?LengthGetter@?$ArrayWrapper@VTimeSpan@Foundation@Windows@@@Collections@NodeRT@@CAXV?$Local@VString@v8@@@v8@@AEBV?$PropertyCallbackInfo@VValue@v8@@@Nan@@@Z 00000001800543e0 f i _nodert_generated.obj
 0001:000534d0       ?LengthGetter@?$ArrayWrapper@_J@Collections@NodeRT@@CAXV?$Local@VString@v8@@@v8@@AEBV?$PropertyCallbackInfo@VValue@v8@@@Nan@@@Z 00000001800544d0 f i _nodert_generated.obj
 0001:000535c0       ?LengthGetter@?$ArrayWrapper@_K@Collections@NodeRT@@CAXV?$Local@VString@v8@@@v8@@AEBV?$PropertyCallbackInfo@VValue@v8@@@Nan@@@Z 00000001800545c0 f i _nodert_generated.obj
 0001:000536b0       ?LengthGetter@?$ArrayWrapper@_N@Collections@NodeRT@@CAXV?$Local@VString@v8@@@v8@@AEBV?$PropertyCallbackInfo@VValue@v8@@@Nan@@@Z 00000001800546b0 f i _nodert_generated.obj
 0001:000537a0       ?LengthGetter@?$ArrayWrapper@_W@Collections@NodeRT@@CAXV?$Local@VString@v8@@@v8@@AEBV?$PropertyCallbackInfo@VValue@v8@@@Nan@@@Z 00000001800547a0 f i _nodert_generated.obj
 0001:00053890       ?MoveNext@?$IIterator@PE$AAUIWwwFormUrlDecoderEntry@Foundation@Windows@@@Collections@Foundation@Windows@@UE$AAA_NXZ 0000000180054890 f i _nodert_generated.obj
 0001:000538c0       ?MoveNext@?$IteratorWrapper@PE$AAUIWwwFormUrlDecoderEntry@Foundation@Windows@@@Collections@NodeRT@@CAXAEBV?$FunctionCallbackInfo@VValue@v8@@@Nan@@@Z 00000001800548c0 f i _nodert_generated.obj
 0001:00053a10       ?NameGetter@IWwwFormUrlDecoderEntry@Foundation@Windows@NodeRT@@CAXV?$Local@VString@v8@@@v8@@AEBV?$PropertyCallbackInfo@VValue@v8@@@Nan@@@Z 0000000180054a10 f i _nodert_generated.obj
 0001:00053b50       ?NameGetter@WwwFormUrlDecoderEntry@Foundation@Windows@NodeRT@@CAXV?$Local@VString@v8@@@v8@@AEBV?$PropertyCallbackInfo@VValue@v8@@@Nan@@@Z 0000000180054b50 f i _nodert_generated.obj
 0001:00053c90       ?New@?$ArrayWrapper@E@Collections@NodeRT@@CAXAEBV?$FunctionCallbackInfo@VValue@v8@@@Nan@@@Z 0000000180054c90 f i _nodert_generated.obj
 0001:00053d60       ?New@?$ArrayWrapper@F@Collections@NodeRT@@CAXAEBV?$FunctionCallbackInfo@VValue@v8@@@Nan@@@Z 0000000180054d60 f i _nodert_generated.obj
 0001:00053e30       ?New@?$ArrayWrapper@G@Collections@NodeRT@@CAXAEBV?$FunctionCallbackInfo@VValue@v8@@@Nan@@@Z 0000000180054e30 f i _nodert_generated.obj
 0001:00053f00       ?New@?$ArrayWrapper@H@Collections@NodeRT@@CAXAEBV?$FunctionCallbackInfo@VValue@v8@@@Nan@@@Z 0000000180054f00 f i _nodert_generated.obj
 0001:00053fd0       ?New@?$ArrayWrapper@I@Collections@NodeRT@@CAXAEBV?$FunctionCallbackInfo@VValue@v8@@@Nan@@@Z 0000000180054fd0 f i _nodert_generated.obj
 0001:000540a0       ?New@?$ArrayWrapper@M@Collections@NodeRT@@CAXAEBV?$FunctionCallbackInfo@VValue@v8@@@Nan@@@Z 00000001800550a0 f i _nodert_generated.obj
 0001:00054170       ?New@?$ArrayWrapper@N@Collections@NodeRT@@CAXAEBV?$FunctionCallbackInfo@VValue@v8@@@Nan@@@Z 0000000180055170 f i _nodert_generated.obj
 0001:00054240       ?New@?$ArrayWrapper@PE$AAVObject@Platform@@@Collections@NodeRT@@CAXAEBV?$FunctionCallbackInfo@VValue@v8@@@Nan@@@Z 0000000180055240 f i _nodert_generated.obj
 0001:00054310       ?New@?$ArrayWrapper@PE$AAVString@Platform@@@Collections@NodeRT@@CAXAEBV?$FunctionCallbackInfo@VValue@v8@@@Nan@@@Z 0000000180055310 f i _nodert_generated.obj
 0001:000543e0       ?New@?$ArrayWrapper@VDateTime@Foundation@Windows@@@Collections@NodeRT@@CAXAEBV?$FunctionCallbackInfo@VValue@v8@@@Nan@@@Z 00000001800553e0 f i _nodert_generated.obj
 0001:000544b0       ?New@?$ArrayWrapper@VGuid@Platform@@@Collections@NodeRT@@CAXAEBV?$FunctionCallbackInfo@VValue@v8@@@Nan@@@Z 00000001800554b0 f i _nodert_generated.obj
 0001:00054580       ?New@?$ArrayWrapper@VPoint@Foundation@Windows@@@Collections@NodeRT@@CAXAEBV?$FunctionCallbackInfo@VValue@v8@@@Nan@@@Z 0000000180055580 f i _nodert_generated.obj
 0001:00054650       ?New@?$ArrayWrapper@VRect@Foundation@Windows@@@Collections@NodeRT@@CAXAEBV?$FunctionCallbackInfo@VValue@v8@@@Nan@@@Z 0000000180055650 f i _nodert_generated.obj
 0001:00054720       ?New@?$ArrayWrapper@VSize@Foundation@Windows@@@Collections@NodeRT@@CAXAEBV?$FunctionCallbackInfo@VValue@v8@@@Nan@@@Z 0000000180055720 f i _nodert_generated.obj
 0001:000547f0       ?New@?$ArrayWrapper@VTimeSpan@Foundation@Windows@@@Collections@NodeRT@@CAXAEBV?$FunctionCallbackInfo@VValue@v8@@@Nan@@@Z 00000001800557f0 f i _nodert_generated.obj
 0001:000548c0       ?New@?$ArrayWrapper@_J@Collections@NodeRT@@CAXAEBV?$FunctionCallbackInfo@VValue@v8@@@Nan@@@Z 00000001800558c0 f i _nodert_generated.obj
 0001:00054990       ?New@?$ArrayWrapper@_K@Collections@NodeRT@@CAXAEBV?$FunctionCallbackInfo@VValue@v8@@@Nan@@@Z 0000000180055990 f i _nodert_generated.obj
 0001:00054a60       ?New@?$ArrayWrapper@_N@Collections@NodeRT@@CAXAEBV?$FunctionCallbackInfo@VValue@v8@@@Nan@@@Z 0000000180055a60 f i _nodert_generated.obj
 0001:00054b30       ?New@?$ArrayWrapper@_W@Collections@NodeRT@@CAXAEBV?$FunctionCallbackInfo@VValue@v8@@@Nan@@@Z 0000000180055b30 f i _nodert_generated.obj
 0001:00054c00       ?New@?$Factory@VFunctionTemplate@v8@@@imp@Nan@@SA?AV?$Local@VFunctionTemplate@v8@@@v8@@P6AXAEBV?$FunctionCallbackInfo@VValue@v8@@@3@@ZV?$Local@VValue@v8@@@5@V?$Local@VSignature@v8@@@5@@Z 0000000180055c00 f i _nodert_generated.obj
 0001:00054df0       ?New@?$IteratorWrapper@PE$AAUIWwwFormUrlDecoderEntry@Foundation@Windows@@@Collections@NodeRT@@CAXAEBV?$FunctionCallbackInfo@VValue@v8@@@Nan@@@Z 0000000180055df0 f i _nodert_generated.obj
 0001:00054ec0       ?New@Deferral@Foundation@Windows@NodeRT@@CAXAEBV?$FunctionCallbackInfo@VValue@v8@@@Nan@@@Z 0000000180055ec0 f i _nodert_generated.obj
 0001:00055530       ?New@IAsyncAction@Foundation@Windows@NodeRT@@CAXAEBV?$FunctionCallbackInfo@VValue@v8@@@Nan@@@Z 0000000180056530 f i _nodert_generated.obj
 0001:00055a60       ?New@IAsyncInfo@Foundation@Windows@NodeRT@@CAXAEBV?$FunctionCallbackInfo@VValue@v8@@@Nan@@@Z 0000000180056a60 f i _nodert_generated.obj
 0001:00055f90       ?New@IGetActivationFactory@Foundation@Windows@NodeRT@@CAXAEBV?$FunctionCallbackInfo@VValue@v8@@@Nan@@@Z 0000000180056f90 f i _nodert_generated.obj
 0001:000564c0       ?New@IMemoryBuffer@Foundation@Windows@NodeRT@@CAXAEBV?$FunctionCallbackInfo@VValue@v8@@@Nan@@@Z 00000001800574c0 f i _nodert_generated.obj
 0001:000569f0       ?New@IMemoryBufferReference@Foundation@Windows@NodeRT@@CAXAEBV?$FunctionCallbackInfo@VValue@v8@@@Nan@@@Z 00000001800579f0 f i _nodert_generated.obj
 0001:00056f20       ?New@IPropertyValue@Foundation@Windows@NodeRT@@CAXAEBV?$FunctionCallbackInfo@VValue@v8@@@Nan@@@Z 0000000180057f20 f i _nodert_generated.obj
 0001:00057450       ?New@IStringable@Foundation@Windows@NodeRT@@CAXAEBV?$FunctionCallbackInfo@VValue@v8@@@Nan@@@Z 0000000180058450 f i _nodert_generated.obj
 0001:00057980       ?New@IWwwFormUrlDecoderEntry@Foundation@Windows@NodeRT@@CAXAEBV?$FunctionCallbackInfo@VValue@v8@@@Nan@@@Z 0000000180058980 f i _nodert_generated.obj
 0001:00057eb0       ?New@MemoryBuffer@Foundation@Windows@NodeRT@@CAXAEBV?$FunctionCallbackInfo@VValue@v8@@@Nan@@@Z 0000000180058eb0 f i _nodert_generated.obj
 0001:000584c0       ?New@PropertyValue@Foundation@Windows@NodeRT@@CAXAEBV?$FunctionCallbackInfo@VValue@v8@@@Nan@@@Z 00000001800594c0 f i _nodert_generated.obj
 0001:000589f0       ?New@Uri@Foundation@Windows@NodeRT@@CAXAEBV?$FunctionCallbackInfo@VValue@v8@@@Nan@@@Z 00000001800599f0 f i _nodert_generated.obj
 0001:000592e0       ?New@WwwFormUrlDecoder@Foundation@Windows@NodeRT@@CAXAEBV?$FunctionCallbackInfo@VValue@v8@@@Nan@@@Z 000000018005a2e0 f i _nodert_generated.obj
 0001:000599a0       ?New@WwwFormUrlDecoderEntry@Foundation@Windows@NodeRT@@CAXAEBV?$FunctionCallbackInfo@VValue@v8@@@Nan@@@Z 000000018005a9a0 f i _nodert_generated.obj
 0001:00059ed0       ?NewAsyncToken@TokenData@Async@NodeUtils@@SAPEAUuv_async_s@@XZ 000000018005aed0 f i _nodert_generated.obj
 0001:00059f60       ?NewInstance@Nan@@YA?AV?$MaybeLocal@VObject@v8@@@v8@@V?$Local@VFunction@v8@@@3@HQEAV?$Local@VValue@v8@@@3@@Z 000000018005af60 f i _nodert_generated.obj
 0001:0005a030       ?NewInstance@Nan@@YA?AV?$MaybeLocal@VObject@v8@@@v8@@V?$Local@VObjectTemplate@v8@@@3@@Z 000000018005b030 f i _nodert_generated.obj
 0001:0005a0d0       ?PasswordGetter@Uri@Foundation@Windows@NodeRT@@CAXV?$Local@VString@v8@@@v8@@AEBV?$PropertyCallbackInfo@VValue@v8@@@Nan@@@Z 000000018005b0d0 f i _nodert_generated.obj
 0001:0005a210       ?PathGetter@Uri@Foundation@Windows@NodeRT@@CAXV?$Local@VString@v8@@@v8@@AEBV?$PropertyCallbackInfo@VValue@v8@@@Nan@@@Z 000000018005b210 f i _nodert_generated.obj
 0001:0005a350       ?PlacementFree@Heap@Details@Platform@@SAXPEAX0@Z 000000018005b350 f i _nodert_generated.obj
 0001:0005a360       ?PortGetter@Uri@Foundation@Windows@NodeRT@@CAXV?$Local@VString@v8@@@v8@@AEBV?$PropertyCallbackInfo@VValue@v8@@@Nan@@@Z 000000018005b360 f i _nodert_generated.obj
 0001:0005a480       ?QueryGetter@Uri@Foundation@Windows@NodeRT@@CAXV?$Local@VString@v8@@@v8@@AEBV?$PropertyCallbackInfo@VValue@v8@@@Nan@@@Z 000000018005b480 f i _nodert_generated.obj
 0001:0005a5c0       ?QueryParsedGetter@Uri@Foundation@Windows@NodeRT@@CAXV?$Local@VString@v8@@@v8@@AEBV?$PropertyCallbackInfo@VValue@v8@@@Nan@@@Z 000000018005b5c0 f i _nodert_generated.obj
 0001:0005a710       ?RawUriGetter@Uri@Foundation@Windows@NodeRT@@CAXV?$Local@VString@v8@@@v8@@AEBV?$PropertyCallbackInfo@VValue@v8@@@Nan@@@Z 000000018005b710 f i _nodert_generated.obj
 0001:0005a850       ?Ref@ObjectWrap@Nan@@MEAAXXZ 000000018005b850 f i _nodert_generated.obj
 0001:0005a8a0       ?RemoveListener@IMemoryBufferReference@Foundation@Windows@NodeRT@@CAXAEBV?$FunctionCallbackInfo@VValue@v8@@@Nan@@@Z 000000018005b8a0 f i _nodert_generated.obj
 0001:0005ae30       ?RunOnMain@Async@NodeUtils@@SAXV?$function@$$A6AXXZ@std@@@Z 000000018005be30 f i _nodert_generated.obj
 0001:0005af30       ?SchemeNameGetter@Uri@Foundation@Windows@NodeRT@@CAXV?$Local@VString@v8@@@v8@@AEBV?$PropertyCallbackInfo@VValue@v8@@@Nan@@@Z 000000018005bf30 f i _nodert_generated.obj
 0001:0005b070       ?Set@?$ArrayWrapper@E@Collections@NodeRT@@CAXIV?$Local@VValue@v8@@@v8@@AEBV?$PropertyCallbackInfo@VValue@v8@@@Nan@@@Z 000000018005c070 f i _nodert_generated.obj
 0001:0005b220       ?Set@?$ArrayWrapper@F@Collections@NodeRT@@CAXIV?$Local@VValue@v8@@@v8@@AEBV?$PropertyCallbackInfo@VValue@v8@@@Nan@@@Z 000000018005c220 f i _nodert_generated.obj
 0001:0005b3d0       ?Set@?$ArrayWrapper@G@Collections@NodeRT@@CAXIV?$Local@VValue@v8@@@v8@@AEBV?$PropertyCallbackInfo@VValue@v8@@@Nan@@@Z 000000018005c3d0 f i _nodert_generated.obj
 0001:0005b580       ?Set@?$ArrayWrapper@H@Collections@NodeRT@@CAXIV?$Local@VValue@v8@@@v8@@AEBV?$PropertyCallbackInfo@VValue@v8@@@Nan@@@Z 000000018005c580 f i _nodert_generated.obj
 0001:0005b710       ?Set@?$ArrayWrapper@I@Collections@NodeRT@@CAXIV?$Local@VValue@v8@@@v8@@AEBV?$PropertyCallbackInfo@VValue@v8@@@Nan@@@Z 000000018005c710 f i _nodert_generated.obj
 0001:0005b8a0       ?Set@?$ArrayWrapper@M@Collections@NodeRT@@CAXIV?$Local@VValue@v8@@@v8@@AEBV?$PropertyCallbackInfo@VValue@v8@@@Nan@@@Z 000000018005c8a0 f i _nodert_generated.obj
 0001:0005ba40       ?Set@?$ArrayWrapper@N@Collections@NodeRT@@CAXIV?$Local@VValue@v8@@@v8@@AEBV?$PropertyCallbackInfo@VValue@v8@@@Nan@@@Z 000000018005ca40 f i _nodert_generated.obj
 0001:0005bbe0       ?Set@?$ArrayWrapper@PE$AAVObject@Platform@@@Collections@NodeRT@@CAXIV?$Local@VValue@v8@@@v8@@AEBV?$PropertyCallbackInfo@VValue@v8@@@Nan@@@Z 000000018005cbe0 f i _nodert_generated.obj
 0001:0005bdd0       ?Set@?$ArrayWrapper@PE$AAVString@Platform@@@Collections@NodeRT@@CAXIV?$Local@VValue@v8@@@v8@@AEBV?$PropertyCallbackInfo@VValue@v8@@@Nan@@@Z 000000018005cdd0 f i _nodert_generated.obj
 0001:0005bff0       ?Set@?$ArrayWrapper@VDateTime@Foundation@Windows@@@Collections@NodeRT@@CAXIV?$Local@VValue@v8@@@v8@@AEBV?$PropertyCallbackInfo@VValue@v8@@@Nan@@@Z 000000018005cff0 f i _nodert_generated.obj
 0001:0005c190       ?Set@?$ArrayWrapper@VGuid@Platform@@@Collections@NodeRT@@CAXIV?$Local@VValue@v8@@@v8@@AEBV?$PropertyCallbackInfo@VValue@v8@@@Nan@@@Z 000000018005d190 f i _nodert_generated.obj
 0001:0005c360       ?Set@?$ArrayWrapper@VPoint@Foundation@Windows@@@Collections@NodeRT@@CAXIV?$Local@VValue@v8@@@v8@@AEBV?$PropertyCallbackInfo@VValue@v8@@@Nan@@@Z 000000018005d360 f i _nodert_generated.obj
 0001:0005c500       ?Set@?$ArrayWrapper@VRect@Foundation@Windows@@@Collections@NodeRT@@CAXIV?$Local@VValue@v8@@@v8@@AEBV?$PropertyCallbackInfo@VValue@v8@@@Nan@@@Z 000000018005d500 f i _nodert_generated.obj
 0001:0005c6d0       ?Set@?$ArrayWrapper@VSize@Foundation@Windows@@@Collections@NodeRT@@CAXIV?$Local@VValue@v8@@@v8@@AEBV?$PropertyCallbackInfo@VValue@v8@@@Nan@@@Z 000000018005d6d0 f i _nodert_generated.obj
 0001:0005c870       ?Set@?$ArrayWrapper@VTimeSpan@Foundation@Windows@@@Collections@NodeRT@@CAXIV?$Local@VValue@v8@@@v8@@AEBV?$PropertyCallbackInfo@VValue@v8@@@Nan@@@Z 000000018005d870 f i _nodert_generated.obj
 0001:0005ca10       ?Set@?$ArrayWrapper@_J@Collections@NodeRT@@CAXIV?$Local@VValue@v8@@@v8@@AEBV?$PropertyCallbackInfo@VValue@v8@@@Nan@@@Z 000000018005da10 f i _nodert_generated.obj
 0001:0005cba0       ?Set@?$ArrayWrapper@_K@Collections@NodeRT@@CAXIV?$Local@VValue@v8@@@v8@@AEBV?$PropertyCallbackInfo@VValue@v8@@@Nan@@@Z 000000018005dba0 f i _nodert_generated.obj
 0001:0005cd30       ?Set@?$ArrayWrapper@_N@Collections@NodeRT@@CAXIV?$Local@VValue@v8@@@v8@@AEBV?$PropertyCallbackInfo@VValue@v8@@@Nan@@@Z 000000018005dd30 f i _nodert_generated.obj
 0001:0005cee0       ?Set@?$ArrayWrapper@_W@Collections@NodeRT@@CAXIV?$Local@VValue@v8@@@v8@@AEBV?$PropertyCallbackInfo@VValue@v8@@@Nan@@@Z 000000018005dee0 f i _nodert_generated.obj
 0001:0005d090       ?Set@Nan@@YA?AV?$Maybe@_N@v8@@V?$Local@VObject@v8@@@3@V?$Local@VValue@v8@@@3@1@Z 000000018005e090 f i _nodert_generated.obj
 0001:0005d140       ?SetAccessor@Nan@@YAXV?$Local@VObjectTemplate@v8@@@v8@@V?$Local@VString@v8@@@3@P6AX1AEBV?$PropertyCallbackInfo@VValue@v8@@@1@@ZP6AX1V?$Local@VValue@v8@@@3@AEBV?$PropertyCallbackInfo@X@1@@Z4W4AccessControl@3@W4PropertyAttribute@3@V?$Local@VAccessorSignature@v8@@@3@@Z 000000018005e140 f i _nodert_generated.obj
 0001:0005d320       ?SetPrototypeMethod@Nan@@YAXV?$Local@VFunctionTemplate@v8@@@v8@@PEBDP6AXAEBV?$FunctionCallbackInfo@VValue@v8@@@1@@Z@Z 000000018005e320 f i _nodert_generated.obj
 0001:0005d580       ?StatusGetter@IAsyncInfo@Foundation@Windows@NodeRT@@CAXV?$Local@VString@v8@@@v8@@AEBV?$PropertyCallbackInfo@VValue@v8@@@Nan@@@Z 000000018005e580 f i _nodert_generated.obj
 0001:0005d6a0       ?SuspiciousGetter@Uri@Foundation@Windows@NodeRT@@CAXV?$Local@VString@v8@@@v8@@AEBV?$PropertyCallbackInfo@VValue@v8@@@Nan@@@Z 000000018005e6a0 f i _nodert_generated.obj
 0001:0005d790       ?ThrowError@Nan@@YAXV?$Local@VValue@v8@@@v8@@@Z 000000018005e790 f i _nodert_generated.obj
 0001:0005d7c0       ?ToString@?$CustomBox@E@Details@Platform@@UE$AAAPE$AAVString@3@XZ 000000018005e7c0 f i _nodert_generated.obj
 0001:0005d820       ?ToString@?$CustomBox@E@Details@Platform@@WBA@E$AAAPE$AAVString@3@XZ 000000018005e820 f i _nodert_generated.obj
 0001:0005d830       ?ToString@?$CustomBox@F@Details@Platform@@UE$AAAPE$AAVString@3@XZ 000000018005e830 f i _nodert_generated.obj
 0001:0005d890       ?ToString@?$CustomBox@F@Details@Platform@@WBA@E$AAAPE$AAVString@3@XZ 000000018005e890 f i _nodert_generated.obj
 0001:0005d8a0       ?ToString@?$CustomBox@G@Details@Platform@@UE$AAAPE$AAVString@3@XZ 000000018005e8a0 f i _nodert_generated.obj
 0001:0005d900       ?ToString@?$CustomBox@G@Details@Platform@@WBA@E$AAAPE$AAVString@3@XZ 000000018005e900 f i _nodert_generated.obj
 0001:0005d910       ?ToString@?$CustomBox@H@Details@Platform@@UE$AAAPE$AAVString@3@XZ 000000018005e910 f i _nodert_generated.obj
 0001:0005d970       ?ToString@?$CustomBox@H@Details@Platform@@WBA@E$AAAPE$AAVString@3@XZ 000000018005e970 f i _nodert_generated.obj
 0001:0005d980       ?ToString@?$CustomBox@I@Details@Platform@@UE$AAAPE$AAVString@3@XZ 000000018005e980 f i _nodert_generated.obj
 0001:0005d9e0       ?ToString@?$CustomBox@I@Details@Platform@@WBA@E$AAAPE$AAVString@3@XZ 000000018005e9e0 f i _nodert_generated.obj
 0001:0005d9f0       ?ToString@?$CustomBox@M@Details@Platform@@UE$AAAPE$AAVString@3@XZ 000000018005e9f0 f i _nodert_generated.obj
 0001:0005da50       ?ToString@?$CustomBox@M@Details@Platform@@WBA@E$AAAPE$AAVString@3@XZ 000000018005ea50 f i _nodert_generated.obj
 0001:0005da60       ?ToString@?$CustomBox@N@Details@Platform@@UE$AAAPE$AAVString@3@XZ 000000018005ea60 f i _nodert_generated.obj
 0001:0005dac0       ?ToString@?$CustomBox@N@Details@Platform@@WBA@E$AAAPE$AAVString@3@XZ 000000018005eac0 f i _nodert_generated.obj
 0001:0005dad0       ?ToString@?$CustomBox@PE$AAVAsyncActionCompletedHandler@Foundation@Windows@@@Details@Platform@@UE$AAAPE$AAVString@3@XZ 000000018005ead0 f i _nodert_generated.obj
 0001:0005db30       ?ToString@?$CustomBox@PE$AAVAsyncActionCompletedHandler@Foundation@Windows@@@Details@Platform@@WBA@E$AAAPE$AAVString@3@XZ 000000018005eb30 f i _nodert_generated.obj
 0001:0005db40       ?ToString@?$CustomBox@VDateTime@Foundation@Windows@@@Details@Platform@@UE$AAAPE$AAVString@3@XZ 000000018005eb40 f i _nodert_generated.obj
 0001:0005dba0       ?ToString@?$CustomBox@VDateTime@Foundation@Windows@@@Details@Platform@@WBA@E$AAAPE$AAVString@3@XZ 000000018005eba0 f i _nodert_generated.obj
 0001:0005dbb0       ?ToString@?$CustomBox@VGuid@Platform@@@Details@Platform@@UE$AAAPE$AAVString@3@XZ 000000018005ebb0 f i _nodert_generated.obj
 0001:0005dc10       ?ToString@?$CustomBox@VGuid@Platform@@@Details@Platform@@WBA@E$AAAPE$AAVString@3@XZ 000000018005ec10 f i _nodert_generated.obj
 0001:0005dc20       ?ToString@?$CustomBox@VPoint@Foundation@Windows@@@Details@Platform@@UE$AAAPE$AAVString@3@XZ 000000018005ec20 f i _nodert_generated.obj
 0001:0005dc80       ?ToString@?$CustomBox@VPoint@Foundation@Windows@@@Details@Platform@@WBA@E$AAAPE$AAVString@3@XZ 000000018005ec80 f i _nodert_generated.obj
 0001:0005dc90       ?ToString@?$CustomBox@VRect@Foundation@Windows@@@Details@Platform@@UE$AAAPE$AAVString@3@XZ 000000018005ec90 f i _nodert_generated.obj
 0001:0005dcf0       ?ToString@?$CustomBox@VRect@Foundation@Windows@@@Details@Platform@@WBA@E$AAAPE$AAVString@3@XZ 000000018005ecf0 f i _nodert_generated.obj
 0001:0005dd00       ?ToString@?$CustomBox@VSize@Foundation@Windows@@@Details@Platform@@UE$AAAPE$AAVString@3@XZ 000000018005ed00 f i _nodert_generated.obj
 0001:0005dd60       ?ToString@?$CustomBox@VSize@Foundation@Windows@@@Details@Platform@@WBA@E$AAAPE$AAVString@3@XZ 000000018005ed60 f i _nodert_generated.obj
 0001:0005dd70       ?ToString@?$CustomBox@VTimeSpan@Foundation@Windows@@@Details@Platform@@UE$AAAPE$AAVString@3@XZ 000000018005ed70 f i _nodert_generated.obj
 0001:0005ddd0       ?ToString@?$CustomBox@VTimeSpan@Foundation@Windows@@@Details@Platform@@WBA@E$AAAPE$AAVString@3@XZ 000000018005edd0 f i _nodert_generated.obj
 0001:0005dde0       ?ToString@?$CustomBox@_J@Details@Platform@@UE$AAAPE$AAVString@3@XZ 000000018005ede0 f i _nodert_generated.obj
 0001:0005de40       ?ToString@?$CustomBox@_J@Details@Platform@@WBA@E$AAAPE$AAVString@3@XZ 000000018005ee40 f i _nodert_generated.obj
 0001:0005de50       ?ToString@?$CustomBox@_K@Details@Platform@@UE$AAAPE$AAVString@3@XZ 000000018005ee50 f i _nodert_generated.obj
 0001:0005deb0       ?ToString@?$CustomBox@_K@Details@Platform@@WBA@E$AAAPE$AAVString@3@XZ 000000018005eeb0 f i _nodert_generated.obj
 0001:0005dec0       ?ToString@?$CustomBox@_N@Details@Platform@@UE$AAAPE$AAVString@3@XZ 000000018005eec0 f i _nodert_generated.obj
 0001:0005df20       ?ToString@?$CustomBox@_N@Details@Platform@@WBA@E$AAAPE$AAVString@3@XZ 000000018005ef20 f i _nodert_generated.obj
 0001:0005df30       ?ToString@?$CustomBox@_W@Details@Platform@@UE$AAAPE$AAVString@3@XZ 000000018005ef30 f i _nodert_generated.obj
 0001:0005df90       ?ToString@?$CustomBox@_W@Details@Platform@@WBA@E$AAAPE$AAVString@3@XZ 000000018005ef90 f i _nodert_generated.obj
 0001:0005dfa0       ?ToString@IStringable@Foundation@Windows@@UE$AAAPE$AAVString@Platform@@XZ 000000018005efa0 f i _nodert_generated.obj
 0001:0005e020       ?ToString@IStringable@Foundation@Windows@NodeRT@@CAXAEBV?$FunctionCallbackInfo@VValue@v8@@@Nan@@@Z 000000018005f020 f i _nodert_generated.obj
 0001:0005e1d0       ?ToString@Uri@Foundation@Windows@NodeRT@@CAXAEBV?$FunctionCallbackInfo@VValue@v8@@@Nan@@@Z 000000018005f1d0 f i _nodert_generated.obj
 0001:0005e400       ?TypeGetter@IPropertyValue@Foundation@Windows@NodeRT@@CAXV?$Local@VString@v8@@@v8@@AEBV?$PropertyCallbackInfo@VValue@v8@@@Nan@@@Z 000000018005f400 f i _nodert_generated.obj
 0001:0005e520       ?UnescapeComponent@IUriEscapeStatics@Foundation@Windows@@UE$AAAPE$AAVString@Platform@@PE$AAV45@@Z 000000018005f520 f i _nodert_generated.obj
 0001:0005e5a0       ?UnescapeComponent@Uri@Foundation@Windows@@SAPE$AAVString@Platform@@PE$AAV45@@Z 000000018005f5a0 f i _nodert_generated.obj
 0001:0005e6c0       ?UnescapeComponent@Uri@Foundation@Windows@NodeRT@@CAXAEBV?$FunctionCallbackInfo@VValue@v8@@@Nan@@@Z 000000018005f6c0 f i _nodert_generated.obj
 0001:0005e970       ?UniversalApiContractFromJsObject@Foundation@Windows@NodeRT@@YA?AVUniversalApiContract@12@V?$Local@VValue@v8@@@v8@@@Z 000000018005f970 f   _nodert_generated.obj
 0001:0005ea50       ?UniversalApiContractToJsObject@Foundation@Windows@NodeRT@@YA?AV?$Local@VValue@v8@@@v8@@VUniversalApiContract@12@@Z 000000018005fa50 f   _nodert_generated.obj
 0001:0005ead0       ?Unref@ObjectWrap@Nan@@MEAAXXZ 000000018005fad0 f i _nodert_generated.obj
 0001:0005eba0       ?UnwrapDeferral@Foundation@Windows@NodeRT@@YAPE$AAVDeferral@12@V?$Local@VValue@v8@@@v8@@@Z 000000018005fba0 f   _nodert_generated.obj
 0001:0005ec00       ?UnwrapIAsyncAction@Foundation@Windows@NodeRT@@YAPE$AAUIAsyncAction@12@V?$Local@VValue@v8@@@v8@@@Z 000000018005fc00 f   _nodert_generated.obj
 0001:0005ec60       ?UnwrapIAsyncInfo@Foundation@Windows@NodeRT@@YAPE$AAUIAsyncInfo@12@V?$Local@VValue@v8@@@v8@@@Z 000000018005fc60 f   _nodert_generated.obj
 0001:0005ecc0       ?UnwrapIGetActivationFactory@Foundation@Windows@NodeRT@@YAPE$AAUIGetActivationFactory@12@V?$Local@VValue@v8@@@v8@@@Z 000000018005fcc0 f   _nodert_generated.obj
 0001:0005ed20       ?UnwrapIMemoryBuffer@Foundation@Windows@NodeRT@@YAPE$AAUIMemoryBuffer@12@V?$Local@VValue@v8@@@v8@@@Z 000000018005fd20 f   _nodert_generated.obj
 0001:0005ed80       ?UnwrapIMemoryBufferReference@Foundation@Windows@NodeRT@@YAPE$AAUIMemoryBufferReference@12@V?$Local@VValue@v8@@@v8@@@Z 000000018005fd80 f   _nodert_generated.obj
 0001:0005ede0       ?UnwrapIPropertyValue@Foundation@Windows@NodeRT@@YAPE$AAUIPropertyValue@12@V?$Local@VValue@v8@@@v8@@@Z 000000018005fde0 f   _nodert_generated.obj
 0001:0005ee40       ?UnwrapIStringable@Foundation@Windows@NodeRT@@YAPE$AAUIStringable@12@V?$Local@VValue@v8@@@v8@@@Z 000000018005fe40 f   _nodert_generated.obj
 0001:0005eea0       ?UnwrapIWwwFormUrlDecoderEntry@Foundation@Windows@NodeRT@@YAPE$AAUIWwwFormUrlDecoderEntry@12@V?$Local@VValue@v8@@@v8@@@Z 000000018005fea0 f   _nodert_generated.obj
 0001:0005ef00       ?UnwrapMemoryBuffer@Foundation@Windows@NodeRT@@YAPE$AAVMemoryBuffer@12@V?$Local@VValue@v8@@@v8@@@Z 000000018005ff00 f   _nodert_generated.obj
 0001:0005ef60       ?UnwrapPropertyValue@Foundation@Windows@NodeRT@@YAPE$AAVPropertyValue@12@V?$Local@VValue@v8@@@v8@@@Z 000000018005ff60 f   _nodert_generated.obj
 0001:0005efc0       ?UnwrapUri@Foundation@Windows@NodeRT@@YAPE$AAVUri@12@V?$Local@VValue@v8@@@v8@@@Z 000000018005ffc0 f   _nodert_generated.obj
 0001:0005f020       ?UnwrapWwwFormUrlDecoder@Foundation@Windows@NodeRT@@YAPE$AAVWwwFormUrlDecoder@12@V?$Local@VValue@v8@@@v8@@@Z 0000000180060020 f   _nodert_generated.obj
 0001:0005f080       ?UnwrapWwwFormUrlDecoderEntry@Foundation@Windows@NodeRT@@YAPE$AAVWwwFormUrlDecoderEntry@12@V?$Local@VValue@v8@@@v8@@@Z 0000000180060080 f   _nodert_generated.obj
 0001:0005f0e0       ?UserNameGetter@Uri@Foundation@Windows@NodeRT@@CAXV?$Local@VString@v8@@@v8@@AEBV?$PropertyCallbackInfo@VValue@v8@@@Nan@@@Z 00000001800600e0 f i _nodert_generated.obj
 0001:0005f220       ?ValueGetter@IWwwFormUrlDecoderEntry@Foundation@Windows@NodeRT@@CAXV?$Local@VString@v8@@@v8@@AEBV?$PropertyCallbackInfo@VValue@v8@@@Nan@@@Z 0000000180060220 f i _nodert_generated.obj
 0001:0005f360       ?ValueGetter@WwwFormUrlDecoderEntry@Foundation@Windows@NodeRT@@CAXV?$Local@VString@v8@@@v8@@AEBV?$PropertyCallbackInfo@VValue@v8@@@Nan@@@Z 0000000180060360 f i _nodert_generated.obj
 0001:0005f4a0       ?WeakCallback@ObjectWrap@Nan@@CAXAEBV?$WeakCallbackInfo@VObjectWrap@Nan@@@v8@@@Z 00000001800604a0 f i _nodert_generated.obj
 0001:0005f550       ?Wrap@ObjectWrap@Nan@@IEAAXV?$Local@VObject@v8@@@v8@@@Z 0000000180060550 f i _nodert_generated.obj
 0001:0005f650       ?WrapDeferral@Foundation@Windows@NodeRT@@YA?AV?$Local@VValue@v8@@@v8@@PE$AAVDeferral@12@@Z 0000000180060650 f   _nodert_generated.obj
 0001:0005f770       ?WrapIAsyncAction@Foundation@Windows@NodeRT@@YA?AV?$Local@VValue@v8@@@v8@@PE$AAUIAsyncAction@12@@Z 0000000180060770 f   _nodert_generated.obj
 0001:0005f890       ?WrapIAsyncInfo@Foundation@Windows@NodeRT@@YA?AV?$Local@VValue@v8@@@v8@@PE$AAUIAsyncInfo@12@@Z 0000000180060890 f   _nodert_generated.obj
 0001:0005f9b0       ?WrapIGetActivationFactory@Foundation@Windows@NodeRT@@YA?AV?$Local@VValue@v8@@@v8@@PE$AAUIGetActivationFactory@12@@Z 00000001800609b0 f   _nodert_generated.obj
 0001:0005fad0       ?WrapIMemoryBuffer@Foundation@Windows@NodeRT@@YA?AV?$Local@VValue@v8@@@v8@@PE$AAUIMemoryBuffer@12@@Z 0000000180060ad0 f   _nodert_generated.obj
 0001:0005fbf0       ?WrapIMemoryBufferReference@Foundation@Windows@NodeRT@@YA?AV?$Local@VValue@v8@@@v8@@PE$AAUIMemoryBufferReference@12@@Z 0000000180060bf0 f   _nodert_generated.obj
 0001:0005fd10       ?WrapIPropertyValue@Foundation@Windows@NodeRT@@YA?AV?$Local@VValue@v8@@@v8@@PE$AAUIPropertyValue@12@@Z 0000000180060d10 f   _nodert_generated.obj
 0001:0005fe30       ?WrapIStringable@Foundation@Windows@NodeRT@@YA?AV?$Local@VValue@v8@@@v8@@PE$AAUIStringable@12@@Z 0000000180060e30 f   _nodert_generated.obj
 0001:0005ff50       ?WrapIWwwFormUrlDecoderEntry@Foundation@Windows@NodeRT@@YA?AV?$Local@VValue@v8@@@v8@@PE$AAUIWwwFormUrlDecoderEntry@12@@Z 0000000180060f50 f   _nodert_generated.obj
 0001:00060070       ?WrapMemoryBuffer@Foundation@Windows@NodeRT@@YA?AV?$Local@VValue@v8@@@v8@@PE$AAVMemoryBuffer@12@@Z 0000000180061070 f   _nodert_generated.obj
 0001:00060190       ?WrapPropertyValue@Foundation@Windows@NodeRT@@YA?AV?$Local@VValue@v8@@@v8@@PE$AAVPropertyValue@12@@Z 0000000180061190 f   _nodert_generated.obj
 0001:000602b0       ?WrapUri@Foundation@Windows@NodeRT@@YA?AV?$Local@VValue@v8@@@v8@@PE$AAVUri@12@@Z 00000001800612b0 f   _nodert_generated.obj
 0001:000603d0       ?WrapWwwFormUrlDecoder@Foundation@Windows@NodeRT@@YA?AV?$Local@VValue@v8@@@v8@@PE$AAVWwwFormUrlDecoder@12@@Z 00000001800613d0 f   _nodert_generated.obj
 0001:000604f0       ?WrapWwwFormUrlDecoderEntry@Foundation@Windows@NodeRT@@YA?AV?$Local@VValue@v8@@@v8@@PE$AAVWwwFormUrlDecoderEntry@12@@Z 00000001800614f0 f   _nodert_generated.obj
 0001:00060610       ?_Copy@?$_Func_impl@V<lambda_00da0358850de3e49429586fece76029>@@V?$allocator@H@std@@V?$Local@VValue@v8@@@v8@@G@std@@EEBAPEAV?$_Func_base@V?$Local@VValue@v8@@@v8@@G@2@PEAX@Z 0000000180061610 f i _nodert_generated.obj
 0001:00060630       ?_Copy@?$_Func_impl@V<lambda_0160fe2f50115527811ff5b9360e1b7a>@@V?$allocator@H@std@@_NV?$Local@VValue@v8@@@v8@@@std@@EEBAPEAV?$_Func_base@_NV?$Local@VValue@v8@@@v8@@@2@PEAX@Z 0000000180061630 f i _nodert_generated.obj
 0001:00060650       ?_Copy@?$_Func_impl@V<lambda_020fa76990e3a2feb178ebe2f631c572>@@V?$allocator@H@std@@VTimeSpan@Foundation@Windows@@V?$Local@VValue@v8@@@v8@@@std@@EEBAPEAV?$_Func_base@VTimeSpan@Foundation@Windows@@V?$Local@VValue@v8@@@v8@@@2@PEAX@Z 0000000180061650 f i _nodert_generated.obj
 0001:00060670       ?_Copy@?$_Func_impl@V<lambda_07af88b9363cb28ed37db03d45a6cd3c>@@V?$allocator@H@std@@_NV?$Local@VValue@v8@@@v8@@@std@@EEBAPEAV?$_Func_base@_NV?$Local@VValue@v8@@@v8@@@2@PEAX@Z 0000000180061670 f i _nodert_generated.obj
 0001:00060690       ?_Copy@?$_Func_impl@V<lambda_090a25c39625cb123533b59ff0d217bc>@@V?$allocator@H@std@@_NV?$Local@VValue@v8@@@v8@@@std@@EEBAPEAV?$_Func_base@_NV?$Local@VValue@v8@@@v8@@@2@PEAX@Z 0000000180061690 f i _nodert_generated.obj
 0001:000606b0       ?_Copy@?$_Func_impl@V<lambda_098c61cba7a7d5cc6e4bd988569def2b>@@V?$allocator@H@std@@V?$Local@VValue@v8@@@v8@@E@std@@EEBAPEAV?$_Func_base@V?$Local@VValue@v8@@@v8@@E@2@PEAX@Z 00000001800616b0 f i _nodert_generated.obj
 0001:000606d0       ?_Copy@?$_Func_impl@V<lambda_134e5009af29bd9bdef58a699fe9f316>@@V?$allocator@H@std@@_NV?$Local@VValue@v8@@@v8@@@std@@EEBAPEAV?$_Func_base@_NV?$Local@VValue@v8@@@v8@@@2@PEAX@Z 00000001800616d0 f i _nodert_generated.obj
 0001:000606f0       ?_Copy@?$_Func_impl@V<lambda_13e3e39bdb3d5dd1ce2e97c3195112f8>@@V?$allocator@H@std@@_NV?$Local@VValue@v8@@@v8@@@std@@EEBAPEAV?$_Func_base@_NV?$Local@VValue@v8@@@v8@@@2@PEAX@Z 00000001800616f0 f i _nodert_generated.obj
 0001:00060710       ?_Copy@?$_Func_impl@V<lambda_1421f3ff24e46d5aecdb58fe616a8656>@@V?$allocator@H@std@@HV?$Local@VValue@v8@@@v8@@@std@@EEBAPEAV?$_Func_base@HV?$Local@VValue@v8@@@v8@@@2@PEAX@Z 0000000180061710 f i _nodert_generated.obj
 0001:00060730       ?_Copy@?$_Func_impl@V<lambda_16a754814df66becd26a45ed790aba89>@@V?$allocator@H@std@@MV?$Local@VValue@v8@@@v8@@@std@@EEBAPEAV?$_Func_base@MV?$Local@VValue@v8@@@v8@@@2@PEAX@Z 0000000180061730 f i _nodert_generated.obj
 0001:00060750       ?_Copy@?$_Func_impl@V<lambda_1ad841e32860ccc35cd5dace6fd08ae5>@@V?$allocator@H@std@@VSize@Foundation@Windows@@V?$Local@VValue@v8@@@v8@@@std@@EEBAPEAV?$_Func_base@VSize@Foundation@Windows@@V?$Local@VValue@v8@@@v8@@@2@PEAX@Z 0000000180061750 f i _nodert_generated.obj
 0001:00060770       ?_Copy@?$_Func_impl@V<lambda_1b5b19eafb8c7803164c5d0c769dc971>@@V?$allocator@H@std@@V?$Local@VValue@v8@@@v8@@M@std@@EEBAPEAV?$_Func_base@V?$Local@VValue@v8@@@v8@@M@2@PEAX@Z 0000000180061770 f i _nodert_generated.obj
 0001:00060790       ?_Copy@?$_Func_impl@V<lambda_1e9e23b3894ddc8249b6da397de0806d>@@V?$allocator@H@std@@V?$Local@VValue@v8@@@v8@@F@std@@EEBAPEAV?$_Func_base@V?$Local@VValue@v8@@@v8@@F@2@PEAX@Z 0000000180061790 f i _nodert_generated.obj
 0001:000607b0       ?_Copy@?$_Func_impl@V<lambda_1f6768b502a7c534942baea5c436b6c1>@@V?$allocator@H@std@@_NV?$Local@VValue@v8@@@v8@@@std@@EEBAPEAV?$_Func_base@_NV?$Local@VValue@v8@@@v8@@@2@PEAX@Z 00000001800617b0 f i _nodert_generated.obj
 0001:000607d0       ?_Copy@?$_Func_impl@V<lambda_2184b6913cb0cd0ffb42ff6d6a790c8c>@@V?$allocator@H@std@@_NV?$Local@VValue@v8@@@v8@@@std@@EEBAPEAV?$_Func_base@_NV?$Local@VValue@v8@@@v8@@@2@PEAX@Z 00000001800617d0 f i _nodert_generated.obj
 0001:000607f0       ?_Copy@?$_Func_impl@V<lambda_24e72d274cd5e430551186786f05383a>@@V?$allocator@H@std@@FV?$Local@VValue@v8@@@v8@@@std@@EEBAPEAV?$_Func_base@FV?$Local@VValue@v8@@@v8@@@2@PEAX@Z 00000001800617f0 f i _nodert_generated.obj
 0001:00060810       ?_Copy@?$_Func_impl@V<lambda_254c35a1c8cbb74830c7901a82ca92d9>@@V?$allocator@H@std@@_NV?$Local@VValue@v8@@@v8@@@std@@EEBAPEAV?$_Func_base@_NV?$Local@VValue@v8@@@v8@@@2@PEAX@Z 0000000180061810 f i _nodert_generated.obj
 0001:00060830       ?_Copy@?$_Func_impl@V<lambda_290d9f6004e5bf8d3328f0f6dbea6522>@@V?$allocator@H@std@@VPoint@Foundation@Windows@@V?$Local@VValue@v8@@@v8@@@std@@EEBAPEAV?$_Func_base@VPoint@Foundation@Windows@@V?$Local@VValue@v8@@@v8@@@2@PEAX@Z 0000000180061830 f i _nodert_generated.obj
 0001:00060850       ?_Copy@?$_Func_impl@V<lambda_2bbabe45caa1735792522b2625f8b1c6>@@V?$allocator@H@std@@VGuid@Platform@@V?$Local@VValue@v8@@@v8@@@std@@EEBAPEAV?$_Func_base@VGuid@Platform@@V?$Local@VValue@v8@@@v8@@@2@PEAX@Z 0000000180061850 f i _nodert_generated.obj
 0001:00060870       ?_Copy@?$_Func_impl@V<lambda_2bc4d9e2238cf2599190d39e26d8cbe0>@@V?$allocator@H@std@@GV?$Local@VValue@v8@@@v8@@@std@@EEBAPEAV?$_Func_base@GV?$Local@VValue@v8@@@v8@@@2@PEAX@Z 0000000180061870 f i _nodert_generated.obj
 0001:00060890       ?_Copy@?$_Func_impl@V<lambda_2c6a03088aa5196a7ff62086292386cd>@@V?$allocator@H@std@@_NV?$Local@VValue@v8@@@v8@@@std@@EEBAPEAV?$_Func_base@_NV?$Local@VValue@v8@@@v8@@@2@PEAX@Z 0000000180061890 f i _nodert_generated.obj
 0001:000608b0       ?_Copy@?$_Func_impl@V<lambda_2d956cd8dc4a3ca23551fab022e3529b>@@V?$allocator@H@std@@_NV?$Local@VValue@v8@@@v8@@@std@@EEBAPEAV?$_Func_base@_NV?$Local@VValue@v8@@@v8@@@2@PEAX@Z 00000001800618b0 f i _nodert_generated.obj
 0001:000608d0       ?_Copy@?$_Func_impl@V<lambda_309d59f401649514dd2fcfb3b3b9e2d7>@@V?$allocator@H@std@@V?$Local@VValue@v8@@@v8@@_J@std@@EEBAPEAV?$_Func_base@V?$Local@VValue@v8@@@v8@@_J@2@PEAX@Z 00000001800618d0 f i _nodert_generated.obj
 0001:000608f0       ?_Copy@?$_Func_impl@V<lambda_30cb30e53ec449771ecee2a2d9020984>@@V?$allocator@H@std@@_NV?$Local@VValue@v8@@@v8@@@std@@EEBAPEAV?$_Func_base@_NV?$Local@VValue@v8@@@v8@@@2@PEAX@Z 00000001800618f0 f i _nodert_generated.obj
 0001:00060910       ?_Copy@?$_Func_impl@V<lambda_323168b4b7d6020ca3c1a26c7e9e400c>@@V?$allocator@H@std@@X$$V@std@@EEBAPEAV?$_Func_base@X$$V@2@PEAX@Z 0000000180061910 f i _nodert_generated.obj
 0001:00060940       ?_Copy@?$_Func_impl@V<lambda_334911601a1ad962576abaeb332f23c7>@@V?$allocator@H@std@@_NV?$Local@VValue@v8@@@v8@@@std@@EEBAPEAV?$_Func_base@_NV?$Local@VValue@v8@@@v8@@@2@PEAX@Z 0000000180061940 f i _nodert_generated.obj
 0001:00060960       ?_Copy@?$_Func_impl@V<lambda_35f2bcb2a3e8d324ce8c2e6dc7880afa>@@V?$allocator@H@std@@V?$Local@VValue@v8@@@v8@@N@std@@EEBAPEAV?$_Func_base@V?$Local@VValue@v8@@@v8@@N@2@PEAX@Z 0000000180061960 f i _nodert_generated.obj
 0001:00060980       ?_Copy@?$_Func_impl@V<lambda_3b51720f3ee6237f44190b9629038bc3>@@V?$allocator@H@std@@GV?$Local@VValue@v8@@@v8@@@std@@EEBAPEAV?$_Func_base@GV?$Local@VValue@v8@@@v8@@@2@PEAX@Z 0000000180061980 f i _nodert_generated.obj
 0001:000609a0       ?_Copy@?$_Func_impl@V<lambda_42861d02c37e1b0dfea349dd2ef00bbd>@@V?$allocator@H@std@@_NV?$Local@VValue@v8@@@v8@@@std@@EEBAPEAV?$_Func_base@_NV?$Local@VValue@v8@@@v8@@@2@PEAX@Z 00000001800619a0 f i _nodert_generated.obj
 0001:000609c0       ?_Copy@?$_Func_impl@V<lambda_42a0ecd3c3b54e6b2cbb9e1d3887bcdc>@@V?$allocator@H@std@@VSize@Foundation@Windows@@V?$Local@VValue@v8@@@v8@@@std@@EEBAPEAV?$_Func_base@VSize@Foundation@Windows@@V?$Local@VValue@v8@@@v8@@@2@PEAX@Z 00000001800619c0 f i _nodert_generated.obj
 0001:000609e0       ?_Copy@?$_Func_impl@V<lambda_42ba1b98c1d102e04e955f525bd4e320>@@V?$allocator@H@std@@_NV?$Local@VValue@v8@@@v8@@@std@@EEBAPEAV?$_Func_base@_NV?$Local@VValue@v8@@@v8@@@2@PEAX@Z 00000001800619e0 f i _nodert_generated.obj
 0001:00060a00       ?_Copy@?$_Func_impl@V<lambda_49651ff5507e56f6d048c30cc06f03dd>@@V?$allocator@H@std@@X$$V@std@@EEBAPEAV?$_Func_base@X$$V@2@PEAX@Z 0000000180061a00 f i _nodert_generated.obj
 0001:00060a40       ?_Copy@?$_Func_impl@V<lambda_4aec6e32220d51310462429d4f6f7cd7>@@V?$allocator@H@std@@EV?$Local@VValue@v8@@@v8@@@std@@EEBAPEAV?$_Func_base@EV?$Local@VValue@v8@@@v8@@@2@PEAX@Z 0000000180061a40 f i _nodert_generated.obj
 0001:00060a60       ?_Copy@?$_Func_impl@V<lambda_5540c0eeef425fa120e634850d66c8dc>@@V?$allocator@H@std@@NV?$Local@VValue@v8@@@v8@@@std@@EEBAPEAV?$_Func_base@NV?$Local@VValue@v8@@@v8@@@2@PEAX@Z 0000000180061a60 f i _nodert_generated.obj
 0001:00060a80       ?_Copy@?$_Func_impl@V<lambda_57972fee6684a8d5fb20bd3d1236288c>@@V?$allocator@H@std@@VGuid@Platform@@V?$Local@VValue@v8@@@v8@@@std@@EEBAPEAV?$_Func_base@VGuid@Platform@@V?$Local@VValue@v8@@@v8@@@2@PEAX@Z 0000000180061a80 f i _nodert_generated.obj
 0001:00060aa0       ?_Copy@?$_Func_impl@V<lambda_5b5021707eb4c023bd35c908739d61c9>@@V?$allocator@H@std@@V?$Local@VValue@v8@@@v8@@VTimeSpan@Foundation@Windows@@@std@@EEBAPEAV?$_Func_base@V?$Local@VValue@v8@@@v8@@VTimeSpan@Foundation@Windows@@@2@PEAX@Z 0000000180061aa0 f i _nodert_generated.obj
 0001:00060ac0       ?_Copy@?$_Func_impl@V<lambda_5ef6239c8054ab7fcf65fbee3e96353e>@@V?$allocator@H@std@@_WV?$Local@VValue@v8@@@v8@@@std@@EEBAPEAV?$_Func_base@_WV?$Local@VValue@v8@@@v8@@@2@PEAX@Z 0000000180061ac0 f i _nodert_generated.obj
 0001:00060ae0       ?_Copy@?$_Func_impl@V<lambda_63f16139cba4f108d1ddf9682a025595>@@V?$allocator@H@std@@V?$Local@VValue@v8@@@v8@@VPoint@Foundation@Windows@@@std@@EEBAPEAV?$_Func_base@V?$Local@VValue@v8@@@v8@@VPoint@Foundation@Windows@@@2@PEAX@Z 0000000180061ae0 f i _nodert_generated.obj
 0001:00060b00       ?_Copy@?$_Func_impl@V<lambda_6574cb63297c45a45ba12edbd8086d6f>@@V?$allocator@H@std@@MV?$Local@VValue@v8@@@v8@@@std@@EEBAPEAV?$_Func_base@MV?$Local@VValue@v8@@@v8@@@2@PEAX@Z 0000000180061b00 f i _nodert_generated.obj
 0001:00060b20       ?_Copy@?$_Func_impl@V<lambda_74e83aef5b3d4278a07ea97c2a34f059>@@V?$allocator@H@std@@_NV?$Local@VValue@v8@@@v8@@@std@@EEBAPEAV?$_Func_base@_NV?$Local@VValue@v8@@@v8@@@2@PEAX@Z 0000000180061b20 f i _nodert_generated.obj
 0001:00060b40       ?_Copy@?$_Func_impl@V<lambda_74ec8ac5a3b0c17e7f27f46e754c1be1>@@V?$allocator@H@std@@PE$AAVString@Platform@@V?$Local@VValue@v8@@@v8@@@std@@EEBAPEAV?$_Func_base@PE$AAVString@Platform@@V?$Local@VValue@v8@@@v8@@@2@PEAX@Z 0000000180061b40 f i _nodert_generated.obj
 0001:00060b60       ?_Copy@?$_Func_impl@V<lambda_79fe348b8781ff6d29a096d63852e14e>@@V?$allocator@H@std@@_NV?$Local@VValue@v8@@@v8@@@std@@EEBAPEAV?$_Func_base@_NV?$Local@VValue@v8@@@v8@@@2@PEAX@Z 0000000180061b60 f i _nodert_generated.obj
 0001:00060b80       ?_Copy@?$_Func_impl@V<lambda_7bfa9b6fc7170e1427da4ce82f82a48d>@@V?$allocator@H@std@@VPoint@Foundation@Windows@@V?$Local@VValue@v8@@@v8@@@std@@EEBAPEAV?$_Func_base@VPoint@Foundation@Windows@@V?$Local@VValue@v8@@@v8@@@2@PEAX@Z 0000000180061b80 f i _nodert_generated.obj
 0001:00060ba0       ?_Copy@?$_Func_impl@V<lambda_7c3125abf0b78e2778e646511a5ec704>@@V?$allocator@H@std@@V?$Local@VValue@v8@@@v8@@PE$AAUIWwwFormUrlDecoderEntry@Foundation@Windows@@@std@@EEBAPEAV?$_Func_base@V?$Local@VValue@v8@@@v8@@PE$AAUIWwwFormUrlDecoderEntry@Foundation@Windows@@@2@PEAX@Z 0000000180061ba0 f i _nodert_generated.obj
 0001:00060bc0       ?_Copy@?$_Func_impl@V<lambda_7e1859ba07801f2bd1c087f62a099822>@@V?$allocator@H@std@@_NV?$Local@VValue@v8@@@v8@@@std@@EEBAPEAV?$_Func_base@_NV?$Local@VValue@v8@@@v8@@@2@PEAX@Z 0000000180061bc0 f i _nodert_generated.obj
 0001:00060be0       ?_Copy@?$_Func_impl@V<lambda_807e2dc448e2766fd8d66a2a154fd757>@@V?$allocator@H@std@@EV?$Local@VValue@v8@@@v8@@@std@@EEBAPEAV?$_Func_base@EV?$Local@VValue@v8@@@v8@@@2@PEAX@Z 0000000180061be0 f i _nodert_generated.obj
 0001:00060c00       ?_Copy@?$_Func_impl@V<lambda_83b1fcb4186f20aea46c3acfe9cc602f>@@V?$allocator@H@std@@V?$Local@VValue@v8@@@v8@@_K@std@@EEBAPEAV?$_Func_base@V?$Local@VValue@v8@@@v8@@_K@2@PEAX@Z 0000000180061c00 f i _nodert_generated.obj
 0001:00060c20       ?_Copy@?$_Func_impl@V<lambda_84b2e0c4363fa3e0d326104f1bfe478b>@@V?$allocator@H@std@@V?$Local@VValue@v8@@@v8@@VRect@Foundation@Windows@@@std@@EEBAPEAV?$_Func_base@V?$Local@VValue@v8@@@v8@@VRect@Foundation@Windows@@@2@PEAX@Z 0000000180061c20 f i _nodert_generated.obj
 0001:00060c40       ?_Copy@?$_Func_impl@V<lambda_84fd7a09210752e44ce3b30c4362cfc3>@@V?$allocator@H@std@@NV?$Local@VValue@v8@@@v8@@@std@@EEBAPEAV?$_Func_base@NV?$Local@VValue@v8@@@v8@@@2@PEAX@Z 0000000180061c40 f i _nodert_generated.obj
 0001:00060c60       ?_Copy@?$_Func_impl@V<lambda_850bde7442b4e67b57845066c808b7f9>@@V?$allocator@H@std@@PE$AAVObject@Platform@@V?$Local@VValue@v8@@@v8@@@std@@EEBAPEAV?$_Func_base@PE$AAVObject@Platform@@V?$Local@VValue@v8@@@v8@@@2@PEAX@Z 0000000180061c60 f i _nodert_generated.obj
 0001:00060c80       ?_Copy@?$_Func_impl@V<lambda_869fcda5fb6a5846bfff7877657b9bfa>@@V?$allocator@H@std@@V?$Local@VValue@v8@@@v8@@VSize@Foundation@Windows@@@std@@EEBAPEAV?$_Func_base@V?$Local@VValue@v8@@@v8@@VSize@Foundation@Windows@@@2@PEAX@Z 0000000180061c80 f i _nodert_generated.obj
 0001:00060ca0       ?_Copy@?$_Func_impl@V<lambda_8796f925c78479b1b7c806e10bb79f78>@@V?$allocator@H@std@@VDateTime@Foundation@Windows@@V?$Local@VValue@v8@@@v8@@@std@@EEBAPEAV?$_Func_base@VDateTime@Foundation@Windows@@V?$Local@VValue@v8@@@v8@@@2@PEAX@Z 0000000180061ca0 f i _nodert_generated.obj
 0001:00060cc0       ?_Copy@?$_Func_impl@V<lambda_87b81f53a11b2260270b93c1cf969c92>@@V?$allocator@H@std@@V?$Local@VValue@v8@@@v8@@PE$AAVObject@Platform@@@std@@EEBAPEAV?$_Func_base@V?$Local@VValue@v8@@@v8@@PE$AAVObject@Platform@@@2@PEAX@Z 0000000180061cc0 f i _nodert_generated.obj
 0001:00060ce0       ?_Copy@?$_Func_impl@V<lambda_8848d68499a2414cf86c123fb3614eb8>@@V?$allocator@H@std@@_NV?$Local@VValue@v8@@@v8@@@std@@EEBAPEAV?$_Func_base@_NV?$Local@VValue@v8@@@v8@@@2@PEAX@Z 0000000180061ce0 f i _nodert_generated.obj
 0001:00060d00       ?_Copy@?$_Func_impl@V<lambda_887ad2eff405dd476b737b781370f279>@@V?$allocator@H@std@@_NV?$Local@VValue@v8@@@v8@@@std@@EEBAPEAV?$_Func_base@_NV?$Local@VValue@v8@@@v8@@@2@PEAX@Z 0000000180061d00 f i _nodert_generated.obj
 0001:00060d20       ?_Copy@?$_Func_impl@V<lambda_89e08a54281259c21902d424f1933673>@@V?$allocator@H@std@@V?$Local@VValue@v8@@@v8@@PE$AAVString@Platform@@@std@@EEBAPEAV?$_Func_base@V?$Local@VValue@v8@@@v8@@PE$AAVString@Platform@@@2@PEAX@Z 0000000180061d20 f i _nodert_generated.obj
 0001:00060d40       ?_Copy@?$_Func_impl@V<lambda_8cc4c964448f1ab867afe563cde0195a>@@V?$allocator@H@std@@_NV?$Local@VValue@v8@@@v8@@@std@@EEBAPEAV?$_Func_base@_NV?$Local@VValue@v8@@@v8@@@2@PEAX@Z 0000000180061d40 f i _nodert_generated.obj
 0001:00060d60       ?_Copy@?$_Func_impl@V<lambda_92623ff20c13db631f5586c786dced01>@@V?$allocator@H@std@@_NV?$Local@VValue@v8@@@v8@@@std@@EEBAPEAV?$_Func_base@_NV?$Local@VValue@v8@@@v8@@@2@PEAX@Z 0000000180061d60 f i _nodert_generated.obj
 0001:00060d80       ?_Copy@?$_Func_impl@V<lambda_94fb53d9eb5789303fb1844fcc906f11>@@V?$allocator@H@std@@VRect@Foundation@Windows@@V?$Local@VValue@v8@@@v8@@@std@@EEBAPEAV?$_Func_base@VRect@Foundation@Windows@@V?$Local@VValue@v8@@@v8@@@2@PEAX@Z 0000000180061d80 f i _nodert_generated.obj
 0001:00060da0       ?_Copy@?$_Func_impl@V<lambda_9672cdc9e4b014dbcbf91e5133c0dbd3>@@V?$allocator@H@std@@_NV?$Local@VValue@v8@@@v8@@@std@@EEBAPEAV?$_Func_base@_NV?$Local@VValue@v8@@@v8@@@2@PEAX@Z 0000000180061da0 f i _nodert_generated.obj
 0001:00060dc0       ?_Copy@?$_Func_impl@V<lambda_9820cd0569d7d8d72231e1c382f4cbec>@@V?$allocator@H@std@@_KV?$Local@VValue@v8@@@v8@@@std@@EEBAPEAV?$_Func_base@_KV?$Local@VValue@v8@@@v8@@@2@PEAX@Z 0000000180061dc0 f i _nodert_generated.obj
 0001:00060de0       ?_Copy@?$_Func_impl@V<lambda_9bfdb60006a1ec41f610b605b2468382>@@V?$allocator@H@std@@_NV?$Local@VValue@v8@@@v8@@@std@@EEBAPEAV?$_Func_base@_NV?$Local@VValue@v8@@@v8@@@2@PEAX@Z 0000000180061de0 f i _nodert_generated.obj
 0001:00060e00       ?_Copy@?$_Func_impl@V<lambda_9c9a4048442e80634ebbddb616dd1f3b>@@V?$allocator@H@std@@_NV?$Local@VValue@v8@@@v8@@@std@@EEBAPEAV?$_Func_base@_NV?$Local@VValue@v8@@@v8@@@2@PEAX@Z 0000000180061e00 f i _nodert_generated.obj
 0001:00060e20       ?_Copy@?$_Func_impl@V<lambda_9cf6e4e7f125db49c1c32ddbe2eb0a4d>@@V?$allocator@H@std@@_NV?$Local@VValue@v8@@@v8@@@std@@EEBAPEAV?$_Func_base@_NV?$Local@VValue@v8@@@v8@@@2@PEAX@Z 0000000180061e20 f i _nodert_generated.obj
 0001:00060e40       ?_Copy@?$_Func_impl@V<lambda_a7fcc7bff8b4e788cd856f0c61e20b2a>@@V?$allocator@H@std@@_NV?$Local@VValue@v8@@@v8@@@std@@EEBAPEAV?$_Func_base@_NV?$Local@VValue@v8@@@v8@@@2@PEAX@Z 0000000180061e40 f i _nodert_generated.obj
 0001:00060e60       ?_Copy@?$_Func_impl@V<lambda_a7fdbe3470001a55490e011ae759a283>@@V?$allocator@H@std@@_NV?$Local@VValue@v8@@@v8@@@std@@EEBAPEAV?$_Func_base@_NV?$Local@VValue@v8@@@v8@@@2@PEAX@Z 0000000180061e60 f i _nodert_generated.obj
 0001:00060e80       ?_Copy@?$_Func_impl@V<lambda_ac08df06aa310a4e928a20d8258eeb0f>@@V?$allocator@H@std@@_WV?$Local@VValue@v8@@@v8@@@std@@EEBAPEAV?$_Func_base@_WV?$Local@VValue@v8@@@v8@@@2@PEAX@Z 0000000180061e80 f i _nodert_generated.obj
 0001:00060ea0       ?_Copy@?$_Func_impl@V<lambda_aee639b1773f933f11f2991db91be573>@@V?$allocator@H@std@@_NV?$Local@VValue@v8@@@v8@@@std@@EEBAPEAV?$_Func_base@_NV?$Local@VValue@v8@@@v8@@@2@PEAX@Z 0000000180061ea0 f i _nodert_generated.obj
 0001:00060ec0       ?_Copy@?$_Func_impl@V<lambda_af8f1bc116e1c082454975c28c37d169>@@V?$allocator@H@std@@V?$Local@VValue@v8@@@v8@@VDateTime@Foundation@Windows@@@std@@EEBAPEAV?$_Func_base@V?$Local@VValue@v8@@@v8@@VDateTime@Foundation@Windows@@@2@PEAX@Z 0000000180061ec0 f i _nodert_generated.obj
 0001:00060ee0       ?_Copy@?$_Func_impl@V<lambda_afb547083691b212e8d4aa49e8f152dc>@@V?$allocator@H@std@@IV?$Local@VValue@v8@@@v8@@@std@@EEBAPEAV?$_Func_base@IV?$Local@VValue@v8@@@v8@@@2@PEAX@Z 0000000180061ee0 f i _nodert_generated.obj
 0001:00060f00       ?_Copy@?$_Func_impl@V<lambda_afc532daf9db0f32af6faaf05d4e9f6b>@@V?$allocator@H@std@@_NV?$Local@VValue@v8@@@v8@@@std@@EEBAPEAV?$_Func_base@_NV?$Local@VValue@v8@@@v8@@@2@PEAX@Z 0000000180061f00 f i _nodert_generated.obj
 0001:00060f20       ?_Copy@?$_Func_impl@V<lambda_b4a69b6e96ded561cf6125ba4d203b82>@@V?$allocator@H@std@@_NV?$Local@VValue@v8@@@v8@@@std@@EEBAPEAV?$_Func_base@_NV?$Local@VValue@v8@@@v8@@@2@PEAX@Z 0000000180061f20 f i _nodert_generated.obj
 0001:00060f40       ?_Copy@?$_Func_impl@V<lambda_b5637107c4580816204b759de0971b79>@@V?$allocator@H@std@@_NV?$Local@VValue@v8@@@v8@@@std@@EEBAPEAV?$_Func_base@_NV?$Local@VValue@v8@@@v8@@@2@PEAX@Z 0000000180061f40 f i _nodert_generated.obj
 0001:00060f60       ?_Copy@?$_Func_impl@V<lambda_b5f65513cf849cab43a1ee50fc875b24>@@V?$allocator@H@std@@_JV?$Local@VValue@v8@@@v8@@@std@@EEBAPEAV?$_Func_base@_JV?$Local@VValue@v8@@@v8@@@2@PEAX@Z 0000000180061f60 f i _nodert_generated.obj
 0001:00060f80       ?_Copy@?$_Func_impl@V<lambda_ba18901838a49873ef872203bc8527ed>@@V?$allocator@H@std@@VTimeSpan@Foundation@Windows@@V?$Local@VValue@v8@@@v8@@@std@@EEBAPEAV?$_Func_base@VTimeSpan@Foundation@Windows@@V?$Local@VValue@v8@@@v8@@@2@PEAX@Z 0000000180061f80 f i _nodert_generated.obj
 0001:00060fa0       ?_Copy@?$_Func_impl@V<lambda_ba501eccc9f8b1b5af390e9859e4df50>@@V?$allocator@H@std@@_NV?$Local@VValue@v8@@@v8@@@std@@EEBAPEAV?$_Func_base@_NV?$Local@VValue@v8@@@v8@@@2@PEAX@Z 0000000180061fa0 f i _nodert_generated.obj
 0001:00060fc0       ?_Copy@?$_Func_impl@V<lambda_c05df627370d555cba9793685713e009>@@V?$allocator@H@std@@_NV?$Local@VValue@v8@@@v8@@@std@@EEBAPEAV?$_Func_base@_NV?$Local@VValue@v8@@@v8@@@2@PEAX@Z 0000000180061fc0 f i _nodert_generated.obj
 0001:00060fe0       ?_Copy@?$_Func_impl@V<lambda_c1fd914ce11cd788f293e2affcb004ac>@@V?$allocator@H@std@@_NV?$Local@VValue@v8@@@v8@@@std@@EEBAPEAV?$_Func_base@_NV?$Local@VValue@v8@@@v8@@@2@PEAX@Z 0000000180061fe0 f i _nodert_generated.obj
 0001:00061000       ?_Copy@?$_Func_impl@V<lambda_c3c7f1a5ff36149a57df8b77f7ff9d56>@@V?$allocator@H@std@@_NV?$Local@VValue@v8@@@v8@@@std@@EEBAPEAV?$_Func_base@_NV?$Local@VValue@v8@@@v8@@@2@PEAX@Z 0000000180062000 f i _nodert_generated.obj
 0001:00061020       ?_Copy@?$_Func_impl@V<lambda_c4f22aece8058882bda5332e2dc6094a>@@V?$allocator@H@std@@VDateTime@Foundation@Windows@@V?$Local@VValue@v8@@@v8@@@std@@EEBAPEAV?$_Func_base@VDateTime@Foundation@Windows@@V?$Local@VValue@v8@@@v8@@@2@PEAX@Z 0000000180062020 f i _nodert_generated.obj
 0001:00061040       ?_Copy@?$_Func_impl@V<lambda_cc5efef53f4517305ade5f31acbea296>@@V?$allocator@H@std@@IV?$Local@VValue@v8@@@v8@@@std@@EEBAPEAV?$_Func_base@IV?$Local@VValue@v8@@@v8@@@2@PEAX@Z 0000000180062040 f i _nodert_generated.obj
 0001:00061060       ?_Copy@?$_Func_impl@V<lambda_cd976d3bc4167928884ff6ab7e49b008>@@V?$allocator@H@std@@_NV?$Local@VValue@v8@@@v8@@@std@@EEBAPEAV?$_Func_base@_NV?$Local@VValue@v8@@@v8@@@2@PEAX@Z 0000000180062060 f i _nodert_generated.obj
 0001:00061080       ?_Copy@?$_Func_impl@V<lambda_cff40d32a985611151f5519d503397a0>@@V?$allocator@H@std@@_JV?$Local@VValue@v8@@@v8@@@std@@EEBAPEAV?$_Func_base@_JV?$Local@VValue@v8@@@v8@@@2@PEAX@Z 0000000180062080 f i _nodert_generated.obj
 0001:000610a0       ?_Copy@?$_Func_impl@V<lambda_d0fcbf2defc252ec422e9f26646483b5>@@V?$allocator@H@std@@V?$Local@VValue@v8@@@v8@@VGuid@Platform@@@std@@EEBAPEAV?$_Func_base@V?$Local@VValue@v8@@@v8@@VGuid@Platform@@@2@PEAX@Z 00000001800620a0 f i _nodert_generated.obj
 0001:000610c0       ?_Copy@?$_Func_impl@V<lambda_d2919f705a79fe292d147c7f75386c54>@@V?$allocator@H@std@@V?$Local@VValue@v8@@@v8@@I@std@@EEBAPEAV?$_Func_base@V?$Local@VValue@v8@@@v8@@I@2@PEAX@Z 00000001800620c0 f i _nodert_generated.obj
 0001:000610e0       ?_Copy@?$_Func_impl@V<lambda_d38773f6115850a0f88ad40409222155>@@V?$allocator@H@std@@PE$AAVString@Platform@@V?$Local@VValue@v8@@@v8@@@std@@EEBAPEAV?$_Func_base@PE$AAVString@Platform@@V?$Local@VValue@v8@@@v8@@@2@PEAX@Z 00000001800620e0 f i _nodert_generated.obj
 0001:00061100       ?_Copy@?$_Func_impl@V<lambda_d9a2021dc18302479b39067d57580088>@@V?$allocator@H@std@@_NV?$Local@VValue@v8@@@v8@@@std@@EEBAPEAV?$_Func_base@_NV?$Local@VValue@v8@@@v8@@@2@PEAX@Z 0000000180062100 f i _nodert_generated.obj
 0001:00061120       ?_Copy@?$_Func_impl@V<lambda_ddaf005d09ec384ca5fa84afb99ce47b>@@V?$allocator@H@std@@HV?$Local@VValue@v8@@@v8@@@std@@EEBAPEAV?$_Func_base@HV?$Local@VValue@v8@@@v8@@@2@PEAX@Z 0000000180062120 f i _nodert_generated.obj
 0001:00061140       ?_Copy@?$_Func_impl@V<lambda_e032bc00ab801c27aecda7b3122fc71e>@@V?$allocator@H@std@@_NV?$Local@VValue@v8@@@v8@@@std@@EEBAPEAV?$_Func_base@_NV?$Local@VValue@v8@@@v8@@@2@PEAX@Z 0000000180062140 f i _nodert_generated.obj
 0001:00061160       ?_Copy@?$_Func_impl@V<lambda_e2139a87d96ba7d6c29afa27b25c7b3b>@@V?$allocator@H@std@@PE$AAVObject@Platform@@V?$Local@VValue@v8@@@v8@@@std@@EEBAPEAV?$_Func_base@PE$AAVObject@Platform@@V?$Local@VValue@v8@@@v8@@@2@PEAX@Z 0000000180062160 f i _nodert_generated.obj
 0001:00061180       ?_Copy@?$_Func_impl@V<lambda_e660ce246b8692358554355363d2bbdb>@@V?$allocator@H@std@@V?$Local@VValue@v8@@@v8@@_N@std@@EEBAPEAV?$_Func_base@V?$Local@VValue@v8@@@v8@@_N@2@PEAX@Z 0000000180062180 f i _nodert_generated.obj
 0001:000611a0       ?_Copy@?$_Func_impl@V<lambda_e75a6b3f366d9824e9ae5182076f5b6f>@@V?$allocator@H@std@@VRect@Foundation@Windows@@V?$Local@VValue@v8@@@v8@@@std@@EEBAPEAV?$_Func_base@VRect@Foundation@Windows@@V?$Local@VValue@v8@@@v8@@@2@PEAX@Z 00000001800621a0 f i _nodert_generated.obj
 0001:000611c0       ?_Copy@?$_Func_impl@V<lambda_ef1ce463e0c6d80f6679263f728ba338>@@V?$allocator@H@std@@_KV?$Local@VValue@v8@@@v8@@@std@@EEBAPEAV?$_Func_base@_KV?$Local@VValue@v8@@@v8@@@2@PEAX@Z 00000001800621c0 f i _nodert_generated.obj
 0001:000611e0       ?_Copy@?$_Func_impl@V<lambda_f32f40989460573471116a7ae5eddb2d>@@V?$allocator@H@std@@_NV?$Local@VValue@v8@@@v8@@@std@@EEBAPEAV?$_Func_base@_NV?$Local@VValue@v8@@@v8@@@2@PEAX@Z 00000001800621e0 f i _nodert_generated.obj
 0001:00061200       ?_Copy@?$_Func_impl@V<lambda_f5823fd85b22dbcb9c101b6af88ccd65>@@V?$allocator@H@std@@V?$Local@VValue@v8@@@v8@@H@std@@EEBAPEAV?$_Func_base@V?$Local@VValue@v8@@@v8@@H@2@PEAX@Z 0000000180062200 f i _nodert_generated.obj
 0001:00061220       ?_Copy@?$_Func_impl@V<lambda_fc6b419b9a8c42f3e377d86c94f5a923>@@V?$allocator@H@std@@V?$Local@VValue@v8@@@v8@@_W@std@@EEBAPEAV?$_Func_base@V?$Local@VValue@v8@@@v8@@_W@2@PEAX@Z 0000000180062220 f i _nodert_generated.obj
 0001:00061240       ?_Copy@?$_Func_impl@V<lambda_fe199ffbdb9f25806abc0becd00fdcce>@@V?$allocator@H@std@@FV?$Local@VValue@v8@@@v8@@@std@@EEBAPEAV?$_Func_base@FV?$Local@VValue@v8@@@v8@@@2@PEAX@Z 0000000180062240 f i _nodert_generated.obj
 0001:00061260       ?_Copy@?$_Func_impl@V<lambda_fe5e5aeaacbd6446ef87ebbc8092b4a0>@@V?$allocator@H@std@@_NV?$Local@VValue@v8@@@v8@@@std@@EEBAPEAV?$_Func_base@_NV?$Local@VValue@v8@@@v8@@@2@PEAX@Z 0000000180062260 f i _nodert_generated.obj
 0001:00061280       ?_Delete_this@?$_Func_impl@V<lambda_00da0358850de3e49429586fece76029>@@V?$allocator@H@std@@V?$Local@VValue@v8@@@v8@@G@std@@EEAAX_N@Z 0000000180062280 f i _nodert_generated.obj
 0001:000612a0       ?_Delete_this@?$_Func_impl@V<lambda_0160fe2f50115527811ff5b9360e1b7a>@@V?$allocator@H@std@@_NV?$Local@VValue@v8@@@v8@@@std@@EEAAX_N@Z 00000001800622a0 f i _nodert_generated.obj
 0001:000612c0       ?_Delete_this@?$_Func_impl@V<lambda_020fa76990e3a2feb178ebe2f631c572>@@V?$allocator@H@std@@VTimeSpan@Foundation@Windows@@V?$Local@VValue@v8@@@v8@@@std@@EEAAX_N@Z 00000001800622c0 f i _nodert_generated.obj
 0001:000612e0       ?_Delete_this@?$_Func_impl@V<lambda_07af88b9363cb28ed37db03d45a6cd3c>@@V?$allocator@H@std@@_NV?$Local@VValue@v8@@@v8@@@std@@EEAAX_N@Z 00000001800622e0 f i _nodert_generated.obj
 0001:00061300       ?_Delete_this@?$_Func_impl@V<lambda_090a25c39625cb123533b59ff0d217bc>@@V?$allocator@H@std@@_NV?$Local@VValue@v8@@@v8@@@std@@EEAAX_N@Z 0000000180062300 f i _nodert_generated.obj
 0001:00061320       ?_Delete_this@?$_Func_impl@V<lambda_098c61cba7a7d5cc6e4bd988569def2b>@@V?$allocator@H@std@@V?$Local@VValue@v8@@@v8@@E@std@@EEAAX_N@Z 0000000180062320 f i _nodert_generated.obj
 0001:00061340       ?_Delete_this@?$_Func_impl@V<lambda_134e5009af29bd9bdef58a699fe9f316>@@V?$allocator@H@std@@_NV?$Local@VValue@v8@@@v8@@@std@@EEAAX_N@Z 0000000180062340 f i _nodert_generated.obj
 0001:00061360       ?_Delete_this@?$_Func_impl@V<lambda_13e3e39bdb3d5dd1ce2e97c3195112f8>@@V?$allocator@H@std@@_NV?$Local@VValue@v8@@@v8@@@std@@EEAAX_N@Z 0000000180062360 f i _nodert_generated.obj
 0001:00061380       ?_Delete_this@?$_Func_impl@V<lambda_1421f3ff24e46d5aecdb58fe616a8656>@@V?$allocator@H@std@@HV?$Local@VValue@v8@@@v8@@@std@@EEAAX_N@Z 0000000180062380 f i _nodert_generated.obj
 0001:000613a0       ?_Delete_this@?$_Func_impl@V<lambda_16a754814df66becd26a45ed790aba89>@@V?$allocator@H@std@@MV?$Local@VValue@v8@@@v8@@@std@@EEAAX_N@Z 00000001800623a0 f i _nodert_generated.obj
 0001:000613c0       ?_Delete_this@?$_Func_impl@V<lambda_1ad841e32860ccc35cd5dace6fd08ae5>@@V?$allocator@H@std@@VSize@Foundation@Windows@@V?$Local@VValue@v8@@@v8@@@std@@EEAAX_N@Z 00000001800623c0 f i _nodert_generated.obj
 0001:000613e0       ?_Delete_this@?$_Func_impl@V<lambda_1b5b19eafb8c7803164c5d0c769dc971>@@V?$allocator@H@std@@V?$Local@VValue@v8@@@v8@@M@std@@EEAAX_N@Z 00000001800623e0 f i _nodert_generated.obj
 0001:00061400       ?_Delete_this@?$_Func_impl@V<lambda_1e9e23b3894ddc8249b6da397de0806d>@@V?$allocator@H@std@@V?$Local@VValue@v8@@@v8@@F@std@@EEAAX_N@Z 0000000180062400 f i _nodert_generated.obj
 0001:00061420       ?_Delete_this@?$_Func_impl@V<lambda_1f6768b502a7c534942baea5c436b6c1>@@V?$allocator@H@std@@_NV?$Local@VValue@v8@@@v8@@@std@@EEAAX_N@Z 0000000180062420 f i _nodert_generated.obj
 0001:00061440       ?_Delete_this@?$_Func_impl@V<lambda_2184b6913cb0cd0ffb42ff6d6a790c8c>@@V?$allocator@H@std@@_NV?$Local@VValue@v8@@@v8@@@std@@EEAAX_N@Z 0000000180062440 f i _nodert_generated.obj
 0001:00061460       ?_Delete_this@?$_Func_impl@V<lambda_24e72d274cd5e430551186786f05383a>@@V?$allocator@H@std@@FV?$Local@VValue@v8@@@v8@@@std@@EEAAX_N@Z 0000000180062460 f i _nodert_generated.obj
 0001:00061480       ?_Delete_this@?$_Func_impl@V<lambda_254c35a1c8cbb74830c7901a82ca92d9>@@V?$allocator@H@std@@_NV?$Local@VValue@v8@@@v8@@@std@@EEAAX_N@Z 0000000180062480 f i _nodert_generated.obj
 0001:000614a0       ?_Delete_this@?$_Func_impl@V<lambda_290d9f6004e5bf8d3328f0f6dbea6522>@@V?$allocator@H@std@@VPoint@Foundation@Windows@@V?$Local@VValue@v8@@@v8@@@std@@EEAAX_N@Z 00000001800624a0 f i _nodert_generated.obj
 0001:000614c0       ?_Delete_this@?$_Func_impl@V<lambda_2bbabe45caa1735792522b2625f8b1c6>@@V?$allocator@H@std@@VGuid@Platform@@V?$Local@VValue@v8@@@v8@@@std@@EEAAX_N@Z 00000001800624c0 f i _nodert_generated.obj
 0001:000614e0       ?_Delete_this@?$_Func_impl@V<lambda_2bc4d9e2238cf2599190d39e26d8cbe0>@@V?$allocator@H@std@@GV?$Local@VValue@v8@@@v8@@@std@@EEAAX_N@Z 00000001800624e0 f i _nodert_generated.obj
 0001:00061500       ?_Delete_this@?$_Func_impl@V<lambda_2c6a03088aa5196a7ff62086292386cd>@@V?$allocator@H@std@@_NV?$Local@VValue@v8@@@v8@@@std@@EEAAX_N@Z 0000000180062500 f i _nodert_generated.obj
 0001:00061520       ?_Delete_this@?$_Func_impl@V<lambda_2d956cd8dc4a3ca23551fab022e3529b>@@V?$allocator@H@std@@_NV?$Local@VValue@v8@@@v8@@@std@@EEAAX_N@Z 0000000180062520 f i _nodert_generated.obj
 0001:00061540       ?_Delete_this@?$_Func_impl@V<lambda_309d59f401649514dd2fcfb3b3b9e2d7>@@V?$allocator@H@std@@V?$Local@VValue@v8@@@v8@@_J@std@@EEAAX_N@Z 0000000180062540 f i _nodert_generated.obj
 0001:00061560       ?_Delete_this@?$_Func_impl@V<lambda_30cb30e53ec449771ecee2a2d9020984>@@V?$allocator@H@std@@_NV?$Local@VValue@v8@@@v8@@@std@@EEAAX_N@Z 0000000180062560 f i _nodert_generated.obj
 0001:00061580       ?_Delete_this@?$_Func_impl@V<lambda_323168b4b7d6020ca3c1a26c7e9e400c>@@V?$allocator@H@std@@X$$V@std@@EEAAX_N@Z 0000000180062580 f i _nodert_generated.obj
 0001:000615a0       ?_Delete_this@?$_Func_impl@V<lambda_334911601a1ad962576abaeb332f23c7>@@V?$allocator@H@std@@_NV?$Local@VValue@v8@@@v8@@@std@@EEAAX_N@Z 00000001800625a0 f i _nodert_generated.obj
 0001:000615c0       ?_Delete_this@?$_Func_impl@V<lambda_35f2bcb2a3e8d324ce8c2e6dc7880afa>@@V?$allocator@H@std@@V?$Local@VValue@v8@@@v8@@N@std@@EEAAX_N@Z 00000001800625c0 f i _nodert_generated.obj
 0001:000615e0       ?_Delete_this@?$_Func_impl@V<lambda_3b51720f3ee6237f44190b9629038bc3>@@V?$allocator@H@std@@GV?$Local@VValue@v8@@@v8@@@std@@EEAAX_N@Z 00000001800625e0 f i _nodert_generated.obj
 0001:00061600       ?_Delete_this@?$_Func_impl@V<lambda_42861d02c37e1b0dfea349dd2ef00bbd>@@V?$allocator@H@std@@_NV?$Local@VValue@v8@@@v8@@@std@@EEAAX_N@Z 0000000180062600 f i _nodert_generated.obj
 0001:00061620       ?_Delete_this@?$_Func_impl@V<lambda_42a0ecd3c3b54e6b2cbb9e1d3887bcdc>@@V?$allocator@H@std@@VSize@Foundation@Windows@@V?$Local@VValue@v8@@@v8@@@std@@EEAAX_N@Z 0000000180062620 f i _nodert_generated.obj
 0001:00061640       ?_Delete_this@?$_Func_impl@V<lambda_42ba1b98c1d102e04e955f525bd4e320>@@V?$allocator@H@std@@_NV?$Local@VValue@v8@@@v8@@@std@@EEAAX_N@Z 0000000180062640 f i _nodert_generated.obj
 0001:00061660       ?_Delete_this@?$_Func_impl@V<lambda_49651ff5507e56f6d048c30cc06f03dd>@@V?$allocator@H@std@@X$$V@std@@EEAAX_N@Z 0000000180062660 f i _nodert_generated.obj
 0001:000616c0       ?_Delete_this@?$_Func_impl@V<lambda_4aec6e32220d51310462429d4f6f7cd7>@@V?$allocator@H@std@@EV?$Local@VValue@v8@@@v8@@@std@@EEAAX_N@Z 00000001800626c0 f i _nodert_generated.obj
 0001:000616e0       ?_Delete_this@?$_Func_impl@V<lambda_5540c0eeef425fa120e634850d66c8dc>@@V?$allocator@H@std@@NV?$Local@VValue@v8@@@v8@@@std@@EEAAX_N@Z 00000001800626e0 f i _nodert_generated.obj
 0001:00061700       ?_Delete_this@?$_Func_impl@V<lambda_57972fee6684a8d5fb20bd3d1236288c>@@V?$allocator@H@std@@VGuid@Platform@@V?$Local@VValue@v8@@@v8@@@std@@EEAAX_N@Z 0000000180062700 f i _nodert_generated.obj
 0001:00061720       ?_Delete_this@?$_Func_impl@V<lambda_5b5021707eb4c023bd35c908739d61c9>@@V?$allocator@H@std@@V?$Local@VValue@v8@@@v8@@VTimeSpan@Foundation@Windows@@@std@@EEAAX_N@Z 0000000180062720 f i _nodert_generated.obj
 0001:00061740       ?_Delete_this@?$_Func_impl@V<lambda_5ef6239c8054ab7fcf65fbee3e96353e>@@V?$allocator@H@std@@_WV?$Local@VValue@v8@@@v8@@@std@@EEAAX_N@Z 0000000180062740 f i _nodert_generated.obj
 0001:00061760       ?_Delete_this@?$_Func_impl@V<lambda_63f16139cba4f108d1ddf9682a025595>@@V?$allocator@H@std@@V?$Local@VValue@v8@@@v8@@VPoint@Foundation@Windows@@@std@@EEAAX_N@Z 0000000180062760 f i _nodert_generated.obj
 0001:00061780       ?_Delete_this@?$_Func_impl@V<lambda_6574cb63297c45a45ba12edbd8086d6f>@@V?$allocator@H@std@@MV?$Local@VValue@v8@@@v8@@@std@@EEAAX_N@Z 0000000180062780 f i _nodert_generated.obj
 0001:000617a0       ?_Delete_this@?$_Func_impl@V<lambda_74e83aef5b3d4278a07ea97c2a34f059>@@V?$allocator@H@std@@_NV?$Local@VValue@v8@@@v8@@@std@@EEAAX_N@Z 00000001800627a0 f i _nodert_generated.obj
 0001:000617c0       ?_Delete_this@?$_Func_impl@V<lambda_74ec8ac5a3b0c17e7f27f46e754c1be1>@@V?$allocator@H@std@@PE$AAVString@Platform@@V?$Local@VValue@v8@@@v8@@@std@@EEAAX_N@Z 00000001800627c0 f i _nodert_generated.obj
 0001:000617e0       ?_Delete_this@?$_Func_impl@V<lambda_79fe348b8781ff6d29a096d63852e14e>@@V?$allocator@H@std@@_NV?$Local@VValue@v8@@@v8@@@std@@EEAAX_N@Z 00000001800627e0 f i _nodert_generated.obj
 0001:00061800       ?_Delete_this@?$_Func_impl@V<lambda_7bfa9b6fc7170e1427da4ce82f82a48d>@@V?$allocator@H@std@@VPoint@Foundation@Windows@@V?$Local@VValue@v8@@@v8@@@std@@EEAAX_N@Z 0000000180062800 f i _nodert_generated.obj
 0001:00061820       ?_Delete_this@?$_Func_impl@V<lambda_7c3125abf0b78e2778e646511a5ec704>@@V?$allocator@H@std@@V?$Local@VValue@v8@@@v8@@PE$AAUIWwwFormUrlDecoderEntry@Foundation@Windows@@@std@@EEAAX_N@Z 0000000180062820 f i _nodert_generated.obj
 0001:00061840       ?_Delete_this@?$_Func_impl@V<lambda_7e1859ba07801f2bd1c087f62a099822>@@V?$allocator@H@std@@_NV?$Local@VValue@v8@@@v8@@@std@@EEAAX_N@Z 0000000180062840 f i _nodert_generated.obj
 0001:00061860       ?_Delete_this@?$_Func_impl@V<lambda_807e2dc448e2766fd8d66a2a154fd757>@@V?$allocator@H@std@@EV?$Local@VValue@v8@@@v8@@@std@@EEAAX_N@Z 0000000180062860 f i _nodert_generated.obj
 0001:00061880       ?_Delete_this@?$_Func_impl@V<lambda_83b1fcb4186f20aea46c3acfe9cc602f>@@V?$allocator@H@std@@V?$Local@VValue@v8@@@v8@@_K@std@@EEAAX_N@Z 0000000180062880 f i _nodert_generated.obj
 0001:000618a0       ?_Delete_this@?$_Func_impl@V<lambda_84b2e0c4363fa3e0d326104f1bfe478b>@@V?$allocator@H@std@@V?$Local@VValue@v8@@@v8@@VRect@Foundation@Windows@@@std@@EEAAX_N@Z 00000001800628a0 f i _nodert_generated.obj
 0001:000618c0       ?_Delete_this@?$_Func_impl@V<lambda_84fd7a09210752e44ce3b30c4362cfc3>@@V?$allocator@H@std@@NV?$Local@VValue@v8@@@v8@@@std@@EEAAX_N@Z 00000001800628c0 f i _nodert_generated.obj
 0001:000618e0       ?_Delete_this@?$_Func_impl@V<lambda_850bde7442b4e67b57845066c808b7f9>@@V?$allocator@H@std@@PE$AAVObject@Platform@@V?$Local@VValue@v8@@@v8@@@std@@EEAAX_N@Z 00000001800628e0 f i _nodert_generated.obj
 0001:00061900       ?_Delete_this@?$_Func_impl@V<lambda_869fcda5fb6a5846bfff7877657b9bfa>@@V?$allocator@H@std@@V?$Local@VValue@v8@@@v8@@VSize@Foundation@Windows@@@std@@EEAAX_N@Z 0000000180062900 f i _nodert_generated.obj
 0001:00061920       ?_Delete_this@?$_Func_impl@V<lambda_8796f925c78479b1b7c806e10bb79f78>@@V?$allocator@H@std@@VDateTime@Foundation@Windows@@V?$Local@VValue@v8@@@v8@@@std@@EEAAX_N@Z 0000000180062920 f i _nodert_generated.obj
 0001:00061940       ?_Delete_this@?$_Func_impl@V<lambda_87b81f53a11b2260270b93c1cf969c92>@@V?$allocator@H@std@@V?$Local@VValue@v8@@@v8@@PE$AAVObject@Platform@@@std@@EEAAX_N@Z 0000000180062940 f i _nodert_generated.obj
 0001:00061960       ?_Delete_this@?$_Func_impl@V<lambda_8848d68499a2414cf86c123fb3614eb8>@@V?$allocator@H@std@@_NV?$Local@VValue@v8@@@v8@@@std@@EEAAX_N@Z 0000000180062960 f i _nodert_generated.obj
 0001:00061980       ?_Delete_this@?$_Func_impl@V<lambda_887ad2eff405dd476b737b781370f279>@@V?$allocator@H@std@@_NV?$Local@VValue@v8@@@v8@@@std@@EEAAX_N@Z 0000000180062980 f i _nodert_generated.obj
 0001:000619a0       ?_Delete_this@?$_Func_impl@V<lambda_89e08a54281259c21902d424f1933673>@@V?$allocator@H@std@@V?$Local@VValue@v8@@@v8@@PE$AAVString@Platform@@@std@@EEAAX_N@Z 00000001800629a0 f i _nodert_generated.obj
 0001:000619c0       ?_Delete_this@?$_Func_impl@V<lambda_8cc4c964448f1ab867afe563cde0195a>@@V?$allocator@H@std@@_NV?$Local@VValue@v8@@@v8@@@std@@EEAAX_N@Z 00000001800629c0 f i _nodert_generated.obj
 0001:000619e0       ?_Delete_this@?$_Func_impl@V<lambda_92623ff20c13db631f5586c786dced01>@@V?$allocator@H@std@@_NV?$Local@VValue@v8@@@v8@@@std@@EEAAX_N@Z 00000001800629e0 f i _nodert_generated.obj
 0001:00061a00       ?_Delete_this@?$_Func_impl@V<lambda_94fb53d9eb5789303fb1844fcc906f11>@@V?$allocator@H@std@@VRect@Foundation@Windows@@V?$Local@VValue@v8@@@v8@@@std@@EEAAX_N@Z 0000000180062a00 f i _nodert_generated.obj
 0001:00061a20       ?_Delete_this@?$_Func_impl@V<lambda_9672cdc9e4b014dbcbf91e5133c0dbd3>@@V?$allocator@H@std@@_NV?$Local@VValue@v8@@@v8@@@std@@EEAAX_N@Z 0000000180062a20 f i _nodert_generated.obj
 0001:00061a40       ?_Delete_this@?$_Func_impl@V<lambda_9820cd0569d7d8d72231e1c382f4cbec>@@V?$allocator@H@std@@_KV?$Local@VValue@v8@@@v8@@@std@@EEAAX_N@Z 0000000180062a40 f i _nodert_generated.obj
 0001:00061a60       ?_Delete_this@?$_Func_impl@V<lambda_9bfdb60006a1ec41f610b605b2468382>@@V?$allocator@H@std@@_NV?$Local@VValue@v8@@@v8@@@std@@EEAAX_N@Z 0000000180062a60 f i _nodert_generated.obj
 0001:00061a80       ?_Delete_this@?$_Func_impl@V<lambda_9c9a4048442e80634ebbddb616dd1f3b>@@V?$allocator@H@std@@_NV?$Local@VValue@v8@@@v8@@@std@@EEAAX_N@Z 0000000180062a80 f i _nodert_generated.obj
 0001:00061aa0       ?_Delete_this@?$_Func_impl@V<lambda_9cf6e4e7f125db49c1c32ddbe2eb0a4d>@@V?$allocator@H@std@@_NV?$Local@VValue@v8@@@v8@@@std@@EEAAX_N@Z 0000000180062aa0 f i _nodert_generated.obj
 0001:00061ac0       ?_Delete_this@?$_Func_impl@V<lambda_a7fcc7bff8b4e788cd856f0c61e20b2a>@@V?$allocator@H@std@@_NV?$Local@VValue@v8@@@v8@@@std@@EEAAX_N@Z 0000000180062ac0 f i _nodert_generated.obj
 0001:00061ae0       ?_Delete_this@?$_Func_impl@V<lambda_a7fdbe3470001a55490e011ae759a283>@@V?$allocator@H@std@@_NV?$Local@VValue@v8@@@v8@@@std@@EEAAX_N@Z 0000000180062ae0 f i _nodert_generated.obj
 0001:00061b00       ?_Delete_this@?$_Func_impl@V<lambda_ac08df06aa310a4e928a20d8258eeb0f>@@V?$allocator@H@std@@_WV?$Local@VValue@v8@@@v8@@@std@@EEAAX_N@Z 0000000180062b00 f i _nodert_generated.obj
 0001:00061b20       ?_Delete_this@?$_Func_impl@V<lambda_aee639b1773f933f11f2991db91be573>@@V?$allocator@H@std@@_NV?$Local@VValue@v8@@@v8@@@std@@EEAAX_N@Z 0000000180062b20 f i _nodert_generated.obj
 0001:00061b40       ?_Delete_this@?$_Func_impl@V<lambda_af8f1bc116e1c082454975c28c37d169>@@V?$allocator@H@std@@V?$Local@VValue@v8@@@v8@@VDateTime@Foundation@Windows@@@std@@EEAAX_N@Z 0000000180062b40 f i _nodert_generated.obj
 0001:00061b60       ?_Delete_this@?$_Func_impl@V<lambda_afb547083691b212e8d4aa49e8f152dc>@@V?$allocator@H@std@@IV?$Local@VValue@v8@@@v8@@@std@@EEAAX_N@Z 0000000180062b60 f i _nodert_generated.obj
 0001:00061b80       ?_Delete_this@?$_Func_impl@V<lambda_afc532daf9db0f32af6faaf05d4e9f6b>@@V?$allocator@H@std@@_NV?$Local@VValue@v8@@@v8@@@std@@EEAAX_N@Z 0000000180062b80 f i _nodert_generated.obj
 0001:00061ba0       ?_Delete_this@?$_Func_impl@V<lambda_b4a69b6e96ded561cf6125ba4d203b82>@@V?$allocator@H@std@@_NV?$Local@VValue@v8@@@v8@@@std@@EEAAX_N@Z 0000000180062ba0 f i _nodert_generated.obj
 0001:00061bc0       ?_Delete_this@?$_Func_impl@V<lambda_b5637107c4580816204b759de0971b79>@@V?$allocator@H@std@@_NV?$Local@VValue@v8@@@v8@@@std@@EEAAX_N@Z 0000000180062bc0 f i _nodert_generated.obj
 0001:00061be0       ?_Delete_this@?$_Func_impl@V<lambda_b5f65513cf849cab43a1ee50fc875b24>@@V?$allocator@H@std@@_JV?$Local@VValue@v8@@@v8@@@std@@EEAAX_N@Z 0000000180062be0 f i _nodert_generated.obj
 0001:00061c00       ?_Delete_this@?$_Func_impl@V<lambda_ba18901838a49873ef872203bc8527ed>@@V?$allocator@H@std@@VTimeSpan@Foundation@Windows@@V?$Local@VValue@v8@@@v8@@@std@@EEAAX_N@Z 0000000180062c00 f i _nodert_generated.obj
 0001:00061c20       ?_Delete_this@?$_Func_impl@V<lambda_ba501eccc9f8b1b5af390e9859e4df50>@@V?$allocator@H@std@@_NV?$Local@VValue@v8@@@v8@@@std@@EEAAX_N@Z 0000000180062c20 f i _nodert_generated.obj
 0001:00061c40       ?_Delete_this@?$_Func_impl@V<lambda_c05df627370d555cba9793685713e009>@@V?$allocator@H@std@@_NV?$Local@VValue@v8@@@v8@@@std@@EEAAX_N@Z 0000000180062c40 f i _nodert_generated.obj
 0001:00061c60       ?_Delete_this@?$_Func_impl@V<lambda_c1fd914ce11cd788f293e2affcb004ac>@@V?$allocator@H@std@@_NV?$Local@VValue@v8@@@v8@@@std@@EEAAX_N@Z 0000000180062c60 f i _nodert_generated.obj
 0001:00061c80       ?_Delete_this@?$_Func_impl@V<lambda_c3c7f1a5ff36149a57df8b77f7ff9d56>@@V?$allocator@H@std@@_NV?$Local@VValue@v8@@@v8@@@std@@EEAAX_N@Z 0000000180062c80 f i _nodert_generated.obj
 0001:00061ca0       ?_Delete_this@?$_Func_impl@V<lambda_c4f22aece8058882bda5332e2dc6094a>@@V?$allocator@H@std@@VDateTime@Foundation@Windows@@V?$Local@VValue@v8@@@v8@@@std@@EEAAX_N@Z 0000000180062ca0 f i _nodert_generated.obj
 0001:00061cc0       ?_Delete_this@?$_Func_impl@V<lambda_cc5efef53f4517305ade5f31acbea296>@@V?$allocator@H@std@@IV?$Local@VValue@v8@@@v8@@@std@@EEAAX_N@Z 0000000180062cc0 f i _nodert_generated.obj
 0001:00061ce0       ?_Delete_this@?$_Func_impl@V<lambda_cd976d3bc4167928884ff6ab7e49b008>@@V?$allocator@H@std@@_NV?$Local@VValue@v8@@@v8@@@std@@EEAAX_N@Z 0000000180062ce0 f i _nodert_generated.obj
 0001:00061d00       ?_Delete_this@?$_Func_impl@V<lambda_cff40d32a985611151f5519d503397a0>@@V?$allocator@H@std@@_JV?$Local@VValue@v8@@@v8@@@std@@EEAAX_N@Z 0000000180062d00 f i _nodert_generated.obj
 0001:00061d20       ?_Delete_this@?$_Func_impl@V<lambda_d0fcbf2defc252ec422e9f26646483b5>@@V?$allocator@H@std@@V?$Local@VValue@v8@@@v8@@VGuid@Platform@@@std@@EEAAX_N@Z 0000000180062d20 f i _nodert_generated.obj
 0001:00061d40       ?_Delete_this@?$_Func_impl@V<lambda_d2919f705a79fe292d147c7f75386c54>@@V?$allocator@H@std@@V?$Local@VValue@v8@@@v8@@I@std@@EEAAX_N@Z 0000000180062d40 f i _nodert_generated.obj
 0001:00061d60       ?_Delete_this@?$_Func_impl@V<lambda_d38773f6115850a0f88ad40409222155>@@V?$allocator@H@std@@PE$AAVString@Platform@@V?$Local@VValue@v8@@@v8@@@std@@EEAAX_N@Z 0000000180062d60 f i _nodert_generated.obj
 0001:00061d80       ?_Delete_this@?$_Func_impl@V<lambda_d9a2021dc18302479b39067d57580088>@@V?$allocator@H@std@@_NV?$Local@VValue@v8@@@v8@@@std@@EEAAX_N@Z 0000000180062d80 f i _nodert_generated.obj
 0001:00061da0       ?_Delete_this@?$_Func_impl@V<lambda_ddaf005d09ec384ca5fa84afb99ce47b>@@V?$allocator@H@std@@HV?$Local@VValue@v8@@@v8@@@std@@EEAAX_N@Z 0000000180062da0 f i _nodert_generated.obj
 0001:00061dc0       ?_Delete_this@?$_Func_impl@V<lambda_e032bc00ab801c27aecda7b3122fc71e>@@V?$allocator@H@std@@_NV?$Local@VValue@v8@@@v8@@@std@@EEAAX_N@Z 0000000180062dc0 f i _nodert_generated.obj
 0001:00061de0       ?_Delete_this@?$_Func_impl@V<lambda_e2139a87d96ba7d6c29afa27b25c7b3b>@@V?$allocator@H@std@@PE$AAVObject@Platform@@V?$Local@VValue@v8@@@v8@@@std@@EEAAX_N@Z 0000000180062de0 f i _nodert_generated.obj
 0001:00061e00       ?_Delete_this@?$_Func_impl@V<lambda_e660ce246b8692358554355363d2bbdb>@@V?$allocator@H@std@@V?$Local@VValue@v8@@@v8@@_N@std@@EEAAX_N@Z 0000000180062e00 f i _nodert_generated.obj
 0001:00061e20       ?_Delete_this@?$_Func_impl@V<lambda_e75a6b3f366d9824e9ae5182076f5b6f>@@V?$allocator@H@std@@VRect@Foundation@Windows@@V?$Local@VValue@v8@@@v8@@@std@@EEAAX_N@Z 0000000180062e20 f i _nodert_generated.obj
 0001:00061e40       ?_Delete_this@?$_Func_impl@V<lambda_ef1ce463e0c6d80f6679263f728ba338>@@V?$allocator@H@std@@_KV?$Local@VValue@v8@@@v8@@@std@@EEAAX_N@Z 0000000180062e40 f i _nodert_generated.obj
 0001:00061e60       ?_Delete_this@?$_Func_impl@V<lambda_f32f40989460573471116a7ae5eddb2d>@@V?$allocator@H@std@@_NV?$Local@VValue@v8@@@v8@@@std@@EEAAX_N@Z 0000000180062e60 f i _nodert_generated.obj
 0001:00061e80       ?_Delete_this@?$_Func_impl@V<lambda_f5823fd85b22dbcb9c101b6af88ccd65>@@V?$allocator@H@std@@V?$Local@VValue@v8@@@v8@@H@std@@EEAAX_N@Z 0000000180062e80 f i _nodert_generated.obj
 0001:00061ea0       ?_Delete_this@?$_Func_impl@V<lambda_fc6b419b9a8c42f3e377d86c94f5a923>@@V?$allocator@H@std@@V?$Local@VValue@v8@@@v8@@_W@std@@EEAAX_N@Z 0000000180062ea0 f i _nodert_generated.obj
 0001:00061ec0       ?_Delete_this@?$_Func_impl@V<lambda_fe199ffbdb9f25806abc0becd00fdcce>@@V?$allocator@H@std@@FV?$Local@VValue@v8@@@v8@@@std@@EEAAX_N@Z 0000000180062ec0 f i _nodert_generated.obj
 0001:00061ee0       ?_Delete_this@?$_Func_impl@V<lambda_fe5e5aeaacbd6446ef87ebbc8092b4a0>@@V?$allocator@H@std@@_NV?$Local@VValue@v8@@@v8@@@std@@EEAAX_N@Z 0000000180062ee0 f i _nodert_generated.obj
 0001:00061f00       ?_Delete_this@?$_Ref_count_del@V?$Persistent@VObject@v8@@V?$NonCopyablePersistentTraits@VObject@v8@@@2@@Nan@@V<lambda_c3ff08df8b12ff96a6780e084058b7f5>@@@std@@EEAAXXZ 0000000180062f00 f i _nodert_generated.obj
 0001:00061f20       ?_Destroy@?$_Ref_count_del@V?$Persistent@VObject@v8@@V?$NonCopyablePersistentTraits@VObject@v8@@@2@@Nan@@V<lambda_c3ff08df8b12ff96a6780e084058b7f5>@@@std@@EEAAXXZ 0000000180062f20 f i _nodert_generated.obj
 0001:00061f60       ?_Do_call@?$_Func_impl@V<lambda_00da0358850de3e49429586fece76029>@@V?$allocator@H@std@@V?$Local@VValue@v8@@@v8@@G@std@@EEAA?AV?$Local@VValue@v8@@@v8@@$$QEAG@Z 0000000180062f60 f i _nodert_generated.obj
 0001:00061fd0       ?_Do_call@?$_Func_impl@V<lambda_0160fe2f50115527811ff5b9360e1b7a>@@V?$allocator@H@std@@_NV?$Local@VValue@v8@@@v8@@@std@@EEAA_N$$QEAV?$Local@VValue@v8@@@v8@@@Z 0000000180062fd0 f i _nodert_generated.obj
 0001:00061fe0       ?_Do_call@?$_Func_impl@V<lambda_020fa76990e3a2feb178ebe2f631c572>@@V?$allocator@H@std@@VTimeSpan@Foundation@Windows@@V?$Local@VValue@v8@@@v8@@@std@@EEAA?AVTimeSpan@Foundation@Windows@@$$QEAV?$Local@VValue@v8@@@v8@@@Z 0000000180062fe0 f i _nodert_generated.obj
 0001:00062020       ?_Do_call@?$_Func_impl@V<lambda_07af88b9363cb28ed37db03d45a6cd3c>@@V?$allocator@H@std@@_NV?$Local@VValue@v8@@@v8@@@std@@EEAA_N$$QEAV?$Local@VValue@v8@@@v8@@@Z 0000000180063020 f i _nodert_generated.obj
 0001:00062030       ?_Do_call@?$_Func_impl@V<lambda_090a25c39625cb123533b59ff0d217bc>@@V?$allocator@H@std@@_NV?$Local@VValue@v8@@@v8@@@std@@EEAA_N$$QEAV?$Local@VValue@v8@@@v8@@@Z 0000000180063030 f i _nodert_generated.obj
 0001:00062040       ?_Do_call@?$_Func_impl@V<lambda_098c61cba7a7d5cc6e4bd988569def2b>@@V?$allocator@H@std@@V?$Local@VValue@v8@@@v8@@E@std@@EEAA?AV?$Local@VValue@v8@@@v8@@$$QEAE@Z 0000000180063040 f i _nodert_generated.obj
 0001:000620b0       ?_Do_call@?$_Func_impl@V<lambda_134e5009af29bd9bdef58a699fe9f316>@@V?$allocator@H@std@@_NV?$Local@VValue@v8@@@v8@@@std@@EEAA_N$$QEAV?$Local@VValue@v8@@@v8@@@Z 00000001800630b0 f i _nodert_generated.obj
 0001:000620c0       ?_Do_call@?$_Func_impl@V<lambda_13e3e39bdb3d5dd1ce2e97c3195112f8>@@V?$allocator@H@std@@_NV?$Local@VValue@v8@@@v8@@@std@@EEAA_N$$QEAV?$Local@VValue@v8@@@v8@@@Z 00000001800630c0 f i _nodert_generated.obj
 0001:000620d0       ?_Do_call@?$_Func_impl@V<lambda_1421f3ff24e46d5aecdb58fe616a8656>@@V?$allocator@H@std@@HV?$Local@VValue@v8@@@v8@@@std@@EEAAH$$QEAV?$Local@VValue@v8@@@v8@@@Z 00000001800630d0 f i _nodert_generated.obj
 0001:00062100       ?_Do_call@?$_Func_impl@V<lambda_16a754814df66becd26a45ed790aba89>@@V?$allocator@H@std@@MV?$Local@VValue@v8@@@v8@@@std@@EEAAM$$QEAV?$Local@VValue@v8@@@v8@@@Z 0000000180063100 f i _nodert_generated.obj
 0001:00062140       ?_Do_call@?$_Func_impl@V<lambda_1ad841e32860ccc35cd5dace6fd08ae5>@@V?$allocator@H@std@@VSize@Foundation@Windows@@V?$Local@VValue@v8@@@v8@@@std@@EEAA?AVSize@Foundation@Windows@@$$QEAV?$Local@VValue@v8@@@v8@@@Z 0000000180063140 f i _nodert_generated.obj
 0001:00062170       ?_Do_call@?$_Func_impl@V<lambda_1b5b19eafb8c7803164c5d0c769dc971>@@V?$allocator@H@std@@V?$Local@VValue@v8@@@v8@@M@std@@EEAA?AV?$Local@VValue@v8@@@v8@@$$QEAM@Z 0000000180063170 f i _nodert_generated.obj
 0001:000621d0       ?_Do_call@?$_Func_impl@V<lambda_1e9e23b3894ddc8249b6da397de0806d>@@V?$allocator@H@std@@V?$Local@VValue@v8@@@v8@@F@std@@EEAA?AV?$Local@VValue@v8@@@v8@@$$QEAF@Z 00000001800631d0 f i _nodert_generated.obj
 0001:00062240       ?_Do_call@?$_Func_impl@V<lambda_1f6768b502a7c534942baea5c436b6c1>@@V?$allocator@H@std@@_NV?$Local@VValue@v8@@@v8@@@std@@EEAA_N$$QEAV?$Local@VValue@v8@@@v8@@@Z 0000000180063240 f i _nodert_generated.obj
 0001:00062250       ?_Do_call@?$_Func_impl@V<lambda_2184b6913cb0cd0ffb42ff6d6a790c8c>@@V?$allocator@H@std@@_NV?$Local@VValue@v8@@@v8@@@std@@EEAA_N$$QEAV?$Local@VValue@v8@@@v8@@@Z 0000000180063250 f i _nodert_generated.obj
 0001:00062260       ?_Do_call@?$_Func_impl@V<lambda_24e72d274cd5e430551186786f05383a>@@V?$allocator@H@std@@FV?$Local@VValue@v8@@@v8@@@std@@EEAAF$$QEAV?$Local@VValue@v8@@@v8@@@Z 0000000180063260 f i _nodert_generated.obj
 0001:00062290       ?_Do_call@?$_Func_impl@V<lambda_254c35a1c8cbb74830c7901a82ca92d9>@@V?$allocator@H@std@@_NV?$Local@VValue@v8@@@v8@@@std@@EEAA_N$$QEAV?$Local@VValue@v8@@@v8@@@Z 0000000180063290 f i _nodert_generated.obj
 0001:000622a0       ?_Do_call@?$_Func_impl@V<lambda_290d9f6004e5bf8d3328f0f6dbea6522>@@V?$allocator@H@std@@VPoint@Foundation@Windows@@V?$Local@VValue@v8@@@v8@@@std@@EEAA?AVPoint@Foundation@Windows@@$$QEAV?$Local@VValue@v8@@@v8@@@Z 00000001800632a0 f i _nodert_generated.obj
 0001:000622d0       ?_Do_call@?$_Func_impl@V<lambda_2bbabe45caa1735792522b2625f8b1c6>@@V?$allocator@H@std@@VGuid@Platform@@V?$Local@VValue@v8@@@v8@@@std@@EEAA?AVGuid@Platform@@$$QEAV?$Local@VValue@v8@@@v8@@@Z 00000001800632d0 f i _nodert_generated.obj
 0001:00062300       ?_Do_call@?$_Func_impl@V<lambda_2bc4d9e2238cf2599190d39e26d8cbe0>@@V?$allocator@H@std@@GV?$Local@VValue@v8@@@v8@@@std@@EEAAG$$QEAV?$Local@VValue@v8@@@v8@@@Z 0000000180063300 f i _nodert_generated.obj
 0001:00062330       ?_Do_call@?$_Func_impl@V<lambda_2c6a03088aa5196a7ff62086292386cd>@@V?$allocator@H@std@@_NV?$Local@VValue@v8@@@v8@@@std@@EEAA_N$$QEAV?$Local@VValue@v8@@@v8@@@Z 0000000180063330 f i _nodert_generated.obj
 0001:00062340       ?_Do_call@?$_Func_impl@V<lambda_2d956cd8dc4a3ca23551fab022e3529b>@@V?$allocator@H@std@@_NV?$Local@VValue@v8@@@v8@@@std@@EEAA_N$$QEAV?$Local@VValue@v8@@@v8@@@Z 0000000180063340 f i _nodert_generated.obj
 0001:00062350       ?_Do_call@?$_Func_impl@V<lambda_309d59f401649514dd2fcfb3b3b9e2d7>@@V?$allocator@H@std@@V?$Local@VValue@v8@@@v8@@_J@std@@EEAA?AV?$Local@VValue@v8@@@v8@@$$QEA_J@Z 0000000180063350 f i _nodert_generated.obj
 0001:000623b0       ?_Do_call@?$_Func_impl@V<lambda_30cb30e53ec449771ecee2a2d9020984>@@V?$allocator@H@std@@_NV?$Local@VValue@v8@@@v8@@@std@@EEAA_N$$QEAV?$Local@VValue@v8@@@v8@@@Z 00000001800633b0 f i _nodert_generated.obj
 0001:000623c0       ?_Do_call@?$_Func_impl@V<lambda_323168b4b7d6020ca3c1a26c7e9e400c>@@V?$allocator@H@std@@X$$V@std@@EEAAXXZ 00000001800633c0 f i _nodert_generated.obj
 0001:00062430       ?_Do_call@?$_Func_impl@V<lambda_334911601a1ad962576abaeb332f23c7>@@V?$allocator@H@std@@_NV?$Local@VValue@v8@@@v8@@@std@@EEAA_N$$QEAV?$Local@VValue@v8@@@v8@@@Z 0000000180063430 f i _nodert_generated.obj
 0001:00062460       ?_Do_call@?$_Func_impl@V<lambda_35f2bcb2a3e8d324ce8c2e6dc7880afa>@@V?$allocator@H@std@@V?$Local@VValue@v8@@@v8@@N@std@@EEAA?AV?$Local@VValue@v8@@@v8@@$$QEAN@Z 0000000180063460 f i _nodert_generated.obj
 0001:000624b0       ?_Do_call@?$_Func_impl@V<lambda_3b51720f3ee6237f44190b9629038bc3>@@V?$allocator@H@std@@GV?$Local@VValue@v8@@@v8@@@std@@EEAAG$$QEAV?$Local@VValue@v8@@@v8@@@Z 00000001800634b0 f i _nodert_generated.obj
 0001:000624e0       ?_Do_call@?$_Func_impl@V<lambda_42861d02c37e1b0dfea349dd2ef00bbd>@@V?$allocator@H@std@@_NV?$Local@VValue@v8@@@v8@@@std@@EEAA_N$$QEAV?$Local@VValue@v8@@@v8@@@Z 00000001800634e0 f i _nodert_generated.obj
 0001:000624f0       ?_Do_call@?$_Func_impl@V<lambda_42a0ecd3c3b54e6b2cbb9e1d3887bcdc>@@V?$allocator@H@std@@VSize@Foundation@Windows@@V?$Local@VValue@v8@@@v8@@@std@@EEAA?AVSize@Foundation@Windows@@$$QEAV?$Local@VValue@v8@@@v8@@@Z 00000001800634f0 f i _nodert_generated.obj
 0001:00062520       ?_Do_call@?$_Func_impl@V<lambda_42ba1b98c1d102e04e955f525bd4e320>@@V?$allocator@H@std@@_NV?$Local@VValue@v8@@@v8@@@std@@EEAA_N$$QEAV?$Local@VValue@v8@@@v8@@@Z 0000000180063520 f i _nodert_generated.obj
 0001:00062530       ?_Do_call@?$_Func_impl@V<lambda_49651ff5507e56f6d048c30cc06f03dd>@@V?$allocator@H@std@@X$$V@std@@EEAAXXZ 0000000180063530 f i _nodert_generated.obj
 0001:00062540       ?_Do_call@?$_Func_impl@V<lambda_4aec6e32220d51310462429d4f6f7cd7>@@V?$allocator@H@std@@EV?$Local@VValue@v8@@@v8@@@std@@EEAAE$$QEAV?$Local@VValue@v8@@@v8@@@Z 0000000180063540 f i _nodert_generated.obj
 0001:00062570       ?_Do_call@?$_Func_impl@V<lambda_5540c0eeef425fa120e634850d66c8dc>@@V?$allocator@H@std@@NV?$Local@VValue@v8@@@v8@@@std@@EEAAN$$QEAV?$Local@VValue@v8@@@v8@@@Z 0000000180063570 f i _nodert_generated.obj
 0001:000625b0       ?_Do_call@?$_Func_impl@V<lambda_57972fee6684a8d5fb20bd3d1236288c>@@V?$allocator@H@std@@VGuid@Platform@@V?$Local@VValue@v8@@@v8@@@std@@EEAA?AVGuid@Platform@@$$QEAV?$Local@VValue@v8@@@v8@@@Z 00000001800635b0 f i _nodert_generated.obj
 0001:000625e0       ?_Do_call@?$_Func_impl@V<lambda_5b5021707eb4c023bd35c908739d61c9>@@V?$allocator@H@std@@V?$Local@VValue@v8@@@v8@@VTimeSpan@Foundation@Windows@@@std@@EEAA?AV?$Local@VValue@v8@@@v8@@$$QEAVTimeSpan@Foundation@Windows@@@Z 00000001800635e0 f i _nodert_generated.obj
 0001:00062640       ?_Do_call@?$_Func_impl@V<lambda_5ef6239c8054ab7fcf65fbee3e96353e>@@V?$allocator@H@std@@_WV?$Local@VValue@v8@@@v8@@@std@@EEAA_W$$QEAV?$Local@VValue@v8@@@v8@@@Z 0000000180063640 f i _nodert_generated.obj
 0001:00062650       ?_Do_call@?$_Func_impl@V<lambda_63f16139cba4f108d1ddf9682a025595>@@V?$allocator@H@std@@V?$Local@VValue@v8@@@v8@@VPoint@Foundation@Windows@@@std@@EEAA?AV?$Local@VValue@v8@@@v8@@$$QEAVPoint@Foundation@Windows@@@Z 0000000180063650 f i _nodert_generated.obj
 0001:00062680       ?_Do_call@?$_Func_impl@V<lambda_6574cb63297c45a45ba12edbd8086d6f>@@V?$allocator@H@std@@MV?$Local@VValue@v8@@@v8@@@std@@EEAAM$$QEAV?$Local@VValue@v8@@@v8@@@Z 0000000180063680 f i _nodert_generated.obj
 0001:000626c0       ?_Do_call@?$_Func_impl@V<lambda_74e83aef5b3d4278a07ea97c2a34f059>@@V?$allocator@H@std@@_NV?$Local@VValue@v8@@@v8@@@std@@EEAA_N$$QEAV?$Local@VValue@v8@@@v8@@@Z 00000001800636c0 f i _nodert_generated.obj
 0001:000626e0       ?_Do_call@?$_Func_impl@V<lambda_74ec8ac5a3b0c17e7f27f46e754c1be1>@@V?$allocator@H@std@@PE$AAVString@Platform@@V?$Local@VValue@v8@@@v8@@@std@@EEAAPE$AAVString@Platform@@$$QEAV?$Local@VValue@v8@@@v8@@@Z 00000001800636e0 f i _nodert_generated.obj
 0001:00062740       ?_Do_call@?$_Func_impl@V<lambda_79fe348b8781ff6d29a096d63852e14e>@@V?$allocator@H@std@@_NV?$Local@VValue@v8@@@v8@@@std@@EEAA_N$$QEAV?$Local@VValue@v8@@@v8@@@Z 0000000180063740 f i _nodert_generated.obj
 0001:00062750       ?_Do_call@?$_Func_impl@V<lambda_7bfa9b6fc7170e1427da4ce82f82a48d>@@V?$allocator@H@std@@VPoint@Foundation@Windows@@V?$Local@VValue@v8@@@v8@@@std@@EEAA?AVPoint@Foundation@Windows@@$$QEAV?$Local@VValue@v8@@@v8@@@Z 0000000180063750 f i _nodert_generated.obj
 0001:00062780       ?_Do_call@?$_Func_impl@V<lambda_7c3125abf0b78e2778e646511a5ec704>@@V?$allocator@H@std@@V?$Local@VValue@v8@@@v8@@PE$AAUIWwwFormUrlDecoderEntry@Foundation@Windows@@@std@@EEAA?AV?$Local@VValue@v8@@@v8@@$$QEAPE$AAUIWwwFormUrlDecoderEntry@Foundation@Windows@@@Z 0000000180063780 f i _nodert_generated.obj
 0001:000627b0       ?_Do_call@?$_Func_impl@V<lambda_7e1859ba07801f2bd1c087f62a099822>@@V?$allocator@H@std@@_NV?$Local@VValue@v8@@@v8@@@std@@EEAA_N$$QEAV?$Local@VValue@v8@@@v8@@@Z 00000001800637b0 f i _nodert_generated.obj
 0001:000627c0       ?_Do_call@?$_Func_impl@V<lambda_807e2dc448e2766fd8d66a2a154fd757>@@V?$allocator@H@std@@EV?$Local@VValue@v8@@@v8@@@std@@EEAAE$$QEAV?$Local@VValue@v8@@@v8@@@Z 00000001800637c0 f i _nodert_generated.obj
 0001:000627f0       ?_Do_call@?$_Func_impl@V<lambda_83b1fcb4186f20aea46c3acfe9cc602f>@@V?$allocator@H@std@@V?$Local@VValue@v8@@@v8@@_K@std@@EEAA?AV?$Local@VValue@v8@@@v8@@$$QEA_K@Z 00000001800637f0 f i _nodert_generated.obj
 0001:00062860       ?_Do_call@?$_Func_impl@V<lambda_84b2e0c4363fa3e0d326104f1bfe478b>@@V?$allocator@H@std@@V?$Local@VValue@v8@@@v8@@VRect@Foundation@Windows@@@std@@EEAA?AV?$Local@VValue@v8@@@v8@@$$QEAVRect@Foundation@Windows@@@Z 0000000180063860 f i _nodert_generated.obj
 0001:000628a0       ?_Do_call@?$_Func_impl@V<lambda_84fd7a09210752e44ce3b30c4362cfc3>@@V?$allocator@H@std@@NV?$Local@VValue@v8@@@v8@@@std@@EEAAN$$QEAV?$Local@VValue@v8@@@v8@@@Z 00000001800638a0 f i _nodert_generated.obj
 0001:000628e0       ?_Do_call@?$_Func_impl@V<lambda_850bde7442b4e67b57845066c808b7f9>@@V?$allocator@H@std@@PE$AAVObject@Platform@@V?$Local@VValue@v8@@@v8@@@std@@EEAAPE$AAVObject@Platform@@$$QEAV?$Local@VValue@v8@@@v8@@@Z 00000001800638e0 f i _nodert_generated.obj
 0001:00062950       ?_Do_call@?$_Func_impl@V<lambda_869fcda5fb6a5846bfff7877657b9bfa>@@V?$allocator@H@std@@V?$Local@VValue@v8@@@v8@@VSize@Foundation@Windows@@@std@@EEAA?AV?$Local@VValue@v8@@@v8@@$$QEAVSize@Foundation@Windows@@@Z 0000000180063950 f i _nodert_generated.obj
 0001:00062980       ?_Do_call@?$_Func_impl@V<lambda_8796f925c78479b1b7c806e10bb79f78>@@V?$allocator@H@std@@VDateTime@Foundation@Windows@@V?$Local@VValue@v8@@@v8@@@std@@EEAA?AVDateTime@Foundation@Windows@@$$QEAV?$Local@VValue@v8@@@v8@@@Z 0000000180063980 f i _nodert_generated.obj
 0001:000629b0       ?_Do_call@?$_Func_impl@V<lambda_87b81f53a11b2260270b93c1cf969c92>@@V?$allocator@H@std@@V?$Local@VValue@v8@@@v8@@PE$AAVObject@Platform@@@std@@EEAA?AV?$Local@VValue@v8@@@v8@@$$QEAPE$AAVObject@Platform@@@Z 00000001800639b0 f i _nodert_generated.obj
 0001:000629e0       ?_Do_call@?$_Func_impl@V<lambda_8848d68499a2414cf86c123fb3614eb8>@@V?$allocator@H@std@@_NV?$Local@VValue@v8@@@v8@@@std@@EEAA_N$$QEAV?$Local@VValue@v8@@@v8@@@Z 00000001800639e0 f i _nodert_generated.obj
 0001:000629f0       ?_Do_call@?$_Func_impl@V<lambda_887ad2eff405dd476b737b781370f279>@@V?$allocator@H@std@@_NV?$Local@VValue@v8@@@v8@@@std@@EEAA_N$$QEAV?$Local@VValue@v8@@@v8@@@Z 00000001800639f0 f i _nodert_generated.obj
 0001:00062a00       ?_Do_call@?$_Func_impl@V<lambda_89e08a54281259c21902d424f1933673>@@V?$allocator@H@std@@V?$Local@VValue@v8@@@v8@@PE$AAVString@Platform@@@std@@EEAA?AV?$Local@VValue@v8@@@v8@@$$QEAPE$AAVString@Platform@@@Z 0000000180063a00 f i _nodert_generated.obj
 0001:00062a40       ?_Do_call@?$_Func_impl@V<lambda_8cc4c964448f1ab867afe563cde0195a>@@V?$allocator@H@std@@_NV?$Local@VValue@v8@@@v8@@@std@@EEAA_N$$QEAV?$Local@VValue@v8@@@v8@@@Z 0000000180063a40 f i _nodert_generated.obj
 0001:00062a50       ?_Do_call@?$_Func_impl@V<lambda_92623ff20c13db631f5586c786dced01>@@V?$allocator@H@std@@_NV?$Local@VValue@v8@@@v8@@@std@@EEAA_N$$QEAV?$Local@VValue@v8@@@v8@@@Z 0000000180063a50 f i _nodert_generated.obj
 0001:00062a60       ?_Do_call@?$_Func_impl@V<lambda_94fb53d9eb5789303fb1844fcc906f11>@@V?$allocator@H@std@@VRect@Foundation@Windows@@V?$Local@VValue@v8@@@v8@@@std@@EEAA?AVRect@Foundation@Windows@@$$QEAV?$Local@VValue@v8@@@v8@@@Z 0000000180063a60 f i _nodert_generated.obj
 0001:00062a90       ?_Do_call@?$_Func_impl@V<lambda_9672cdc9e4b014dbcbf91e5133c0dbd3>@@V?$allocator@H@std@@_NV?$Local@VValue@v8@@@v8@@@std@@EEAA_N$$QEAV?$Local@VValue@v8@@@v8@@@Z 0000000180063a90 f i _nodert_generated.obj
 0001:00062aa0       ?_Do_call@?$_Func_impl@V<lambda_9820cd0569d7d8d72231e1c382f4cbec>@@V?$allocator@H@std@@_KV?$Local@VValue@v8@@@v8@@@std@@EEAA_K$$QEAV?$Local@VValue@v8@@@v8@@@Z 0000000180063aa0 f i _nodert_generated.obj
 0001:00062ad0       ?_Do_call@?$_Func_impl@V<lambda_9bfdb60006a1ec41f610b605b2468382>@@V?$allocator@H@std@@_NV?$Local@VValue@v8@@@v8@@@std@@EEAA_N$$QEAV?$Local@VValue@v8@@@v8@@@Z 0000000180063ad0 f i _nodert_generated.obj
 0001:00062ae0       ?_Do_call@?$_Func_impl@V<lambda_9c9a4048442e80634ebbddb616dd1f3b>@@V?$allocator@H@std@@_NV?$Local@VValue@v8@@@v8@@@std@@EEAA_N$$QEAV?$Local@VValue@v8@@@v8@@@Z 0000000180063ae0 f i _nodert_generated.obj
 0001:00062af0       ?_Do_call@?$_Func_impl@V<lambda_9cf6e4e7f125db49c1c32ddbe2eb0a4d>@@V?$allocator@H@std@@_NV?$Local@VValue@v8@@@v8@@@std@@EEAA_N$$QEAV?$Local@VValue@v8@@@v8@@@Z 0000000180063af0 f i _nodert_generated.obj
 0001:00062b00       ?_Do_call@?$_Func_impl@V<lambda_a7fcc7bff8b4e788cd856f0c61e20b2a>@@V?$allocator@H@std@@_NV?$Local@VValue@v8@@@v8@@@std@@EEAA_N$$QEAV?$Local@VValue@v8@@@v8@@@Z 0000000180063b00 f i _nodert_generated.obj
 0001:00062b10       ?_Do_call@?$_Func_impl@V<lambda_a7fdbe3470001a55490e011ae759a283>@@V?$allocator@H@std@@_NV?$Local@VValue@v8@@@v8@@@std@@EEAA_N$$QEAV?$Local@VValue@v8@@@v8@@@Z 0000000180063b10 f i _nodert_generated.obj
 0001:00062b40       ?_Do_call@?$_Func_impl@V<lambda_ac08df06aa310a4e928a20d8258eeb0f>@@V?$allocator@H@std@@_WV?$Local@VValue@v8@@@v8@@@std@@EEAA_W$$QEAV?$Local@VValue@v8@@@v8@@@Z 0000000180063b40 f i _nodert_generated.obj
 0001:00062b50       ?_Do_call@?$_Func_impl@V<lambda_aee639b1773f933f11f2991db91be573>@@V?$allocator@H@std@@_NV?$Local@VValue@v8@@@v8@@@std@@EEAA_N$$QEAV?$Local@VValue@v8@@@v8@@@Z 0000000180063b50 f i _nodert_generated.obj
 0001:00062b60       ?_Do_call@?$_Func_impl@V<lambda_af8f1bc116e1c082454975c28c37d169>@@V?$allocator@H@std@@V?$Local@VValue@v8@@@v8@@VDateTime@Foundation@Windows@@@std@@EEAA?AV?$Local@VValue@v8@@@v8@@$$QEAVDateTime@Foundation@Windows@@@Z 0000000180063b60 f i _nodert_generated.obj
 0001:00062b90       ?_Do_call@?$_Func_impl@V<lambda_afb547083691b212e8d4aa49e8f152dc>@@V?$allocator@H@std@@IV?$Local@VValue@v8@@@v8@@@std@@EEAAI$$QEAV?$Local@VValue@v8@@@v8@@@Z 0000000180063b90 f i _nodert_generated.obj
 0001:00062bc0       ?_Do_call@?$_Func_impl@V<lambda_afc532daf9db0f32af6faaf05d4e9f6b>@@V?$allocator@H@std@@_NV?$Local@VValue@v8@@@v8@@@std@@EEAA_N$$QEAV?$Local@VValue@v8@@@v8@@@Z 0000000180063bc0 f i _nodert_generated.obj
 0001:00062bd0       ?_Do_call@?$_Func_impl@V<lambda_b4a69b6e96ded561cf6125ba4d203b82>@@V?$allocator@H@std@@_NV?$Local@VValue@v8@@@v8@@@std@@EEAA_N$$QEAV?$Local@VValue@v8@@@v8@@@Z 0000000180063bd0 f i _nodert_generated.obj
 0001:00062be0       ?_Do_call@?$_Func_impl@V<lambda_b5637107c4580816204b759de0971b79>@@V?$allocator@H@std@@_NV?$Local@VValue@v8@@@v8@@@std@@EEAA_N$$QEAV?$Local@VValue@v8@@@v8@@@Z 0000000180063be0 f i _nodert_generated.obj
 0001:00062bf0       ?_Do_call@?$_Func_impl@V<lambda_b5f65513cf849cab43a1ee50fc875b24>@@V?$allocator@H@std@@_JV?$Local@VValue@v8@@@v8@@@std@@EEAA_J$$QEAV?$Local@VValue@v8@@@v8@@@Z 0000000180063bf0 f i _nodert_generated.obj
 0001:00062c20       ?_Do_call@?$_Func_impl@V<lambda_ba18901838a49873ef872203bc8527ed>@@V?$allocator@H@std@@VTimeSpan@Foundation@Windows@@V?$Local@VValue@v8@@@v8@@@std@@EEAA?AVTimeSpan@Foundation@Windows@@$$QEAV?$Local@VValue@v8@@@v8@@@Z 0000000180063c20 f i _nodert_generated.obj
 0001:00062c60       ?_Do_call@?$_Func_impl@V<lambda_ba501eccc9f8b1b5af390e9859e4df50>@@V?$allocator@H@std@@_NV?$Local@VValue@v8@@@v8@@@std@@EEAA_N$$QEAV?$Local@VValue@v8@@@v8@@@Z 0000000180063c60 f i _nodert_generated.obj
 0001:00062c70       ?_Do_call@?$_Func_impl@V<lambda_c05df627370d555cba9793685713e009>@@V?$allocator@H@std@@_NV?$Local@VValue@v8@@@v8@@@std@@EEAA_N$$QEAV?$Local@VValue@v8@@@v8@@@Z 0000000180063c70 f i _nodert_generated.obj
 0001:00062c80       ?_Do_call@?$_Func_impl@V<lambda_c1fd914ce11cd788f293e2affcb004ac>@@V?$allocator@H@std@@_NV?$Local@VValue@v8@@@v8@@@std@@EEAA_N$$QEAV?$Local@VValue@v8@@@v8@@@Z 0000000180063c80 f i _nodert_generated.obj
 0001:00062c90       ?_Do_call@?$_Func_impl@V<lambda_c3c7f1a5ff36149a57df8b77f7ff9d56>@@V?$allocator@H@std@@_NV?$Local@VValue@v8@@@v8@@@std@@EEAA_N$$QEAV?$Local@VValue@v8@@@v8@@@Z 0000000180063c90 f i _nodert_generated.obj
 0001:00062ca0       ?_Do_call@?$_Func_impl@V<lambda_c4f22aece8058882bda5332e2dc6094a>@@V?$allocator@H@std@@VDateTime@Foundation@Windows@@V?$Local@VValue@v8@@@v8@@@std@@EEAA?AVDateTime@Foundation@Windows@@$$QEAV?$Local@VValue@v8@@@v8@@@Z 0000000180063ca0 f i _nodert_generated.obj
 0001:00062cd0       ?_Do_call@?$_Func_impl@V<lambda_cc5efef53f4517305ade5f31acbea296>@@V?$allocator@H@std@@IV?$Local@VValue@v8@@@v8@@@std@@EEAAI$$QEAV?$Local@VValue@v8@@@v8@@@Z 0000000180063cd0 f i _nodert_generated.obj
 0001:00062d00       ?_Do_call@?$_Func_impl@V<lambda_cd976d3bc4167928884ff6ab7e49b008>@@V?$allocator@H@std@@_NV?$Local@VValue@v8@@@v8@@@std@@EEAA_N$$QEAV?$Local@VValue@v8@@@v8@@@Z 0000000180063d00 f i _nodert_generated.obj
 0001:00062d10       ?_Do_call@?$_Func_impl@V<lambda_cff40d32a985611151f5519d503397a0>@@V?$allocator@H@std@@_JV?$Local@VValue@v8@@@v8@@@std@@EEAA_J$$QEAV?$Local@VValue@v8@@@v8@@@Z 0000000180063d10 f i _nodert_generated.obj
 0001:00062d40       ?_Do_call@?$_Func_impl@V<lambda_d0fcbf2defc252ec422e9f26646483b5>@@V?$allocator@H@std@@V?$Local@VValue@v8@@@v8@@VGuid@Platform@@@std@@EEAA?AV?$Local@VValue@v8@@@v8@@$$QEAVGuid@Platform@@@Z 0000000180063d40 f i _nodert_generated.obj
 0001:00062d80       ?_Do_call@?$_Func_impl@V<lambda_d2919f705a79fe292d147c7f75386c54>@@V?$allocator@H@std@@V?$Local@VValue@v8@@@v8@@I@std@@EEAA?AV?$Local@VValue@v8@@@v8@@$$QEAI@Z 0000000180063d80 f i _nodert_generated.obj
 0001:00062df0       ?_Do_call@?$_Func_impl@V<lambda_d38773f6115850a0f88ad40409222155>@@V?$allocator@H@std@@PE$AAVString@Platform@@V?$Local@VValue@v8@@@v8@@@std@@EEAAPE$AAVString@Platform@@$$QEAV?$Local@VValue@v8@@@v8@@@Z 0000000180063df0 f i _nodert_generated.obj
 0001:00062e50       ?_Do_call@?$_Func_impl@V<lambda_d9a2021dc18302479b39067d57580088>@@V?$allocator@H@std@@_NV?$Local@VValue@v8@@@v8@@@std@@EEAA_N$$QEAV?$Local@VValue@v8@@@v8@@@Z 0000000180063e50 f i _nodert_generated.obj
 0001:00062e80       ?_Do_call@?$_Func_impl@V<lambda_ddaf005d09ec384ca5fa84afb99ce47b>@@V?$allocator@H@std@@HV?$Local@VValue@v8@@@v8@@@std@@EEAAH$$QEAV?$Local@VValue@v8@@@v8@@@Z 0000000180063e80 f i _nodert_generated.obj
 0001:00062eb0       ?_Do_call@?$_Func_impl@V<lambda_e032bc00ab801c27aecda7b3122fc71e>@@V?$allocator@H@std@@_NV?$Local@VValue@v8@@@v8@@@std@@EEAA_N$$QEAV?$Local@VValue@v8@@@v8@@@Z 0000000180063eb0 f i _nodert_generated.obj
 0001:00062ee0       ?_Do_call@?$_Func_impl@V<lambda_e2139a87d96ba7d6c29afa27b25c7b3b>@@V?$allocator@H@std@@PE$AAVObject@Platform@@V?$Local@VValue@v8@@@v8@@@std@@EEAAPE$AAVObject@Platform@@$$QEAV?$Local@VValue@v8@@@v8@@@Z 0000000180063ee0 f i _nodert_generated.obj
 0001:00062f50       ?_Do_call@?$_Func_impl@V<lambda_e660ce246b8692358554355363d2bbdb>@@V?$allocator@H@std@@V?$Local@VValue@v8@@@v8@@_N@std@@EEAA?AV?$Local@VValue@v8@@@v8@@$$QEA_N@Z 0000000180063f50 f i _nodert_generated.obj
 0001:00062fb0       ?_Do_call@?$_Func_impl@V<lambda_e75a6b3f366d9824e9ae5182076f5b6f>@@V?$allocator@H@std@@VRect@Foundation@Windows@@V?$Local@VValue@v8@@@v8@@@std@@EEAA?AVRect@Foundation@Windows@@$$QEAV?$Local@VValue@v8@@@v8@@@Z 0000000180063fb0 f i _nodert_generated.obj
 0001:00062fe0       ?_Do_call@?$_Func_impl@V<lambda_ef1ce463e0c6d80f6679263f728ba338>@@V?$allocator@H@std@@_KV?$Local@VValue@v8@@@v8@@@std@@EEAA_K$$QEAV?$Local@VValue@v8@@@v8@@@Z 0000000180063fe0 f i _nodert_generated.obj
 0001:00063010       ?_Do_call@?$_Func_impl@V<lambda_f32f40989460573471116a7ae5eddb2d>@@V?$allocator@H@std@@_NV?$Local@VValue@v8@@@v8@@@std@@EEAA_N$$QEAV?$Local@VValue@v8@@@v8@@@Z 0000000180064010 f i _nodert_generated.obj
 0001:00063020       ?_Do_call@?$_Func_impl@V<lambda_f5823fd85b22dbcb9c101b6af88ccd65>@@V?$allocator@H@std@@V?$Local@VValue@v8@@@v8@@H@std@@EEAA?AV?$Local@VValue@v8@@@v8@@$$QEAH@Z 0000000180064020 f i _nodert_generated.obj
 0001:00063090       ?_Do_call@?$_Func_impl@V<lambda_fc6b419b9a8c42f3e377d86c94f5a923>@@V?$allocator@H@std@@V?$Local@VValue@v8@@@v8@@_W@std@@EEAA?AV?$Local@VValue@v8@@@v8@@$$QEA_W@Z 0000000180064090 f i _nodert_generated.obj
 0001:000630c0       ?_Do_call@?$_Func_impl@V<lambda_fe199ffbdb9f25806abc0becd00fdcce>@@V?$allocator@H@std@@FV?$Local@VValue@v8@@@v8@@@std@@EEAAF$$QEAV?$Local@VValue@v8@@@v8@@@Z 00000001800640c0 f i _nodert_generated.obj
 0001:000630f0       ?_Do_call@?$_Func_impl@V<lambda_fe5e5aeaacbd6446ef87ebbc8092b4a0>@@V?$allocator@H@std@@_NV?$Local@VValue@v8@@@v8@@@std@@EEAA_N$$QEAV?$Local@VValue@v8@@@v8@@@Z 00000001800640f0 f i _nodert_generated.obj
 0001:00063120       ?_Get@?$_Func_impl@V<lambda_00da0358850de3e49429586fece76029>@@V?$allocator@H@std@@V?$Local@VValue@v8@@@v8@@G@std@@EEBAPEBXXZ 0000000180064120 f i _nodert_generated.obj
 0001:00063130       ?_Get@?$_Func_impl@V<lambda_0160fe2f50115527811ff5b9360e1b7a>@@V?$allocator@H@std@@_NV?$Local@VValue@v8@@@v8@@@std@@EEBAPEBXXZ 0000000180064130 f i _nodert_generated.obj
 0001:00063140       ?_Get@?$_Func_impl@V<lambda_020fa76990e3a2feb178ebe2f631c572>@@V?$allocator@H@std@@VTimeSpan@Foundation@Windows@@V?$Local@VValue@v8@@@v8@@@std@@EEBAPEBXXZ 0000000180064140 f i _nodert_generated.obj
 0001:00063150       ?_Get@?$_Func_impl@V<lambda_07af88b9363cb28ed37db03d45a6cd3c>@@V?$allocator@H@std@@_NV?$Local@VValue@v8@@@v8@@@std@@EEBAPEBXXZ 0000000180064150 f i _nodert_generated.obj
 0001:00063160       ?_Get@?$_Func_impl@V<lambda_090a25c39625cb123533b59ff0d217bc>@@V?$allocator@H@std@@_NV?$Local@VValue@v8@@@v8@@@std@@EEBAPEBXXZ 0000000180064160 f i _nodert_generated.obj
 0001:00063170       ?_Get@?$_Func_impl@V<lambda_098c61cba7a7d5cc6e4bd988569def2b>@@V?$allocator@H@std@@V?$Local@VValue@v8@@@v8@@E@std@@EEBAPEBXXZ 0000000180064170 f i _nodert_generated.obj
 0001:00063180       ?_Get@?$_Func_impl@V<lambda_134e5009af29bd9bdef58a699fe9f316>@@V?$allocator@H@std@@_NV?$Local@VValue@v8@@@v8@@@std@@EEBAPEBXXZ 0000000180064180 f i _nodert_generated.obj
 0001:00063190       ?_Get@?$_Func_impl@V<lambda_13e3e39bdb3d5dd1ce2e97c3195112f8>@@V?$allocator@H@std@@_NV?$Local@VValue@v8@@@v8@@@std@@EEBAPEBXXZ 0000000180064190 f i _nodert_generated.obj
 0001:000631a0       ?_Get@?$_Func_impl@V<lambda_1421f3ff24e46d5aecdb58fe616a8656>@@V?$allocator@H@std@@HV?$Local@VValue@v8@@@v8@@@std@@EEBAPEBXXZ 00000001800641a0 f i _nodert_generated.obj
 0001:000631b0       ?_Get@?$_Func_impl@V<lambda_16a754814df66becd26a45ed790aba89>@@V?$allocator@H@std@@MV?$Local@VValue@v8@@@v8@@@std@@EEBAPEBXXZ 00000001800641b0 f i _nodert_generated.obj
 0001:000631c0       ?_Get@?$_Func_impl@V<lambda_1ad841e32860ccc35cd5dace6fd08ae5>@@V?$allocator@H@std@@VSize@Foundation@Windows@@V?$Local@VValue@v8@@@v8@@@std@@EEBAPEBXXZ 00000001800641c0 f i _nodert_generated.obj
 0001:000631d0       ?_Get@?$_Func_impl@V<lambda_1b5b19eafb8c7803164c5d0c769dc971>@@V?$allocator@H@std@@V?$Local@VValue@v8@@@v8@@M@std@@EEBAPEBXXZ 00000001800641d0 f i _nodert_generated.obj
 0001:000631e0       ?_Get@?$_Func_impl@V<lambda_1e9e23b3894ddc8249b6da397de0806d>@@V?$allocator@H@std@@V?$Local@VValue@v8@@@v8@@F@std@@EEBAPEBXXZ 00000001800641e0 f i _nodert_generated.obj
 0001:000631f0       ?_Get@?$_Func_impl@V<lambda_1f6768b502a7c534942baea5c436b6c1>@@V?$allocator@H@std@@_NV?$Local@VValue@v8@@@v8@@@std@@EEBAPEBXXZ 00000001800641f0 f i _nodert_generated.obj
 0001:00063200       ?_Get@?$_Func_impl@V<lambda_2184b6913cb0cd0ffb42ff6d6a790c8c>@@V?$allocator@H@std@@_NV?$Local@VValue@v8@@@v8@@@std@@EEBAPEBXXZ 0000000180064200 f i _nodert_generated.obj
 0001:00063210       ?_Get@?$_Func_impl@V<lambda_24e72d274cd5e430551186786f05383a>@@V?$allocator@H@std@@FV?$Local@VValue@v8@@@v8@@@std@@EEBAPEBXXZ 0000000180064210 f i _nodert_generated.obj
 0001:00063220       ?_Get@?$_Func_impl@V<lambda_254c35a1c8cbb74830c7901a82ca92d9>@@V?$allocator@H@std@@_NV?$Local@VValue@v8@@@v8@@@std@@EEBAPEBXXZ 0000000180064220 f i _nodert_generated.obj
 0001:00063230       ?_Get@?$_Func_impl@V<lambda_290d9f6004e5bf8d3328f0f6dbea6522>@@V?$allocator@H@std@@VPoint@Foundation@Windows@@V?$Local@VValue@v8@@@v8@@@std@@EEBAPEBXXZ 0000000180064230 f i _nodert_generated.obj
 0001:00063240       ?_Get@?$_Func_impl@V<lambda_2bbabe45caa1735792522b2625f8b1c6>@@V?$allocator@H@std@@VGuid@Platform@@V?$Local@VValue@v8@@@v8@@@std@@EEBAPEBXXZ 0000000180064240 f i _nodert_generated.obj
 0001:00063250       ?_Get@?$_Func_impl@V<lambda_2bc4d9e2238cf2599190d39e26d8cbe0>@@V?$allocator@H@std@@GV?$Local@VValue@v8@@@v8@@@std@@EEBAPEBXXZ 0000000180064250 f i _nodert_generated.obj
 0001:00063260       ?_Get@?$_Func_impl@V<lambda_2c6a03088aa5196a7ff62086292386cd>@@V?$allocator@H@std@@_NV?$Local@VValue@v8@@@v8@@@std@@EEBAPEBXXZ 0000000180064260 f i _nodert_generated.obj
 0001:00063270       ?_Get@?$_Func_impl@V<lambda_2d956cd8dc4a3ca23551fab022e3529b>@@V?$allocator@H@std@@_NV?$Local@VValue@v8@@@v8@@@std@@EEBAPEBXXZ 0000000180064270 f i _nodert_generated.obj
 0001:00063280       ?_Get@?$_Func_impl@V<lambda_309d59f401649514dd2fcfb3b3b9e2d7>@@V?$allocator@H@std@@V?$Local@VValue@v8@@@v8@@_J@std@@EEBAPEBXXZ 0000000180064280 f i _nodert_generated.obj
 0001:00063290       ?_Get@?$_Func_impl@V<lambda_30cb30e53ec449771ecee2a2d9020984>@@V?$allocator@H@std@@_NV?$Local@VValue@v8@@@v8@@@std@@EEBAPEBXXZ 0000000180064290 f i _nodert_generated.obj
 0001:000632a0       ?_Get@?$_Func_impl@V<lambda_323168b4b7d6020ca3c1a26c7e9e400c>@@V?$allocator@H@std@@X$$V@std@@EEBAPEBXXZ 00000001800642a0 f i _nodert_generated.obj
 0001:000632b0       ?_Get@?$_Func_impl@V<lambda_334911601a1ad962576abaeb332f23c7>@@V?$allocator@H@std@@_NV?$Local@VValue@v8@@@v8@@@std@@EEBAPEBXXZ 00000001800642b0 f i _nodert_generated.obj
 0001:000632c0       ?_Get@?$_Func_impl@V<lambda_35f2bcb2a3e8d324ce8c2e6dc7880afa>@@V?$allocator@H@std@@V?$Local@VValue@v8@@@v8@@N@std@@EEBAPEBXXZ 00000001800642c0 f i _nodert_generated.obj
 0001:000632d0       ?_Get@?$_Func_impl@V<lambda_3b51720f3ee6237f44190b9629038bc3>@@V?$allocator@H@std@@GV?$Local@VValue@v8@@@v8@@@std@@EEBAPEBXXZ 00000001800642d0 f i _nodert_generated.obj
 0001:000632e0       ?_Get@?$_Func_impl@V<lambda_42861d02c37e1b0dfea349dd2ef00bbd>@@V?$allocator@H@std@@_NV?$Local@VValue@v8@@@v8@@@std@@EEBAPEBXXZ 00000001800642e0 f i _nodert_generated.obj
 0001:000632f0       ?_Get@?$_Func_impl@V<lambda_42a0ecd3c3b54e6b2cbb9e1d3887bcdc>@@V?$allocator@H@std@@VSize@Foundation@Windows@@V?$Local@VValue@v8@@@v8@@@std@@EEBAPEBXXZ 00000001800642f0 f i _nodert_generated.obj
 0001:00063300       ?_Get@?$_Func_impl@V<lambda_42ba1b98c1d102e04e955f525bd4e320>@@V?$allocator@H@std@@_NV?$Local@VValue@v8@@@v8@@@std@@EEBAPEBXXZ 0000000180064300 f i _nodert_generated.obj
 0001:00063310       ?_Get@?$_Func_impl@V<lambda_49651ff5507e56f6d048c30cc06f03dd>@@V?$allocator@H@std@@X$$V@std@@EEBAPEBXXZ 0000000180064310 f i _nodert_generated.obj
 0001:00063320       ?_Get@?$_Func_impl@V<lambda_4aec6e32220d51310462429d4f6f7cd7>@@V?$allocator@H@std@@EV?$Local@VValue@v8@@@v8@@@std@@EEBAPEBXXZ 0000000180064320 f i _nodert_generated.obj
 0001:00063330       ?_Get@?$_Func_impl@V<lambda_5540c0eeef425fa120e634850d66c8dc>@@V?$allocator@H@std@@NV?$Local@VValue@v8@@@v8@@@std@@EEBAPEBXXZ 0000000180064330 f i _nodert_generated.obj
 0001:00063340       ?_Get@?$_Func_impl@V<lambda_57972fee6684a8d5fb20bd3d1236288c>@@V?$allocator@H@std@@VGuid@Platform@@V?$Local@VValue@v8@@@v8@@@std@@EEBAPEBXXZ 0000000180064340 f i _nodert_generated.obj
 0001:00063350       ?_Get@?$_Func_impl@V<lambda_5b5021707eb4c023bd35c908739d61c9>@@V?$allocator@H@std@@V?$Local@VValue@v8@@@v8@@VTimeSpan@Foundation@Windows@@@std@@EEBAPEBXXZ 0000000180064350 f i _nodert_generated.obj
 0001:00063360       ?_Get@?$_Func_impl@V<lambda_5ef6239c8054ab7fcf65fbee3e96353e>@@V?$allocator@H@std@@_WV?$Local@VValue@v8@@@v8@@@std@@EEBAPEBXXZ 0000000180064360 f i _nodert_generated.obj
 0001:00063370       ?_Get@?$_Func_impl@V<lambda_63f16139cba4f108d1ddf9682a025595>@@V?$allocator@H@std@@V?$Local@VValue@v8@@@v8@@VPoint@Foundation@Windows@@@std@@EEBAPEBXXZ 0000000180064370 f i _nodert_generated.obj
 0001:00063380       ?_Get@?$_Func_impl@V<lambda_6574cb63297c45a45ba12edbd8086d6f>@@V?$allocator@H@std@@MV?$Local@VValue@v8@@@v8@@@std@@EEBAPEBXXZ 0000000180064380 f i _nodert_generated.obj
 0001:00063390       ?_Get@?$_Func_impl@V<lambda_74e83aef5b3d4278a07ea97c2a34f059>@@V?$allocator@H@std@@_NV?$Local@VValue@v8@@@v8@@@std@@EEBAPEBXXZ 0000000180064390 f i _nodert_generated.obj
 0001:000633a0       ?_Get@?$_Func_impl@V<lambda_74ec8ac5a3b0c17e7f27f46e754c1be1>@@V?$allocator@H@std@@PE$AAVString@Platform@@V?$Local@VValue@v8@@@v8@@@std@@EEBAPEBXXZ 00000001800643a0 f i _nodert_generated.obj
 0001:000633b0       ?_Get@?$_Func_impl@V<lambda_79fe348b8781ff6d29a096d63852e14e>@@V?$allocator@H@std@@_NV?$Local@VValue@v8@@@v8@@@std@@EEBAPEBXXZ 00000001800643b0 f i _nodert_generated.obj
 0001:000633c0       ?_Get@?$_Func_impl@V<lambda_7bfa9b6fc7170e1427da4ce82f82a48d>@@V?$allocator@H@std@@VPoint@Foundation@Windows@@V?$Local@VValue@v8@@@v8@@@std@@EEBAPEBXXZ 00000001800643c0 f i _nodert_generated.obj
 0001:000633d0       ?_Get@?$_Func_impl@V<lambda_7c3125abf0b78e2778e646511a5ec704>@@V?$allocator@H@std@@V?$Local@VValue@v8@@@v8@@PE$AAUIWwwFormUrlDecoderEntry@Foundation@Windows@@@std@@EEBAPEBXXZ 00000001800643d0 f i _nodert_generated.obj
 0001:000633e0       ?_Get@?$_Func_impl@V<lambda_7e1859ba07801f2bd1c087f62a099822>@@V?$allocator@H@std@@_NV?$Local@VValue@v8@@@v8@@@std@@EEBAPEBXXZ 00000001800643e0 f i _nodert_generated.obj
 0001:000633f0       ?_Get@?$_Func_impl@V<lambda_807e2dc448e2766fd8d66a2a154fd757>@@V?$allocator@H@std@@EV?$Local@VValue@v8@@@v8@@@std@@EEBAPEBXXZ 00000001800643f0 f i _nodert_generated.obj
 0001:00063400       ?_Get@?$_Func_impl@V<lambda_83b1fcb4186f20aea46c3acfe9cc602f>@@V?$allocator@H@std@@V?$Local@VValue@v8@@@v8@@_K@std@@EEBAPEBXXZ 0000000180064400 f i _nodert_generated.obj
 0001:00063410       ?_Get@?$_Func_impl@V<lambda_84b2e0c4363fa3e0d326104f1bfe478b>@@V?$allocator@H@std@@V?$Local@VValue@v8@@@v8@@VRect@Foundation@Windows@@@std@@EEBAPEBXXZ 0000000180064410 f i _nodert_generated.obj
 0001:00063420       ?_Get@?$_Func_impl@V<lambda_84fd7a09210752e44ce3b30c4362cfc3>@@V?$allocator@H@std@@NV?$Local@VValue@v8@@@v8@@@std@@EEBAPEBXXZ 0000000180064420 f i _nodert_generated.obj
 0001:00063430       ?_Get@?$_Func_impl@V<lambda_850bde7442b4e67b57845066c808b7f9>@@V?$allocator@H@std@@PE$AAVObject@Platform@@V?$Local@VValue@v8@@@v8@@@std@@EEBAPEBXXZ 0000000180064430 f i _nodert_generated.obj
 0001:00063440       ?_Get@?$_Func_impl@V<lambda_869fcda5fb6a5846bfff7877657b9bfa>@@V?$allocator@H@std@@V?$Local@VValue@v8@@@v8@@VSize@Foundation@Windows@@@std@@EEBAPEBXXZ 0000000180064440 f i _nodert_generated.obj
 0001:00063450       ?_Get@?$_Func_impl@V<lambda_8796f925c78479b1b7c806e10bb79f78>@@V?$allocator@H@std@@VDateTime@Foundation@Windows@@V?$Local@VValue@v8@@@v8@@@std@@EEBAPEBXXZ 0000000180064450 f i _nodert_generated.obj
 0001:00063460       ?_Get@?$_Func_impl@V<lambda_87b81f53a11b2260270b93c1cf969c92>@@V?$allocator@H@std@@V?$Local@VValue@v8@@@v8@@PE$AAVObject@Platform@@@std@@EEBAPEBXXZ 0000000180064460 f i _nodert_generated.obj
 0001:00063470       ?_Get@?$_Func_impl@V<lambda_8848d68499a2414cf86c123fb3614eb8>@@V?$allocator@H@std@@_NV?$Local@VValue@v8@@@v8@@@std@@EEBAPEBXXZ 0000000180064470 f i _nodert_generated.obj
 0001:00063480       ?_Get@?$_Func_impl@V<lambda_887ad2eff405dd476b737b781370f279>@@V?$allocator@H@std@@_NV?$Local@VValue@v8@@@v8@@@std@@EEBAPEBXXZ 0000000180064480 f i _nodert_generated.obj
 0001:00063490       ?_Get@?$_Func_impl@V<lambda_89e08a54281259c21902d424f1933673>@@V?$allocator@H@std@@V?$Local@VValue@v8@@@v8@@PE$AAVString@Platform@@@std@@EEBAPEBXXZ 0000000180064490 f i _nodert_generated.obj
 0001:000634a0       ?_Get@?$_Func_impl@V<lambda_8cc4c964448f1ab867afe563cde0195a>@@V?$allocator@H@std@@_NV?$Local@VValue@v8@@@v8@@@std@@EEBAPEBXXZ 00000001800644a0 f i _nodert_generated.obj
 0001:000634b0       ?_Get@?$_Func_impl@V<lambda_92623ff20c13db631f5586c786dced01>@@V?$allocator@H@std@@_NV?$Local@VValue@v8@@@v8@@@std@@EEBAPEBXXZ 00000001800644b0 f i _nodert_generated.obj
 0001:000634c0       ?_Get@?$_Func_impl@V<lambda_94fb53d9eb5789303fb1844fcc906f11>@@V?$allocator@H@std@@VRect@Foundation@Windows@@V?$Local@VValue@v8@@@v8@@@std@@EEBAPEBXXZ 00000001800644c0 f i _nodert_generated.obj
 0001:000634d0       ?_Get@?$_Func_impl@V<lambda_9672cdc9e4b014dbcbf91e5133c0dbd3>@@V?$allocator@H@std@@_NV?$Local@VValue@v8@@@v8@@@std@@EEBAPEBXXZ 00000001800644d0 f i _nodert_generated.obj
 0001:000634e0       ?_Get@?$_Func_impl@V<lambda_9820cd0569d7d8d72231e1c382f4cbec>@@V?$allocator@H@std@@_KV?$Local@VValue@v8@@@v8@@@std@@EEBAPEBXXZ 00000001800644e0 f i _nodert_generated.obj
 0001:000634f0       ?_Get@?$_Func_impl@V<lambda_9bfdb60006a1ec41f610b605b2468382>@@V?$allocator@H@std@@_NV?$Local@VValue@v8@@@v8@@@std@@EEBAPEBXXZ 00000001800644f0 f i _nodert_generated.obj
 0001:00063500       ?_Get@?$_Func_impl@V<lambda_9c9a4048442e80634ebbddb616dd1f3b>@@V?$allocator@H@std@@_NV?$Local@VValue@v8@@@v8@@@std@@EEBAPEBXXZ 0000000180064500 f i _nodert_generated.obj
 0001:00063510       ?_Get@?$_Func_impl@V<lambda_9cf6e4e7f125db49c1c32ddbe2eb0a4d>@@V?$allocator@H@std@@_NV?$Local@VValue@v8@@@v8@@@std@@EEBAPEBXXZ 0000000180064510 f i _nodert_generated.obj
 0001:00063520       ?_Get@?$_Func_impl@V<lambda_a7fcc7bff8b4e788cd856f0c61e20b2a>@@V?$allocator@H@std@@_NV?$Local@VValue@v8@@@v8@@@std@@EEBAPEBXXZ 0000000180064520 f i _nodert_generated.obj
 0001:00063530       ?_Get@?$_Func_impl@V<lambda_a7fdbe3470001a55490e011ae759a283>@@V?$allocator@H@std@@_NV?$Local@VValue@v8@@@v8@@@std@@EEBAPEBXXZ 0000000180064530 f i _nodert_generated.obj
 0001:00063540       ?_Get@?$_Func_impl@V<lambda_ac08df06aa310a4e928a20d8258eeb0f>@@V?$allocator@H@std@@_WV?$Local@VValue@v8@@@v8@@@std@@EEBAPEBXXZ 0000000180064540 f i _nodert_generated.obj
 0001:00063550       ?_Get@?$_Func_impl@V<lambda_aee639b1773f933f11f2991db91be573>@@V?$allocator@H@std@@_NV?$Local@VValue@v8@@@v8@@@std@@EEBAPEBXXZ 0000000180064550 f i _nodert_generated.obj
 0001:00063560       ?_Get@?$_Func_impl@V<lambda_af8f1bc116e1c082454975c28c37d169>@@V?$allocator@H@std@@V?$Local@VValue@v8@@@v8@@VDateTime@Foundation@Windows@@@std@@EEBAPEBXXZ 0000000180064560 f i _nodert_generated.obj
 0001:00063570       ?_Get@?$_Func_impl@V<lambda_afb547083691b212e8d4aa49e8f152dc>@@V?$allocator@H@std@@IV?$Local@VValue@v8@@@v8@@@std@@EEBAPEBXXZ 0000000180064570 f i _nodert_generated.obj
 0001:00063580       ?_Get@?$_Func_impl@V<lambda_afc532daf9db0f32af6faaf05d4e9f6b>@@V?$allocator@H@std@@_NV?$Local@VValue@v8@@@v8@@@std@@EEBAPEBXXZ 0000000180064580 f i _nodert_generated.obj
 0001:00063590       ?_Get@?$_Func_impl@V<lambda_b4a69b6e96ded561cf6125ba4d203b82>@@V?$allocator@H@std@@_NV?$Local@VValue@v8@@@v8@@@std@@EEBAPEBXXZ 0000000180064590 f i _nodert_generated.obj
 0001:000635a0       ?_Get@?$_Func_impl@V<lambda_b5637107c4580816204b759de0971b79>@@V?$allocator@H@std@@_NV?$Local@VValue@v8@@@v8@@@std@@EEBAPEBXXZ 00000001800645a0 f i _nodert_generated.obj
 0001:000635b0       ?_Get@?$_Func_impl@V<lambda_b5f65513cf849cab43a1ee50fc875b24>@@V?$allocator@H@std@@_JV?$Local@VValue@v8@@@v8@@@std@@EEBAPEBXXZ 00000001800645b0 f i _nodert_generated.obj
 0001:000635c0       ?_Get@?$_Func_impl@V<lambda_ba18901838a49873ef872203bc8527ed>@@V?$allocator@H@std@@VTimeSpan@Foundation@Windows@@V?$Local@VValue@v8@@@v8@@@std@@EEBAPEBXXZ 00000001800645c0 f i _nodert_generated.obj
 0001:000635d0       ?_Get@?$_Func_impl@V<lambda_ba501eccc9f8b1b5af390e9859e4df50>@@V?$allocator@H@std@@_NV?$Local@VValue@v8@@@v8@@@std@@EEBAPEBXXZ 00000001800645d0 f i _nodert_generated.obj
 0001:000635e0       ?_Get@?$_Func_impl@V<lambda_c05df627370d555cba9793685713e009>@@V?$allocator@H@std@@_NV?$Local@VValue@v8@@@v8@@@std@@EEBAPEBXXZ 00000001800645e0 f i _nodert_generated.obj
 0001:000635f0       ?_Get@?$_Func_impl@V<lambda_c1fd914ce11cd788f293e2affcb004ac>@@V?$allocator@H@std@@_NV?$Local@VValue@v8@@@v8@@@std@@EEBAPEBXXZ 00000001800645f0 f i _nodert_generated.obj
 0001:00063600       ?_Get@?$_Func_impl@V<lambda_c3c7f1a5ff36149a57df8b77f7ff9d56>@@V?$allocator@H@std@@_NV?$Local@VValue@v8@@@v8@@@std@@EEBAPEBXXZ 0000000180064600 f i _nodert_generated.obj
 0001:00063610       ?_Get@?$_Func_impl@V<lambda_c4f22aece8058882bda5332e2dc6094a>@@V?$allocator@H@std@@VDateTime@Foundation@Windows@@V?$Local@VValue@v8@@@v8@@@std@@EEBAPEBXXZ 0000000180064610 f i _nodert_generated.obj
 0001:00063620       ?_Get@?$_Func_impl@V<lambda_cc5efef53f4517305ade5f31acbea296>@@V?$allocator@H@std@@IV?$Local@VValue@v8@@@v8@@@std@@EEBAPEBXXZ 0000000180064620 f i _nodert_generated.obj
 0001:00063630       ?_Get@?$_Func_impl@V<lambda_cd976d3bc4167928884ff6ab7e49b008>@@V?$allocator@H@std@@_NV?$Local@VValue@v8@@@v8@@@std@@EEBAPEBXXZ 0000000180064630 f i _nodert_generated.obj
 0001:00063640       ?_Get@?$_Func_impl@V<lambda_cff40d32a985611151f5519d503397a0>@@V?$allocator@H@std@@_JV?$Local@VValue@v8@@@v8@@@std@@EEBAPEBXXZ 0000000180064640 f i _nodert_generated.obj
 0001:00063650       ?_Get@?$_Func_impl@V<lambda_d0fcbf2defc252ec422e9f26646483b5>@@V?$allocator@H@std@@V?$Local@VValue@v8@@@v8@@VGuid@Platform@@@std@@EEBAPEBXXZ 0000000180064650 f i _nodert_generated.obj
 0001:00063660       ?_Get@?$_Func_impl@V<lambda_d2919f705a79fe292d147c7f75386c54>@@V?$allocator@H@std@@V?$Local@VValue@v8@@@v8@@I@std@@EEBAPEBXXZ 0000000180064660 f i _nodert_generated.obj
 0001:00063670       ?_Get@?$_Func_impl@V<lambda_d38773f6115850a0f88ad40409222155>@@V?$allocator@H@std@@PE$AAVString@Platform@@V?$Local@VValue@v8@@@v8@@@std@@EEBAPEBXXZ 0000000180064670 f i _nodert_generated.obj
 0001:00063680       ?_Get@?$_Func_impl@V<lambda_d9a2021dc18302479b39067d57580088>@@V?$allocator@H@std@@_NV?$Local@VValue@v8@@@v8@@@std@@EEBAPEBXXZ 0000000180064680 f i _nodert_generated.obj
 0001:00063690       ?_Get@?$_Func_impl@V<lambda_ddaf005d09ec384ca5fa84afb99ce47b>@@V?$allocator@H@std@@HV?$Local@VValue@v8@@@v8@@@std@@EEBAPEBXXZ 0000000180064690 f i _nodert_generated.obj
 0001:000636a0       ?_Get@?$_Func_impl@V<lambda_e032bc00ab801c27aecda7b3122fc71e>@@V?$allocator@H@std@@_NV?$Local@VValue@v8@@@v8@@@std@@EEBAPEBXXZ 00000001800646a0 f i _nodert_generated.obj
 0001:000636b0       ?_Get@?$_Func_impl@V<lambda_e2139a87d96ba7d6c29afa27b25c7b3b>@@V?$allocator@H@std@@PE$AAVObject@Platform@@V?$Local@VValue@v8@@@v8@@@std@@EEBAPEBXXZ 00000001800646b0 f i _nodert_generated.obj
 0001:000636c0       ?_Get@?$_Func_impl@V<lambda_e660ce246b8692358554355363d2bbdb>@@V?$allocator@H@std@@V?$Local@VValue@v8@@@v8@@_N@std@@EEBAPEBXXZ 00000001800646c0 f i _nodert_generated.obj
 0001:000636d0       ?_Get@?$_Func_impl@V<lambda_e75a6b3f366d9824e9ae5182076f5b6f>@@V?$allocator@H@std@@VRect@Foundation@Windows@@V?$Local@VValue@v8@@@v8@@@std@@EEBAPEBXXZ 00000001800646d0 f i _nodert_generated.obj
 0001:000636e0       ?_Get@?$_Func_impl@V<lambda_ef1ce463e0c6d80f6679263f728ba338>@@V?$allocator@H@std@@_KV?$Local@VValue@v8@@@v8@@@std@@EEBAPEBXXZ 00000001800646e0 f i _nodert_generated.obj
 0001:000636f0       ?_Get@?$_Func_impl@V<lambda_f32f40989460573471116a7ae5eddb2d>@@V?$allocator@H@std@@_NV?$Local@VValue@v8@@@v8@@@std@@EEBAPEBXXZ 00000001800646f0 f i _nodert_generated.obj
 0001:00063700       ?_Get@?$_Func_impl@V<lambda_f5823fd85b22dbcb9c101b6af88ccd65>@@V?$allocator@H@std@@V?$Local@VValue@v8@@@v8@@H@std@@EEBAPEBXXZ 0000000180064700 f i _nodert_generated.obj
 0001:00063710       ?_Get@?$_Func_impl@V<lambda_fc6b419b9a8c42f3e377d86c94f5a923>@@V?$allocator@H@std@@V?$Local@VValue@v8@@@v8@@_W@std@@EEBAPEBXXZ 0000000180064710 f i _nodert_generated.obj
 0001:00063720       ?_Get@?$_Func_impl@V<lambda_fe199ffbdb9f25806abc0becd00fdcce>@@V?$allocator@H@std@@FV?$Local@VValue@v8@@@v8@@@std@@EEBAPEBXXZ 0000000180064720 f i _nodert_generated.obj
 0001:00063730       ?_Get@?$_Func_impl@V<lambda_fe5e5aeaacbd6446ef87ebbc8092b4a0>@@V?$allocator@H@std@@_NV?$Local@VValue@v8@@@v8@@@std@@EEBAPEBXXZ 0000000180064730 f i _nodert_generated.obj
 0001:00063740       ?_Get_deleter@?$_Ref_count_del@V?$Persistent@VObject@v8@@V?$NonCopyablePersistentTraits@VObject@v8@@@2@@Nan@@V<lambda_c3ff08df8b12ff96a6780e084058b7f5>@@@std@@UEBAPEAXAEBVtype_info@@@Z 0000000180064740 f i _nodert_generated.obj
 0001:00063780       ?_Get_deleter@_Ref_count_base@std@@UEBAPEAXAEBVtype_info@@@Z 0000000180064780 f i _nodert_generated.obj
 0001:00063790       ?_Move@?$_Func_impl@V<lambda_00da0358850de3e49429586fece76029>@@V?$allocator@H@std@@V?$Local@VValue@v8@@@v8@@G@std@@EEAAPEAV?$_Func_base@V?$Local@VValue@v8@@@v8@@G@2@PEAX@Z 0000000180064790 f i _nodert_generated.obj
 0001:000637b0       ?_Move@?$_Func_impl@V<lambda_0160fe2f50115527811ff5b9360e1b7a>@@V?$allocator@H@std@@_NV?$Local@VValue@v8@@@v8@@@std@@EEAAPEAV?$_Func_base@_NV?$Local@VValue@v8@@@v8@@@2@PEAX@Z 00000001800647b0 f i _nodert_generated.obj
 0001:000637d0       ?_Move@?$_Func_impl@V<lambda_020fa76990e3a2feb178ebe2f631c572>@@V?$allocator@H@std@@VTimeSpan@Foundation@Windows@@V?$Local@VValue@v8@@@v8@@@std@@EEAAPEAV?$_Func_base@VTimeSpan@Foundation@Windows@@V?$Local@VValue@v8@@@v8@@@2@PEAX@Z 00000001800647d0 f i _nodert_generated.obj
 0001:000637f0       ?_Move@?$_Func_impl@V<lambda_07af88b9363cb28ed37db03d45a6cd3c>@@V?$allocator@H@std@@_NV?$Local@VValue@v8@@@v8@@@std@@EEAAPEAV?$_Func_base@_NV?$Local@VValue@v8@@@v8@@@2@PEAX@Z 00000001800647f0 f i _nodert_generated.obj
 0001:00063810       ?_Move@?$_Func_impl@V<lambda_090a25c39625cb123533b59ff0d217bc>@@V?$allocator@H@std@@_NV?$Local@VValue@v8@@@v8@@@std@@EEAAPEAV?$_Func_base@_NV?$Local@VValue@v8@@@v8@@@2@PEAX@Z 0000000180064810 f i _nodert_generated.obj
 0001:00063830       ?_Move@?$_Func_impl@V<lambda_098c61cba7a7d5cc6e4bd988569def2b>@@V?$allocator@H@std@@V?$Local@VValue@v8@@@v8@@E@std@@EEAAPEAV?$_Func_base@V?$Local@VValue@v8@@@v8@@E@2@PEAX@Z 0000000180064830 f i _nodert_generated.obj
 0001:00063850       ?_Move@?$_Func_impl@V<lambda_134e5009af29bd9bdef58a699fe9f316>@@V?$allocator@H@std@@_NV?$Local@VValue@v8@@@v8@@@std@@EEAAPEAV?$_Func_base@_NV?$Local@VValue@v8@@@v8@@@2@PEAX@Z 0000000180064850 f i _nodert_generated.obj
 0001:00063870       ?_Move@?$_Func_impl@V<lambda_13e3e39bdb3d5dd1ce2e97c3195112f8>@@V?$allocator@H@std@@_NV?$Local@VValue@v8@@@v8@@@std@@EEAAPEAV?$_Func_base@_NV?$Local@VValue@v8@@@v8@@@2@PEAX@Z 0000000180064870 f i _nodert_generated.obj
 0001:00063890       ?_Move@?$_Func_impl@V<lambda_1421f3ff24e46d5aecdb58fe616a8656>@@V?$allocator@H@std@@HV?$Local@VValue@v8@@@v8@@@std@@EEAAPEAV?$_Func_base@HV?$Local@VValue@v8@@@v8@@@2@PEAX@Z 0000000180064890 f i _nodert_generated.obj
 0001:000638b0       ?_Move@?$_Func_impl@V<lambda_16a754814df66becd26a45ed790aba89>@@V?$allocator@H@std@@MV?$Local@VValue@v8@@@v8@@@std@@EEAAPEAV?$_Func_base@MV?$Local@VValue@v8@@@v8@@@2@PEAX@Z 00000001800648b0 f i _nodert_generated.obj
 0001:000638d0       ?_Move@?$_Func_impl@V<lambda_1ad841e32860ccc35cd5dace6fd08ae5>@@V?$allocator@H@std@@VSize@Foundation@Windows@@V?$Local@VValue@v8@@@v8@@@std@@EEAAPEAV?$_Func_base@VSize@Foundation@Windows@@V?$Local@VValue@v8@@@v8@@@2@PEAX@Z 00000001800648d0 f i _nodert_generated.obj
 0001:000638f0       ?_Move@?$_Func_impl@V<lambda_1b5b19eafb8c7803164c5d0c769dc971>@@V?$allocator@H@std@@V?$Local@VValue@v8@@@v8@@M@std@@EEAAPEAV?$_Func_base@V?$Local@VValue@v8@@@v8@@M@2@PEAX@Z 00000001800648f0 f i _nodert_generated.obj
 0001:00063910       ?_Move@?$_Func_impl@V<lambda_1e9e23b3894ddc8249b6da397de0806d>@@V?$allocator@H@std@@V?$Local@VValue@v8@@@v8@@F@std@@EEAAPEAV?$_Func_base@V?$Local@VValue@v8@@@v8@@F@2@PEAX@Z 0000000180064910 f i _nodert_generated.obj
 0001:00063930       ?_Move@?$_Func_impl@V<lambda_1f6768b502a7c534942baea5c436b6c1>@@V?$allocator@H@std@@_NV?$Local@VValue@v8@@@v8@@@std@@EEAAPEAV?$_Func_base@_NV?$Local@VValue@v8@@@v8@@@2@PEAX@Z 0000000180064930 f i _nodert_generated.obj
 0001:00063950       ?_Move@?$_Func_impl@V<lambda_2184b6913cb0cd0ffb42ff6d6a790c8c>@@V?$allocator@H@std@@_NV?$Local@VValue@v8@@@v8@@@std@@EEAAPEAV?$_Func_base@_NV?$Local@VValue@v8@@@v8@@@2@PEAX@Z 0000000180064950 f i _nodert_generated.obj
 0001:00063970       ?_Move@?$_Func_impl@V<lambda_24e72d274cd5e430551186786f05383a>@@V?$allocator@H@std@@FV?$Local@VValue@v8@@@v8@@@std@@EEAAPEAV?$_Func_base@FV?$Local@VValue@v8@@@v8@@@2@PEAX@Z 0000000180064970 f i _nodert_generated.obj
 0001:00063990       ?_Move@?$_Func_impl@V<lambda_254c35a1c8cbb74830c7901a82ca92d9>@@V?$allocator@H@std@@_NV?$Local@VValue@v8@@@v8@@@std@@EEAAPEAV?$_Func_base@_NV?$Local@VValue@v8@@@v8@@@2@PEAX@Z 0000000180064990 f i _nodert_generated.obj
 0001:000639b0       ?_Move@?$_Func_impl@V<lambda_290d9f6004e5bf8d3328f0f6dbea6522>@@V?$allocator@H@std@@VPoint@Foundation@Windows@@V?$Local@VValue@v8@@@v8@@@std@@EEAAPEAV?$_Func_base@VPoint@Foundation@Windows@@V?$Local@VValue@v8@@@v8@@@2@PEAX@Z 00000001800649b0 f i _nodert_generated.obj
 0001:000639d0       ?_Move@?$_Func_impl@V<lambda_2bbabe45caa1735792522b2625f8b1c6>@@V?$allocator@H@std@@VGuid@Platform@@V?$Local@VValue@v8@@@v8@@@std@@EEAAPEAV?$_Func_base@VGuid@Platform@@V?$Local@VValue@v8@@@v8@@@2@PEAX@Z 00000001800649d0 f i _nodert_generated.obj
 0001:000639f0       ?_Move@?$_Func_impl@V<lambda_2bc4d9e2238cf2599190d39e26d8cbe0>@@V?$allocator@H@std@@GV?$Local@VValue@v8@@@v8@@@std@@EEAAPEAV?$_Func_base@GV?$Local@VValue@v8@@@v8@@@2@PEAX@Z 00000001800649f0 f i _nodert_generated.obj
 0001:00063a10       ?_Move@?$_Func_impl@V<lambda_2c6a03088aa5196a7ff62086292386cd>@@V?$allocator@H@std@@_NV?$Local@VValue@v8@@@v8@@@std@@EEAAPEAV?$_Func_base@_NV?$Local@VValue@v8@@@v8@@@2@PEAX@Z 0000000180064a10 f i _nodert_generated.obj
 0001:00063a30       ?_Move@?$_Func_impl@V<lambda_2d956cd8dc4a3ca23551fab022e3529b>@@V?$allocator@H@std@@_NV?$Local@VValue@v8@@@v8@@@std@@EEAAPEAV?$_Func_base@_NV?$Local@VValue@v8@@@v8@@@2@PEAX@Z 0000000180064a30 f i _nodert_generated.obj
 0001:00063a50       ?_Move@?$_Func_impl@V<lambda_309d59f401649514dd2fcfb3b3b9e2d7>@@V?$allocator@H@std@@V?$Local@VValue@v8@@@v8@@_J@std@@EEAAPEAV?$_Func_base@V?$Local@VValue@v8@@@v8@@_J@2@PEAX@Z 0000000180064a50 f i _nodert_generated.obj
 0001:00063a70       ?_Move@?$_Func_impl@V<lambda_30cb30e53ec449771ecee2a2d9020984>@@V?$allocator@H@std@@_NV?$Local@VValue@v8@@@v8@@@std@@EEAAPEAV?$_Func_base@_NV?$Local@VValue@v8@@@v8@@@2@PEAX@Z 0000000180064a70 f i _nodert_generated.obj
 0001:00063a90       ?_Move@?$_Func_impl@V<lambda_323168b4b7d6020ca3c1a26c7e9e400c>@@V?$allocator@H@std@@X$$V@std@@EEAAPEAV?$_Func_base@X$$V@2@PEAX@Z 0000000180064a90 f i _nodert_generated.obj
 0001:00063ac0       ?_Move@?$_Func_impl@V<lambda_334911601a1ad962576abaeb332f23c7>@@V?$allocator@H@std@@_NV?$Local@VValue@v8@@@v8@@@std@@EEAAPEAV?$_Func_base@_NV?$Local@VValue@v8@@@v8@@@2@PEAX@Z 0000000180064ac0 f i _nodert_generated.obj
 0001:00063ae0       ?_Move@?$_Func_impl@V<lambda_35f2bcb2a3e8d324ce8c2e6dc7880afa>@@V?$allocator@H@std@@V?$Local@VValue@v8@@@v8@@N@std@@EEAAPEAV?$_Func_base@V?$Local@VValue@v8@@@v8@@N@2@PEAX@Z 0000000180064ae0 f i _nodert_generated.obj
 0001:00063b00       ?_Move@?$_Func_impl@V<lambda_3b51720f3ee6237f44190b9629038bc3>@@V?$allocator@H@std@@GV?$Local@VValue@v8@@@v8@@@std@@EEAAPEAV?$_Func_base@GV?$Local@VValue@v8@@@v8@@@2@PEAX@Z 0000000180064b00 f i _nodert_generated.obj
 0001:00063b20       ?_Move@?$_Func_impl@V<lambda_42861d02c37e1b0dfea349dd2ef00bbd>@@V?$allocator@H@std@@_NV?$Local@VValue@v8@@@v8@@@std@@EEAAPEAV?$_Func_base@_NV?$Local@VValue@v8@@@v8@@@2@PEAX@Z 0000000180064b20 f i _nodert_generated.obj
 0001:00063b40       ?_Move@?$_Func_impl@V<lambda_42a0ecd3c3b54e6b2cbb9e1d3887bcdc>@@V?$allocator@H@std@@VSize@Foundation@Windows@@V?$Local@VValue@v8@@@v8@@@std@@EEAAPEAV?$_Func_base@VSize@Foundation@Windows@@V?$Local@VValue@v8@@@v8@@@2@PEAX@Z 0000000180064b40 f i _nodert_generated.obj
 0001:00063b60       ?_Move@?$_Func_impl@V<lambda_42ba1b98c1d102e04e955f525bd4e320>@@V?$allocator@H@std@@_NV?$Local@VValue@v8@@@v8@@@std@@EEAAPEAV?$_Func_base@_NV?$Local@VValue@v8@@@v8@@@2@PEAX@Z 0000000180064b60 f i _nodert_generated.obj
 0001:00063b80       ?_Move@?$_Func_impl@V<lambda_49651ff5507e56f6d048c30cc06f03dd>@@V?$allocator@H@std@@X$$V@std@@EEAAPEAV?$_Func_base@X$$V@2@PEAX@Z 0000000180064b80 f i _nodert_generated.obj
 0001:00063bc0       ?_Move@?$_Func_impl@V<lambda_4aec6e32220d51310462429d4f6f7cd7>@@V?$allocator@H@std@@EV?$Local@VValue@v8@@@v8@@@std@@EEAAPEAV?$_Func_base@EV?$Local@VValue@v8@@@v8@@@2@PEAX@Z 0000000180064bc0 f i _nodert_generated.obj
 0001:00063be0       ?_Move@?$_Func_impl@V<lambda_5540c0eeef425fa120e634850d66c8dc>@@V?$allocator@H@std@@NV?$Local@VValue@v8@@@v8@@@std@@EEAAPEAV?$_Func_base@NV?$Local@VValue@v8@@@v8@@@2@PEAX@Z 0000000180064be0 f i _nodert_generated.obj
 0001:00063c00       ?_Move@?$_Func_impl@V<lambda_57972fee6684a8d5fb20bd3d1236288c>@@V?$allocator@H@std@@VGuid@Platform@@V?$Local@VValue@v8@@@v8@@@std@@EEAAPEAV?$_Func_base@VGuid@Platform@@V?$Local@VValue@v8@@@v8@@@2@PEAX@Z 0000000180064c00 f i _nodert_generated.obj
 0001:00063c20       ?_Move@?$_Func_impl@V<lambda_5b5021707eb4c023bd35c908739d61c9>@@V?$allocator@H@std@@V?$Local@VValue@v8@@@v8@@VTimeSpan@Foundation@Windows@@@std@@EEAAPEAV?$_Func_base@V?$Local@VValue@v8@@@v8@@VTimeSpan@Foundation@Windows@@@2@PEAX@Z 0000000180064c20 f i _nodert_generated.obj
 0001:00063c40       ?_Move@?$_Func_impl@V<lambda_5ef6239c8054ab7fcf65fbee3e96353e>@@V?$allocator@H@std@@_WV?$Local@VValue@v8@@@v8@@@std@@EEAAPEAV?$_Func_base@_WV?$Local@VValue@v8@@@v8@@@2@PEAX@Z 0000000180064c40 f i _nodert_generated.obj
 0001:00063c60       ?_Move@?$_Func_impl@V<lambda_63f16139cba4f108d1ddf9682a025595>@@V?$allocator@H@std@@V?$Local@VValue@v8@@@v8@@VPoint@Foundation@Windows@@@std@@EEAAPEAV?$_Func_base@V?$Local@VValue@v8@@@v8@@VPoint@Foundation@Windows@@@2@PEAX@Z 0000000180064c60 f i _nodert_generated.obj
 0001:00063c80       ?_Move@?$_Func_impl@V<lambda_6574cb63297c45a45ba12edbd8086d6f>@@V?$allocator@H@std@@MV?$Local@VValue@v8@@@v8@@@std@@EEAAPEAV?$_Func_base@MV?$Local@VValue@v8@@@v8@@@2@PEAX@Z 0000000180064c80 f i _nodert_generated.obj
 0001:00063ca0       ?_Move@?$_Func_impl@V<lambda_74e83aef5b3d4278a07ea97c2a34f059>@@V?$allocator@H@std@@_NV?$Local@VValue@v8@@@v8@@@std@@EEAAPEAV?$_Func_base@_NV?$Local@VValue@v8@@@v8@@@2@PEAX@Z 0000000180064ca0 f i _nodert_generated.obj
 0001:00063cc0       ?_Move@?$_Func_impl@V<lambda_74ec8ac5a3b0c17e7f27f46e754c1be1>@@V?$allocator@H@std@@PE$AAVString@Platform@@V?$Local@VValue@v8@@@v8@@@std@@EEAAPEAV?$_Func_base@PE$AAVString@Platform@@V?$Local@VValue@v8@@@v8@@@2@PEAX@Z 0000000180064cc0 f i _nodert_generated.obj
 0001:00063ce0       ?_Move@?$_Func_impl@V<lambda_79fe348b8781ff6d29a096d63852e14e>@@V?$allocator@H@std@@_NV?$Local@VValue@v8@@@v8@@@std@@EEAAPEAV?$_Func_base@_NV?$Local@VValue@v8@@@v8@@@2@PEAX@Z 0000000180064ce0 f i _nodert_generated.obj
 0001:00063d00       ?_Move@?$_Func_impl@V<lambda_7bfa9b6fc7170e1427da4ce82f82a48d>@@V?$allocator@H@std@@VPoint@Foundation@Windows@@V?$Local@VValue@v8@@@v8@@@std@@EEAAPEAV?$_Func_base@VPoint@Foundation@Windows@@V?$Local@VValue@v8@@@v8@@@2@PEAX@Z 0000000180064d00 f i _nodert_generated.obj
 0001:00063d20       ?_Move@?$_Func_impl@V<lambda_7c3125abf0b78e2778e646511a5ec704>@@V?$allocator@H@std@@V?$Local@VValue@v8@@@v8@@PE$AAUIWwwFormUrlDecoderEntry@Foundation@Windows@@@std@@EEAAPEAV?$_Func_base@V?$Local@VValue@v8@@@v8@@PE$AAUIWwwFormUrlDecoderEntry@Foundation@Windows@@@2@PEAX@Z 0000000180064d20 f i _nodert_generated.obj
 0001:00063d40       ?_Move@?$_Func_impl@V<lambda_7e1859ba07801f2bd1c087f62a099822>@@V?$allocator@H@std@@_NV?$Local@VValue@v8@@@v8@@@std@@EEAAPEAV?$_Func_base@_NV?$Local@VValue@v8@@@v8@@@2@PEAX@Z 0000000180064d40 f i _nodert_generated.obj
 0001:00063d60       ?_Move@?$_Func_impl@V<lambda_807e2dc448e2766fd8d66a2a154fd757>@@V?$allocator@H@std@@EV?$Local@VValue@v8@@@v8@@@std@@EEAAPEAV?$_Func_base@EV?$Local@VValue@v8@@@v8@@@2@PEAX@Z 0000000180064d60 f i _nodert_generated.obj
 0001:00063d80       ?_Move@?$_Func_impl@V<lambda_83b1fcb4186f20aea46c3acfe9cc602f>@@V?$allocator@H@std@@V?$Local@VValue@v8@@@v8@@_K@std@@EEAAPEAV?$_Func_base@V?$Local@VValue@v8@@@v8@@_K@2@PEAX@Z 0000000180064d80 f i _nodert_generated.obj
 0001:00063da0       ?_Move@?$_Func_impl@V<lambda_84b2e0c4363fa3e0d326104f1bfe478b>@@V?$allocator@H@std@@V?$Local@VValue@v8@@@v8@@VRect@Foundation@Windows@@@std@@EEAAPEAV?$_Func_base@V?$Local@VValue@v8@@@v8@@VRect@Foundation@Windows@@@2@PEAX@Z 0000000180064da0 f i _nodert_generated.obj
 0001:00063dc0       ?_Move@?$_Func_impl@V<lambda_84fd7a09210752e44ce3b30c4362cfc3>@@V?$allocator@H@std@@NV?$Local@VValue@v8@@@v8@@@std@@EEAAPEAV?$_Func_base@NV?$Local@VValue@v8@@@v8@@@2@PEAX@Z 0000000180064dc0 f i _nodert_generated.obj
 0001:00063de0       ?_Move@?$_Func_impl@V<lambda_850bde7442b4e67b57845066c808b7f9>@@V?$allocator@H@std@@PE$AAVObject@Platform@@V?$Local@VValue@v8@@@v8@@@std@@EEAAPEAV?$_Func_base@PE$AAVObject@Platform@@V?$Local@VValue@v8@@@v8@@@2@PEAX@Z 0000000180064de0 f i _nodert_generated.obj
 0001:00063e00       ?_Move@?$_Func_impl@V<lambda_869fcda5fb6a5846bfff7877657b9bfa>@@V?$allocator@H@std@@V?$Local@VValue@v8@@@v8@@VSize@Foundation@Windows@@@std@@EEAAPEAV?$_Func_base@V?$Local@VValue@v8@@@v8@@VSize@Foundation@Windows@@@2@PEAX@Z 0000000180064e00 f i _nodert_generated.obj
 0001:00063e20       ?_Move@?$_Func_impl@V<lambda_8796f925c78479b1b7c806e10bb79f78>@@V?$allocator@H@std@@VDateTime@Foundation@Windows@@V?$Local@VValue@v8@@@v8@@@std@@EEAAPEAV?$_Func_base@VDateTime@Foundation@Windows@@V?$Local@VValue@v8@@@v8@@@2@PEAX@Z 0000000180064e20 f i _nodert_generated.obj
 0001:00063e40       ?_Move@?$_Func_impl@V<lambda_87b81f53a11b2260270b93c1cf969c92>@@V?$allocator@H@std@@V?$Local@VValue@v8@@@v8@@PE$AAVObject@Platform@@@std@@EEAAPEAV?$_Func_base@V?$Local@VValue@v8@@@v8@@PE$AAVObject@Platform@@@2@PEAX@Z 0000000180064e40 f i _nodert_generated.obj
 0001:00063e60       ?_Move@?$_Func_impl@V<lambda_8848d68499a2414cf86c123fb3614eb8>@@V?$allocator@H@std@@_NV?$Local@VValue@v8@@@v8@@@std@@EEAAPEAV?$_Func_base@_NV?$Local@VValue@v8@@@v8@@@2@PEAX@Z 0000000180064e60 f i _nodert_generated.obj
 0001:00063e80       ?_Move@?$_Func_impl@V<lambda_887ad2eff405dd476b737b781370f279>@@V?$allocator@H@std@@_NV?$Local@VValue@v8@@@v8@@@std@@EEAAPEAV?$_Func_base@_NV?$Local@VValue@v8@@@v8@@@2@PEAX@Z 0000000180064e80 f i _nodert_generated.obj
 0001:00063ea0       ?_Move@?$_Func_impl@V<lambda_89e08a54281259c21902d424f1933673>@@V?$allocator@H@std@@V?$Local@VValue@v8@@@v8@@PE$AAVString@Platform@@@std@@EEAAPEAV?$_Func_base@V?$Local@VValue@v8@@@v8@@PE$AAVString@Platform@@@2@PEAX@Z 0000000180064ea0 f i _nodert_generated.obj
 0001:00063ec0       ?_Move@?$_Func_impl@V<lambda_8cc4c964448f1ab867afe563cde0195a>@@V?$allocator@H@std@@_NV?$Local@VValue@v8@@@v8@@@std@@EEAAPEAV?$_Func_base@_NV?$Local@VValue@v8@@@v8@@@2@PEAX@Z 0000000180064ec0 f i _nodert_generated.obj
 0001:00063ee0       ?_Move@?$_Func_impl@V<lambda_92623ff20c13db631f5586c786dced01>@@V?$allocator@H@std@@_NV?$Local@VValue@v8@@@v8@@@std@@EEAAPEAV?$_Func_base@_NV?$Local@VValue@v8@@@v8@@@2@PEAX@Z 0000000180064ee0 f i _nodert_generated.obj
 0001:00063f00       ?_Move@?$_Func_impl@V<lambda_94fb53d9eb5789303fb1844fcc906f11>@@V?$allocator@H@std@@VRect@Foundation@Windows@@V?$Local@VValue@v8@@@v8@@@std@@EEAAPEAV?$_Func_base@VRect@Foundation@Windows@@V?$Local@VValue@v8@@@v8@@@2@PEAX@Z 0000000180064f00 f i _nodert_generated.obj
 0001:00063f20       ?_Move@?$_Func_impl@V<lambda_9672cdc9e4b014dbcbf91e5133c0dbd3>@@V?$allocator@H@std@@_NV?$Local@VValue@v8@@@v8@@@std@@EEAAPEAV?$_Func_base@_NV?$Local@VValue@v8@@@v8@@@2@PEAX@Z 0000000180064f20 f i _nodert_generated.obj
 0001:00063f40       ?_Move@?$_Func_impl@V<lambda_9820cd0569d7d8d72231e1c382f4cbec>@@V?$allocator@H@std@@_KV?$Local@VValue@v8@@@v8@@@std@@EEAAPEAV?$_Func_base@_KV?$Local@VValue@v8@@@v8@@@2@PEAX@Z 0000000180064f40 f i _nodert_generated.obj
 0001:00063f60       ?_Move@?$_Func_impl@V<lambda_9bfdb60006a1ec41f610b605b2468382>@@V?$allocator@H@std@@_NV?$Local@VValue@v8@@@v8@@@std@@EEAAPEAV?$_Func_base@_NV?$Local@VValue@v8@@@v8@@@2@PEAX@Z 0000000180064f60 f i _nodert_generated.obj
 0001:00063f80       ?_Move@?$_Func_impl@V<lambda_9c9a4048442e80634ebbddb616dd1f3b>@@V?$allocator@H@std@@_NV?$Local@VValue@v8@@@v8@@@std@@EEAAPEAV?$_Func_base@_NV?$Local@VValue@v8@@@v8@@@2@PEAX@Z 0000000180064f80 f i _nodert_generated.obj
 0001:00063fa0       ?_Move@?$_Func_impl@V<lambda_9cf6e4e7f125db49c1c32ddbe2eb0a4d>@@V?$allocator@H@std@@_NV?$Local@VValue@v8@@@v8@@@std@@EEAAPEAV?$_Func_base@_NV?$Local@VValue@v8@@@v8@@@2@PEAX@Z 0000000180064fa0 f i _nodert_generated.obj
 0001:00063fc0       ?_Move@?$_Func_impl@V<lambda_a7fcc7bff8b4e788cd856f0c61e20b2a>@@V?$allocator@H@std@@_NV?$Local@VValue@v8@@@v8@@@std@@EEAAPEAV?$_Func_base@_NV?$Local@VValue@v8@@@v8@@@2@PEAX@Z 0000000180064fc0 f i _nodert_generated.obj
 0001:00063fe0       ?_Move@?$_Func_impl@V<lambda_a7fdbe3470001a55490e011ae759a283>@@V?$allocator@H@std@@_NV?$Local@VValue@v8@@@v8@@@std@@EEAAPEAV?$_Func_base@_NV?$Local@VValue@v8@@@v8@@@2@PEAX@Z 0000000180064fe0 f i _nodert_generated.obj
 0001:00064000       ?_Move@?$_Func_impl@V<lambda_ac08df06aa310a4e928a20d8258eeb0f>@@V?$allocator@H@std@@_WV?$Local@VValue@v8@@@v8@@@std@@EEAAPEAV?$_Func_base@_WV?$Local@VValue@v8@@@v8@@@2@PEAX@Z 0000000180065000 f i _nodert_generated.obj
 0001:00064020       ?_Move@?$_Func_impl@V<lambda_aee639b1773f933f11f2991db91be573>@@V?$allocator@H@std@@_NV?$Local@VValue@v8@@@v8@@@std@@EEAAPEAV?$_Func_base@_NV?$Local@VValue@v8@@@v8@@@2@PEAX@Z 0000000180065020 f i _nodert_generated.obj
 0001:00064040       ?_Move@?$_Func_impl@V<lambda_af8f1bc116e1c082454975c28c37d169>@@V?$allocator@H@std@@V?$Local@VValue@v8@@@v8@@VDateTime@Foundation@Windows@@@std@@EEAAPEAV?$_Func_base@V?$Local@VValue@v8@@@v8@@VDateTime@Foundation@Windows@@@2@PEAX@Z 0000000180065040 f i _nodert_generated.obj
 0001:00064060       ?_Move@?$_Func_impl@V<lambda_afb547083691b212e8d4aa49e8f152dc>@@V?$allocator@H@std@@IV?$Local@VValue@v8@@@v8@@@std@@EEAAPEAV?$_Func_base@IV?$Local@VValue@v8@@@v8@@@2@PEAX@Z 0000000180065060 f i _nodert_generated.obj
 0001:00064080       ?_Move@?$_Func_impl@V<lambda_afc532daf9db0f32af6faaf05d4e9f6b>@@V?$allocator@H@std@@_NV?$Local@VValue@v8@@@v8@@@std@@EEAAPEAV?$_Func_base@_NV?$Local@VValue@v8@@@v8@@@2@PEAX@Z 0000000180065080 f i _nodert_generated.obj
 0001:000640a0       ?_Move@?$_Func_impl@V<lambda_b4a69b6e96ded561cf6125ba4d203b82>@@V?$allocator@H@std@@_NV?$Local@VValue@v8@@@v8@@@std@@EEAAPEAV?$_Func_base@_NV?$Local@VValue@v8@@@v8@@@2@PEAX@Z 00000001800650a0 f i _nodert_generated.obj
 0001:000640c0       ?_Move@?$_Func_impl@V<lambda_b5637107c4580816204b759de0971b79>@@V?$allocator@H@std@@_NV?$Local@VValue@v8@@@v8@@@std@@EEAAPEAV?$_Func_base@_NV?$Local@VValue@v8@@@v8@@@2@PEAX@Z 00000001800650c0 f i _nodert_generated.obj
 0001:000640e0       ?_Move@?$_Func_impl@V<lambda_b5f65513cf849cab43a1ee50fc875b24>@@V?$allocator@H@std@@_JV?$Local@VValue@v8@@@v8@@@std@@EEAAPEAV?$_Func_base@_JV?$Local@VValue@v8@@@v8@@@2@PEAX@Z 00000001800650e0 f i _nodert_generated.obj
 0001:00064100       ?_Move@?$_Func_impl@V<lambda_ba18901838a49873ef872203bc8527ed>@@V?$allocator@H@std@@VTimeSpan@Foundation@Windows@@V?$Local@VValue@v8@@@v8@@@std@@EEAAPEAV?$_Func_base@VTimeSpan@Foundation@Windows@@V?$Local@VValue@v8@@@v8@@@2@PEAX@Z 0000000180065100 f i _nodert_generated.obj
 0001:00064120       ?_Move@?$_Func_impl@V<lambda_ba501eccc9f8b1b5af390e9859e4df50>@@V?$allocator@H@std@@_NV?$Local@VValue@v8@@@v8@@@std@@EEAAPEAV?$_Func_base@_NV?$Local@VValue@v8@@@v8@@@2@PEAX@Z 0000000180065120 f i _nodert_generated.obj
 0001:00064140       ?_Move@?$_Func_impl@V<lambda_c05df627370d555cba9793685713e009>@@V?$allocator@H@std@@_NV?$Local@VValue@v8@@@v8@@@std@@EEAAPEAV?$_Func_base@_NV?$Local@VValue@v8@@@v8@@@2@PEAX@Z 0000000180065140 f i _nodert_generated.obj
 0001:00064160       ?_Move@?$_Func_impl@V<lambda_c1fd914ce11cd788f293e2affcb004ac>@@V?$allocator@H@std@@_NV?$Local@VValue@v8@@@v8@@@std@@EEAAPEAV?$_Func_base@_NV?$Local@VValue@v8@@@v8@@@2@PEAX@Z 0000000180065160 f i _nodert_generated.obj
 0001:00064180       ?_Move@?$_Func_impl@V<lambda_c3c7f1a5ff36149a57df8b77f7ff9d56>@@V?$allocator@H@std@@_NV?$Local@VValue@v8@@@v8@@@std@@EEAAPEAV?$_Func_base@_NV?$Local@VValue@v8@@@v8@@@2@PEAX@Z 0000000180065180 f i _nodert_generated.obj
 0001:000641a0       ?_Move@?$_Func_impl@V<lambda_c4f22aece8058882bda5332e2dc6094a>@@V?$allocator@H@std@@VDateTime@Foundation@Windows@@V?$Local@VValue@v8@@@v8@@@std@@EEAAPEAV?$_Func_base@VDateTime@Foundation@Windows@@V?$Local@VValue@v8@@@v8@@@2@PEAX@Z 00000001800651a0 f i _nodert_generated.obj
 0001:000641c0       ?_Move@?$_Func_impl@V<lambda_cc5efef53f4517305ade5f31acbea296>@@V?$allocator@H@std@@IV?$Local@VValue@v8@@@v8@@@std@@EEAAPEAV?$_Func_base@IV?$Local@VValue@v8@@@v8@@@2@PEAX@Z 00000001800651c0 f i _nodert_generated.obj
 0001:000641e0       ?_Move@?$_Func_impl@V<lambda_cd976d3bc4167928884ff6ab7e49b008>@@V?$allocator@H@std@@_NV?$Local@VValue@v8@@@v8@@@std@@EEAAPEAV?$_Func_base@_NV?$Local@VValue@v8@@@v8@@@2@PEAX@Z 00000001800651e0 f i _nodert_generated.obj
 0001:00064200       ?_Move@?$_Func_impl@V<lambda_cff40d32a985611151f5519d503397a0>@@V?$allocator@H@std@@_JV?$Local@VValue@v8@@@v8@@@std@@EEAAPEAV?$_Func_base@_JV?$Local@VValue@v8@@@v8@@@2@PEAX@Z 0000000180065200 f i _nodert_generated.obj
 0001:00064220       ?_Move@?$_Func_impl@V<lambda_d0fcbf2defc252ec422e9f26646483b5>@@V?$allocator@H@std@@V?$Local@VValue@v8@@@v8@@VGuid@Platform@@@std@@EEAAPEAV?$_Func_base@V?$Local@VValue@v8@@@v8@@VGuid@Platform@@@2@PEAX@Z 0000000180065220 f i _nodert_generated.obj
 0001:00064240       ?_Move@?$_Func_impl@V<lambda_d2919f705a79fe292d147c7f75386c54>@@V?$allocator@H@std@@V?$Local@VValue@v8@@@v8@@I@std@@EEAAPEAV?$_Func_base@V?$Local@VValue@v8@@@v8@@I@2@PEAX@Z 0000000180065240 f i _nodert_generated.obj
 0001:00064260       ?_Move@?$_Func_impl@V<lambda_d38773f6115850a0f88ad40409222155>@@V?$allocator@H@std@@PE$AAVString@Platform@@V?$Local@VValue@v8@@@v8@@@std@@EEAAPEAV?$_Func_base@PE$AAVString@Platform@@V?$Local@VValue@v8@@@v8@@@2@PEAX@Z 0000000180065260 f i _nodert_generated.obj
 0001:00064280       ?_Move@?$_Func_impl@V<lambda_d9a2021dc18302479b39067d57580088>@@V?$allocator@H@std@@_NV?$Local@VValue@v8@@@v8@@@std@@EEAAPEAV?$_Func_base@_NV?$Local@VValue@v8@@@v8@@@2@PEAX@Z 0000000180065280 f i _nodert_generated.obj
 0001:000642a0       ?_Move@?$_Func_impl@V<lambda_ddaf005d09ec384ca5fa84afb99ce47b>@@V?$allocator@H@std@@HV?$Local@VValue@v8@@@v8@@@std@@EEAAPEAV?$_Func_base@HV?$Local@VValue@v8@@@v8@@@2@PEAX@Z 00000001800652a0 f i _nodert_generated.obj
 0001:000642c0       ?_Move@?$_Func_impl@V<lambda_e032bc00ab801c27aecda7b3122fc71e>@@V?$allocator@H@std@@_NV?$Local@VValue@v8@@@v8@@@std@@EEAAPEAV?$_Func_base@_NV?$Local@VValue@v8@@@v8@@@2@PEAX@Z 00000001800652c0 f i _nodert_generated.obj
 0001:000642e0       ?_Move@?$_Func_impl@V<lambda_e2139a87d96ba7d6c29afa27b25c7b3b>@@V?$allocator@H@std@@PE$AAVObject@Platform@@V?$Local@VValue@v8@@@v8@@@std@@EEAAPEAV?$_Func_base@PE$AAVObject@Platform@@V?$Local@VValue@v8@@@v8@@@2@PEAX@Z 00000001800652e0 f i _nodert_generated.obj
 0001:00064300       ?_Move@?$_Func_impl@V<lambda_e660ce246b8692358554355363d2bbdb>@@V?$allocator@H@std@@V?$Local@VValue@v8@@@v8@@_N@std@@EEAAPEAV?$_Func_base@V?$Local@VValue@v8@@@v8@@_N@2@PEAX@Z 0000000180065300 f i _nodert_generated.obj
 0001:00064320       ?_Move@?$_Func_impl@V<lambda_e75a6b3f366d9824e9ae5182076f5b6f>@@V?$allocator@H@std@@VRect@Foundation@Windows@@V?$Local@VValue@v8@@@v8@@@std@@EEAAPEAV?$_Func_base@VRect@Foundation@Windows@@V?$Local@VValue@v8@@@v8@@@2@PEAX@Z 0000000180065320 f i _nodert_generated.obj
 0001:00064340       ?_Move@?$_Func_impl@V<lambda_ef1ce463e0c6d80f6679263f728ba338>@@V?$allocator@H@std@@_KV?$Local@VValue@v8@@@v8@@@std@@EEAAPEAV?$_Func_base@_KV?$Local@VValue@v8@@@v8@@@2@PEAX@Z 0000000180065340 f i _nodert_generated.obj
 0001:00064360       ?_Move@?$_Func_impl@V<lambda_f32f40989460573471116a7ae5eddb2d>@@V?$allocator@H@std@@_NV?$Local@VValue@v8@@@v8@@@std@@EEAAPEAV?$_Func_base@_NV?$Local@VValue@v8@@@v8@@@2@PEAX@Z 0000000180065360 f i _nodert_generated.obj
 0001:00064380       ?_Move@?$_Func_impl@V<lambda_f5823fd85b22dbcb9c101b6af88ccd65>@@V?$allocator@H@std@@V?$Local@VValue@v8@@@v8@@H@std@@EEAAPEAV?$_Func_base@V?$Local@VValue@v8@@@v8@@H@2@PEAX@Z 0000000180065380 f i _nodert_generated.obj
 0001:000643a0       ?_Move@?$_Func_impl@V<lambda_fc6b419b9a8c42f3e377d86c94f5a923>@@V?$allocator@H@std@@V?$Local@VValue@v8@@@v8@@_W@std@@EEAAPEAV?$_Func_base@V?$Local@VValue@v8@@@v8@@_W@2@PEAX@Z 00000001800653a0 f i _nodert_generated.obj
 0001:000643c0       ?_Move@?$_Func_impl@V<lambda_fe199ffbdb9f25806abc0becd00fdcce>@@V?$allocator@H@std@@FV?$Local@VValue@v8@@@v8@@@std@@EEAAPEAV?$_Func_base@FV?$Local@VValue@v8@@@v8@@@2@PEAX@Z 00000001800653c0 f i _nodert_generated.obj
 0001:000643e0       ?_Move@?$_Func_impl@V<lambda_fe5e5aeaacbd6446ef87ebbc8092b4a0>@@V?$allocator@H@std@@_NV?$Local@VValue@v8@@@v8@@@std@@EEAAPEAV?$_Func_base@_NV?$Local@VValue@v8@@@v8@@@2@PEAX@Z 00000001800653e0 f i _nodert_generated.obj
 0001:00064400       ?_Reset0@?$_Ptr_base@V?$Persistent@VObject@v8@@V?$NonCopyablePersistentTraits@VObject@v8@@@2@@Nan@@@std@@QEAAXPEAV?$Persistent@VObject@v8@@V?$NonCopyablePersistentTraits@VObject@v8@@@2@@Nan@@PEAV_Ref_count_base@2@@Z 0000000180065400 f i _nodert_generated.obj
 0001:000644b0       ?_Reset_move@?$_Func_class@X$$V@std@@IEAAX$$QEAV12@@Z 00000001800654b0 f i _nodert_generated.obj
 0001:00064540       ?_Swap@?$_Func_class@X$$V@std@@IEAAXAEAV12@@Z 0000000180065540 f i _nodert_generated.obj
 0001:00064670       ?_Target_type@?$_Func_impl@V<lambda_00da0358850de3e49429586fece76029>@@V?$allocator@H@std@@V?$Local@VValue@v8@@@v8@@G@std@@EEBAAEBVtype_info@@XZ 0000000180065670 f i _nodert_generated.obj
 0001:00064680       ?_Target_type@?$_Func_impl@V<lambda_0160fe2f50115527811ff5b9360e1b7a>@@V?$allocator@H@std@@_NV?$Local@VValue@v8@@@v8@@@std@@EEBAAEBVtype_info@@XZ 0000000180065680 f i _nodert_generated.obj
 0001:00064690       ?_Target_type@?$_Func_impl@V<lambda_020fa76990e3a2feb178ebe2f631c572>@@V?$allocator@H@std@@VTimeSpan@Foundation@Windows@@V?$Local@VValue@v8@@@v8@@@std@@EEBAAEBVtype_info@@XZ 0000000180065690 f i _nodert_generated.obj
 0001:000646a0       ?_Target_type@?$_Func_impl@V<lambda_07af88b9363cb28ed37db03d45a6cd3c>@@V?$allocator@H@std@@_NV?$Local@VValue@v8@@@v8@@@std@@EEBAAEBVtype_info@@XZ 00000001800656a0 f i _nodert_generated.obj
 0001:000646b0       ?_Target_type@?$_Func_impl@V<lambda_090a25c39625cb123533b59ff0d217bc>@@V?$allocator@H@std@@_NV?$Local@VValue@v8@@@v8@@@std@@EEBAAEBVtype_info@@XZ 00000001800656b0 f i _nodert_generated.obj
 0001:000646c0       ?_Target_type@?$_Func_impl@V<lambda_098c61cba7a7d5cc6e4bd988569def2b>@@V?$allocator@H@std@@V?$Local@VValue@v8@@@v8@@E@std@@EEBAAEBVtype_info@@XZ 00000001800656c0 f i _nodert_generated.obj
 0001:000646d0       ?_Target_type@?$_Func_impl@V<lambda_134e5009af29bd9bdef58a699fe9f316>@@V?$allocator@H@std@@_NV?$Local@VValue@v8@@@v8@@@std@@EEBAAEBVtype_info@@XZ 00000001800656d0 f i _nodert_generated.obj
 0001:000646e0       ?_Target_type@?$_Func_impl@V<lambda_13e3e39bdb3d5dd1ce2e97c3195112f8>@@V?$allocator@H@std@@_NV?$Local@VValue@v8@@@v8@@@std@@EEBAAEBVtype_info@@XZ 00000001800656e0 f i _nodert_generated.obj
 0001:000646f0       ?_Target_type@?$_Func_impl@V<lambda_1421f3ff24e46d5aecdb58fe616a8656>@@V?$allocator@H@std@@HV?$Local@VValue@v8@@@v8@@@std@@EEBAAEBVtype_info@@XZ 00000001800656f0 f i _nodert_generated.obj
 0001:00064700       ?_Target_type@?$_Func_impl@V<lambda_16a754814df66becd26a45ed790aba89>@@V?$allocator@H@std@@MV?$Local@VValue@v8@@@v8@@@std@@EEBAAEBVtype_info@@XZ 0000000180065700 f i _nodert_generated.obj
 0001:00064710       ?_Target_type@?$_Func_impl@V<lambda_1ad841e32860ccc35cd5dace6fd08ae5>@@V?$allocator@H@std@@VSize@Foundation@Windows@@V?$Local@VValue@v8@@@v8@@@std@@EEBAAEBVtype_info@@XZ 0000000180065710 f i _nodert_generated.obj
 0001:00064720       ?_Target_type@?$_Func_impl@V<lambda_1b5b19eafb8c7803164c5d0c769dc971>@@V?$allocator@H@std@@V?$Local@VValue@v8@@@v8@@M@std@@EEBAAEBVtype_info@@XZ 0000000180065720 f i _nodert_generated.obj
 0001:00064730       ?_Target_type@?$_Func_impl@V<lambda_1e9e23b3894ddc8249b6da397de0806d>@@V?$allocator@H@std@@V?$Local@VValue@v8@@@v8@@F@std@@EEBAAEBVtype_info@@XZ 0000000180065730 f i _nodert_generated.obj
 0001:00064740       ?_Target_type@?$_Func_impl@V<lambda_1f6768b502a7c534942baea5c436b6c1>@@V?$allocator@H@std@@_NV?$Local@VValue@v8@@@v8@@@std@@EEBAAEBVtype_info@@XZ 0000000180065740 f i _nodert_generated.obj
 0001:00064750       ?_Target_type@?$_Func_impl@V<lambda_2184b6913cb0cd0ffb42ff6d6a790c8c>@@V?$allocator@H@std@@_NV?$Local@VValue@v8@@@v8@@@std@@EEBAAEBVtype_info@@XZ 0000000180065750 f i _nodert_generated.obj
 0001:00064760       ?_Target_type@?$_Func_impl@V<lambda_24e72d274cd5e430551186786f05383a>@@V?$allocator@H@std@@FV?$Local@VValue@v8@@@v8@@@std@@EEBAAEBVtype_info@@XZ 0000000180065760 f i _nodert_generated.obj
 0001:00064770       ?_Target_type@?$_Func_impl@V<lambda_254c35a1c8cbb74830c7901a82ca92d9>@@V?$allocator@H@std@@_NV?$Local@VValue@v8@@@v8@@@std@@EEBAAEBVtype_info@@XZ 0000000180065770 f i _nodert_generated.obj
 0001:00064780       ?_Target_type@?$_Func_impl@V<lambda_290d9f6004e5bf8d3328f0f6dbea6522>@@V?$allocator@H@std@@VPoint@Foundation@Windows@@V?$Local@VValue@v8@@@v8@@@std@@EEBAAEBVtype_info@@XZ 0000000180065780 f i _nodert_generated.obj
 0001:00064790       ?_Target_type@?$_Func_impl@V<lambda_2bbabe45caa1735792522b2625f8b1c6>@@V?$allocator@H@std@@VGuid@Platform@@V?$Local@VValue@v8@@@v8@@@std@@EEBAAEBVtype_info@@XZ 0000000180065790 f i _nodert_generated.obj
 0001:000647a0       ?_Target_type@?$_Func_impl@V<lambda_2bc4d9e2238cf2599190d39e26d8cbe0>@@V?$allocator@H@std@@GV?$Local@VValue@v8@@@v8@@@std@@EEBAAEBVtype_info@@XZ 00000001800657a0 f i _nodert_generated.obj
 0001:000647b0       ?_Target_type@?$_Func_impl@V<lambda_2c6a03088aa5196a7ff62086292386cd>@@V?$allocator@H@std@@_NV?$Local@VValue@v8@@@v8@@@std@@EEBAAEBVtype_info@@XZ 00000001800657b0 f i _nodert_generated.obj
 0001:000647c0       ?_Target_type@?$_Func_impl@V<lambda_2d956cd8dc4a3ca23551fab022e3529b>@@V?$allocator@H@std@@_NV?$Local@VValue@v8@@@v8@@@std@@EEBAAEBVtype_info@@XZ 00000001800657c0 f i _nodert_generated.obj
 0001:000647d0       ?_Target_type@?$_Func_impl@V<lambda_309d59f401649514dd2fcfb3b3b9e2d7>@@V?$allocator@H@std@@V?$Local@VValue@v8@@@v8@@_J@std@@EEBAAEBVtype_info@@XZ 00000001800657d0 f i _nodert_generated.obj
 0001:000647e0       ?_Target_type@?$_Func_impl@V<lambda_30cb30e53ec449771ecee2a2d9020984>@@V?$allocator@H@std@@_NV?$Local@VValue@v8@@@v8@@@std@@EEBAAEBVtype_info@@XZ 00000001800657e0 f i _nodert_generated.obj
 0001:000647f0       ?_Target_type@?$_Func_impl@V<lambda_323168b4b7d6020ca3c1a26c7e9e400c>@@V?$allocator@H@std@@X$$V@std@@EEBAAEBVtype_info@@XZ 00000001800657f0 f i _nodert_generated.obj
 0001:00064800       ?_Target_type@?$_Func_impl@V<lambda_334911601a1ad962576abaeb332f23c7>@@V?$allocator@H@std@@_NV?$Local@VValue@v8@@@v8@@@std@@EEBAAEBVtype_info@@XZ 0000000180065800 f i _nodert_generated.obj
 0001:00064810       ?_Target_type@?$_Func_impl@V<lambda_35f2bcb2a3e8d324ce8c2e6dc7880afa>@@V?$allocator@H@std@@V?$Local@VValue@v8@@@v8@@N@std@@EEBAAEBVtype_info@@XZ 0000000180065810 f i _nodert_generated.obj
 0001:00064820       ?_Target_type@?$_Func_impl@V<lambda_3b51720f3ee6237f44190b9629038bc3>@@V?$allocator@H@std@@GV?$Local@VValue@v8@@@v8@@@std@@EEBAAEBVtype_info@@XZ 0000000180065820 f i _nodert_generated.obj
 0001:00064830       ?_Target_type@?$_Func_impl@V<lambda_42861d02c37e1b0dfea349dd2ef00bbd>@@V?$allocator@H@std@@_NV?$Local@VValue@v8@@@v8@@@std@@EEBAAEBVtype_info@@XZ 0000000180065830 f i _nodert_generated.obj
 0001:00064840       ?_Target_type@?$_Func_impl@V<lambda_42a0ecd3c3b54e6b2cbb9e1d3887bcdc>@@V?$allocator@H@std@@VSize@Foundation@Windows@@V?$Local@VValue@v8@@@v8@@@std@@EEBAAEBVtype_info@@XZ 0000000180065840 f i _nodert_generated.obj
 0001:00064850       ?_Target_type@?$_Func_impl@V<lambda_42ba1b98c1d102e04e955f525bd4e320>@@V?$allocator@H@std@@_NV?$Local@VValue@v8@@@v8@@@std@@EEBAAEBVtype_info@@XZ 0000000180065850 f i _nodert_generated.obj
 0001:00064860       ?_Target_type@?$_Func_impl@V<lambda_49651ff5507e56f6d048c30cc06f03dd>@@V?$allocator@H@std@@X$$V@std@@EEBAAEBVtype_info@@XZ 0000000180065860 f i _nodert_generated.obj
 0001:00064870       ?_Target_type@?$_Func_impl@V<lambda_4aec6e32220d51310462429d4f6f7cd7>@@V?$allocator@H@std@@EV?$Local@VValue@v8@@@v8@@@std@@EEBAAEBVtype_info@@XZ 0000000180065870 f i _nodert_generated.obj
 0001:00064880       ?_Target_type@?$_Func_impl@V<lambda_5540c0eeef425fa120e634850d66c8dc>@@V?$allocator@H@std@@NV?$Local@VValue@v8@@@v8@@@std@@EEBAAEBVtype_info@@XZ 0000000180065880 f i _nodert_generated.obj
 0001:00064890       ?_Target_type@?$_Func_impl@V<lambda_57972fee6684a8d5fb20bd3d1236288c>@@V?$allocator@H@std@@VGuid@Platform@@V?$Local@VValue@v8@@@v8@@@std@@EEBAAEBVtype_info@@XZ 0000000180065890 f i _nodert_generated.obj
 0001:000648a0       ?_Target_type@?$_Func_impl@V<lambda_5b5021707eb4c023bd35c908739d61c9>@@V?$allocator@H@std@@V?$Local@VValue@v8@@@v8@@VTimeSpan@Foundation@Windows@@@std@@EEBAAEBVtype_info@@XZ 00000001800658a0 f i _nodert_generated.obj
 0001:000648b0       ?_Target_type@?$_Func_impl@V<lambda_5ef6239c8054ab7fcf65fbee3e96353e>@@V?$allocator@H@std@@_WV?$Local@VValue@v8@@@v8@@@std@@EEBAAEBVtype_info@@XZ 00000001800658b0 f i _nodert_generated.obj
 0001:000648c0       ?_Target_type@?$_Func_impl@V<lambda_63f16139cba4f108d1ddf9682a025595>@@V?$allocator@H@std@@V?$Local@VValue@v8@@@v8@@VPoint@Foundation@Windows@@@std@@EEBAAEBVtype_info@@XZ 00000001800658c0 f i _nodert_generated.obj
 0001:000648d0       ?_Target_type@?$_Func_impl@V<lambda_6574cb63297c45a45ba12edbd8086d6f>@@V?$allocator@H@std@@MV?$Local@VValue@v8@@@v8@@@std@@EEBAAEBVtype_info@@XZ 00000001800658d0 f i _nodert_generated.obj
 0001:000648e0       ?_Target_type@?$_Func_impl@V<lambda_74e83aef5b3d4278a07ea97c2a34f059>@@V?$allocator@H@std@@_NV?$Local@VValue@v8@@@v8@@@std@@EEBAAEBVtype_info@@XZ 00000001800658e0 f i _nodert_generated.obj
 0001:000648f0       ?_Target_type@?$_Func_impl@V<lambda_74ec8ac5a3b0c17e7f27f46e754c1be1>@@V?$allocator@H@std@@PE$AAVString@Platform@@V?$Local@VValue@v8@@@v8@@@std@@EEBAAEBVtype_info@@XZ 00000001800658f0 f i _nodert_generated.obj
 0001:00064900       ?_Target_type@?$_Func_impl@V<lambda_79fe348b8781ff6d29a096d63852e14e>@@V?$allocator@H@std@@_NV?$Local@VValue@v8@@@v8@@@std@@EEBAAEBVtype_info@@XZ 0000000180065900 f i _nodert_generated.obj
 0001:00064910       ?_Target_type@?$_Func_impl@V<lambda_7bfa9b6fc7170e1427da4ce82f82a48d>@@V?$allocator@H@std@@VPoint@Foundation@Windows@@V?$Local@VValue@v8@@@v8@@@std@@EEBAAEBVtype_info@@XZ 0000000180065910 f i _nodert_generated.obj
 0001:00064920       ?_Target_type@?$_Func_impl@V<lambda_7c3125abf0b78e2778e646511a5ec704>@@V?$allocator@H@std@@V?$Local@VValue@v8@@@v8@@PE$AAUIWwwFormUrlDecoderEntry@Foundation@Windows@@@std@@EEBAAEBVtype_info@@XZ 0000000180065920 f i _nodert_generated.obj
 0001:00064930       ?_Target_type@?$_Func_impl@V<lambda_7e1859ba07801f2bd1c087f62a099822>@@V?$allocator@H@std@@_NV?$Local@VValue@v8@@@v8@@@std@@EEBAAEBVtype_info@@XZ 0000000180065930 f i _nodert_generated.obj
 0001:00064940       ?_Target_type@?$_Func_impl@V<lambda_807e2dc448e2766fd8d66a2a154fd757>@@V?$allocator@H@std@@EV?$Local@VValue@v8@@@v8@@@std@@EEBAAEBVtype_info@@XZ 0000000180065940 f i _nodert_generated.obj
 0001:00064950       ?_Target_type@?$_Func_impl@V<lambda_83b1fcb4186f20aea46c3acfe9cc602f>@@V?$allocator@H@std@@V?$Local@VValue@v8@@@v8@@_K@std@@EEBAAEBVtype_info@@XZ 0000000180065950 f i _nodert_generated.obj
 0001:00064960       ?_Target_type@?$_Func_impl@V<lambda_84b2e0c4363fa3e0d326104f1bfe478b>@@V?$allocator@H@std@@V?$Local@VValue@v8@@@v8@@VRect@Foundation@Windows@@@std@@EEBAAEBVtype_info@@XZ 0000000180065960 f i _nodert_generated.obj
 0001:00064970       ?_Target_type@?$_Func_impl@V<lambda_84fd7a09210752e44ce3b30c4362cfc3>@@V?$allocator@H@std@@NV?$Local@VValue@v8@@@v8@@@std@@EEBAAEBVtype_info@@XZ 0000000180065970 f i _nodert_generated.obj
 0001:00064980       ?_Target_type@?$_Func_impl@V<lambda_850bde7442b4e67b57845066c808b7f9>@@V?$allocator@H@std@@PE$AAVObject@Platform@@V?$Local@VValue@v8@@@v8@@@std@@EEBAAEBVtype_info@@XZ 0000000180065980 f i _nodert_generated.obj
 0001:00064990       ?_Target_type@?$_Func_impl@V<lambda_869fcda5fb6a5846bfff7877657b9bfa>@@V?$allocator@H@std@@V?$Local@VValue@v8@@@v8@@VSize@Foundation@Windows@@@std@@EEBAAEBVtype_info@@XZ 0000000180065990 f i _nodert_generated.obj
 0001:000649a0       ?_Target_type@?$_Func_impl@V<lambda_8796f925c78479b1b7c806e10bb79f78>@@V?$allocator@H@std@@VDateTime@Foundation@Windows@@V?$Local@VValue@v8@@@v8@@@std@@EEBAAEBVtype_info@@XZ 00000001800659a0 f i _nodert_generated.obj
 0001:000649b0       ?_Target_type@?$_Func_impl@V<lambda_87b81f53a11b2260270b93c1cf969c92>@@V?$allocator@H@std@@V?$Local@VValue@v8@@@v8@@PE$AAVObject@Platform@@@std@@EEBAAEBVtype_info@@XZ 00000001800659b0 f i _nodert_generated.obj
 0001:000649c0       ?_Target_type@?$_Func_impl@V<lambda_8848d68499a2414cf86c123fb3614eb8>@@V?$allocator@H@std@@_NV?$Local@VValue@v8@@@v8@@@std@@EEBAAEBVtype_info@@XZ 00000001800659c0 f i _nodert_generated.obj
 0001:000649d0       ?_Target_type@?$_Func_impl@V<lambda_887ad2eff405dd476b737b781370f279>@@V?$allocator@H@std@@_NV?$Local@VValue@v8@@@v8@@@std@@EEBAAEBVtype_info@@XZ 00000001800659d0 f i _nodert_generated.obj
 0001:000649e0       ?_Target_type@?$_Func_impl@V<lambda_89e08a54281259c21902d424f1933673>@@V?$allocator@H@std@@V?$Local@VValue@v8@@@v8@@PE$AAVString@Platform@@@std@@EEBAAEBVtype_info@@XZ 00000001800659e0 f i _nodert_generated.obj
 0001:000649f0       ?_Target_type@?$_Func_impl@V<lambda_8cc4c964448f1ab867afe563cde0195a>@@V?$allocator@H@std@@_NV?$Local@VValue@v8@@@v8@@@std@@EEBAAEBVtype_info@@XZ 00000001800659f0 f i _nodert_generated.obj
 0001:00064a00       ?_Target_type@?$_Func_impl@V<lambda_92623ff20c13db631f5586c786dced01>@@V?$allocator@H@std@@_NV?$Local@VValue@v8@@@v8@@@std@@EEBAAEBVtype_info@@XZ 0000000180065a00 f i _nodert_generated.obj
 0001:00064a10       ?_Target_type@?$_Func_impl@V<lambda_94fb53d9eb5789303fb1844fcc906f11>@@V?$allocator@H@std@@VRect@Foundation@Windows@@V?$Local@VValue@v8@@@v8@@@std@@EEBAAEBVtype_info@@XZ 0000000180065a10 f i _nodert_generated.obj
 0001:00064a20       ?_Target_type@?$_Func_impl@V<lambda_9672cdc9e4b014dbcbf91e5133c0dbd3>@@V?$allocator@H@std@@_NV?$Local@VValue@v8@@@v8@@@std@@EEBAAEBVtype_info@@XZ 0000000180065a20 f i _nodert_generated.obj
 0001:00064a30       ?_Target_type@?$_Func_impl@V<lambda_9820cd0569d7d8d72231e1c382f4cbec>@@V?$allocator@H@std@@_KV?$Local@VValue@v8@@@v8@@@std@@EEBAAEBVtype_info@@XZ 0000000180065a30 f i _nodert_generated.obj
 0001:00064a40       ?_Target_type@?$_Func_impl@V<lambda_9bfdb60006a1ec41f610b605b2468382>@@V?$allocator@H@std@@_NV?$Local@VValue@v8@@@v8@@@std@@EEBAAEBVtype_info@@XZ 0000000180065a40 f i _nodert_generated.obj
 0001:00064a50       ?_Target_type@?$_Func_impl@V<lambda_9c9a4048442e80634ebbddb616dd1f3b>@@V?$allocator@H@std@@_NV?$Local@VValue@v8@@@v8@@@std@@EEBAAEBVtype_info@@XZ 0000000180065a50 f i _nodert_generated.obj
 0001:00064a60       ?_Target_type@?$_Func_impl@V<lambda_9cf6e4e7f125db49c1c32ddbe2eb0a4d>@@V?$allocator@H@std@@_NV?$Local@VValue@v8@@@v8@@@std@@EEBAAEBVtype_info@@XZ 0000000180065a60 f i _nodert_generated.obj
 0001:00064a70       ?_Target_type@?$_Func_impl@V<lambda_a7fcc7bff8b4e788cd856f0c61e20b2a>@@V?$allocator@H@std@@_NV?$Local@VValue@v8@@@v8@@@std@@EEBAAEBVtype_info@@XZ 0000000180065a70 f i _nodert_generated.obj
 0001:00064a80       ?_Target_type@?$_Func_impl@V<lambda_a7fdbe3470001a55490e011ae759a283>@@V?$allocator@H@std@@_NV?$Local@VValue@v8@@@v8@@@std@@EEBAAEBVtype_info@@XZ 0000000180065a80 f i _nodert_generated.obj
 0001:00064a90       ?_Target_type@?$_Func_impl@V<lambda_ac08df06aa310a4e928a20d8258eeb0f>@@V?$allocator@H@std@@_WV?$Local@VValue@v8@@@v8@@@std@@EEBAAEBVtype_info@@XZ 0000000180065a90 f i _nodert_generated.obj
 0001:00064aa0       ?_Target_type@?$_Func_impl@V<lambda_aee639b1773f933f11f2991db91be573>@@V?$allocator@H@std@@_NV?$Local@VValue@v8@@@v8@@@std@@EEBAAEBVtype_info@@XZ 0000000180065aa0 f i _nodert_generated.obj
 0001:00064ab0       ?_Target_type@?$_Func_impl@V<lambda_af8f1bc116e1c082454975c28c37d169>@@V?$allocator@H@std@@V?$Local@VValue@v8@@@v8@@VDateTime@Foundation@Windows@@@std@@EEBAAEBVtype_info@@XZ 0000000180065ab0 f i _nodert_generated.obj
 0001:00064ac0       ?_Target_type@?$_Func_impl@V<lambda_afb547083691b212e8d4aa49e8f152dc>@@V?$allocator@H@std@@IV?$Local@VValue@v8@@@v8@@@std@@EEBAAEBVtype_info@@XZ 0000000180065ac0 f i _nodert_generated.obj
 0001:00064ad0       ?_Target_type@?$_Func_impl@V<lambda_afc532daf9db0f32af6faaf05d4e9f6b>@@V?$allocator@H@std@@_NV?$Local@VValue@v8@@@v8@@@std@@EEBAAEBVtype_info@@XZ 0000000180065ad0 f i _nodert_generated.obj
 0001:00064ae0       ?_Target_type@?$_Func_impl@V<lambda_b4a69b6e96ded561cf6125ba4d203b82>@@V?$allocator@H@std@@_NV?$Local@VValue@v8@@@v8@@@std@@EEBAAEBVtype_info@@XZ 0000000180065ae0 f i _nodert_generated.obj
 0001:00064af0       ?_Target_type@?$_Func_impl@V<lambda_b5637107c4580816204b759de0971b79>@@V?$allocator@H@std@@_NV?$Local@VValue@v8@@@v8@@@std@@EEBAAEBVtype_info@@XZ 0000000180065af0 f i _nodert_generated.obj
 0001:00064b00       ?_Target_type@?$_Func_impl@V<lambda_b5f65513cf849cab43a1ee50fc875b24>@@V?$allocator@H@std@@_JV?$Local@VValue@v8@@@v8@@@std@@EEBAAEBVtype_info@@XZ 0000000180065b00 f i _nodert_generated.obj
 0001:00064b10       ?_Target_type@?$_Func_impl@V<lambda_ba18901838a49873ef872203bc8527ed>@@V?$allocator@H@std@@VTimeSpan@Foundation@Windows@@V?$Local@VValue@v8@@@v8@@@std@@EEBAAEBVtype_info@@XZ 0000000180065b10 f i _nodert_generated.obj
 0001:00064b20       ?_Target_type@?$_Func_impl@V<lambda_ba501eccc9f8b1b5af390e9859e4df50>@@V?$allocator@H@std@@_NV?$Local@VValue@v8@@@v8@@@std@@EEBAAEBVtype_info@@XZ 0000000180065b20 f i _nodert_generated.obj
 0001:00064b30       ?_Target_type@?$_Func_impl@V<lambda_c05df627370d555cba9793685713e009>@@V?$allocator@H@std@@_NV?$Local@VValue@v8@@@v8@@@std@@EEBAAEBVtype_info@@XZ 0000000180065b30 f i _nodert_generated.obj
 0001:00064b40       ?_Target_type@?$_Func_impl@V<lambda_c1fd914ce11cd788f293e2affcb004ac>@@V?$allocator@H@std@@_NV?$Local@VValue@v8@@@v8@@@std@@EEBAAEBVtype_info@@XZ 0000000180065b40 f i _nodert_generated.obj
 0001:00064b50       ?_Target_type@?$_Func_impl@V<lambda_c3c7f1a5ff36149a57df8b77f7ff9d56>@@V?$allocator@H@std@@_NV?$Local@VValue@v8@@@v8@@@std@@EEBAAEBVtype_info@@XZ 0000000180065b50 f i _nodert_generated.obj
 0001:00064b60       ?_Target_type@?$_Func_impl@V<lambda_c4f22aece8058882bda5332e2dc6094a>@@V?$allocator@H@std@@VDateTime@Foundation@Windows@@V?$Local@VValue@v8@@@v8@@@std@@EEBAAEBVtype_info@@XZ 0000000180065b60 f i _nodert_generated.obj
 0001:00064b70       ?_Target_type@?$_Func_impl@V<lambda_cc5efef53f4517305ade5f31acbea296>@@V?$allocator@H@std@@IV?$Local@VValue@v8@@@v8@@@std@@EEBAAEBVtype_info@@XZ 0000000180065b70 f i _nodert_generated.obj
 0001:00064b80       ?_Target_type@?$_Func_impl@V<lambda_cd976d3bc4167928884ff6ab7e49b008>@@V?$allocator@H@std@@_NV?$Local@VValue@v8@@@v8@@@std@@EEBAAEBVtype_info@@XZ 0000000180065b80 f i _nodert_generated.obj
 0001:00064b90       ?_Target_type@?$_Func_impl@V<lambda_cff40d32a985611151f5519d503397a0>@@V?$allocator@H@std@@_JV?$Local@VValue@v8@@@v8@@@std@@EEBAAEBVtype_info@@XZ 0000000180065b90 f i _nodert_generated.obj
 0001:00064ba0       ?_Target_type@?$_Func_impl@V<lambda_d0fcbf2defc252ec422e9f26646483b5>@@V?$allocator@H@std@@V?$Local@VValue@v8@@@v8@@VGuid@Platform@@@std@@EEBAAEBVtype_info@@XZ 0000000180065ba0 f i _nodert_generated.obj
 0001:00064bb0       ?_Target_type@?$_Func_impl@V<lambda_d2919f705a79fe292d147c7f75386c54>@@V?$allocator@H@std@@V?$Local@VValue@v8@@@v8@@I@std@@EEBAAEBVtype_info@@XZ 0000000180065bb0 f i _nodert_generated.obj
 0001:00064bc0       ?_Target_type@?$_Func_impl@V<lambda_d38773f6115850a0f88ad40409222155>@@V?$allocator@H@std@@PE$AAVString@Platform@@V?$Local@VValue@v8@@@v8@@@std@@EEBAAEBVtype_info@@XZ 0000000180065bc0 f i _nodert_generated.obj
 0001:00064bd0       ?_Target_type@?$_Func_impl@V<lambda_d9a2021dc18302479b39067d57580088>@@V?$allocator@H@std@@_NV?$Local@VValue@v8@@@v8@@@std@@EEBAAEBVtype_info@@XZ 0000000180065bd0 f i _nodert_generated.obj
 0001:00064be0       ?_Target_type@?$_Func_impl@V<lambda_ddaf005d09ec384ca5fa84afb99ce47b>@@V?$allocator@H@std@@HV?$Local@VValue@v8@@@v8@@@std@@EEBAAEBVtype_info@@XZ 0000000180065be0 f i _nodert_generated.obj
 0001:00064bf0       ?_Target_type@?$_Func_impl@V<lambda_e032bc00ab801c27aecda7b3122fc71e>@@V?$allocator@H@std@@_NV?$Local@VValue@v8@@@v8@@@std@@EEBAAEBVtype_info@@XZ 0000000180065bf0 f i _nodert_generated.obj
 0001:00064c00       ?_Target_type@?$_Func_impl@V<lambda_e2139a87d96ba7d6c29afa27b25c7b3b>@@V?$allocator@H@std@@PE$AAVObject@Platform@@V?$Local@VValue@v8@@@v8@@@std@@EEBAAEBVtype_info@@XZ 0000000180065c00 f i _nodert_generated.obj
 0001:00064c10       ?_Target_type@?$_Func_impl@V<lambda_e660ce246b8692358554355363d2bbdb>@@V?$allocator@H@std@@V?$Local@VValue@v8@@@v8@@_N@std@@EEBAAEBVtype_info@@XZ 0000000180065c10 f i _nodert_generated.obj
 0001:00064c20       ?_Target_type@?$_Func_impl@V<lambda_e75a6b3f366d9824e9ae5182076f5b6f>@@V?$allocator@H@std@@VRect@Foundation@Windows@@V?$Local@VValue@v8@@@v8@@@std@@EEBAAEBVtype_info@@XZ 0000000180065c20 f i _nodert_generated.obj
 0001:00064c30       ?_Target_type@?$_Func_impl@V<lambda_ef1ce463e0c6d80f6679263f728ba338>@@V?$allocator@H@std@@_KV?$Local@VValue@v8@@@v8@@@std@@EEBAAEBVtype_info@@XZ 0000000180065c30 f i _nodert_generated.obj
 0001:00064c40       ?_Target_type@?$_Func_impl@V<lambda_f32f40989460573471116a7ae5eddb2d>@@V?$allocator@H@std@@_NV?$Local@VValue@v8@@@v8@@@std@@EEBAAEBVtype_info@@XZ 0000000180065c40 f i _nodert_generated.obj
 0001:00064c50       ?_Target_type@?$_Func_impl@V<lambda_f5823fd85b22dbcb9c101b6af88ccd65>@@V?$allocator@H@std@@V?$Local@VValue@v8@@@v8@@H@std@@EEBAAEBVtype_info@@XZ 0000000180065c50 f i _nodert_generated.obj
 0001:00064c60       ?_Target_type@?$_Func_impl@V<lambda_fc6b419b9a8c42f3e377d86c94f5a923>@@V?$allocator@H@std@@V?$Local@VValue@v8@@@v8@@_W@std@@EEBAAEBVtype_info@@XZ 0000000180065c60 f i _nodert_generated.obj
 0001:00064c70       ?_Target_type@?$_Func_impl@V<lambda_fe199ffbdb9f25806abc0becd00fdcce>@@V?$allocator@H@std@@FV?$Local@VValue@v8@@@v8@@@std@@EEBAAEBVtype_info@@XZ 0000000180065c70 f i _nodert_generated.obj
 0001:00064c80       ?_Target_type@?$_Func_impl@V<lambda_fe5e5aeaacbd6446ef87ebbc8092b4a0>@@V?$allocator@H@std@@_NV?$Local@VValue@v8@@@v8@@@std@@EEBAAEBVtype_info@@XZ 0000000180065c80 f i _nodert_generated.obj
 0001:00064c90       ?__abi_AddRef@?$TypedEventHandler@PE$AAUIMemoryBufferReference@Foundation@Windows@@PE$AAVObject@Platform@@@Foundation@Windows@@UE$AAAKXZ 0000000180065c90 f i _nodert_generated.obj
 0001:00064cc4       ?__abi_AddRef@?$TypedEventHandler@PE$AAUIMemoryBufferReference@Foundation@Windows@@PE$AAVObject@Platform@@@Foundation@Windows@@W7E$AAAKXZ 0000000180065cc4 f i _nodert_generated.obj
 0001:00064cd0       ?__abi_AddRef@?$TypedEventHandler@PE$AAUIMemoryBufferReference@Foundation@Windows@@PE$AAVObject@Platform@@@Foundation@Windows@@WBA@E$AAAKXZ 0000000180065cd0 f i _nodert_generated.obj
 0001:00064ce0       ?__abi_AddRef@?QObject@Platform@@?$Array@E$00@2@UE$AAAKXZ 0000000180065ce0 f i _nodert_generated.obj
 0001:00064d14       ?__abi_AddRef@?QObject@Platform@@?$Array@E$00@2@W7E$AAAKXZ 0000000180065d14 f i _nodert_generated.obj
 0001:00064d20       ?__abi_AddRef@?QObject@Platform@@?$Array@E$00@2@WBA@E$AAAKXZ 0000000180065d20 f i _nodert_generated.obj
 0001:00064d2c       ?__abi_AddRef@?QObject@Platform@@?$Array@E$00@2@WBI@E$AAAKXZ 0000000180065d2c f i _nodert_generated.obj
 0001:00064d38       ?__abi_AddRef@?QObject@Platform@@?$Array@E$00@2@WCA@E$AAAKXZ 0000000180065d38 f i _nodert_generated.obj
 0001:00064d44       ?__abi_AddRef@?QObject@Platform@@?$Array@E$00@2@WCI@E$AAAKXZ 0000000180065d44 f i _nodert_generated.obj
 0001:00064d50       ?__abi_AddRef@?QObject@Platform@@?$Array@E$00@2@WDA@E$AAAKXZ 0000000180065d50 f i _nodert_generated.obj
 0001:00064d5c       ?__abi_AddRef@?QObject@Platform@@?$Array@E$00@2@WDI@E$AAAKXZ 0000000180065d5c f i _nodert_generated.obj
 0001:00064d68       ?__abi_AddRef@?QObject@Platform@@?$Array@E$00@2@WEA@E$AAAKXZ 0000000180065d68 f i _nodert_generated.obj
 0001:00064d74       ?__abi_AddRef@?QObject@Platform@@?$Array@E$00@2@WHA@E$AAAKXZ 0000000180065d74 f i _nodert_generated.obj
 0001:00064d80       ?__abi_AddRef@?QObject@Platform@@?$Array@E$00@2@WHI@E$AAAKXZ 0000000180065d80 f i _nodert_generated.obj
 0001:00064d90       ?__abi_AddRef@?QObject@Platform@@?$Array@F$00@2@UE$AAAKXZ 0000000180065d90 f i _nodert_generated.obj
 0001:00064dc4       ?__abi_AddRef@?QObject@Platform@@?$Array@F$00@2@W7E$AAAKXZ 0000000180065dc4 f i _nodert_generated.obj
 0001:00064dd0       ?__abi_AddRef@?QObject@Platform@@?$Array@F$00@2@WBA@E$AAAKXZ 0000000180065dd0 f i _nodert_generated.obj
 0001:00064ddc       ?__abi_AddRef@?QObject@Platform@@?$Array@F$00@2@WBI@E$AAAKXZ 0000000180065ddc f i _nodert_generated.obj
 0001:00064de8       ?__abi_AddRef@?QObject@Platform@@?$Array@F$00@2@WCA@E$AAAKXZ 0000000180065de8 f i _nodert_generated.obj
 0001:00064df4       ?__abi_AddRef@?QObject@Platform@@?$Array@F$00@2@WCI@E$AAAKXZ 0000000180065df4 f i _nodert_generated.obj
 0001:00064e00       ?__abi_AddRef@?QObject@Platform@@?$Array@F$00@2@WDA@E$AAAKXZ 0000000180065e00 f i _nodert_generated.obj
 0001:00064e0c       ?__abi_AddRef@?QObject@Platform@@?$Array@F$00@2@WDI@E$AAAKXZ 0000000180065e0c f i _nodert_generated.obj
 0001:00064e18       ?__abi_AddRef@?QObject@Platform@@?$Array@F$00@2@WEA@E$AAAKXZ 0000000180065e18 f i _nodert_generated.obj
 0001:00064e24       ?__abi_AddRef@?QObject@Platform@@?$Array@F$00@2@WHA@E$AAAKXZ 0000000180065e24 f i _nodert_generated.obj
 0001:00064e30       ?__abi_AddRef@?QObject@Platform@@?$Array@F$00@2@WHI@E$AAAKXZ 0000000180065e30 f i _nodert_generated.obj
 0001:00064e40       ?__abi_AddRef@?QObject@Platform@@?$Array@G$00@2@UE$AAAKXZ 0000000180065e40 f i _nodert_generated.obj
 0001:00064e74       ?__abi_AddRef@?QObject@Platform@@?$Array@G$00@2@W7E$AAAKXZ 0000000180065e74 f i _nodert_generated.obj
 0001:00064e80       ?__abi_AddRef@?QObject@Platform@@?$Array@G$00@2@WBA@E$AAAKXZ 0000000180065e80 f i _nodert_generated.obj
 0001:00064e8c       ?__abi_AddRef@?QObject@Platform@@?$Array@G$00@2@WBI@E$AAAKXZ 0000000180065e8c f i _nodert_generated.obj
 0001:00064e98       ?__abi_AddRef@?QObject@Platform@@?$Array@G$00@2@WCA@E$AAAKXZ 0000000180065e98 f i _nodert_generated.obj
 0001:00064ea4       ?__abi_AddRef@?QObject@Platform@@?$Array@G$00@2@WCI@E$AAAKXZ 0000000180065ea4 f i _nodert_generated.obj
 0001:00064eb0       ?__abi_AddRef@?QObject@Platform@@?$Array@G$00@2@WDA@E$AAAKXZ 0000000180065eb0 f i _nodert_generated.obj
 0001:00064ebc       ?__abi_AddRef@?QObject@Platform@@?$Array@G$00@2@WDI@E$AAAKXZ 0000000180065ebc f i _nodert_generated.obj
 0001:00064ec8       ?__abi_AddRef@?QObject@Platform@@?$Array@G$00@2@WEA@E$AAAKXZ 0000000180065ec8 f i _nodert_generated.obj
 0001:00064ed4       ?__abi_AddRef@?QObject@Platform@@?$Array@G$00@2@WHA@E$AAAKXZ 0000000180065ed4 f i _nodert_generated.obj
 0001:00064ee0       ?__abi_AddRef@?QObject@Platform@@?$Array@G$00@2@WHI@E$AAAKXZ 0000000180065ee0 f i _nodert_generated.obj
 0001:00064ef0       ?__abi_AddRef@?QObject@Platform@@?$Array@H$00@2@UE$AAAKXZ 0000000180065ef0 f i _nodert_generated.obj
 0001:00064f24       ?__abi_AddRef@?QObject@Platform@@?$Array@H$00@2@W7E$AAAKXZ 0000000180065f24 f i _nodert_generated.obj
 0001:00064f30       ?__abi_AddRef@?QObject@Platform@@?$Array@H$00@2@WBA@E$AAAKXZ 0000000180065f30 f i _nodert_generated.obj
 0001:00064f3c       ?__abi_AddRef@?QObject@Platform@@?$Array@H$00@2@WBI@E$AAAKXZ 0000000180065f3c f i _nodert_generated.obj
 0001:00064f48       ?__abi_AddRef@?QObject@Platform@@?$Array@H$00@2@WCA@E$AAAKXZ 0000000180065f48 f i _nodert_generated.obj
 0001:00064f54       ?__abi_AddRef@?QObject@Platform@@?$Array@H$00@2@WCI@E$AAAKXZ 0000000180065f54 f i _nodert_generated.obj
 0001:00064f60       ?__abi_AddRef@?QObject@Platform@@?$Array@H$00@2@WDA@E$AAAKXZ 0000000180065f60 f i _nodert_generated.obj
 0001:00064f6c       ?__abi_AddRef@?QObject@Platform@@?$Array@H$00@2@WDI@E$AAAKXZ 0000000180065f6c f i _nodert_generated.obj
 0001:00064f78       ?__abi_AddRef@?QObject@Platform@@?$Array@H$00@2@WEA@E$AAAKXZ 0000000180065f78 f i _nodert_generated.obj
 0001:00064f84       ?__abi_AddRef@?QObject@Platform@@?$Array@H$00@2@WHA@E$AAAKXZ 0000000180065f84 f i _nodert_generated.obj
 0001:00064f90       ?__abi_AddRef@?QObject@Platform@@?$Array@H$00@2@WHI@E$AAAKXZ 0000000180065f90 f i _nodert_generated.obj
 0001:00064fa0       ?__abi_AddRef@?QObject@Platform@@?$Array@I$00@2@UE$AAAKXZ 0000000180065fa0 f i _nodert_generated.obj
 0001:00064fd4       ?__abi_AddRef@?QObject@Platform@@?$Array@I$00@2@W7E$AAAKXZ 0000000180065fd4 f i _nodert_generated.obj
 0001:00064fe0       ?__abi_AddRef@?QObject@Platform@@?$Array@I$00@2@WBA@E$AAAKXZ 0000000180065fe0 f i _nodert_generated.obj
 0001:00064fec       ?__abi_AddRef@?QObject@Platform@@?$Array@I$00@2@WBI@E$AAAKXZ 0000000180065fec f i _nodert_generated.obj
 0001:00064ff8       ?__abi_AddRef@?QObject@Platform@@?$Array@I$00@2@WCA@E$AAAKXZ 0000000180065ff8 f i _nodert_generated.obj
 0001:00065004       ?__abi_AddRef@?QObject@Platform@@?$Array@I$00@2@WCI@E$AAAKXZ 0000000180066004 f i _nodert_generated.obj
 0001:00065010       ?__abi_AddRef@?QObject@Platform@@?$Array@I$00@2@WDA@E$AAAKXZ 0000000180066010 f i _nodert_generated.obj
 0001:0006501c       ?__abi_AddRef@?QObject@Platform@@?$Array@I$00@2@WDI@E$AAAKXZ 000000018006601c f i _nodert_generated.obj
 0001:00065028       ?__abi_AddRef@?QObject@Platform@@?$Array@I$00@2@WEA@E$AAAKXZ 0000000180066028 f i _nodert_generated.obj
 0001:00065034       ?__abi_AddRef@?QObject@Platform@@?$Array@I$00@2@WHA@E$AAAKXZ 0000000180066034 f i _nodert_generated.obj
 0001:00065040       ?__abi_AddRef@?QObject@Platform@@?$Array@I$00@2@WHI@E$AAAKXZ 0000000180066040 f i _nodert_generated.obj
 0001:00065050       ?__abi_AddRef@?QObject@Platform@@?$Array@M$00@2@UE$AAAKXZ 0000000180066050 f i _nodert_generated.obj
 0001:00065084       ?__abi_AddRef@?QObject@Platform@@?$Array@M$00@2@W7E$AAAKXZ 0000000180066084 f i _nodert_generated.obj
 0001:00065090       ?__abi_AddRef@?QObject@Platform@@?$Array@M$00@2@WBA@E$AAAKXZ 0000000180066090 f i _nodert_generated.obj
 0001:0006509c       ?__abi_AddRef@?QObject@Platform@@?$Array@M$00@2@WBI@E$AAAKXZ 000000018006609c f i _nodert_generated.obj
 0001:000650a8       ?__abi_AddRef@?QObject@Platform@@?$Array@M$00@2@WCA@E$AAAKXZ 00000001800660a8 f i _nodert_generated.obj
 0001:000650b4       ?__abi_AddRef@?QObject@Platform@@?$Array@M$00@2@WCI@E$AAAKXZ 00000001800660b4 f i _nodert_generated.obj
 0001:000650c0       ?__abi_AddRef@?QObject@Platform@@?$Array@M$00@2@WDA@E$AAAKXZ 00000001800660c0 f i _nodert_generated.obj
 0001:000650cc       ?__abi_AddRef@?QObject@Platform@@?$Array@M$00@2@WDI@E$AAAKXZ 00000001800660cc f i _nodert_generated.obj
 0001:000650d8       ?__abi_AddRef@?QObject@Platform@@?$Array@M$00@2@WEA@E$AAAKXZ 00000001800660d8 f i _nodert_generated.obj
 0001:000650e4       ?__abi_AddRef@?QObject@Platform@@?$Array@M$00@2@WHA@E$AAAKXZ 00000001800660e4 f i _nodert_generated.obj
 0001:000650f0       ?__abi_AddRef@?QObject@Platform@@?$Array@M$00@2@WHI@E$AAAKXZ 00000001800660f0 f i _nodert_generated.obj
 0001:00065100       ?__abi_AddRef@?QObject@Platform@@?$Array@N$00@2@UE$AAAKXZ 0000000180066100 f i _nodert_generated.obj
 0001:00065134       ?__abi_AddRef@?QObject@Platform@@?$Array@N$00@2@W7E$AAAKXZ 0000000180066134 f i _nodert_generated.obj
 0001:00065140       ?__abi_AddRef@?QObject@Platform@@?$Array@N$00@2@WBA@E$AAAKXZ 0000000180066140 f i _nodert_generated.obj
 0001:0006514c       ?__abi_AddRef@?QObject@Platform@@?$Array@N$00@2@WBI@E$AAAKXZ 000000018006614c f i _nodert_generated.obj
 0001:00065158       ?__abi_AddRef@?QObject@Platform@@?$Array@N$00@2@WCA@E$AAAKXZ 0000000180066158 f i _nodert_generated.obj
 0001:00065164       ?__abi_AddRef@?QObject@Platform@@?$Array@N$00@2@WCI@E$AAAKXZ 0000000180066164 f i _nodert_generated.obj
 0001:00065170       ?__abi_AddRef@?QObject@Platform@@?$Array@N$00@2@WDA@E$AAAKXZ 0000000180066170 f i _nodert_generated.obj
 0001:0006517c       ?__abi_AddRef@?QObject@Platform@@?$Array@N$00@2@WDI@E$AAAKXZ 000000018006617c f i _nodert_generated.obj
 0001:00065188       ?__abi_AddRef@?QObject@Platform@@?$Array@N$00@2@WEA@E$AAAKXZ 0000000180066188 f i _nodert_generated.obj
 0001:00065194       ?__abi_AddRef@?QObject@Platform@@?$Array@N$00@2@WHA@E$AAAKXZ 0000000180066194 f i _nodert_generated.obj
 0001:000651a0       ?__abi_AddRef@?QObject@Platform@@?$Array@N$00@2@WHI@E$AAAKXZ 00000001800661a0 f i _nodert_generated.obj
 0001:000651b0       ?__abi_AddRef@?QObject@Platform@@?$Array@PE$AAVObject@Platform@@$00@2@UE$AAAKXZ 00000001800661b0 f i _nodert_generated.obj
 0001:000651e4       ?__abi_AddRef@?QObject@Platform@@?$Array@PE$AAVObject@Platform@@$00@2@W7E$AAAKXZ 00000001800661e4 f i _nodert_generated.obj
 0001:000651f0       ?__abi_AddRef@?QObject@Platform@@?$Array@PE$AAVObject@Platform@@$00@2@WBA@E$AAAKXZ 00000001800661f0 f i _nodert_generated.obj
 0001:000651fc       ?__abi_AddRef@?QObject@Platform@@?$Array@PE$AAVObject@Platform@@$00@2@WBI@E$AAAKXZ 00000001800661fc f i _nodert_generated.obj
 0001:00065208       ?__abi_AddRef@?QObject@Platform@@?$Array@PE$AAVObject@Platform@@$00@2@WCA@E$AAAKXZ 0000000180066208 f i _nodert_generated.obj
 0001:00065214       ?__abi_AddRef@?QObject@Platform@@?$Array@PE$AAVObject@Platform@@$00@2@WCI@E$AAAKXZ 0000000180066214 f i _nodert_generated.obj
 0001:00065220       ?__abi_AddRef@?QObject@Platform@@?$Array@PE$AAVObject@Platform@@$00@2@WDA@E$AAAKXZ 0000000180066220 f i _nodert_generated.obj
 0001:0006522c       ?__abi_AddRef@?QObject@Platform@@?$Array@PE$AAVObject@Platform@@$00@2@WDI@E$AAAKXZ 000000018006622c f i _nodert_generated.obj
 0001:00065238       ?__abi_AddRef@?QObject@Platform@@?$Array@PE$AAVObject@Platform@@$00@2@WEA@E$AAAKXZ 0000000180066238 f i _nodert_generated.obj
 0001:00065244       ?__abi_AddRef@?QObject@Platform@@?$Array@PE$AAVObject@Platform@@$00@2@WHA@E$AAAKXZ 0000000180066244 f i _nodert_generated.obj
 0001:00065250       ?__abi_AddRef@?QObject@Platform@@?$Array@PE$AAVObject@Platform@@$00@2@WHI@E$AAAKXZ 0000000180066250 f i _nodert_generated.obj
 0001:00065260       ?__abi_AddRef@?QObject@Platform@@?$Array@PE$AAVString@Platform@@$00@2@UE$AAAKXZ 0000000180066260 f i _nodert_generated.obj
 0001:00065294       ?__abi_AddRef@?QObject@Platform@@?$Array@PE$AAVString@Platform@@$00@2@W7E$AAAKXZ 0000000180066294 f i _nodert_generated.obj
 0001:000652a0       ?__abi_AddRef@?QObject@Platform@@?$Array@PE$AAVString@Platform@@$00@2@WBA@E$AAAKXZ 00000001800662a0 f i _nodert_generated.obj
 0001:000652ac       ?__abi_AddRef@?QObject@Platform@@?$Array@PE$AAVString@Platform@@$00@2@WBI@E$AAAKXZ 00000001800662ac f i _nodert_generated.obj
 0001:000652b8       ?__abi_AddRef@?QObject@Platform@@?$Array@PE$AAVString@Platform@@$00@2@WCA@E$AAAKXZ 00000001800662b8 f i _nodert_generated.obj
 0001:000652c4       ?__abi_AddRef@?QObject@Platform@@?$Array@PE$AAVString@Platform@@$00@2@WCI@E$AAAKXZ 00000001800662c4 f i _nodert_generated.obj
 0001:000652d0       ?__abi_AddRef@?QObject@Platform@@?$Array@PE$AAVString@Platform@@$00@2@WDA@E$AAAKXZ 00000001800662d0 f i _nodert_generated.obj
 0001:000652dc       ?__abi_AddRef@?QObject@Platform@@?$Array@PE$AAVString@Platform@@$00@2@WDI@E$AAAKXZ 00000001800662dc f i _nodert_generated.obj
 0001:000652e8       ?__abi_AddRef@?QObject@Platform@@?$Array@PE$AAVString@Platform@@$00@2@WEA@E$AAAKXZ 00000001800662e8 f i _nodert_generated.obj
 0001:000652f4       ?__abi_AddRef@?QObject@Platform@@?$Array@PE$AAVString@Platform@@$00@2@WHA@E$AAAKXZ 00000001800662f4 f i _nodert_generated.obj
 0001:00065300       ?__abi_AddRef@?QObject@Platform@@?$Array@PE$AAVString@Platform@@$00@2@WHI@E$AAAKXZ 0000000180066300 f i _nodert_generated.obj
 0001:00065310       ?__abi_AddRef@?QObject@Platform@@?$Array@VDateTime@Foundation@Windows@@$00@2@UE$AAAKXZ 0000000180066310 f i _nodert_generated.obj
 0001:00065344       ?__abi_AddRef@?QObject@Platform@@?$Array@VDateTime@Foundation@Windows@@$00@2@W7E$AAAKXZ 0000000180066344 f i _nodert_generated.obj
 0001:00065350       ?__abi_AddRef@?QObject@Platform@@?$Array@VDateTime@Foundation@Windows@@$00@2@WBA@E$AAAKXZ 0000000180066350 f i _nodert_generated.obj
 0001:0006535c       ?__abi_AddRef@?QObject@Platform@@?$Array@VDateTime@Foundation@Windows@@$00@2@WBI@E$AAAKXZ 000000018006635c f i _nodert_generated.obj
 0001:00065368       ?__abi_AddRef@?QObject@Platform@@?$Array@VDateTime@Foundation@Windows@@$00@2@WCA@E$AAAKXZ 0000000180066368 f i _nodert_generated.obj
 0001:00065374       ?__abi_AddRef@?QObject@Platform@@?$Array@VDateTime@Foundation@Windows@@$00@2@WCI@E$AAAKXZ 0000000180066374 f i _nodert_generated.obj
 0001:00065380       ?__abi_AddRef@?QObject@Platform@@?$Array@VDateTime@Foundation@Windows@@$00@2@WDA@E$AAAKXZ 0000000180066380 f i _nodert_generated.obj
 0001:0006538c       ?__abi_AddRef@?QObject@Platform@@?$Array@VDateTime@Foundation@Windows@@$00@2@WDI@E$AAAKXZ 000000018006638c f i _nodert_generated.obj
 0001:00065398       ?__abi_AddRef@?QObject@Platform@@?$Array@VDateTime@Foundation@Windows@@$00@2@WEA@E$AAAKXZ 0000000180066398 f i _nodert_generated.obj
 0001:000653a4       ?__abi_AddRef@?QObject@Platform@@?$Array@VDateTime@Foundation@Windows@@$00@2@WHA@E$AAAKXZ 00000001800663a4 f i _nodert_generated.obj
 0001:000653b0       ?__abi_AddRef@?QObject@Platform@@?$Array@VDateTime@Foundation@Windows@@$00@2@WHI@E$AAAKXZ 00000001800663b0 f i _nodert_generated.obj
 0001:000653c0       ?__abi_AddRef@?QObject@Platform@@?$Array@VGuid@Platform@@$00@2@UE$AAAKXZ 00000001800663c0 f i _nodert_generated.obj
 0001:000653f4       ?__abi_AddRef@?QObject@Platform@@?$Array@VGuid@Platform@@$00@2@W7E$AAAKXZ 00000001800663f4 f i _nodert_generated.obj
 0001:00065400       ?__abi_AddRef@?QObject@Platform@@?$Array@VGuid@Platform@@$00@2@WBA@E$AAAKXZ 0000000180066400 f i _nodert_generated.obj
 0001:0006540c       ?__abi_AddRef@?QObject@Platform@@?$Array@VGuid@Platform@@$00@2@WBI@E$AAAKXZ 000000018006640c f i _nodert_generated.obj
 0001:00065418       ?__abi_AddRef@?QObject@Platform@@?$Array@VGuid@Platform@@$00@2@WCA@E$AAAKXZ 0000000180066418 f i _nodert_generated.obj
 0001:00065424       ?__abi_AddRef@?QObject@Platform@@?$Array@VGuid@Platform@@$00@2@WCI@E$AAAKXZ 0000000180066424 f i _nodert_generated.obj
 0001:00065430       ?__abi_AddRef@?QObject@Platform@@?$Array@VGuid@Platform@@$00@2@WDA@E$AAAKXZ 0000000180066430 f i _nodert_generated.obj
 0001:0006543c       ?__abi_AddRef@?QObject@Platform@@?$Array@VGuid@Platform@@$00@2@WDI@E$AAAKXZ 000000018006643c f i _nodert_generated.obj
 0001:00065448       ?__abi_AddRef@?QObject@Platform@@?$Array@VGuid@Platform@@$00@2@WEA@E$AAAKXZ 0000000180066448 f i _nodert_generated.obj
 0001:00065454       ?__abi_AddRef@?QObject@Platform@@?$Array@VGuid@Platform@@$00@2@WHA@E$AAAKXZ 0000000180066454 f i _nodert_generated.obj
 0001:00065460       ?__abi_AddRef@?QObject@Platform@@?$Array@VGuid@Platform@@$00@2@WHI@E$AAAKXZ 0000000180066460 f i _nodert_generated.obj
 0001:00065470       ?__abi_AddRef@?QObject@Platform@@?$Array@VPoint@Foundation@Windows@@$00@2@UE$AAAKXZ 0000000180066470 f i _nodert_generated.obj
 0001:000654a4       ?__abi_AddRef@?QObject@Platform@@?$Array@VPoint@Foundation@Windows@@$00@2@W7E$AAAKXZ 00000001800664a4 f i _nodert_generated.obj
 0001:000654b0       ?__abi_AddRef@?QObject@Platform@@?$Array@VPoint@Foundation@Windows@@$00@2@WBA@E$AAAKXZ 00000001800664b0 f i _nodert_generated.obj
 0001:000654bc       ?__abi_AddRef@?QObject@Platform@@?$Array@VPoint@Foundation@Windows@@$00@2@WBI@E$AAAKXZ 00000001800664bc f i _nodert_generated.obj
 0001:000654c8       ?__abi_AddRef@?QObject@Platform@@?$Array@VPoint@Foundation@Windows@@$00@2@WCA@E$AAAKXZ 00000001800664c8 f i _nodert_generated.obj
 0001:000654d4       ?__abi_AddRef@?QObject@Platform@@?$Array@VPoint@Foundation@Windows@@$00@2@WCI@E$AAAKXZ 00000001800664d4 f i _nodert_generated.obj
 0001:000654e0       ?__abi_AddRef@?QObject@Platform@@?$Array@VPoint@Foundation@Windows@@$00@2@WDA@E$AAAKXZ 00000001800664e0 f i _nodert_generated.obj
 0001:000654ec       ?__abi_AddRef@?QObject@Platform@@?$Array@VPoint@Foundation@Windows@@$00@2@WDI@E$AAAKXZ 00000001800664ec f i _nodert_generated.obj
 0001:000654f8       ?__abi_AddRef@?QObject@Platform@@?$Array@VPoint@Foundation@Windows@@$00@2@WEA@E$AAAKXZ 00000001800664f8 f i _nodert_generated.obj
 0001:00065504       ?__abi_AddRef@?QObject@Platform@@?$Array@VPoint@Foundation@Windows@@$00@2@WHA@E$AAAKXZ 0000000180066504 f i _nodert_generated.obj
 0001:00065510       ?__abi_AddRef@?QObject@Platform@@?$Array@VPoint@Foundation@Windows@@$00@2@WHI@E$AAAKXZ 0000000180066510 f i _nodert_generated.obj
 0001:00065520       ?__abi_AddRef@?QObject@Platform@@?$Array@VRect@Foundation@Windows@@$00@2@UE$AAAKXZ 0000000180066520 f i _nodert_generated.obj
 0001:00065554       ?__abi_AddRef@?QObject@Platform@@?$Array@VRect@Foundation@Windows@@$00@2@W7E$AAAKXZ 0000000180066554 f i _nodert_generated.obj
 0001:00065560       ?__abi_AddRef@?QObject@Platform@@?$Array@VRect@Foundation@Windows@@$00@2@WBA@E$AAAKXZ 0000000180066560 f i _nodert_generated.obj
 0001:0006556c       ?__abi_AddRef@?QObject@Platform@@?$Array@VRect@Foundation@Windows@@$00@2@WBI@E$AAAKXZ 000000018006656c f i _nodert_generated.obj
 0001:00065578       ?__abi_AddRef@?QObject@Platform@@?$Array@VRect@Foundation@Windows@@$00@2@WCA@E$AAAKXZ 0000000180066578 f i _nodert_generated.obj
 0001:00065584       ?__abi_AddRef@?QObject@Platform@@?$Array@VRect@Foundation@Windows@@$00@2@WCI@E$AAAKXZ 0000000180066584 f i _nodert_generated.obj
 0001:00065590       ?__abi_AddRef@?QObject@Platform@@?$Array@VRect@Foundation@Windows@@$00@2@WDA@E$AAAKXZ 0000000180066590 f i _nodert_generated.obj
 0001:0006559c       ?__abi_AddRef@?QObject@Platform@@?$Array@VRect@Foundation@Windows@@$00@2@WDI@E$AAAKXZ 000000018006659c f i _nodert_generated.obj
 0001:000655a8       ?__abi_AddRef@?QObject@Platform@@?$Array@VRect@Foundation@Windows@@$00@2@WEA@E$AAAKXZ 00000001800665a8 f i _nodert_generated.obj
 0001:000655b4       ?__abi_AddRef@?QObject@Platform@@?$Array@VRect@Foundation@Windows@@$00@2@WHA@E$AAAKXZ 00000001800665b4 f i _nodert_generated.obj
 0001:000655c0       ?__abi_AddRef@?QObject@Platform@@?$Array@VRect@Foundation@Windows@@$00@2@WHI@E$AAAKXZ 00000001800665c0 f i _nodert_generated.obj
 0001:000655d0       ?__abi_AddRef@?QObject@Platform@@?$Array@VSize@Foundation@Windows@@$00@2@UE$AAAKXZ 00000001800665d0 f i _nodert_generated.obj
 0001:00065604       ?__abi_AddRef@?QObject@Platform@@?$Array@VSize@Foundation@Windows@@$00@2@W7E$AAAKXZ 0000000180066604 f i _nodert_generated.obj
 0001:00065610       ?__abi_AddRef@?QObject@Platform@@?$Array@VSize@Foundation@Windows@@$00@2@WBA@E$AAAKXZ 0000000180066610 f i _nodert_generated.obj
 0001:0006561c       ?__abi_AddRef@?QObject@Platform@@?$Array@VSize@Foundation@Windows@@$00@2@WBI@E$AAAKXZ 000000018006661c f i _nodert_generated.obj
 0001:00065628       ?__abi_AddRef@?QObject@Platform@@?$Array@VSize@Foundation@Windows@@$00@2@WCA@E$AAAKXZ 0000000180066628 f i _nodert_generated.obj
 0001:00065634       ?__abi_AddRef@?QObject@Platform@@?$Array@VSize@Foundation@Windows@@$00@2@WCI@E$AAAKXZ 0000000180066634 f i _nodert_generated.obj
 0001:00065640       ?__abi_AddRef@?QObject@Platform@@?$Array@VSize@Foundation@Windows@@$00@2@WDA@E$AAAKXZ 0000000180066640 f i _nodert_generated.obj
 0001:0006564c       ?__abi_AddRef@?QObject@Platform@@?$Array@VSize@Foundation@Windows@@$00@2@WDI@E$AAAKXZ 000000018006664c f i _nodert_generated.obj
 0001:00065658       ?__abi_AddRef@?QObject@Platform@@?$Array@VSize@Foundation@Windows@@$00@2@WEA@E$AAAKXZ 0000000180066658 f i _nodert_generated.obj
 0001:00065664       ?__abi_AddRef@?QObject@Platform@@?$Array@VSize@Foundation@Windows@@$00@2@WHA@E$AAAKXZ 0000000180066664 f i _nodert_generated.obj
 0001:00065670       ?__abi_AddRef@?QObject@Platform@@?$Array@VSize@Foundation@Windows@@$00@2@WHI@E$AAAKXZ 0000000180066670 f i _nodert_generated.obj
 0001:00065680       ?__abi_AddRef@?QObject@Platform@@?$Array@VTimeSpan@Foundation@Windows@@$00@2@UE$AAAKXZ 0000000180066680 f i _nodert_generated.obj
 0001:000656b4       ?__abi_AddRef@?QObject@Platform@@?$Array@VTimeSpan@Foundation@Windows@@$00@2@W7E$AAAKXZ 00000001800666b4 f i _nodert_generated.obj
 0001:000656c0       ?__abi_AddRef@?QObject@Platform@@?$Array@VTimeSpan@Foundation@Windows@@$00@2@WBA@E$AAAKXZ 00000001800666c0 f i _nodert_generated.obj
 0001:000656cc       ?__abi_AddRef@?QObject@Platform@@?$Array@VTimeSpan@Foundation@Windows@@$00@2@WBI@E$AAAKXZ 00000001800666cc f i _nodert_generated.obj
 0001:000656d8       ?__abi_AddRef@?QObject@Platform@@?$Array@VTimeSpan@Foundation@Windows@@$00@2@WCA@E$AAAKXZ 00000001800666d8 f i _nodert_generated.obj
 0001:000656e4       ?__abi_AddRef@?QObject@Platform@@?$Array@VTimeSpan@Foundation@Windows@@$00@2@WCI@E$AAAKXZ 00000001800666e4 f i _nodert_generated.obj
 0001:000656f0       ?__abi_AddRef@?QObject@Platform@@?$Array@VTimeSpan@Foundation@Windows@@$00@2@WDA@E$AAAKXZ 00000001800666f0 f i _nodert_generated.obj
 0001:000656fc       ?__abi_AddRef@?QObject@Platform@@?$Array@VTimeSpan@Foundation@Windows@@$00@2@WDI@E$AAAKXZ 00000001800666fc f i _nodert_generated.obj
 0001:00065708       ?__abi_AddRef@?QObject@Platform@@?$Array@VTimeSpan@Foundation@Windows@@$00@2@WEA@E$AAAKXZ 0000000180066708 f i _nodert_generated.obj
 0001:00065714       ?__abi_AddRef@?QObject@Platform@@?$Array@VTimeSpan@Foundation@Windows@@$00@2@WHA@E$AAAKXZ 0000000180066714 f i _nodert_generated.obj
 0001:00065720       ?__abi_AddRef@?QObject@Platform@@?$Array@VTimeSpan@Foundation@Windows@@$00@2@WHI@E$AAAKXZ 0000000180066720 f i _nodert_generated.obj
 0001:00065730       ?__abi_AddRef@?QObject@Platform@@?$Array@_J$00@2@UE$AAAKXZ 0000000180066730 f i _nodert_generated.obj
 0001:00065764       ?__abi_AddRef@?QObject@Platform@@?$Array@_J$00@2@W7E$AAAKXZ 0000000180066764 f i _nodert_generated.obj
 0001:00065770       ?__abi_AddRef@?QObject@Platform@@?$Array@_J$00@2@WBA@E$AAAKXZ 0000000180066770 f i _nodert_generated.obj
 0001:0006577c       ?__abi_AddRef@?QObject@Platform@@?$Array@_J$00@2@WBI@E$AAAKXZ 000000018006677c f i _nodert_generated.obj
 0001:00065788       ?__abi_AddRef@?QObject@Platform@@?$Array@_J$00@2@WCA@E$AAAKXZ 0000000180066788 f i _nodert_generated.obj
 0001:00065794       ?__abi_AddRef@?QObject@Platform@@?$Array@_J$00@2@WCI@E$AAAKXZ 0000000180066794 f i _nodert_generated.obj
 0001:000657a0       ?__abi_AddRef@?QObject@Platform@@?$Array@_J$00@2@WDA@E$AAAKXZ 00000001800667a0 f i _nodert_generated.obj
 0001:000657ac       ?__abi_AddRef@?QObject@Platform@@?$Array@_J$00@2@WDI@E$AAAKXZ 00000001800667ac f i _nodert_generated.obj
 0001:000657b8       ?__abi_AddRef@?QObject@Platform@@?$Array@_J$00@2@WEA@E$AAAKXZ 00000001800667b8 f i _nodert_generated.obj
 0001:000657c4       ?__abi_AddRef@?QObject@Platform@@?$Array@_J$00@2@WHA@E$AAAKXZ 00000001800667c4 f i _nodert_generated.obj
 0001:000657d0       ?__abi_AddRef@?QObject@Platform@@?$Array@_J$00@2@WHI@E$AAAKXZ 00000001800667d0 f i _nodert_generated.obj
 0001:000657e0       ?__abi_AddRef@?QObject@Platform@@?$Array@_K$00@2@UE$AAAKXZ 00000001800667e0 f i _nodert_generated.obj
 0001:00065814       ?__abi_AddRef@?QObject@Platform@@?$Array@_K$00@2@W7E$AAAKXZ 0000000180066814 f i _nodert_generated.obj
 0001:00065820       ?__abi_AddRef@?QObject@Platform@@?$Array@_K$00@2@WBA@E$AAAKXZ 0000000180066820 f i _nodert_generated.obj
 0001:0006582c       ?__abi_AddRef@?QObject@Platform@@?$Array@_K$00@2@WBI@E$AAAKXZ 000000018006682c f i _nodert_generated.obj
 0001:00065838       ?__abi_AddRef@?QObject@Platform@@?$Array@_K$00@2@WCA@E$AAAKXZ 0000000180066838 f i _nodert_generated.obj
 0001:00065844       ?__abi_AddRef@?QObject@Platform@@?$Array@_K$00@2@WCI@E$AAAKXZ 0000000180066844 f i _nodert_generated.obj
 0001:00065850       ?__abi_AddRef@?QObject@Platform@@?$Array@_K$00@2@WDA@E$AAAKXZ 0000000180066850 f i _nodert_generated.obj
 0001:0006585c       ?__abi_AddRef@?QObject@Platform@@?$Array@_K$00@2@WDI@E$AAAKXZ 000000018006685c f i _nodert_generated.obj
 0001:00065868       ?__abi_AddRef@?QObject@Platform@@?$Array@_K$00@2@WEA@E$AAAKXZ 0000000180066868 f i _nodert_generated.obj
 0001:00065874       ?__abi_AddRef@?QObject@Platform@@?$Array@_K$00@2@WHA@E$AAAKXZ 0000000180066874 f i _nodert_generated.obj
 0001:00065880       ?__abi_AddRef@?QObject@Platform@@?$Array@_K$00@2@WHI@E$AAAKXZ 0000000180066880 f i _nodert_generated.obj
 0001:00065890       ?__abi_AddRef@?QObject@Platform@@?$Array@_N$00@2@UE$AAAKXZ 0000000180066890 f i _nodert_generated.obj
 0001:000658c4       ?__abi_AddRef@?QObject@Platform@@?$Array@_N$00@2@W7E$AAAKXZ 00000001800668c4 f i _nodert_generated.obj
 0001:000658d0       ?__abi_AddRef@?QObject@Platform@@?$Array@_N$00@2@WBA@E$AAAKXZ 00000001800668d0 f i _nodert_generated.obj
 0001:000658dc       ?__abi_AddRef@?QObject@Platform@@?$Array@_N$00@2@WBI@E$AAAKXZ 00000001800668dc f i _nodert_generated.obj
 0001:000658e8       ?__abi_AddRef@?QObject@Platform@@?$Array@_N$00@2@WCA@E$AAAKXZ 00000001800668e8 f i _nodert_generated.obj
 0001:000658f4       ?__abi_AddRef@?QObject@Platform@@?$Array@_N$00@2@WCI@E$AAAKXZ 00000001800668f4 f i _nodert_generated.obj
 0001:00065900       ?__abi_AddRef@?QObject@Platform@@?$Array@_N$00@2@WDA@E$AAAKXZ 0000000180066900 f i _nodert_generated.obj
 0001:0006590c       ?__abi_AddRef@?QObject@Platform@@?$Array@_N$00@2@WDI@E$AAAKXZ 000000018006690c f i _nodert_generated.obj
 0001:00065918       ?__abi_AddRef@?QObject@Platform@@?$Array@_N$00@2@WEA@E$AAAKXZ 0000000180066918 f i _nodert_generated.obj
 0001:00065924       ?__abi_AddRef@?QObject@Platform@@?$Array@_N$00@2@WHA@E$AAAKXZ 0000000180066924 f i _nodert_generated.obj
 0001:00065930       ?__abi_AddRef@?QObject@Platform@@?$Array@_N$00@2@WHI@E$AAAKXZ 0000000180066930 f i _nodert_generated.obj
 0001:00065940       ?__abi_AddRef@?QObject@Platform@@?$Array@_W$00@2@UE$AAAKXZ 0000000180066940 f i _nodert_generated.obj
 0001:00065974       ?__abi_AddRef@?QObject@Platform@@?$Array@_W$00@2@W7E$AAAKXZ 0000000180066974 f i _nodert_generated.obj
 0001:00065980       ?__abi_AddRef@?QObject@Platform@@?$Array@_W$00@2@WBA@E$AAAKXZ 0000000180066980 f i _nodert_generated.obj
 0001:0006598c       ?__abi_AddRef@?QObject@Platform@@?$Array@_W$00@2@WBI@E$AAAKXZ 000000018006698c f i _nodert_generated.obj
 0001:00065998       ?__abi_AddRef@?QObject@Platform@@?$Array@_W$00@2@WCA@E$AAAKXZ 0000000180066998 f i _nodert_generated.obj
 0001:000659a4       ?__abi_AddRef@?QObject@Platform@@?$Array@_W$00@2@WCI@E$AAAKXZ 00000001800669a4 f i _nodert_generated.obj
 0001:000659b0       ?__abi_AddRef@?QObject@Platform@@?$Array@_W$00@2@WDA@E$AAAKXZ 00000001800669b0 f i _nodert_generated.obj
 0001:000659bc       ?__abi_AddRef@?QObject@Platform@@?$Array@_W$00@2@WDI@E$AAAKXZ 00000001800669bc f i _nodert_generated.obj
 0001:000659c8       ?__abi_AddRef@?QObject@Platform@@?$Array@_W$00@2@WEA@E$AAAKXZ 00000001800669c8 f i _nodert_generated.obj
 0001:000659d4       ?__abi_AddRef@?QObject@Platform@@?$Array@_W$00@2@WHA@E$AAAKXZ 00000001800669d4 f i _nodert_generated.obj
 0001:000659e0       ?__abi_AddRef@?QObject@Platform@@?$Array@_W$00@2@WHI@E$AAAKXZ 00000001800669e0 f i _nodert_generated.obj
 0001:000659f0       ?__abi_AddRef@?QObject@Platform@@?$CustomBox@E@Details@2@UE$AAAKXZ 00000001800669f0 f i _nodert_generated.obj
 0001:00065a24       ?__abi_AddRef@?QObject@Platform@@?$CustomBox@E@Details@2@W7E$AAAKXZ 0000000180066a24 f i _nodert_generated.obj
 0001:00065a30       ?__abi_AddRef@?QObject@Platform@@?$CustomBox@E@Details@2@WBA@E$AAAKXZ 0000000180066a30 f i _nodert_generated.obj
 0001:00065a3c       ?__abi_AddRef@?QObject@Platform@@?$CustomBox@E@Details@2@WBI@E$AAAKXZ 0000000180066a3c f i _nodert_generated.obj
 0001:00065a48       ?__abi_AddRef@?QObject@Platform@@?$CustomBox@E@Details@2@WCA@E$AAAKXZ 0000000180066a48 f i _nodert_generated.obj
 0001:00065a54       ?__abi_AddRef@?QObject@Platform@@?$CustomBox@E@Details@2@WCI@E$AAAKXZ 0000000180066a54 f i _nodert_generated.obj
 0001:00065a60       ?__abi_AddRef@?QObject@Platform@@?$CustomBox@F@Details@2@UE$AAAKXZ 0000000180066a60 f i _nodert_generated.obj
 0001:00065a94       ?__abi_AddRef@?QObject@Platform@@?$CustomBox@F@Details@2@W7E$AAAKXZ 0000000180066a94 f i _nodert_generated.obj
 0001:00065aa0       ?__abi_AddRef@?QObject@Platform@@?$CustomBox@F@Details@2@WBA@E$AAAKXZ 0000000180066aa0 f i _nodert_generated.obj
 0001:00065aac       ?__abi_AddRef@?QObject@Platform@@?$CustomBox@F@Details@2@WBI@E$AAAKXZ 0000000180066aac f i _nodert_generated.obj
 0001:00065ab8       ?__abi_AddRef@?QObject@Platform@@?$CustomBox@F@Details@2@WCA@E$AAAKXZ 0000000180066ab8 f i _nodert_generated.obj
 0001:00065ac4       ?__abi_AddRef@?QObject@Platform@@?$CustomBox@F@Details@2@WCI@E$AAAKXZ 0000000180066ac4 f i _nodert_generated.obj
 0001:00065ad0       ?__abi_AddRef@?QObject@Platform@@?$CustomBox@G@Details@2@UE$AAAKXZ 0000000180066ad0 f i _nodert_generated.obj
 0001:00065b04       ?__abi_AddRef@?QObject@Platform@@?$CustomBox@G@Details@2@W7E$AAAKXZ 0000000180066b04 f i _nodert_generated.obj
 0001:00065b10       ?__abi_AddRef@?QObject@Platform@@?$CustomBox@G@Details@2@WBA@E$AAAKXZ 0000000180066b10 f i _nodert_generated.obj
 0001:00065b1c       ?__abi_AddRef@?QObject@Platform@@?$CustomBox@G@Details@2@WBI@E$AAAKXZ 0000000180066b1c f i _nodert_generated.obj
 0001:00065b28       ?__abi_AddRef@?QObject@Platform@@?$CustomBox@G@Details@2@WCA@E$AAAKXZ 0000000180066b28 f i _nodert_generated.obj
 0001:00065b34       ?__abi_AddRef@?QObject@Platform@@?$CustomBox@G@Details@2@WCI@E$AAAKXZ 0000000180066b34 f i _nodert_generated.obj
 0001:00065b40       ?__abi_AddRef@?QObject@Platform@@?$CustomBox@H@Details@2@UE$AAAKXZ 0000000180066b40 f i _nodert_generated.obj
 0001:00065b74       ?__abi_AddRef@?QObject@Platform@@?$CustomBox@H@Details@2@W7E$AAAKXZ 0000000180066b74 f i _nodert_generated.obj
 0001:00065b80       ?__abi_AddRef@?QObject@Platform@@?$CustomBox@H@Details@2@WBA@E$AAAKXZ 0000000180066b80 f i _nodert_generated.obj
 0001:00065b8c       ?__abi_AddRef@?QObject@Platform@@?$CustomBox@H@Details@2@WBI@E$AAAKXZ 0000000180066b8c f i _nodert_generated.obj
 0001:00065b98       ?__abi_AddRef@?QObject@Platform@@?$CustomBox@H@Details@2@WCA@E$AAAKXZ 0000000180066b98 f i _nodert_generated.obj
 0001:00065ba4       ?__abi_AddRef@?QObject@Platform@@?$CustomBox@H@Details@2@WCI@E$AAAKXZ 0000000180066ba4 f i _nodert_generated.obj
 0001:00065bb0       ?__abi_AddRef@?QObject@Platform@@?$CustomBox@I@Details@2@UE$AAAKXZ 0000000180066bb0 f i _nodert_generated.obj
 0001:00065be4       ?__abi_AddRef@?QObject@Platform@@?$CustomBox@I@Details@2@W7E$AAAKXZ 0000000180066be4 f i _nodert_generated.obj
 0001:00065bf0       ?__abi_AddRef@?QObject@Platform@@?$CustomBox@I@Details@2@WBA@E$AAAKXZ 0000000180066bf0 f i _nodert_generated.obj
 0001:00065bfc       ?__abi_AddRef@?QObject@Platform@@?$CustomBox@I@Details@2@WBI@E$AAAKXZ 0000000180066bfc f i _nodert_generated.obj
 0001:00065c08       ?__abi_AddRef@?QObject@Platform@@?$CustomBox@I@Details@2@WCA@E$AAAKXZ 0000000180066c08 f i _nodert_generated.obj
 0001:00065c14       ?__abi_AddRef@?QObject@Platform@@?$CustomBox@I@Details@2@WCI@E$AAAKXZ 0000000180066c14 f i _nodert_generated.obj
 0001:00065c20       ?__abi_AddRef@?QObject@Platform@@?$CustomBox@M@Details@2@UE$AAAKXZ 0000000180066c20 f i _nodert_generated.obj
 0001:00065c54       ?__abi_AddRef@?QObject@Platform@@?$CustomBox@M@Details@2@W7E$AAAKXZ 0000000180066c54 f i _nodert_generated.obj
 0001:00065c60       ?__abi_AddRef@?QObject@Platform@@?$CustomBox@M@Details@2@WBA@E$AAAKXZ 0000000180066c60 f i _nodert_generated.obj
 0001:00065c6c       ?__abi_AddRef@?QObject@Platform@@?$CustomBox@M@Details@2@WBI@E$AAAKXZ 0000000180066c6c f i _nodert_generated.obj
 0001:00065c78       ?__abi_AddRef@?QObject@Platform@@?$CustomBox@M@Details@2@WCA@E$AAAKXZ 0000000180066c78 f i _nodert_generated.obj
 0001:00065c84       ?__abi_AddRef@?QObject@Platform@@?$CustomBox@M@Details@2@WCI@E$AAAKXZ 0000000180066c84 f i _nodert_generated.obj
 0001:00065c90       ?__abi_AddRef@?QObject@Platform@@?$CustomBox@N@Details@2@UE$AAAKXZ 0000000180066c90 f i _nodert_generated.obj
 0001:00065cc4       ?__abi_AddRef@?QObject@Platform@@?$CustomBox@N@Details@2@W7E$AAAKXZ 0000000180066cc4 f i _nodert_generated.obj
 0001:00065cd0       ?__abi_AddRef@?QObject@Platform@@?$CustomBox@N@Details@2@WBA@E$AAAKXZ 0000000180066cd0 f i _nodert_generated.obj
 0001:00065cdc       ?__abi_AddRef@?QObject@Platform@@?$CustomBox@N@Details@2@WBI@E$AAAKXZ 0000000180066cdc f i _nodert_generated.obj
 0001:00065ce8       ?__abi_AddRef@?QObject@Platform@@?$CustomBox@N@Details@2@WCA@E$AAAKXZ 0000000180066ce8 f i _nodert_generated.obj
 0001:00065cf4       ?__abi_AddRef@?QObject@Platform@@?$CustomBox@N@Details@2@WCI@E$AAAKXZ 0000000180066cf4 f i _nodert_generated.obj
 0001:00065d00       ?__abi_AddRef@?QObject@Platform@@?$CustomBox@PE$AAVAsyncActionCompletedHandler@Foundation@Windows@@@Details@2@UE$AAAKXZ 0000000180066d00 f i _nodert_generated.obj
 0001:00065d34       ?__abi_AddRef@?QObject@Platform@@?$CustomBox@PE$AAVAsyncActionCompletedHandler@Foundation@Windows@@@Details@2@W7E$AAAKXZ 0000000180066d34 f i _nodert_generated.obj
 0001:00065d40       ?__abi_AddRef@?QObject@Platform@@?$CustomBox@PE$AAVAsyncActionCompletedHandler@Foundation@Windows@@@Details@2@WBA@E$AAAKXZ 0000000180066d40 f i _nodert_generated.obj
 0001:00065d4c       ?__abi_AddRef@?QObject@Platform@@?$CustomBox@PE$AAVAsyncActionCompletedHandler@Foundation@Windows@@@Details@2@WBI@E$AAAKXZ 0000000180066d4c f i _nodert_generated.obj
 0001:00065d58       ?__abi_AddRef@?QObject@Platform@@?$CustomBox@PE$AAVAsyncActionCompletedHandler@Foundation@Windows@@@Details@2@WCA@E$AAAKXZ 0000000180066d58 f i _nodert_generated.obj
 0001:00065d64       ?__abi_AddRef@?QObject@Platform@@?$CustomBox@PE$AAVAsyncActionCompletedHandler@Foundation@Windows@@@Details@2@WCI@E$AAAKXZ 0000000180066d64 f i _nodert_generated.obj
 0001:00065d70       ?__abi_AddRef@?QObject@Platform@@?$CustomBox@VDateTime@Foundation@Windows@@@Details@2@UE$AAAKXZ 0000000180066d70 f i _nodert_generated.obj
 0001:00065da4       ?__abi_AddRef@?QObject@Platform@@?$CustomBox@VDateTime@Foundation@Windows@@@Details@2@W7E$AAAKXZ 0000000180066da4 f i _nodert_generated.obj
 0001:00065db0       ?__abi_AddRef@?QObject@Platform@@?$CustomBox@VDateTime@Foundation@Windows@@@Details@2@WBA@E$AAAKXZ 0000000180066db0 f i _nodert_generated.obj
 0001:00065dbc       ?__abi_AddRef@?QObject@Platform@@?$CustomBox@VDateTime@Foundation@Windows@@@Details@2@WBI@E$AAAKXZ 0000000180066dbc f i _nodert_generated.obj
 0001:00065dc8       ?__abi_AddRef@?QObject@Platform@@?$CustomBox@VDateTime@Foundation@Windows@@@Details@2@WCA@E$AAAKXZ 0000000180066dc8 f i _nodert_generated.obj
 0001:00065dd4       ?__abi_AddRef@?QObject@Platform@@?$CustomBox@VDateTime@Foundation@Windows@@@Details@2@WCI@E$AAAKXZ 0000000180066dd4 f i _nodert_generated.obj
 0001:00065de0       ?__abi_AddRef@?QObject@Platform@@?$CustomBox@VGuid@Platform@@@Details@2@UE$AAAKXZ 0000000180066de0 f i _nodert_generated.obj
 0001:00065e14       ?__abi_AddRef@?QObject@Platform@@?$CustomBox@VGuid@Platform@@@Details@2@W7E$AAAKXZ 0000000180066e14 f i _nodert_generated.obj
 0001:00065e20       ?__abi_AddRef@?QObject@Platform@@?$CustomBox@VGuid@Platform@@@Details@2@WBA@E$AAAKXZ 0000000180066e20 f i _nodert_generated.obj
 0001:00065e2c       ?__abi_AddRef@?QObject@Platform@@?$CustomBox@VGuid@Platform@@@Details@2@WBI@E$AAAKXZ 0000000180066e2c f i _nodert_generated.obj
 0001:00065e38       ?__abi_AddRef@?QObject@Platform@@?$CustomBox@VGuid@Platform@@@Details@2@WCA@E$AAAKXZ 0000000180066e38 f i _nodert_generated.obj
 0001:00065e44       ?__abi_AddRef@?QObject@Platform@@?$CustomBox@VGuid@Platform@@@Details@2@WCI@E$AAAKXZ 0000000180066e44 f i _nodert_generated.obj
 0001:00065e50       ?__abi_AddRef@?QObject@Platform@@?$CustomBox@VPoint@Foundation@Windows@@@Details@2@UE$AAAKXZ 0000000180066e50 f i _nodert_generated.obj
 0001:00065e84       ?__abi_AddRef@?QObject@Platform@@?$CustomBox@VPoint@Foundation@Windows@@@Details@2@W7E$AAAKXZ 0000000180066e84 f i _nodert_generated.obj
 0001:00065e90       ?__abi_AddRef@?QObject@Platform@@?$CustomBox@VPoint@Foundation@Windows@@@Details@2@WBA@E$AAAKXZ 0000000180066e90 f i _nodert_generated.obj
 0001:00065e9c       ?__abi_AddRef@?QObject@Platform@@?$CustomBox@VPoint@Foundation@Windows@@@Details@2@WBI@E$AAAKXZ 0000000180066e9c f i _nodert_generated.obj
 0001:00065ea8       ?__abi_AddRef@?QObject@Platform@@?$CustomBox@VPoint@Foundation@Windows@@@Details@2@WCA@E$AAAKXZ 0000000180066ea8 f i _nodert_generated.obj
 0001:00065eb4       ?__abi_AddRef@?QObject@Platform@@?$CustomBox@VPoint@Foundation@Windows@@@Details@2@WCI@E$AAAKXZ 0000000180066eb4 f i _nodert_generated.obj
 0001:00065ec0       ?__abi_AddRef@?QObject@Platform@@?$CustomBox@VRect@Foundation@Windows@@@Details@2@UE$AAAKXZ 0000000180066ec0 f i _nodert_generated.obj
 0001:00065ef4       ?__abi_AddRef@?QObject@Platform@@?$CustomBox@VRect@Foundation@Windows@@@Details@2@W7E$AAAKXZ 0000000180066ef4 f i _nodert_generated.obj
 0001:00065f00       ?__abi_AddRef@?QObject@Platform@@?$CustomBox@VRect@Foundation@Windows@@@Details@2@WBA@E$AAAKXZ 0000000180066f00 f i _nodert_generated.obj
 0001:00065f0c       ?__abi_AddRef@?QObject@Platform@@?$CustomBox@VRect@Foundation@Windows@@@Details@2@WBI@E$AAAKXZ 0000000180066f0c f i _nodert_generated.obj
 0001:00065f18       ?__abi_AddRef@?QObject@Platform@@?$CustomBox@VRect@Foundation@Windows@@@Details@2@WCA@E$AAAKXZ 0000000180066f18 f i _nodert_generated.obj
 0001:00065f24       ?__abi_AddRef@?QObject@Platform@@?$CustomBox@VRect@Foundation@Windows@@@Details@2@WCI@E$AAAKXZ 0000000180066f24 f i _nodert_generated.obj
 0001:00065f30       ?__abi_AddRef@?QObject@Platform@@?$CustomBox@VSize@Foundation@Windows@@@Details@2@UE$AAAKXZ 0000000180066f30 f i _nodert_generated.obj
 0001:00065f64       ?__abi_AddRef@?QObject@Platform@@?$CustomBox@VSize@Foundation@Windows@@@Details@2@W7E$AAAKXZ 0000000180066f64 f i _nodert_generated.obj
 0001:00065f70       ?__abi_AddRef@?QObject@Platform@@?$CustomBox@VSize@Foundation@Windows@@@Details@2@WBA@E$AAAKXZ 0000000180066f70 f i _nodert_generated.obj
 0001:00065f7c       ?__abi_AddRef@?QObject@Platform@@?$CustomBox@VSize@Foundation@Windows@@@Details@2@WBI@E$AAAKXZ 0000000180066f7c f i _nodert_generated.obj
 0001:00065f88       ?__abi_AddRef@?QObject@Platform@@?$CustomBox@VSize@Foundation@Windows@@@Details@2@WCA@E$AAAKXZ 0000000180066f88 f i _nodert_generated.obj
 0001:00065f94       ?__abi_AddRef@?QObject@Platform@@?$CustomBox@VSize@Foundation@Windows@@@Details@2@WCI@E$AAAKXZ 0000000180066f94 f i _nodert_generated.obj
 0001:00065fa0       ?__abi_AddRef@?QObject@Platform@@?$CustomBox@VTimeSpan@Foundation@Windows@@@Details@2@UE$AAAKXZ 0000000180066fa0 f i _nodert_generated.obj
 0001:00065fd4       ?__abi_AddRef@?QObject@Platform@@?$CustomBox@VTimeSpan@Foundation@Windows@@@Details@2@W7E$AAAKXZ 0000000180066fd4 f i _nodert_generated.obj
 0001:00065fe0       ?__abi_AddRef@?QObject@Platform@@?$CustomBox@VTimeSpan@Foundation@Windows@@@Details@2@WBA@E$AAAKXZ 0000000180066fe0 f i _nodert_generated.obj
 0001:00065fec       ?__abi_AddRef@?QObject@Platform@@?$CustomBox@VTimeSpan@Foundation@Windows@@@Details@2@WBI@E$AAAKXZ 0000000180066fec f i _nodert_generated.obj
 0001:00065ff8       ?__abi_AddRef@?QObject@Platform@@?$CustomBox@VTimeSpan@Foundation@Windows@@@Details@2@WCA@E$AAAKXZ 0000000180066ff8 f i _nodert_generated.obj
 0001:00066004       ?__abi_AddRef@?QObject@Platform@@?$CustomBox@VTimeSpan@Foundation@Windows@@@Details@2@WCI@E$AAAKXZ 0000000180067004 f i _nodert_generated.obj
 0001:00066010       ?__abi_AddRef@?QObject@Platform@@?$CustomBox@_J@Details@2@UE$AAAKXZ 0000000180067010 f i _nodert_generated.obj
 0001:00066044       ?__abi_AddRef@?QObject@Platform@@?$CustomBox@_J@Details@2@W7E$AAAKXZ 0000000180067044 f i _nodert_generated.obj
 0001:00066050       ?__abi_AddRef@?QObject@Platform@@?$CustomBox@_J@Details@2@WBA@E$AAAKXZ 0000000180067050 f i _nodert_generated.obj
 0001:0006605c       ?__abi_AddRef@?QObject@Platform@@?$CustomBox@_J@Details@2@WBI@E$AAAKXZ 000000018006705c f i _nodert_generated.obj
 0001:00066068       ?__abi_AddRef@?QObject@Platform@@?$CustomBox@_J@Details@2@WCA@E$AAAKXZ 0000000180067068 f i _nodert_generated.obj
 0001:00066074       ?__abi_AddRef@?QObject@Platform@@?$CustomBox@_J@Details@2@WCI@E$AAAKXZ 0000000180067074 f i _nodert_generated.obj
 0001:00066080       ?__abi_AddRef@?QObject@Platform@@?$CustomBox@_K@Details@2@UE$AAAKXZ 0000000180067080 f i _nodert_generated.obj
 0001:000660b4       ?__abi_AddRef@?QObject@Platform@@?$CustomBox@_K@Details@2@W7E$AAAKXZ 00000001800670b4 f i _nodert_generated.obj
 0001:000660c0       ?__abi_AddRef@?QObject@Platform@@?$CustomBox@_K@Details@2@WBA@E$AAAKXZ 00000001800670c0 f i _nodert_generated.obj
 0001:000660cc       ?__abi_AddRef@?QObject@Platform@@?$CustomBox@_K@Details@2@WBI@E$AAAKXZ 00000001800670cc f i _nodert_generated.obj
 0001:000660d8       ?__abi_AddRef@?QObject@Platform@@?$CustomBox@_K@Details@2@WCA@E$AAAKXZ 00000001800670d8 f i _nodert_generated.obj
 0001:000660e4       ?__abi_AddRef@?QObject@Platform@@?$CustomBox@_K@Details@2@WCI@E$AAAKXZ 00000001800670e4 f i _nodert_generated.obj
 0001:000660f0       ?__abi_AddRef@?QObject@Platform@@?$CustomBox@_N@Details@2@UE$AAAKXZ 00000001800670f0 f i _nodert_generated.obj
 0001:00066124       ?__abi_AddRef@?QObject@Platform@@?$CustomBox@_N@Details@2@W7E$AAAKXZ 0000000180067124 f i _nodert_generated.obj
 0001:00066130       ?__abi_AddRef@?QObject@Platform@@?$CustomBox@_N@Details@2@WBA@E$AAAKXZ 0000000180067130 f i _nodert_generated.obj
 0001:0006613c       ?__abi_AddRef@?QObject@Platform@@?$CustomBox@_N@Details@2@WBI@E$AAAKXZ 000000018006713c f i _nodert_generated.obj
 0001:00066148       ?__abi_AddRef@?QObject@Platform@@?$CustomBox@_N@Details@2@WCA@E$AAAKXZ 0000000180067148 f i _nodert_generated.obj
 0001:00066154       ?__abi_AddRef@?QObject@Platform@@?$CustomBox@_N@Details@2@WCI@E$AAAKXZ 0000000180067154 f i _nodert_generated.obj
 0001:00066160       ?__abi_AddRef@?QObject@Platform@@?$CustomBox@_W@Details@2@UE$AAAKXZ 0000000180067160 f i _nodert_generated.obj
 0001:00066194       ?__abi_AddRef@?QObject@Platform@@?$CustomBox@_W@Details@2@W7E$AAAKXZ 0000000180067194 f i _nodert_generated.obj
 0001:000661a0       ?__abi_AddRef@?QObject@Platform@@?$CustomBox@_W@Details@2@WBA@E$AAAKXZ 00000001800671a0 f i _nodert_generated.obj
 0001:000661ac       ?__abi_AddRef@?QObject@Platform@@?$CustomBox@_W@Details@2@WBI@E$AAAKXZ 00000001800671ac f i _nodert_generated.obj
 0001:000661b8       ?__abi_AddRef@?QObject@Platform@@?$CustomBox@_W@Details@2@WCA@E$AAAKXZ 00000001800671b8 f i _nodert_generated.obj
 0001:000661c4       ?__abi_AddRef@?QObject@Platform@@?$CustomBox@_W@Details@2@WCI@E$AAAKXZ 00000001800671c4 f i _nodert_generated.obj
 0001:000661d0       ?__abi_AddRef@?QObject@Platform@@?$WriteOnlyArray@E$00@2@UE$AAAKXZ 00000001800671d0 f i _nodert_generated.obj
 0001:00066204       ?__abi_AddRef@?QObject@Platform@@?$WriteOnlyArray@E$00@2@W7E$AAAKXZ 0000000180067204 f i _nodert_generated.obj
 0001:00066210       ?__abi_AddRef@?QObject@Platform@@?$WriteOnlyArray@E$00@2@WBA@E$AAAKXZ 0000000180067210 f i _nodert_generated.obj
 0001:0006621c       ?__abi_AddRef@?QObject@Platform@@?$WriteOnlyArray@E$00@2@WBI@E$AAAKXZ 000000018006721c f i _nodert_generated.obj
 0001:00066228       ?__abi_AddRef@?QObject@Platform@@?$WriteOnlyArray@E$00@2@WCA@E$AAAKXZ 0000000180067228 f i _nodert_generated.obj
 0001:00066240       ?__abi_AddRef@?QObject@Platform@@?$WriteOnlyArray@F$00@2@UE$AAAKXZ 0000000180067240 f i _nodert_generated.obj
 0001:00066274       ?__abi_AddRef@?QObject@Platform@@?$WriteOnlyArray@F$00@2@W7E$AAAKXZ 0000000180067274 f i _nodert_generated.obj
 0001:00066280       ?__abi_AddRef@?QObject@Platform@@?$WriteOnlyArray@F$00@2@WBA@E$AAAKXZ 0000000180067280 f i _nodert_generated.obj
 0001:0006628c       ?__abi_AddRef@?QObject@Platform@@?$WriteOnlyArray@F$00@2@WBI@E$AAAKXZ 000000018006728c f i _nodert_generated.obj
 0001:00066298       ?__abi_AddRef@?QObject@Platform@@?$WriteOnlyArray@F$00@2@WCA@E$AAAKXZ 0000000180067298 f i _nodert_generated.obj
 0001:000662b0       ?__abi_AddRef@?QObject@Platform@@?$WriteOnlyArray@G$00@2@UE$AAAKXZ 00000001800672b0 f i _nodert_generated.obj
 0001:000662e4       ?__abi_AddRef@?QObject@Platform@@?$WriteOnlyArray@G$00@2@W7E$AAAKXZ 00000001800672e4 f i _nodert_generated.obj
 0001:000662f0       ?__abi_AddRef@?QObject@Platform@@?$WriteOnlyArray@G$00@2@WBA@E$AAAKXZ 00000001800672f0 f i _nodert_generated.obj
 0001:000662fc       ?__abi_AddRef@?QObject@Platform@@?$WriteOnlyArray@G$00@2@WBI@E$AAAKXZ 00000001800672fc f i _nodert_generated.obj
 0001:00066308       ?__abi_AddRef@?QObject@Platform@@?$WriteOnlyArray@G$00@2@WCA@E$AAAKXZ 0000000180067308 f i _nodert_generated.obj
 0001:00066320       ?__abi_AddRef@?QObject@Platform@@?$WriteOnlyArray@H$00@2@UE$AAAKXZ 0000000180067320 f i _nodert_generated.obj
 0001:00066354       ?__abi_AddRef@?QObject@Platform@@?$WriteOnlyArray@H$00@2@W7E$AAAKXZ 0000000180067354 f i _nodert_generated.obj
 0001:00066360       ?__abi_AddRef@?QObject@Platform@@?$WriteOnlyArray@H$00@2@WBA@E$AAAKXZ 0000000180067360 f i _nodert_generated.obj
 0001:0006636c       ?__abi_AddRef@?QObject@Platform@@?$WriteOnlyArray@H$00@2@WBI@E$AAAKXZ 000000018006736c f i _nodert_generated.obj
 0001:00066378       ?__abi_AddRef@?QObject@Platform@@?$WriteOnlyArray@H$00@2@WCA@E$AAAKXZ 0000000180067378 f i _nodert_generated.obj
 0001:00066390       ?__abi_AddRef@?QObject@Platform@@?$WriteOnlyArray@I$00@2@UE$AAAKXZ 0000000180067390 f i _nodert_generated.obj
 0001:000663c4       ?__abi_AddRef@?QObject@Platform@@?$WriteOnlyArray@I$00@2@W7E$AAAKXZ 00000001800673c4 f i _nodert_generated.obj
 0001:000663d0       ?__abi_AddRef@?QObject@Platform@@?$WriteOnlyArray@I$00@2@WBA@E$AAAKXZ 00000001800673d0 f i _nodert_generated.obj
 0001:000663dc       ?__abi_AddRef@?QObject@Platform@@?$WriteOnlyArray@I$00@2@WBI@E$AAAKXZ 00000001800673dc f i _nodert_generated.obj
 0001:000663e8       ?__abi_AddRef@?QObject@Platform@@?$WriteOnlyArray@I$00@2@WCA@E$AAAKXZ 00000001800673e8 f i _nodert_generated.obj
 0001:00066400       ?__abi_AddRef@?QObject@Platform@@?$WriteOnlyArray@M$00@2@UE$AAAKXZ 0000000180067400 f i _nodert_generated.obj
 0001:00066434       ?__abi_AddRef@?QObject@Platform@@?$WriteOnlyArray@M$00@2@W7E$AAAKXZ 0000000180067434 f i _nodert_generated.obj
 0001:00066440       ?__abi_AddRef@?QObject@Platform@@?$WriteOnlyArray@M$00@2@WBA@E$AAAKXZ 0000000180067440 f i _nodert_generated.obj
 0001:0006644c       ?__abi_AddRef@?QObject@Platform@@?$WriteOnlyArray@M$00@2@WBI@E$AAAKXZ 000000018006744c f i _nodert_generated.obj
 0001:00066458       ?__abi_AddRef@?QObject@Platform@@?$WriteOnlyArray@M$00@2@WCA@E$AAAKXZ 0000000180067458 f i _nodert_generated.obj
 0001:00066470       ?__abi_AddRef@?QObject@Platform@@?$WriteOnlyArray@N$00@2@UE$AAAKXZ 0000000180067470 f i _nodert_generated.obj
 0001:000664a4       ?__abi_AddRef@?QObject@Platform@@?$WriteOnlyArray@N$00@2@W7E$AAAKXZ 00000001800674a4 f i _nodert_generated.obj
 0001:000664b0       ?__abi_AddRef@?QObject@Platform@@?$WriteOnlyArray@N$00@2@WBA@E$AAAKXZ 00000001800674b0 f i _nodert_generated.obj
 0001:000664bc       ?__abi_AddRef@?QObject@Platform@@?$WriteOnlyArray@N$00@2@WBI@E$AAAKXZ 00000001800674bc f i _nodert_generated.obj
 0001:000664c8       ?__abi_AddRef@?QObject@Platform@@?$WriteOnlyArray@N$00@2@WCA@E$AAAKXZ 00000001800674c8 f i _nodert_generated.obj
 0001:000664e0       ?__abi_AddRef@?QObject@Platform@@?$WriteOnlyArray@PE$AAVObject@Platform@@$00@2@UE$AAAKXZ 00000001800674e0 f i _nodert_generated.obj
 0001:00066514       ?__abi_AddRef@?QObject@Platform@@?$WriteOnlyArray@PE$AAVObject@Platform@@$00@2@W7E$AAAKXZ 0000000180067514 f i _nodert_generated.obj
 0001:00066520       ?__abi_AddRef@?QObject@Platform@@?$WriteOnlyArray@PE$AAVObject@Platform@@$00@2@WBA@E$AAAKXZ 0000000180067520 f i _nodert_generated.obj
 0001:0006652c       ?__abi_AddRef@?QObject@Platform@@?$WriteOnlyArray@PE$AAVObject@Platform@@$00@2@WBI@E$AAAKXZ 000000018006752c f i _nodert_generated.obj
 0001:00066538       ?__abi_AddRef@?QObject@Platform@@?$WriteOnlyArray@PE$AAVObject@Platform@@$00@2@WCA@E$AAAKXZ 0000000180067538 f i _nodert_generated.obj
 0001:00066550       ?__abi_AddRef@?QObject@Platform@@?$WriteOnlyArray@PE$AAVString@Platform@@$00@2@UE$AAAKXZ 0000000180067550 f i _nodert_generated.obj
 0001:00066584       ?__abi_AddRef@?QObject@Platform@@?$WriteOnlyArray@PE$AAVString@Platform@@$00@2@W7E$AAAKXZ 0000000180067584 f i _nodert_generated.obj
 0001:00066590       ?__abi_AddRef@?QObject@Platform@@?$WriteOnlyArray@PE$AAVString@Platform@@$00@2@WBA@E$AAAKXZ 0000000180067590 f i _nodert_generated.obj
 0001:0006659c       ?__abi_AddRef@?QObject@Platform@@?$WriteOnlyArray@PE$AAVString@Platform@@$00@2@WBI@E$AAAKXZ 000000018006759c f i _nodert_generated.obj
 0001:000665a8       ?__abi_AddRef@?QObject@Platform@@?$WriteOnlyArray@PE$AAVString@Platform@@$00@2@WCA@E$AAAKXZ 00000001800675a8 f i _nodert_generated.obj
 0001:000665c0       ?__abi_AddRef@?QObject@Platform@@?$WriteOnlyArray@VDateTime@Foundation@Windows@@$00@2@UE$AAAKXZ 00000001800675c0 f i _nodert_generated.obj
 0001:000665f4       ?__abi_AddRef@?QObject@Platform@@?$WriteOnlyArray@VDateTime@Foundation@Windows@@$00@2@W7E$AAAKXZ 00000001800675f4 f i _nodert_generated.obj
 0001:00066600       ?__abi_AddRef@?QObject@Platform@@?$WriteOnlyArray@VDateTime@Foundation@Windows@@$00@2@WBA@E$AAAKXZ 0000000180067600 f i _nodert_generated.obj
 0001:0006660c       ?__abi_AddRef@?QObject@Platform@@?$WriteOnlyArray@VDateTime@Foundation@Windows@@$00@2@WBI@E$AAAKXZ 000000018006760c f i _nodert_generated.obj
 0001:00066618       ?__abi_AddRef@?QObject@Platform@@?$WriteOnlyArray@VDateTime@Foundation@Windows@@$00@2@WCA@E$AAAKXZ 0000000180067618 f i _nodert_generated.obj
 0001:00066630       ?__abi_AddRef@?QObject@Platform@@?$WriteOnlyArray@VGuid@Platform@@$00@2@UE$AAAKXZ 0000000180067630 f i _nodert_generated.obj
 0001:00066664       ?__abi_AddRef@?QObject@Platform@@?$WriteOnlyArray@VGuid@Platform@@$00@2@W7E$AAAKXZ 0000000180067664 f i _nodert_generated.obj
 0001:00066670       ?__abi_AddRef@?QObject@Platform@@?$WriteOnlyArray@VGuid@Platform@@$00@2@WBA@E$AAAKXZ 0000000180067670 f i _nodert_generated.obj
 0001:0006667c       ?__abi_AddRef@?QObject@Platform@@?$WriteOnlyArray@VGuid@Platform@@$00@2@WBI@E$AAAKXZ 000000018006767c f i _nodert_generated.obj
 0001:00066688       ?__abi_AddRef@?QObject@Platform@@?$WriteOnlyArray@VGuid@Platform@@$00@2@WCA@E$AAAKXZ 0000000180067688 f i _nodert_generated.obj
 0001:000666a0       ?__abi_AddRef@?QObject@Platform@@?$WriteOnlyArray@VPoint@Foundation@Windows@@$00@2@UE$AAAKXZ 00000001800676a0 f i _nodert_generated.obj
 0001:000666d4       ?__abi_AddRef@?QObject@Platform@@?$WriteOnlyArray@VPoint@Foundation@Windows@@$00@2@W7E$AAAKXZ 00000001800676d4 f i _nodert_generated.obj
 0001:000666e0       ?__abi_AddRef@?QObject@Platform@@?$WriteOnlyArray@VPoint@Foundation@Windows@@$00@2@WBA@E$AAAKXZ 00000001800676e0 f i _nodert_generated.obj
 0001:000666ec       ?__abi_AddRef@?QObject@Platform@@?$WriteOnlyArray@VPoint@Foundation@Windows@@$00@2@WBI@E$AAAKXZ 00000001800676ec f i _nodert_generated.obj
 0001:000666f8       ?__abi_AddRef@?QObject@Platform@@?$WriteOnlyArray@VPoint@Foundation@Windows@@$00@2@WCA@E$AAAKXZ 00000001800676f8 f i _nodert_generated.obj
 0001:00066710       ?__abi_AddRef@?QObject@Platform@@?$WriteOnlyArray@VRect@Foundation@Windows@@$00@2@UE$AAAKXZ 0000000180067710 f i _nodert_generated.obj
 0001:00066744       ?__abi_AddRef@?QObject@Platform@@?$WriteOnlyArray@VRect@Foundation@Windows@@$00@2@W7E$AAAKXZ 0000000180067744 f i _nodert_generated.obj
 0001:00066750       ?__abi_AddRef@?QObject@Platform@@?$WriteOnlyArray@VRect@Foundation@Windows@@$00@2@WBA@E$AAAKXZ 0000000180067750 f i _nodert_generated.obj
 0001:0006675c       ?__abi_AddRef@?QObject@Platform@@?$WriteOnlyArray@VRect@Foundation@Windows@@$00@2@WBI@E$AAAKXZ 000000018006775c f i _nodert_generated.obj
 0001:00066768       ?__abi_AddRef@?QObject@Platform@@?$WriteOnlyArray@VRect@Foundation@Windows@@$00@2@WCA@E$AAAKXZ 0000000180067768 f i _nodert_generated.obj
 0001:00066780       ?__abi_AddRef@?QObject@Platform@@?$WriteOnlyArray@VSize@Foundation@Windows@@$00@2@UE$AAAKXZ 0000000180067780 f i _nodert_generated.obj
 0001:000667b4       ?__abi_AddRef@?QObject@Platform@@?$WriteOnlyArray@VSize@Foundation@Windows@@$00@2@W7E$AAAKXZ 00000001800677b4 f i _nodert_generated.obj
 0001:000667c0       ?__abi_AddRef@?QObject@Platform@@?$WriteOnlyArray@VSize@Foundation@Windows@@$00@2@WBA@E$AAAKXZ 00000001800677c0 f i _nodert_generated.obj
 0001:000667cc       ?__abi_AddRef@?QObject@Platform@@?$WriteOnlyArray@VSize@Foundation@Windows@@$00@2@WBI@E$AAAKXZ 00000001800677cc f i _nodert_generated.obj
 0001:000667d8       ?__abi_AddRef@?QObject@Platform@@?$WriteOnlyArray@VSize@Foundation@Windows@@$00@2@WCA@E$AAAKXZ 00000001800677d8 f i _nodert_generated.obj
 0001:000667f0       ?__abi_AddRef@?QObject@Platform@@?$WriteOnlyArray@VTimeSpan@Foundation@Windows@@$00@2@UE$AAAKXZ 00000001800677f0 f i _nodert_generated.obj
 0001:00066824       ?__abi_AddRef@?QObject@Platform@@?$WriteOnlyArray@VTimeSpan@Foundation@Windows@@$00@2@W7E$AAAKXZ 0000000180067824 f i _nodert_generated.obj
 0001:00066830       ?__abi_AddRef@?QObject@Platform@@?$WriteOnlyArray@VTimeSpan@Foundation@Windows@@$00@2@WBA@E$AAAKXZ 0000000180067830 f i _nodert_generated.obj
 0001:0006683c       ?__abi_AddRef@?QObject@Platform@@?$WriteOnlyArray@VTimeSpan@Foundation@Windows@@$00@2@WBI@E$AAAKXZ 000000018006783c f i _nodert_generated.obj
 0001:00066848       ?__abi_AddRef@?QObject@Platform@@?$WriteOnlyArray@VTimeSpan@Foundation@Windows@@$00@2@WCA@E$AAAKXZ 0000000180067848 f i _nodert_generated.obj
 0001:00066860       ?__abi_AddRef@?QObject@Platform@@?$WriteOnlyArray@_J$00@2@UE$AAAKXZ 0000000180067860 f i _nodert_generated.obj
 0001:00066894       ?__abi_AddRef@?QObject@Platform@@?$WriteOnlyArray@_J$00@2@W7E$AAAKXZ 0000000180067894 f i _nodert_generated.obj
 0001:000668a0       ?__abi_AddRef@?QObject@Platform@@?$WriteOnlyArray@_J$00@2@WBA@E$AAAKXZ 00000001800678a0 f i _nodert_generated.obj
 0001:000668ac       ?__abi_AddRef@?QObject@Platform@@?$WriteOnlyArray@_J$00@2@WBI@E$AAAKXZ 00000001800678ac f i _nodert_generated.obj
 0001:000668b8       ?__abi_AddRef@?QObject@Platform@@?$WriteOnlyArray@_J$00@2@WCA@E$AAAKXZ 00000001800678b8 f i _nodert_generated.obj
 0001:000668d0       ?__abi_AddRef@?QObject@Platform@@?$WriteOnlyArray@_K$00@2@UE$AAAKXZ 00000001800678d0 f i _nodert_generated.obj
 0001:00066904       ?__abi_AddRef@?QObject@Platform@@?$WriteOnlyArray@_K$00@2@W7E$AAAKXZ 0000000180067904 f i _nodert_generated.obj
 0001:00066910       ?__abi_AddRef@?QObject@Platform@@?$WriteOnlyArray@_K$00@2@WBA@E$AAAKXZ 0000000180067910 f i _nodert_generated.obj
 0001:0006691c       ?__abi_AddRef@?QObject@Platform@@?$WriteOnlyArray@_K$00@2@WBI@E$AAAKXZ 000000018006791c f i _nodert_generated.obj
 0001:00066928       ?__abi_AddRef@?QObject@Platform@@?$WriteOnlyArray@_K$00@2@WCA@E$AAAKXZ 0000000180067928 f i _nodert_generated.obj
 0001:00066940       ?__abi_AddRef@?QObject@Platform@@?$WriteOnlyArray@_N$00@2@UE$AAAKXZ 0000000180067940 f i _nodert_generated.obj
 0001:00066974       ?__abi_AddRef@?QObject@Platform@@?$WriteOnlyArray@_N$00@2@W7E$AAAKXZ 0000000180067974 f i _nodert_generated.obj
 0001:00066980       ?__abi_AddRef@?QObject@Platform@@?$WriteOnlyArray@_N$00@2@WBA@E$AAAKXZ 0000000180067980 f i _nodert_generated.obj
 0001:0006698c       ?__abi_AddRef@?QObject@Platform@@?$WriteOnlyArray@_N$00@2@WBI@E$AAAKXZ 000000018006798c f i _nodert_generated.obj
 0001:00066998       ?__abi_AddRef@?QObject@Platform@@?$WriteOnlyArray@_N$00@2@WCA@E$AAAKXZ 0000000180067998 f i _nodert_generated.obj
 0001:000669b0       ?__abi_AddRef@?QObject@Platform@@?$WriteOnlyArray@_W$00@2@UE$AAAKXZ 00000001800679b0 f i _nodert_generated.obj
 0001:000669e4       ?__abi_AddRef@?QObject@Platform@@?$WriteOnlyArray@_W$00@2@W7E$AAAKXZ 00000001800679e4 f i _nodert_generated.obj
 0001:000669f0       ?__abi_AddRef@?QObject@Platform@@?$WriteOnlyArray@_W$00@2@WBA@E$AAAKXZ 00000001800679f0 f i _nodert_generated.obj
 0001:000669fc       ?__abi_AddRef@?QObject@Platform@@?$WriteOnlyArray@_W$00@2@WBI@E$AAAKXZ 00000001800679fc f i _nodert_generated.obj
 0001:00066a08       ?__abi_AddRef@?QObject@Platform@@?$WriteOnlyArray@_W$00@2@WCA@E$AAAKXZ 0000000180067a08 f i _nodert_generated.obj
 0001:00066a20       ?__abi_GetIids@?$TypedEventHandler@PE$AAUIMemoryBufferReference@Foundation@Windows@@PE$AAVObject@Platform@@@Foundation@Windows@@UE$AAAJPEAKPEAPEAVGuid@Platform@@@Z 0000000180067a20 f i _nodert_generated.obj
 0001:00066a8c       ?__abi_GetIids@?$TypedEventHandler@PE$AAUIMemoryBufferReference@Foundation@Windows@@PE$AAVObject@Platform@@@Foundation@Windows@@W7E$AAAJPEAKPEAPEAVGuid@Platform@@@Z 0000000180067a8c f i _nodert_generated.obj
 0001:00066a98       ?__abi_GetIids@?$TypedEventHandler@PE$AAUIMemoryBufferReference@Foundation@Windows@@PE$AAVObject@Platform@@@Foundation@Windows@@WBA@E$AAAJPEAKPEAPEAVGuid@Platform@@@Z 0000000180067a98 f i _nodert_generated.obj
 0001:00066ab0       ?__abi_GetIids@?QObject@Platform@@?$Array@E$00@2@UE$AAAJPEAKPEAPEAVGuid@2@@Z 0000000180067ab0 f i _nodert_generated.obj
 0001:00066b80       ?__abi_GetIids@?QObject@Platform@@?$Array@E$00@2@W7E$AAAJPEAKPEAPEAVGuid@2@@Z 0000000180067b80 f i _nodert_generated.obj
 0001:00066b8c       ?__abi_GetIids@?QObject@Platform@@?$Array@E$00@2@WBA@E$AAAJPEAKPEAPEAVGuid@2@@Z 0000000180067b8c f i _nodert_generated.obj
 0001:00066b98       ?__abi_GetIids@?QObject@Platform@@?$Array@E$00@2@WBI@E$AAAJPEAKPEAPEAVGuid@2@@Z 0000000180067b98 f i _nodert_generated.obj
 0001:00066ba4       ?__abi_GetIids@?QObject@Platform@@?$Array@E$00@2@WCA@E$AAAJPEAKPEAPEAVGuid@2@@Z 0000000180067ba4 f i _nodert_generated.obj
 0001:00066bb0       ?__abi_GetIids@?QObject@Platform@@?$Array@E$00@2@WCI@E$AAAJPEAKPEAPEAVGuid@2@@Z 0000000180067bb0 f i _nodert_generated.obj
 0001:00066bbc       ?__abi_GetIids@?QObject@Platform@@?$Array@E$00@2@WDA@E$AAAJPEAKPEAPEAVGuid@2@@Z 0000000180067bbc f i _nodert_generated.obj
 0001:00066bc8       ?__abi_GetIids@?QObject@Platform@@?$Array@E$00@2@WEA@E$AAAJPEAKPEAPEAVGuid@2@@Z 0000000180067bc8 f i _nodert_generated.obj
 0001:00066bd4       ?__abi_GetIids@?QObject@Platform@@?$Array@E$00@2@WHI@E$AAAJPEAKPEAPEAVGuid@2@@Z 0000000180067bd4 f i _nodert_generated.obj
 0001:00066be0       ?__abi_GetIids@?QObject@Platform@@?$Array@F$00@2@UE$AAAJPEAKPEAPEAVGuid@2@@Z 0000000180067be0 f i _nodert_generated.obj
 0001:00066cb0       ?__abi_GetIids@?QObject@Platform@@?$Array@F$00@2@W7E$AAAJPEAKPEAPEAVGuid@2@@Z 0000000180067cb0 f i _nodert_generated.obj
 0001:00066cbc       ?__abi_GetIids@?QObject@Platform@@?$Array@F$00@2@WBA@E$AAAJPEAKPEAPEAVGuid@2@@Z 0000000180067cbc f i _nodert_generated.obj
 0001:00066cc8       ?__abi_GetIids@?QObject@Platform@@?$Array@F$00@2@WBI@E$AAAJPEAKPEAPEAVGuid@2@@Z 0000000180067cc8 f i _nodert_generated.obj
 0001:00066cd4       ?__abi_GetIids@?QObject@Platform@@?$Array@F$00@2@WCA@E$AAAJPEAKPEAPEAVGuid@2@@Z 0000000180067cd4 f i _nodert_generated.obj
 0001:00066ce0       ?__abi_GetIids@?QObject@Platform@@?$Array@F$00@2@WCI@E$AAAJPEAKPEAPEAVGuid@2@@Z 0000000180067ce0 f i _nodert_generated.obj
 0001:00066cec       ?__abi_GetIids@?QObject@Platform@@?$Array@F$00@2@WDA@E$AAAJPEAKPEAPEAVGuid@2@@Z 0000000180067cec f i _nodert_generated.obj
 0001:00066cf8       ?__abi_GetIids@?QObject@Platform@@?$Array@F$00@2@WEA@E$AAAJPEAKPEAPEAVGuid@2@@Z 0000000180067cf8 f i _nodert_generated.obj
 0001:00066d04       ?__abi_GetIids@?QObject@Platform@@?$Array@F$00@2@WHI@E$AAAJPEAKPEAPEAVGuid@2@@Z 0000000180067d04 f i _nodert_generated.obj
 0001:00066d10       ?__abi_GetIids@?QObject@Platform@@?$Array@G$00@2@UE$AAAJPEAKPEAPEAVGuid@2@@Z 0000000180067d10 f i _nodert_generated.obj
 0001:00066de0       ?__abi_GetIids@?QObject@Platform@@?$Array@G$00@2@W7E$AAAJPEAKPEAPEAVGuid@2@@Z 0000000180067de0 f i _nodert_generated.obj
 0001:00066dec       ?__abi_GetIids@?QObject@Platform@@?$Array@G$00@2@WBA@E$AAAJPEAKPEAPEAVGuid@2@@Z 0000000180067dec f i _nodert_generated.obj
 0001:00066df8       ?__abi_GetIids@?QObject@Platform@@?$Array@G$00@2@WBI@E$AAAJPEAKPEAPEAVGuid@2@@Z 0000000180067df8 f i _nodert_generated.obj
 0001:00066e04       ?__abi_GetIids@?QObject@Platform@@?$Array@G$00@2@WCA@E$AAAJPEAKPEAPEAVGuid@2@@Z 0000000180067e04 f i _nodert_generated.obj
 0001:00066e10       ?__abi_GetIids@?QObject@Platform@@?$Array@G$00@2@WCI@E$AAAJPEAKPEAPEAVGuid@2@@Z 0000000180067e10 f i _nodert_generated.obj
 0001:00066e1c       ?__abi_GetIids@?QObject@Platform@@?$Array@G$00@2@WDA@E$AAAJPEAKPEAPEAVGuid@2@@Z 0000000180067e1c f i _nodert_generated.obj
 0001:00066e28       ?__abi_GetIids@?QObject@Platform@@?$Array@G$00@2@WEA@E$AAAJPEAKPEAPEAVGuid@2@@Z 0000000180067e28 f i _nodert_generated.obj
 0001:00066e34       ?__abi_GetIids@?QObject@Platform@@?$Array@G$00@2@WHI@E$AAAJPEAKPEAPEAVGuid@2@@Z 0000000180067e34 f i _nodert_generated.obj
 0001:00066e40       ?__abi_GetIids@?QObject@Platform@@?$Array@H$00@2@UE$AAAJPEAKPEAPEAVGuid@2@@Z 0000000180067e40 f i _nodert_generated.obj
 0001:00066f10       ?__abi_GetIids@?QObject@Platform@@?$Array@H$00@2@W7E$AAAJPEAKPEAPEAVGuid@2@@Z 0000000180067f10 f i _nodert_generated.obj
 0001:00066f1c       ?__abi_GetIids@?QObject@Platform@@?$Array@H$00@2@WBA@E$AAAJPEAKPEAPEAVGuid@2@@Z 0000000180067f1c f i _nodert_generated.obj
 0001:00066f28       ?__abi_GetIids@?QObject@Platform@@?$Array@H$00@2@WBI@E$AAAJPEAKPEAPEAVGuid@2@@Z 0000000180067f28 f i _nodert_generated.obj
 0001:00066f34       ?__abi_GetIids@?QObject@Platform@@?$Array@H$00@2@WCA@E$AAAJPEAKPEAPEAVGuid@2@@Z 0000000180067f34 f i _nodert_generated.obj
 0001:00066f40       ?__abi_GetIids@?QObject@Platform@@?$Array@H$00@2@WCI@E$AAAJPEAKPEAPEAVGuid@2@@Z 0000000180067f40 f i _nodert_generated.obj
 0001:00066f4c       ?__abi_GetIids@?QObject@Platform@@?$Array@H$00@2@WDA@E$AAAJPEAKPEAPEAVGuid@2@@Z 0000000180067f4c f i _nodert_generated.obj
 0001:00066f58       ?__abi_GetIids@?QObject@Platform@@?$Array@H$00@2@WEA@E$AAAJPEAKPEAPEAVGuid@2@@Z 0000000180067f58 f i _nodert_generated.obj
 0001:00066f64       ?__abi_GetIids@?QObject@Platform@@?$Array@H$00@2@WHI@E$AAAJPEAKPEAPEAVGuid@2@@Z 0000000180067f64 f i _nodert_generated.obj
 0001:00066f70       ?__abi_GetIids@?QObject@Platform@@?$Array@I$00@2@UE$AAAJPEAKPEAPEAVGuid@2@@Z 0000000180067f70 f i _nodert_generated.obj
 0001:00067040       ?__abi_GetIids@?QObject@Platform@@?$Array@I$00@2@W7E$AAAJPEAKPEAPEAVGuid@2@@Z 0000000180068040 f i _nodert_generated.obj
 0001:0006704c       ?__abi_GetIids@?QObject@Platform@@?$Array@I$00@2@WBA@E$AAAJPEAKPEAPEAVGuid@2@@Z 000000018006804c f i _nodert_generated.obj
 0001:00067058       ?__abi_GetIids@?QObject@Platform@@?$Array@I$00@2@WBI@E$AAAJPEAKPEAPEAVGuid@2@@Z 0000000180068058 f i _nodert_generated.obj
 0001:00067064       ?__abi_GetIids@?QObject@Platform@@?$Array@I$00@2@WCA@E$AAAJPEAKPEAPEAVGuid@2@@Z 0000000180068064 f i _nodert_generated.obj
 0001:00067070       ?__abi_GetIids@?QObject@Platform@@?$Array@I$00@2@WCI@E$AAAJPEAKPEAPEAVGuid@2@@Z 0000000180068070 f i _nodert_generated.obj
 0001:0006707c       ?__abi_GetIids@?QObject@Platform@@?$Array@I$00@2@WDA@E$AAAJPEAKPEAPEAVGuid@2@@Z 000000018006807c f i _nodert_generated.obj
 0001:00067088       ?__abi_GetIids@?QObject@Platform@@?$Array@I$00@2@WEA@E$AAAJPEAKPEAPEAVGuid@2@@Z 0000000180068088 f i _nodert_generated.obj
 0001:00067094       ?__abi_GetIids@?QObject@Platform@@?$Array@I$00@2@WHI@E$AAAJPEAKPEAPEAVGuid@2@@Z 0000000180068094 f i _nodert_generated.obj
 0001:000670a0       ?__abi_GetIids@?QObject@Platform@@?$Array@M$00@2@UE$AAAJPEAKPEAPEAVGuid@2@@Z 00000001800680a0 f i _nodert_generated.obj
 0001:00067170       ?__abi_GetIids@?QObject@Platform@@?$Array@M$00@2@W7E$AAAJPEAKPEAPEAVGuid@2@@Z 0000000180068170 f i _nodert_generated.obj
 0001:0006717c       ?__abi_GetIids@?QObject@Platform@@?$Array@M$00@2@WBA@E$AAAJPEAKPEAPEAVGuid@2@@Z 000000018006817c f i _nodert_generated.obj
 0001:00067188       ?__abi_GetIids@?QObject@Platform@@?$Array@M$00@2@WBI@E$AAAJPEAKPEAPEAVGuid@2@@Z 0000000180068188 f i _nodert_generated.obj
 0001:00067194       ?__abi_GetIids@?QObject@Platform@@?$Array@M$00@2@WCA@E$AAAJPEAKPEAPEAVGuid@2@@Z 0000000180068194 f i _nodert_generated.obj
 0001:000671a0       ?__abi_GetIids@?QObject@Platform@@?$Array@M$00@2@WCI@E$AAAJPEAKPEAPEAVGuid@2@@Z 00000001800681a0 f i _nodert_generated.obj
 0001:000671ac       ?__abi_GetIids@?QObject@Platform@@?$Array@M$00@2@WDA@E$AAAJPEAKPEAPEAVGuid@2@@Z 00000001800681ac f i _nodert_generated.obj
 0001:000671b8       ?__abi_GetIids@?QObject@Platform@@?$Array@M$00@2@WEA@E$AAAJPEAKPEAPEAVGuid@2@@Z 00000001800681b8 f i _nodert_generated.obj
 0001:000671c4       ?__abi_GetIids@?QObject@Platform@@?$Array@M$00@2@WHI@E$AAAJPEAKPEAPEAVGuid@2@@Z 00000001800681c4 f i _nodert_generated.obj
 0001:000671d0       ?__abi_GetIids@?QObject@Platform@@?$Array@N$00@2@UE$AAAJPEAKPEAPEAVGuid@2@@Z 00000001800681d0 f i _nodert_generated.obj
 0001:000672a0       ?__abi_GetIids@?QObject@Platform@@?$Array@N$00@2@W7E$AAAJPEAKPEAPEAVGuid@2@@Z 00000001800682a0 f i _nodert_generated.obj
 0001:000672ac       ?__abi_GetIids@?QObject@Platform@@?$Array@N$00@2@WBA@E$AAAJPEAKPEAPEAVGuid@2@@Z 00000001800682ac f i _nodert_generated.obj
 0001:000672b8       ?__abi_GetIids@?QObject@Platform@@?$Array@N$00@2@WBI@E$AAAJPEAKPEAPEAVGuid@2@@Z 00000001800682b8 f i _nodert_generated.obj
 0001:000672c4       ?__abi_GetIids@?QObject@Platform@@?$Array@N$00@2@WCA@E$AAAJPEAKPEAPEAVGuid@2@@Z 00000001800682c4 f i _nodert_generated.obj
 0001:000672d0       ?__abi_GetIids@?QObject@Platform@@?$Array@N$00@2@WCI@E$AAAJPEAKPEAPEAVGuid@2@@Z 00000001800682d0 f i _nodert_generated.obj
 0001:000672dc       ?__abi_GetIids@?QObject@Platform@@?$Array@N$00@2@WDA@E$AAAJPEAKPEAPEAVGuid@2@@Z 00000001800682dc f i _nodert_generated.obj
 0001:000672e8       ?__abi_GetIids@?QObject@Platform@@?$Array@N$00@2@WEA@E$AAAJPEAKPEAPEAVGuid@2@@Z 00000001800682e8 f i _nodert_generated.obj
 0001:000672f4       ?__abi_GetIids@?QObject@Platform@@?$Array@N$00@2@WHI@E$AAAJPEAKPEAPEAVGuid@2@@Z 00000001800682f4 f i _nodert_generated.obj
 0001:00067300       ?__abi_GetIids@?QObject@Platform@@?$Array@PE$AAVObject@Platform@@$00@2@UE$AAAJPEAKPEAPEAVGuid@2@@Z 0000000180068300 f i _nodert_generated.obj
 0001:000673d0       ?__abi_GetIids@?QObject@Platform@@?$Array@PE$AAVObject@Platform@@$00@2@W7E$AAAJPEAKPEAPEAVGuid@2@@Z 00000001800683d0 f i _nodert_generated.obj
 0001:000673dc       ?__abi_GetIids@?QObject@Platform@@?$Array@PE$AAVObject@Platform@@$00@2@WBA@E$AAAJPEAKPEAPEAVGuid@2@@Z 00000001800683dc f i _nodert_generated.obj
 0001:000673e8       ?__abi_GetIids@?QObject@Platform@@?$Array@PE$AAVObject@Platform@@$00@2@WBI@E$AAAJPEAKPEAPEAVGuid@2@@Z 00000001800683e8 f i _nodert_generated.obj
 0001:000673f4       ?__abi_GetIids@?QObject@Platform@@?$Array@PE$AAVObject@Platform@@$00@2@WCA@E$AAAJPEAKPEAPEAVGuid@2@@Z 00000001800683f4 f i _nodert_generated.obj
 0001:00067400       ?__abi_GetIids@?QObject@Platform@@?$Array@PE$AAVObject@Platform@@$00@2@WCI@E$AAAJPEAKPEAPEAVGuid@2@@Z 0000000180068400 f i _nodert_generated.obj
 0001:0006740c       ?__abi_GetIids@?QObject@Platform@@?$Array@PE$AAVObject@Platform@@$00@2@WDA@E$AAAJPEAKPEAPEAVGuid@2@@Z 000000018006840c f i _nodert_generated.obj
 0001:00067418       ?__abi_GetIids@?QObject@Platform@@?$Array@PE$AAVObject@Platform@@$00@2@WEA@E$AAAJPEAKPEAPEAVGuid@2@@Z 0000000180068418 f i _nodert_generated.obj
 0001:00067424       ?__abi_GetIids@?QObject@Platform@@?$Array@PE$AAVObject@Platform@@$00@2@WHI@E$AAAJPEAKPEAPEAVGuid@2@@Z 0000000180068424 f i _nodert_generated.obj
 0001:00067430       ?__abi_GetIids@?QObject@Platform@@?$Array@PE$AAVString@Platform@@$00@2@UE$AAAJPEAKPEAPEAVGuid@2@@Z 0000000180068430 f i _nodert_generated.obj
 0001:00067500       ?__abi_GetIids@?QObject@Platform@@?$Array@PE$AAVString@Platform@@$00@2@W7E$AAAJPEAKPEAPEAVGuid@2@@Z 0000000180068500 f i _nodert_generated.obj
 0001:0006750c       ?__abi_GetIids@?QObject@Platform@@?$Array@PE$AAVString@Platform@@$00@2@WBA@E$AAAJPEAKPEAPEAVGuid@2@@Z 000000018006850c f i _nodert_generated.obj
 0001:00067518       ?__abi_GetIids@?QObject@Platform@@?$Array@PE$AAVString@Platform@@$00@2@WBI@E$AAAJPEAKPEAPEAVGuid@2@@Z 0000000180068518 f i _nodert_generated.obj
 0001:00067524       ?__abi_GetIids@?QObject@Platform@@?$Array@PE$AAVString@Platform@@$00@2@WCA@E$AAAJPEAKPEAPEAVGuid@2@@Z 0000000180068524 f i _nodert_generated.obj
 0001:00067530       ?__abi_GetIids@?QObject@Platform@@?$Array@PE$AAVString@Platform@@$00@2@WCI@E$AAAJPEAKPEAPEAVGuid@2@@Z 0000000180068530 f i _nodert_generated.obj
 0001:0006753c       ?__abi_GetIids@?QObject@Platform@@?$Array@PE$AAVString@Platform@@$00@2@WDA@E$AAAJPEAKPEAPEAVGuid@2@@Z 000000018006853c f i _nodert_generated.obj
 0001:00067548       ?__abi_GetIids@?QObject@Platform@@?$Array@PE$AAVString@Platform@@$00@2@WEA@E$AAAJPEAKPEAPEAVGuid@2@@Z 0000000180068548 f i _nodert_generated.obj
 0001:00067554       ?__abi_GetIids@?QObject@Platform@@?$Array@PE$AAVString@Platform@@$00@2@WHI@E$AAAJPEAKPEAPEAVGuid@2@@Z 0000000180068554 f i _nodert_generated.obj
 0001:00067560       ?__abi_GetIids@?QObject@Platform@@?$Array@VDateTime@Foundation@Windows@@$00@2@UE$AAAJPEAKPEAPEAVGuid@2@@Z 0000000180068560 f i _nodert_generated.obj
 0001:00067630       ?__abi_GetIids@?QObject@Platform@@?$Array@VDateTime@Foundation@Windows@@$00@2@W7E$AAAJPEAKPEAPEAVGuid@2@@Z 0000000180068630 f i _nodert_generated.obj
 0001:0006763c       ?__abi_GetIids@?QObject@Platform@@?$Array@VDateTime@Foundation@Windows@@$00@2@WBA@E$AAAJPEAKPEAPEAVGuid@2@@Z 000000018006863c f i _nodert_generated.obj
 0001:00067648       ?__abi_GetIids@?QObject@Platform@@?$Array@VDateTime@Foundation@Windows@@$00@2@WBI@E$AAAJPEAKPEAPEAVGuid@2@@Z 0000000180068648 f i _nodert_generated.obj
 0001:00067654       ?__abi_GetIids@?QObject@Platform@@?$Array@VDateTime@Foundation@Windows@@$00@2@WCA@E$AAAJPEAKPEAPEAVGuid@2@@Z 0000000180068654 f i _nodert_generated.obj
 0001:00067660       ?__abi_GetIids@?QObject@Platform@@?$Array@VDateTime@Foundation@Windows@@$00@2@WCI@E$AAAJPEAKPEAPEAVGuid@2@@Z 0000000180068660 f i _nodert_generated.obj
 0001:0006766c       ?__abi_GetIids@?QObject@Platform@@?$Array@VDateTime@Foundation@Windows@@$00@2@WDA@E$AAAJPEAKPEAPEAVGuid@2@@Z 000000018006866c f i _nodert_generated.obj
 0001:00067678       ?__abi_GetIids@?QObject@Platform@@?$Array@VDateTime@Foundation@Windows@@$00@2@WEA@E$AAAJPEAKPEAPEAVGuid@2@@Z 0000000180068678 f i _nodert_generated.obj
 0001:00067684       ?__abi_GetIids@?QObject@Platform@@?$Array@VDateTime@Foundation@Windows@@$00@2@WHI@E$AAAJPEAKPEAPEAVGuid@2@@Z 0000000180068684 f i _nodert_generated.obj
 0001:00067690       ?__abi_GetIids@?QObject@Platform@@?$Array@VGuid@Platform@@$00@2@UE$AAAJPEAKPEAPEAVGuid@2@@Z 0000000180068690 f i _nodert_generated.obj
 0001:00067760       ?__abi_GetIids@?QObject@Platform@@?$Array@VGuid@Platform@@$00@2@W7E$AAAJPEAKPEAPEAVGuid@2@@Z 0000000180068760 f i _nodert_generated.obj
 0001:0006776c       ?__abi_GetIids@?QObject@Platform@@?$Array@VGuid@Platform@@$00@2@WBA@E$AAAJPEAKPEAPEAVGuid@2@@Z 000000018006876c f i _nodert_generated.obj
 0001:00067778       ?__abi_GetIids@?QObject@Platform@@?$Array@VGuid@Platform@@$00@2@WBI@E$AAAJPEAKPEAPEAVGuid@2@@Z 0000000180068778 f i _nodert_generated.obj
 0001:00067784       ?__abi_GetIids@?QObject@Platform@@?$Array@VGuid@Platform@@$00@2@WCA@E$AAAJPEAKPEAPEAVGuid@2@@Z 0000000180068784 f i _nodert_generated.obj
 0001:00067790       ?__abi_GetIids@?QObject@Platform@@?$Array@VGuid@Platform@@$00@2@WCI@E$AAAJPEAKPEAPEAVGuid@2@@Z 0000000180068790 f i _nodert_generated.obj
 0001:0006779c       ?__abi_GetIids@?QObject@Platform@@?$Array@VGuid@Platform@@$00@2@WDA@E$AAAJPEAKPEAPEAVGuid@2@@Z 000000018006879c f i _nodert_generated.obj
 0001:000677a8       ?__abi_GetIids@?QObject@Platform@@?$Array@VGuid@Platform@@$00@2@WEA@E$AAAJPEAKPEAPEAVGuid@2@@Z 00000001800687a8 f i _nodert_generated.obj
 0001:000677b4       ?__abi_GetIids@?QObject@Platform@@?$Array@VGuid@Platform@@$00@2@WHI@E$AAAJPEAKPEAPEAVGuid@2@@Z 00000001800687b4 f i _nodert_generated.obj
 0001:000677c0       ?__abi_GetIids@?QObject@Platform@@?$Array@VPoint@Foundation@Windows@@$00@2@UE$AAAJPEAKPEAPEAVGuid@2@@Z 00000001800687c0 f i _nodert_generated.obj
 0001:00067890       ?__abi_GetIids@?QObject@Platform@@?$Array@VPoint@Foundation@Windows@@$00@2@W7E$AAAJPEAKPEAPEAVGuid@2@@Z 0000000180068890 f i _nodert_generated.obj
 0001:0006789c       ?__abi_GetIids@?QObject@Platform@@?$Array@VPoint@Foundation@Windows@@$00@2@WBA@E$AAAJPEAKPEAPEAVGuid@2@@Z 000000018006889c f i _nodert_generated.obj
 0001:000678a8       ?__abi_GetIids@?QObject@Platform@@?$Array@VPoint@Foundation@Windows@@$00@2@WBI@E$AAAJPEAKPEAPEAVGuid@2@@Z 00000001800688a8 f i _nodert_generated.obj
 0001:000678b4       ?__abi_GetIids@?QObject@Platform@@?$Array@VPoint@Foundation@Windows@@$00@2@WCA@E$AAAJPEAKPEAPEAVGuid@2@@Z 00000001800688b4 f i _nodert_generated.obj
 0001:000678c0       ?__abi_GetIids@?QObject@Platform@@?$Array@VPoint@Foundation@Windows@@$00@2@WCI@E$AAAJPEAKPEAPEAVGuid@2@@Z 00000001800688c0 f i _nodert_generated.obj
 0001:000678cc       ?__abi_GetIids@?QObject@Platform@@?$Array@VPoint@Foundation@Windows@@$00@2@WDA@E$AAAJPEAKPEAPEAVGuid@2@@Z 00000001800688cc f i _nodert_generated.obj
 0001:000678d8       ?__abi_GetIids@?QObject@Platform@@?$Array@VPoint@Foundation@Windows@@$00@2@WEA@E$AAAJPEAKPEAPEAVGuid@2@@Z 00000001800688d8 f i _nodert_generated.obj
 0001:000678e4       ?__abi_GetIids@?QObject@Platform@@?$Array@VPoint@Foundation@Windows@@$00@2@WHI@E$AAAJPEAKPEAPEAVGuid@2@@Z 00000001800688e4 f i _nodert_generated.obj
 0001:000678f0       ?__abi_GetIids@?QObject@Platform@@?$Array@VRect@Foundation@Windows@@$00@2@UE$AAAJPEAKPEAPEAVGuid@2@@Z 00000001800688f0 f i _nodert_generated.obj
 0001:000679c0       ?__abi_GetIids@?QObject@Platform@@?$Array@VRect@Foundation@Windows@@$00@2@W7E$AAAJPEAKPEAPEAVGuid@2@@Z 00000001800689c0 f i _nodert_generated.obj
 0001:000679cc       ?__abi_GetIids@?QObject@Platform@@?$Array@VRect@Foundation@Windows@@$00@2@WBA@E$AAAJPEAKPEAPEAVGuid@2@@Z 00000001800689cc f i _nodert_generated.obj
 0001:000679d8       ?__abi_GetIids@?QObject@Platform@@?$Array@VRect@Foundation@Windows@@$00@2@WBI@E$AAAJPEAKPEAPEAVGuid@2@@Z 00000001800689d8 f i _nodert_generated.obj
 0001:000679e4       ?__abi_GetIids@?QObject@Platform@@?$Array@VRect@Foundation@Windows@@$00@2@WCA@E$AAAJPEAKPEAPEAVGuid@2@@Z 00000001800689e4 f i _nodert_generated.obj
 0001:000679f0       ?__abi_GetIids@?QObject@Platform@@?$Array@VRect@Foundation@Windows@@$00@2@WCI@E$AAAJPEAKPEAPEAVGuid@2@@Z 00000001800689f0 f i _nodert_generated.obj
 0001:000679fc       ?__abi_GetIids@?QObject@Platform@@?$Array@VRect@Foundation@Windows@@$00@2@WDA@E$AAAJPEAKPEAPEAVGuid@2@@Z 00000001800689fc f i _nodert_generated.obj
 0001:00067a08       ?__abi_GetIids@?QObject@Platform@@?$Array@VRect@Foundation@Windows@@$00@2@WEA@E$AAAJPEAKPEAPEAVGuid@2@@Z 0000000180068a08 f i _nodert_generated.obj
 0001:00067a14       ?__abi_GetIids@?QObject@Platform@@?$Array@VRect@Foundation@Windows@@$00@2@WHI@E$AAAJPEAKPEAPEAVGuid@2@@Z 0000000180068a14 f i _nodert_generated.obj
 0001:00067a20       ?__abi_GetIids@?QObject@Platform@@?$Array@VSize@Foundation@Windows@@$00@2@UE$AAAJPEAKPEAPEAVGuid@2@@Z 0000000180068a20 f i _nodert_generated.obj
 0001:00067af0       ?__abi_GetIids@?QObject@Platform@@?$Array@VSize@Foundation@Windows@@$00@2@W7E$AAAJPEAKPEAPEAVGuid@2@@Z 0000000180068af0 f i _nodert_generated.obj
 0001:00067afc       ?__abi_GetIids@?QObject@Platform@@?$Array@VSize@Foundation@Windows@@$00@2@WBA@E$AAAJPEAKPEAPEAVGuid@2@@Z 0000000180068afc f i _nodert_generated.obj
 0001:00067b08       ?__abi_GetIids@?QObject@Platform@@?$Array@VSize@Foundation@Windows@@$00@2@WBI@E$AAAJPEAKPEAPEAVGuid@2@@Z 0000000180068b08 f i _nodert_generated.obj
 0001:00067b14       ?__abi_GetIids@?QObject@Platform@@?$Array@VSize@Foundation@Windows@@$00@2@WCA@E$AAAJPEAKPEAPEAVGuid@2@@Z 0000000180068b14 f i _nodert_generated.obj
 0001:00067b20       ?__abi_GetIids@?QObject@Platform@@?$Array@VSize@Foundation@Windows@@$00@2@WCI@E$AAAJPEAKPEAPEAVGuid@2@@Z 0000000180068b20 f i _nodert_generated.obj
 0001:00067b2c       ?__abi_GetIids@?QObject@Platform@@?$Array@VSize@Foundation@Windows@@$00@2@WDA@E$AAAJPEAKPEAPEAVGuid@2@@Z 0000000180068b2c f i _nodert_generated.obj
 0001:00067b38       ?__abi_GetIids@?QObject@Platform@@?$Array@VSize@Foundation@Windows@@$00@2@WEA@E$AAAJPEAKPEAPEAVGuid@2@@Z 0000000180068b38 f i _nodert_generated.obj
 0001:00067b44       ?__abi_GetIids@?QObject@Platform@@?$Array@VSize@Foundation@Windows@@$00@2@WHI@E$AAAJPEAKPEAPEAVGuid@2@@Z 0000000180068b44 f i _nodert_generated.obj
 0001:00067b50       ?__abi_GetIids@?QObject@Platform@@?$Array@VTimeSpan@Foundation@Windows@@$00@2@UE$AAAJPEAKPEAPEAVGuid@2@@Z 0000000180068b50 f i _nodert_generated.obj
 0001:00067c20       ?__abi_GetIids@?QObject@Platform@@?$Array@VTimeSpan@Foundation@Windows@@$00@2@W7E$AAAJPEAKPEAPEAVGuid@2@@Z 0000000180068c20 f i _nodert_generated.obj
 0001:00067c2c       ?__abi_GetIids@?QObject@Platform@@?$Array@VTimeSpan@Foundation@Windows@@$00@2@WBA@E$AAAJPEAKPEAPEAVGuid@2@@Z 0000000180068c2c f i _nodert_generated.obj
 0001:00067c38       ?__abi_GetIids@?QObject@Platform@@?$Array@VTimeSpan@Foundation@Windows@@$00@2@WBI@E$AAAJPEAKPEAPEAVGuid@2@@Z 0000000180068c38 f i _nodert_generated.obj
 0001:00067c44       ?__abi_GetIids@?QObject@Platform@@?$Array@VTimeSpan@Foundation@Windows@@$00@2@WCA@E$AAAJPEAKPEAPEAVGuid@2@@Z 0000000180068c44 f i _nodert_generated.obj
 0001:00067c50       ?__abi_GetIids@?QObject@Platform@@?$Array@VTimeSpan@Foundation@Windows@@$00@2@WCI@E$AAAJPEAKPEAPEAVGuid@2@@Z 0000000180068c50 f i _nodert_generated.obj
 0001:00067c5c       ?__abi_GetIids@?QObject@Platform@@?$Array@VTimeSpan@Foundation@Windows@@$00@2@WDA@E$AAAJPEAKPEAPEAVGuid@2@@Z 0000000180068c5c f i _nodert_generated.obj
 0001:00067c68       ?__abi_GetIids@?QObject@Platform@@?$Array@VTimeSpan@Foundation@Windows@@$00@2@WEA@E$AAAJPEAKPEAPEAVGuid@2@@Z 0000000180068c68 f i _nodert_generated.obj
 0001:00067c74       ?__abi_GetIids@?QObject@Platform@@?$Array@VTimeSpan@Foundation@Windows@@$00@2@WHI@E$AAAJPEAKPEAPEAVGuid@2@@Z 0000000180068c74 f i _nodert_generated.obj
 0001:00067c80       ?__abi_GetIids@?QObject@Platform@@?$Array@_J$00@2@UE$AAAJPEAKPEAPEAVGuid@2@@Z 0000000180068c80 f i _nodert_generated.obj
 0001:00067d50       ?__abi_GetIids@?QObject@Platform@@?$Array@_J$00@2@W7E$AAAJPEAKPEAPEAVGuid@2@@Z 0000000180068d50 f i _nodert_generated.obj
 0001:00067d5c       ?__abi_GetIids@?QObject@Platform@@?$Array@_J$00@2@WBA@E$AAAJPEAKPEAPEAVGuid@2@@Z 0000000180068d5c f i _nodert_generated.obj
 0001:00067d68       ?__abi_GetIids@?QObject@Platform@@?$Array@_J$00@2@WBI@E$AAAJPEAKPEAPEAVGuid@2@@Z 0000000180068d68 f i _nodert_generated.obj
 0001:00067d74       ?__abi_GetIids@?QObject@Platform@@?$Array@_J$00@2@WCA@E$AAAJPEAKPEAPEAVGuid@2@@Z 0000000180068d74 f i _nodert_generated.obj
 0001:00067d80       ?__abi_GetIids@?QObject@Platform@@?$Array@_J$00@2@WCI@E$AAAJPEAKPEAPEAVGuid@2@@Z 0000000180068d80 f i _nodert_generated.obj
 0001:00067d8c       ?__abi_GetIids@?QObject@Platform@@?$Array@_J$00@2@WDA@E$AAAJPEAKPEAPEAVGuid@2@@Z 0000000180068d8c f i _nodert_generated.obj
 0001:00067d98       ?__abi_GetIids@?QObject@Platform@@?$Array@_J$00@2@WEA@E$AAAJPEAKPEAPEAVGuid@2@@Z 0000000180068d98 f i _nodert_generated.obj
 0001:00067da4       ?__abi_GetIids@?QObject@Platform@@?$Array@_J$00@2@WHI@E$AAAJPEAKPEAPEAVGuid@2@@Z 0000000180068da4 f i _nodert_generated.obj
 0001:00067db0       ?__abi_GetIids@?QObject@Platform@@?$Array@_K$00@2@UE$AAAJPEAKPEAPEAVGuid@2@@Z 0000000180068db0 f i _nodert_generated.obj
 0001:00067e80       ?__abi_GetIids@?QObject@Platform@@?$Array@_K$00@2@W7E$AAAJPEAKPEAPEAVGuid@2@@Z 0000000180068e80 f i _nodert_generated.obj
 0001:00067e8c       ?__abi_GetIids@?QObject@Platform@@?$Array@_K$00@2@WBA@E$AAAJPEAKPEAPEAVGuid@2@@Z 0000000180068e8c f i _nodert_generated.obj
 0001:00067e98       ?__abi_GetIids@?QObject@Platform@@?$Array@_K$00@2@WBI@E$AAAJPEAKPEAPEAVGuid@2@@Z 0000000180068e98 f i _nodert_generated.obj
 0001:00067ea4       ?__abi_GetIids@?QObject@Platform@@?$Array@_K$00@2@WCA@E$AAAJPEAKPEAPEAVGuid@2@@Z 0000000180068ea4 f i _nodert_generated.obj
 0001:00067eb0       ?__abi_GetIids@?QObject@Platform@@?$Array@_K$00@2@WCI@E$AAAJPEAKPEAPEAVGuid@2@@Z 0000000180068eb0 f i _nodert_generated.obj
 0001:00067ebc       ?__abi_GetIids@?QObject@Platform@@?$Array@_K$00@2@WDA@E$AAAJPEAKPEAPEAVGuid@2@@Z 0000000180068ebc f i _nodert_generated.obj
 0001:00067ec8       ?__abi_GetIids@?QObject@Platform@@?$Array@_K$00@2@WEA@E$AAAJPEAKPEAPEAVGuid@2@@Z 0000000180068ec8 f i _nodert_generated.obj
 0001:00067ed4       ?__abi_GetIids@?QObject@Platform@@?$Array@_K$00@2@WHI@E$AAAJPEAKPEAPEAVGuid@2@@Z 0000000180068ed4 f i _nodert_generated.obj
 0001:00067ee0       ?__abi_GetIids@?QObject@Platform@@?$Array@_N$00@2@UE$AAAJPEAKPEAPEAVGuid@2@@Z 0000000180068ee0 f i _nodert_generated.obj
 0001:00067fb0       ?__abi_GetIids@?QObject@Platform@@?$Array@_N$00@2@W7E$AAAJPEAKPEAPEAVGuid@2@@Z 0000000180068fb0 f i _nodert_generated.obj
 0001:00067fbc       ?__abi_GetIids@?QObject@Platform@@?$Array@_N$00@2@WBA@E$AAAJPEAKPEAPEAVGuid@2@@Z 0000000180068fbc f i _nodert_generated.obj
 0001:00067fc8       ?__abi_GetIids@?QObject@Platform@@?$Array@_N$00@2@WBI@E$AAAJPEAKPEAPEAVGuid@2@@Z 0000000180068fc8 f i _nodert_generated.obj
 0001:00067fd4       ?__abi_GetIids@?QObject@Platform@@?$Array@_N$00@2@WCA@E$AAAJPEAKPEAPEAVGuid@2@@Z 0000000180068fd4 f i _nodert_generated.obj
 0001:00067fe0       ?__abi_GetIids@?QObject@Platform@@?$Array@_N$00@2@WCI@E$AAAJPEAKPEAPEAVGuid@2@@Z 0000000180068fe0 f i _nodert_generated.obj
 0001:00067fec       ?__abi_GetIids@?QObject@Platform@@?$Array@_N$00@2@WDA@E$AAAJPEAKPEAPEAVGuid@2@@Z 0000000180068fec f i _nodert_generated.obj
 0001:00067ff8       ?__abi_GetIids@?QObject@Platform@@?$Array@_N$00@2@WEA@E$AAAJPEAKPEAPEAVGuid@2@@Z 0000000180068ff8 f i _nodert_generated.obj
 0001:00068004       ?__abi_GetIids@?QObject@Platform@@?$Array@_N$00@2@WHI@E$AAAJPEAKPEAPEAVGuid@2@@Z 0000000180069004 f i _nodert_generated.obj
 0001:00068010       ?__abi_GetIids@?QObject@Platform@@?$Array@_W$00@2@UE$AAAJPEAKPEAPEAVGuid@2@@Z 0000000180069010 f i _nodert_generated.obj
 0001:000680e0       ?__abi_GetIids@?QObject@Platform@@?$Array@_W$00@2@W7E$AAAJPEAKPEAPEAVGuid@2@@Z 00000001800690e0 f i _nodert_generated.obj
 0001:000680ec       ?__abi_GetIids@?QObject@Platform@@?$Array@_W$00@2@WBA@E$AAAJPEAKPEAPEAVGuid@2@@Z 00000001800690ec f i _nodert_generated.obj
 0001:000680f8       ?__abi_GetIids@?QObject@Platform@@?$Array@_W$00@2@WBI@E$AAAJPEAKPEAPEAVGuid@2@@Z 00000001800690f8 f i _nodert_generated.obj
 0001:00068104       ?__abi_GetIids@?QObject@Platform@@?$Array@_W$00@2@WCA@E$AAAJPEAKPEAPEAVGuid@2@@Z 0000000180069104 f i _nodert_generated.obj
 0001:00068110       ?__abi_GetIids@?QObject@Platform@@?$Array@_W$00@2@WCI@E$AAAJPEAKPEAPEAVGuid@2@@Z 0000000180069110 f i _nodert_generated.obj
 0001:0006811c       ?__abi_GetIids@?QObject@Platform@@?$Array@_W$00@2@WDA@E$AAAJPEAKPEAPEAVGuid@2@@Z 000000018006911c f i _nodert_generated.obj
 0001:00068128       ?__abi_GetIids@?QObject@Platform@@?$Array@_W$00@2@WEA@E$AAAJPEAKPEAPEAVGuid@2@@Z 0000000180069128 f i _nodert_generated.obj
 0001:00068134       ?__abi_GetIids@?QObject@Platform@@?$Array@_W$00@2@WHI@E$AAAJPEAKPEAPEAVGuid@2@@Z 0000000180069134 f i _nodert_generated.obj
 0001:00068140       ?__abi_GetIids@?QObject@Platform@@?$CustomBox@E@Details@2@UE$AAAJPEAKPEAPEAVGuid@2@@Z 0000000180069140 f i _nodert_generated.obj
 0001:000681ec       ?__abi_GetIids@?QObject@Platform@@?$CustomBox@E@Details@2@W7E$AAAJPEAKPEAPEAVGuid@2@@Z 00000001800691ec f i _nodert_generated.obj
 0001:000681f8       ?__abi_GetIids@?QObject@Platform@@?$CustomBox@E@Details@2@WBA@E$AAAJPEAKPEAPEAVGuid@2@@Z 00000001800691f8 f i _nodert_generated.obj
 0001:00068204       ?__abi_GetIids@?QObject@Platform@@?$CustomBox@E@Details@2@WBI@E$AAAJPEAKPEAPEAVGuid@2@@Z 0000000180069204 f i _nodert_generated.obj
 0001:00068210       ?__abi_GetIids@?QObject@Platform@@?$CustomBox@E@Details@2@WCI@E$AAAJPEAKPEAPEAVGuid@2@@Z 0000000180069210 f i _nodert_generated.obj
 0001:00068220       ?__abi_GetIids@?QObject@Platform@@?$CustomBox@F@Details@2@UE$AAAJPEAKPEAPEAVGuid@2@@Z 0000000180069220 f i _nodert_generated.obj
 0001:000682cc       ?__abi_GetIids@?QObject@Platform@@?$CustomBox@F@Details@2@W7E$AAAJPEAKPEAPEAVGuid@2@@Z 00000001800692cc f i _nodert_generated.obj
 0001:000682d8       ?__abi_GetIids@?QObject@Platform@@?$CustomBox@F@Details@2@WBA@E$AAAJPEAKPEAPEAVGuid@2@@Z 00000001800692d8 f i _nodert_generated.obj
 0001:000682e4       ?__abi_GetIids@?QObject@Platform@@?$CustomBox@F@Details@2@WBI@E$AAAJPEAKPEAPEAVGuid@2@@Z 00000001800692e4 f i _nodert_generated.obj
 0001:000682f0       ?__abi_GetIids@?QObject@Platform@@?$CustomBox@F@Details@2@WCI@E$AAAJPEAKPEAPEAVGuid@2@@Z 00000001800692f0 f i _nodert_generated.obj
 0001:00068300       ?__abi_GetIids@?QObject@Platform@@?$CustomBox@G@Details@2@UE$AAAJPEAKPEAPEAVGuid@2@@Z 0000000180069300 f i _nodert_generated.obj
 0001:000683ac       ?__abi_GetIids@?QObject@Platform@@?$CustomBox@G@Details@2@W7E$AAAJPEAKPEAPEAVGuid@2@@Z 00000001800693ac f i _nodert_generated.obj
 0001:000683b8       ?__abi_GetIids@?QObject@Platform@@?$CustomBox@G@Details@2@WBA@E$AAAJPEAKPEAPEAVGuid@2@@Z 00000001800693b8 f i _nodert_generated.obj
 0001:000683c4       ?__abi_GetIids@?QObject@Platform@@?$CustomBox@G@Details@2@WBI@E$AAAJPEAKPEAPEAVGuid@2@@Z 00000001800693c4 f i _nodert_generated.obj
 0001:000683d0       ?__abi_GetIids@?QObject@Platform@@?$CustomBox@G@Details@2@WCI@E$AAAJPEAKPEAPEAVGuid@2@@Z 00000001800693d0 f i _nodert_generated.obj
 0001:000683e0       ?__abi_GetIids@?QObject@Platform@@?$CustomBox@H@Details@2@UE$AAAJPEAKPEAPEAVGuid@2@@Z 00000001800693e0 f i _nodert_generated.obj
 0001:0006848c       ?__abi_GetIids@?QObject@Platform@@?$CustomBox@H@Details@2@W7E$AAAJPEAKPEAPEAVGuid@2@@Z 000000018006948c f i _nodert_generated.obj
 0001:00068498       ?__abi_GetIids@?QObject@Platform@@?$CustomBox@H@Details@2@WBA@E$AAAJPEAKPEAPEAVGuid@2@@Z 0000000180069498 f i _nodert_generated.obj
 0001:000684a4       ?__abi_GetIids@?QObject@Platform@@?$CustomBox@H@Details@2@WBI@E$AAAJPEAKPEAPEAVGuid@2@@Z 00000001800694a4 f i _nodert_generated.obj
 0001:000684b0       ?__abi_GetIids@?QObject@Platform@@?$CustomBox@H@Details@2@WCI@E$AAAJPEAKPEAPEAVGuid@2@@Z 00000001800694b0 f i _nodert_generated.obj
 0001:000684c0       ?__abi_GetIids@?QObject@Platform@@?$CustomBox@I@Details@2@UE$AAAJPEAKPEAPEAVGuid@2@@Z 00000001800694c0 f i _nodert_generated.obj
 0001:0006856c       ?__abi_GetIids@?QObject@Platform@@?$CustomBox@I@Details@2@W7E$AAAJPEAKPEAPEAVGuid@2@@Z 000000018006956c f i _nodert_generated.obj
 0001:00068578       ?__abi_GetIids@?QObject@Platform@@?$CustomBox@I@Details@2@WBA@E$AAAJPEAKPEAPEAVGuid@2@@Z 0000000180069578 f i _nodert_generated.obj
 0001:00068584       ?__abi_GetIids@?QObject@Platform@@?$CustomBox@I@Details@2@WBI@E$AAAJPEAKPEAPEAVGuid@2@@Z 0000000180069584 f i _nodert_generated.obj
 0001:00068590       ?__abi_GetIids@?QObject@Platform@@?$CustomBox@I@Details@2@WCI@E$AAAJPEAKPEAPEAVGuid@2@@Z 0000000180069590 f i _nodert_generated.obj
 0001:000685a0       ?__abi_GetIids@?QObject@Platform@@?$CustomBox@M@Details@2@UE$AAAJPEAKPEAPEAVGuid@2@@Z 00000001800695a0 f i _nodert_generated.obj
 0001:0006864c       ?__abi_GetIids@?QObject@Platform@@?$CustomBox@M@Details@2@W7E$AAAJPEAKPEAPEAVGuid@2@@Z 000000018006964c f i _nodert_generated.obj
 0001:00068658       ?__abi_GetIids@?QObject@Platform@@?$CustomBox@M@Details@2@WBA@E$AAAJPEAKPEAPEAVGuid@2@@Z 0000000180069658 f i _nodert_generated.obj
 0001:00068664       ?__abi_GetIids@?QObject@Platform@@?$CustomBox@M@Details@2@WBI@E$AAAJPEAKPEAPEAVGuid@2@@Z 0000000180069664 f i _nodert_generated.obj
 0001:00068670       ?__abi_GetIids@?QObject@Platform@@?$CustomBox@M@Details@2@WCI@E$AAAJPEAKPEAPEAVGuid@2@@Z 0000000180069670 f i _nodert_generated.obj
 0001:00068680       ?__abi_GetIids@?QObject@Platform@@?$CustomBox@N@Details@2@UE$AAAJPEAKPEAPEAVGuid@2@@Z 0000000180069680 f i _nodert_generated.obj
 0001:0006872c       ?__abi_GetIids@?QObject@Platform@@?$CustomBox@N@Details@2@W7E$AAAJPEAKPEAPEAVGuid@2@@Z 000000018006972c f i _nodert_generated.obj
 0001:00068738       ?__abi_GetIids@?QObject@Platform@@?$CustomBox@N@Details@2@WBA@E$AAAJPEAKPEAPEAVGuid@2@@Z 0000000180069738 f i _nodert_generated.obj
 0001:00068744       ?__abi_GetIids@?QObject@Platform@@?$CustomBox@N@Details@2@WBI@E$AAAJPEAKPEAPEAVGuid@2@@Z 0000000180069744 f i _nodert_generated.obj
 0001:00068750       ?__abi_GetIids@?QObject@Platform@@?$CustomBox@N@Details@2@WCI@E$AAAJPEAKPEAPEAVGuid@2@@Z 0000000180069750 f i _nodert_generated.obj
 0001:00068760       ?__abi_GetIids@?QObject@Platform@@?$CustomBox@PE$AAVAsyncActionCompletedHandler@Foundation@Windows@@@Details@2@UE$AAAJPEAKPEAPEAVGuid@2@@Z 0000000180069760 f i _nodert_generated.obj
 0001:0006880c       ?__abi_GetIids@?QObject@Platform@@?$CustomBox@PE$AAVAsyncActionCompletedHandler@Foundation@Windows@@@Details@2@W7E$AAAJPEAKPEAPEAVGuid@2@@Z 000000018006980c f i _nodert_generated.obj
 0001:00068818       ?__abi_GetIids@?QObject@Platform@@?$CustomBox@PE$AAVAsyncActionCompletedHandler@Foundation@Windows@@@Details@2@WBA@E$AAAJPEAKPEAPEAVGuid@2@@Z 0000000180069818 f i _nodert_generated.obj
 0001:00068824       ?__abi_GetIids@?QObject@Platform@@?$CustomBox@PE$AAVAsyncActionCompletedHandler@Foundation@Windows@@@Details@2@WBI@E$AAAJPEAKPEAPEAVGuid@2@@Z 0000000180069824 f i _nodert_generated.obj
 0001:00068830       ?__abi_GetIids@?QObject@Platform@@?$CustomBox@PE$AAVAsyncActionCompletedHandler@Foundation@Windows@@@Details@2@WCI@E$AAAJPEAKPEAPEAVGuid@2@@Z 0000000180069830 f i _nodert_generated.obj
 0001:00068840       ?__abi_GetIids@?QObject@Platform@@?$CustomBox@VDateTime@Foundation@Windows@@@Details@2@UE$AAAJPEAKPEAPEAVGuid@2@@Z 0000000180069840 f i _nodert_generated.obj
 0001:000688ec       ?__abi_GetIids@?QObject@Platform@@?$CustomBox@VDateTime@Foundation@Windows@@@Details@2@W7E$AAAJPEAKPEAPEAVGuid@2@@Z 00000001800698ec f i _nodert_generated.obj
 0001:000688f8       ?__abi_GetIids@?QObject@Platform@@?$CustomBox@VDateTime@Foundation@Windows@@@Details@2@WBA@E$AAAJPEAKPEAPEAVGuid@2@@Z 00000001800698f8 f i _nodert_generated.obj
 0001:00068904       ?__abi_GetIids@?QObject@Platform@@?$CustomBox@VDateTime@Foundation@Windows@@@Details@2@WBI@E$AAAJPEAKPEAPEAVGuid@2@@Z 0000000180069904 f i _nodert_generated.obj
 0001:00068910       ?__abi_GetIids@?QObject@Platform@@?$CustomBox@VDateTime@Foundation@Windows@@@Details@2@WCI@E$AAAJPEAKPEAPEAVGuid@2@@Z 0000000180069910 f i _nodert_generated.obj
 0001:00068920       ?__abi_GetIids@?QObject@Platform@@?$CustomBox@VGuid@Platform@@@Details@2@UE$AAAJPEAKPEAPEAVGuid@2@@Z 0000000180069920 f i _nodert_generated.obj
 0001:000689cc       ?__abi_GetIids@?QObject@Platform@@?$CustomBox@VGuid@Platform@@@Details@2@W7E$AAAJPEAKPEAPEAVGuid@2@@Z 00000001800699cc f i _nodert_generated.obj
 0001:000689d8       ?__abi_GetIids@?QObject@Platform@@?$CustomBox@VGuid@Platform@@@Details@2@WBA@E$AAAJPEAKPEAPEAVGuid@2@@Z 00000001800699d8 f i _nodert_generated.obj
 0001:000689e4       ?__abi_GetIids@?QObject@Platform@@?$CustomBox@VGuid@Platform@@@Details@2@WBI@E$AAAJPEAKPEAPEAVGuid@2@@Z 00000001800699e4 f i _nodert_generated.obj
 0001:000689f0       ?__abi_GetIids@?QObject@Platform@@?$CustomBox@VGuid@Platform@@@Details@2@WCI@E$AAAJPEAKPEAPEAVGuid@2@@Z 00000001800699f0 f i _nodert_generated.obj
 0001:00068a00       ?__abi_GetIids@?QObject@Platform@@?$CustomBox@VPoint@Foundation@Windows@@@Details@2@UE$AAAJPEAKPEAPEAVGuid@2@@Z 0000000180069a00 f i _nodert_generated.obj
 0001:00068aac       ?__abi_GetIids@?QObject@Platform@@?$CustomBox@VPoint@Foundation@Windows@@@Details@2@W7E$AAAJPEAKPEAPEAVGuid@2@@Z 0000000180069aac f i _nodert_generated.obj
 0001:00068ab8       ?__abi_GetIids@?QObject@Platform@@?$CustomBox@VPoint@Foundation@Windows@@@Details@2@WBA@E$AAAJPEAKPEAPEAVGuid@2@@Z 0000000180069ab8 f i _nodert_generated.obj
 0001:00068ac4       ?__abi_GetIids@?QObject@Platform@@?$CustomBox@VPoint@Foundation@Windows@@@Details@2@WBI@E$AAAJPEAKPEAPEAVGuid@2@@Z 0000000180069ac4 f i _nodert_generated.obj
 0001:00068ad0       ?__abi_GetIids@?QObject@Platform@@?$CustomBox@VPoint@Foundation@Windows@@@Details@2@WCI@E$AAAJPEAKPEAPEAVGuid@2@@Z 0000000180069ad0 f i _nodert_generated.obj
 0001:00068ae0       ?__abi_GetIids@?QObject@Platform@@?$CustomBox@VRect@Foundation@Windows@@@Details@2@UE$AAAJPEAKPEAPEAVGuid@2@@Z 0000000180069ae0 f i _nodert_generated.obj
 0001:00068b8c       ?__abi_GetIids@?QObject@Platform@@?$CustomBox@VRect@Foundation@Windows@@@Details@2@W7E$AAAJPEAKPEAPEAVGuid@2@@Z 0000000180069b8c f i _nodert_generated.obj
 0001:00068b98       ?__abi_GetIids@?QObject@Platform@@?$CustomBox@VRect@Foundation@Windows@@@Details@2@WBA@E$AAAJPEAKPEAPEAVGuid@2@@Z 0000000180069b98 f i _nodert_generated.obj
 0001:00068ba4       ?__abi_GetIids@?QObject@Platform@@?$CustomBox@VRect@Foundation@Windows@@@Details@2@WBI@E$AAAJPEAKPEAPEAVGuid@2@@Z 0000000180069ba4 f i _nodert_generated.obj
 0001:00068bb0       ?__abi_GetIids@?QObject@Platform@@?$CustomBox@VRect@Foundation@Windows@@@Details@2@WCI@E$AAAJPEAKPEAPEAVGuid@2@@Z 0000000180069bb0 f i _nodert_generated.obj
 0001:00068bc0       ?__abi_GetIids@?QObject@Platform@@?$CustomBox@VSize@Foundation@Windows@@@Details@2@UE$AAAJPEAKPEAPEAVGuid@2@@Z 0000000180069bc0 f i _nodert_generated.obj
 0001:00068c6c       ?__abi_GetIids@?QObject@Platform@@?$CustomBox@VSize@Foundation@Windows@@@Details@2@W7E$AAAJPEAKPEAPEAVGuid@2@@Z 0000000180069c6c f i _nodert_generated.obj
 0001:00068c78       ?__abi_GetIids@?QObject@Platform@@?$CustomBox@VSize@Foundation@Windows@@@Details@2@WBA@E$AAAJPEAKPEAPEAVGuid@2@@Z 0000000180069c78 f i _nodert_generated.obj
 0001:00068c84       ?__abi_GetIids@?QObject@Platform@@?$CustomBox@VSize@Foundation@Windows@@@Details@2@WBI@E$AAAJPEAKPEAPEAVGuid@2@@Z 0000000180069c84 f i _nodert_generated.obj
 0001:00068c90       ?__abi_GetIids@?QObject@Platform@@?$CustomBox@VSize@Foundation@Windows@@@Details@2@WCI@E$AAAJPEAKPEAPEAVGuid@2@@Z 0000000180069c90 f i _nodert_generated.obj
 0001:00068ca0       ?__abi_GetIids@?QObject@Platform@@?$CustomBox@VTimeSpan@Foundation@Windows@@@Details@2@UE$AAAJPEAKPEAPEAVGuid@2@@Z 0000000180069ca0 f i _nodert_generated.obj
 0001:00068d4c       ?__abi_GetIids@?QObject@Platform@@?$CustomBox@VTimeSpan@Foundation@Windows@@@Details@2@W7E$AAAJPEAKPEAPEAVGuid@2@@Z 0000000180069d4c f i _nodert_generated.obj
 0001:00068d58       ?__abi_GetIids@?QObject@Platform@@?$CustomBox@VTimeSpan@Foundation@Windows@@@Details@2@WBA@E$AAAJPEAKPEAPEAVGuid@2@@Z 0000000180069d58 f i _nodert_generated.obj
 0001:00068d64       ?__abi_GetIids@?QObject@Platform@@?$CustomBox@VTimeSpan@Foundation@Windows@@@Details@2@WBI@E$AAAJPEAKPEAPEAVGuid@2@@Z 0000000180069d64 f i _nodert_generated.obj
 0001:00068d70       ?__abi_GetIids@?QObject@Platform@@?$CustomBox@VTimeSpan@Foundation@Windows@@@Details@2@WCI@E$AAAJPEAKPEAPEAVGuid@2@@Z 0000000180069d70 f i _nodert_generated.obj
 0001:00068d80       ?__abi_GetIids@?QObject@Platform@@?$CustomBox@_J@Details@2@UE$AAAJPEAKPEAPEAVGuid@2@@Z 0000000180069d80 f i _nodert_generated.obj
 0001:00068e2c       ?__abi_GetIids@?QObject@Platform@@?$CustomBox@_J@Details@2@W7E$AAAJPEAKPEAPEAVGuid@2@@Z 0000000180069e2c f i _nodert_generated.obj
 0001:00068e38       ?__abi_GetIids@?QObject@Platform@@?$CustomBox@_J@Details@2@WBA@E$AAAJPEAKPEAPEAVGuid@2@@Z 0000000180069e38 f i _nodert_generated.obj
 0001:00068e44       ?__abi_GetIids@?QObject@Platform@@?$CustomBox@_J@Details@2@WBI@E$AAAJPEAKPEAPEAVGuid@2@@Z 0000000180069e44 f i _nodert_generated.obj
 0001:00068e50       ?__abi_GetIids@?QObject@Platform@@?$CustomBox@_J@Details@2@WCI@E$AAAJPEAKPEAPEAVGuid@2@@Z 0000000180069e50 f i _nodert_generated.obj
 0001:00068e60       ?__abi_GetIids@?QObject@Platform@@?$CustomBox@_K@Details@2@UE$AAAJPEAKPEAPEAVGuid@2@@Z 0000000180069e60 f i _nodert_generated.obj
 0001:00068f0c       ?__abi_GetIids@?QObject@Platform@@?$CustomBox@_K@Details@2@W7E$AAAJPEAKPEAPEAVGuid@2@@Z 0000000180069f0c f i _nodert_generated.obj
 0001:00068f18       ?__abi_GetIids@?QObject@Platform@@?$CustomBox@_K@Details@2@WBA@E$AAAJPEAKPEAPEAVGuid@2@@Z 0000000180069f18 f i _nodert_generated.obj
 0001:00068f24       ?__abi_GetIids@?QObject@Platform@@?$CustomBox@_K@Details@2@WBI@E$AAAJPEAKPEAPEAVGuid@2@@Z 0000000180069f24 f i _nodert_generated.obj
 0001:00068f30       ?__abi_GetIids@?QObject@Platform@@?$CustomBox@_K@Details@2@WCI@E$AAAJPEAKPEAPEAVGuid@2@@Z 0000000180069f30 f i _nodert_generated.obj
 0001:00068f40       ?__abi_GetIids@?QObject@Platform@@?$CustomBox@_N@Details@2@UE$AAAJPEAKPEAPEAVGuid@2@@Z 0000000180069f40 f i _nodert_generated.obj
 0001:00068fec       ?__abi_GetIids@?QObject@Platform@@?$CustomBox@_N@Details@2@W7E$AAAJPEAKPEAPEAVGuid@2@@Z 0000000180069fec f i _nodert_generated.obj
 0001:00068ff8       ?__abi_GetIids@?QObject@Platform@@?$CustomBox@_N@Details@2@WBA@E$AAAJPEAKPEAPEAVGuid@2@@Z 0000000180069ff8 f i _nodert_generated.obj
 0001:00069004       ?__abi_GetIids@?QObject@Platform@@?$CustomBox@_N@Details@2@WBI@E$AAAJPEAKPEAPEAVGuid@2@@Z 000000018006a004 f i _nodert_generated.obj
 0001:00069010       ?__abi_GetIids@?QObject@Platform@@?$CustomBox@_N@Details@2@WCI@E$AAAJPEAKPEAPEAVGuid@2@@Z 000000018006a010 f i _nodert_generated.obj
 0001:00069020       ?__abi_GetIids@?QObject@Platform@@?$CustomBox@_W@Details@2@UE$AAAJPEAKPEAPEAVGuid@2@@Z 000000018006a020 f i _nodert_generated.obj
 0001:000690cc       ?__abi_GetIids@?QObject@Platform@@?$CustomBox@_W@Details@2@W7E$AAAJPEAKPEAPEAVGuid@2@@Z 000000018006a0cc f i _nodert_generated.obj
 0001:000690d8       ?__abi_GetIids@?QObject@Platform@@?$CustomBox@_W@Details@2@WBA@E$AAAJPEAKPEAPEAVGuid@2@@Z 000000018006a0d8 f i _nodert_generated.obj
 0001:000690e4       ?__abi_GetIids@?QObject@Platform@@?$CustomBox@_W@Details@2@WBI@E$AAAJPEAKPEAPEAVGuid@2@@Z 000000018006a0e4 f i _nodert_generated.obj
 0001:000690f0       ?__abi_GetIids@?QObject@Platform@@?$CustomBox@_W@Details@2@WCI@E$AAAJPEAKPEAPEAVGuid@2@@Z 000000018006a0f0 f i _nodert_generated.obj
 0001:00069100       ?__abi_GetIids@?QObject@Platform@@?$WriteOnlyArray@E$00@2@UE$AAAJPEAKPEAPEAVGuid@2@@Z 000000018006a100 f i _nodert_generated.obj
 0001:000691ac       ?__abi_GetIids@?QObject@Platform@@?$WriteOnlyArray@E$00@2@W7E$AAAJPEAKPEAPEAVGuid@2@@Z 000000018006a1ac f i _nodert_generated.obj
 0001:000691b8       ?__abi_GetIids@?QObject@Platform@@?$WriteOnlyArray@E$00@2@WBA@E$AAAJPEAKPEAPEAVGuid@2@@Z 000000018006a1b8 f i _nodert_generated.obj
 0001:000691c4       ?__abi_GetIids@?QObject@Platform@@?$WriteOnlyArray@E$00@2@WCA@E$AAAJPEAKPEAPEAVGuid@2@@Z 000000018006a1c4 f i _nodert_generated.obj
 0001:000691d0       ?__abi_GetIids@?QObject@Platform@@?$WriteOnlyArray@F$00@2@UE$AAAJPEAKPEAPEAVGuid@2@@Z 000000018006a1d0 f i _nodert_generated.obj
 0001:0006927c       ?__abi_GetIids@?QObject@Platform@@?$WriteOnlyArray@F$00@2@W7E$AAAJPEAKPEAPEAVGuid@2@@Z 000000018006a27c f i _nodert_generated.obj
 0001:00069288       ?__abi_GetIids@?QObject@Platform@@?$WriteOnlyArray@F$00@2@WBA@E$AAAJPEAKPEAPEAVGuid@2@@Z 000000018006a288 f i _nodert_generated.obj
 0001:00069294       ?__abi_GetIids@?QObject@Platform@@?$WriteOnlyArray@F$00@2@WCA@E$AAAJPEAKPEAPEAVGuid@2@@Z 000000018006a294 f i _nodert_generated.obj
 0001:000692a0       ?__abi_GetIids@?QObject@Platform@@?$WriteOnlyArray@G$00@2@UE$AAAJPEAKPEAPEAVGuid@2@@Z 000000018006a2a0 f i _nodert_generated.obj
 0001:0006934c       ?__abi_GetIids@?QObject@Platform@@?$WriteOnlyArray@G$00@2@W7E$AAAJPEAKPEAPEAVGuid@2@@Z 000000018006a34c f i _nodert_generated.obj
 0001:00069358       ?__abi_GetIids@?QObject@Platform@@?$WriteOnlyArray@G$00@2@WBA@E$AAAJPEAKPEAPEAVGuid@2@@Z 000000018006a358 f i _nodert_generated.obj
 0001:00069364       ?__abi_GetIids@?QObject@Platform@@?$WriteOnlyArray@G$00@2@WCA@E$AAAJPEAKPEAPEAVGuid@2@@Z 000000018006a364 f i _nodert_generated.obj
 0001:00069370       ?__abi_GetIids@?QObject@Platform@@?$WriteOnlyArray@H$00@2@UE$AAAJPEAKPEAPEAVGuid@2@@Z 000000018006a370 f i _nodert_generated.obj
 0001:0006941c       ?__abi_GetIids@?QObject@Platform@@?$WriteOnlyArray@H$00@2@W7E$AAAJPEAKPEAPEAVGuid@2@@Z 000000018006a41c f i _nodert_generated.obj
 0001:00069428       ?__abi_GetIids@?QObject@Platform@@?$WriteOnlyArray@H$00@2@WBA@E$AAAJPEAKPEAPEAVGuid@2@@Z 000000018006a428 f i _nodert_generated.obj
 0001:00069434       ?__abi_GetIids@?QObject@Platform@@?$WriteOnlyArray@H$00@2@WCA@E$AAAJPEAKPEAPEAVGuid@2@@Z 000000018006a434 f i _nodert_generated.obj
 0001:00069440       ?__abi_GetIids@?QObject@Platform@@?$WriteOnlyArray@I$00@2@UE$AAAJPEAKPEAPEAVGuid@2@@Z 000000018006a440 f i _nodert_generated.obj
 0001:000694ec       ?__abi_GetIids@?QObject@Platform@@?$WriteOnlyArray@I$00@2@W7E$AAAJPEAKPEAPEAVGuid@2@@Z 000000018006a4ec f i _nodert_generated.obj
 0001:000694f8       ?__abi_GetIids@?QObject@Platform@@?$WriteOnlyArray@I$00@2@WBA@E$AAAJPEAKPEAPEAVGuid@2@@Z 000000018006a4f8 f i _nodert_generated.obj
 0001:00069504       ?__abi_GetIids@?QObject@Platform@@?$WriteOnlyArray@I$00@2@WCA@E$AAAJPEAKPEAPEAVGuid@2@@Z 000000018006a504 f i _nodert_generated.obj
 0001:00069510       ?__abi_GetIids@?QObject@Platform@@?$WriteOnlyArray@M$00@2@UE$AAAJPEAKPEAPEAVGuid@2@@Z 000000018006a510 f i _nodert_generated.obj
 0001:000695bc       ?__abi_GetIids@?QObject@Platform@@?$WriteOnlyArray@M$00@2@W7E$AAAJPEAKPEAPEAVGuid@2@@Z 000000018006a5bc f i _nodert_generated.obj
 0001:000695c8       ?__abi_GetIids@?QObject@Platform@@?$WriteOnlyArray@M$00@2@WBA@E$AAAJPEAKPEAPEAVGuid@2@@Z 000000018006a5c8 f i _nodert_generated.obj
 0001:000695d4       ?__abi_GetIids@?QObject@Platform@@?$WriteOnlyArray@M$00@2@WCA@E$AAAJPEAKPEAPEAVGuid@2@@Z 000000018006a5d4 f i _nodert_generated.obj
 0001:000695e0       ?__abi_GetIids@?QObject@Platform@@?$WriteOnlyArray@N$00@2@UE$AAAJPEAKPEAPEAVGuid@2@@Z 000000018006a5e0 f i _nodert_generated.obj
 0001:0006968c       ?__abi_GetIids@?QObject@Platform@@?$WriteOnlyArray@N$00@2@W7E$AAAJPEAKPEAPEAVGuid@2@@Z 000000018006a68c f i _nodert_generated.obj
 0001:00069698       ?__abi_GetIids@?QObject@Platform@@?$WriteOnlyArray@N$00@2@WBA@E$AAAJPEAKPEAPEAVGuid@2@@Z 000000018006a698 f i _nodert_generated.obj
 0001:000696a4       ?__abi_GetIids@?QObject@Platform@@?$WriteOnlyArray@N$00@2@WCA@E$AAAJPEAKPEAPEAVGuid@2@@Z 000000018006a6a4 f i _nodert_generated.obj
 0001:000696b0       ?__abi_GetIids@?QObject@Platform@@?$WriteOnlyArray@PE$AAVObject@Platform@@$00@2@UE$AAAJPEAKPEAPEAVGuid@2@@Z 000000018006a6b0 f i _nodert_generated.obj
 0001:0006975c       ?__abi_GetIids@?QObject@Platform@@?$WriteOnlyArray@PE$AAVObject@Platform@@$00@2@W7E$AAAJPEAKPEAPEAVGuid@2@@Z 000000018006a75c f i _nodert_generated.obj
 0001:00069768       ?__abi_GetIids@?QObject@Platform@@?$WriteOnlyArray@PE$AAVObject@Platform@@$00@2@WBA@E$AAAJPEAKPEAPEAVGuid@2@@Z 000000018006a768 f i _nodert_generated.obj
 0001:00069774       ?__abi_GetIids@?QObject@Platform@@?$WriteOnlyArray@PE$AAVObject@Platform@@$00@2@WCA@E$AAAJPEAKPEAPEAVGuid@2@@Z 000000018006a774 f i _nodert_generated.obj
 0001:00069780       ?__abi_GetIids@?QObject@Platform@@?$WriteOnlyArray@PE$AAVString@Platform@@$00@2@UE$AAAJPEAKPEAPEAVGuid@2@@Z 000000018006a780 f i _nodert_generated.obj
 0001:0006982c       ?__abi_GetIids@?QObject@Platform@@?$WriteOnlyArray@PE$AAVString@Platform@@$00@2@W7E$AAAJPEAKPEAPEAVGuid@2@@Z 000000018006a82c f i _nodert_generated.obj
 0001:00069838       ?__abi_GetIids@?QObject@Platform@@?$WriteOnlyArray@PE$AAVString@Platform@@$00@2@WBA@E$AAAJPEAKPEAPEAVGuid@2@@Z 000000018006a838 f i _nodert_generated.obj
 0001:00069844       ?__abi_GetIids@?QObject@Platform@@?$WriteOnlyArray@PE$AAVString@Platform@@$00@2@WCA@E$AAAJPEAKPEAPEAVGuid@2@@Z 000000018006a844 f i _nodert_generated.obj
 0001:00069850       ?__abi_GetIids@?QObject@Platform@@?$WriteOnlyArray@VDateTime@Foundation@Windows@@$00@2@UE$AAAJPEAKPEAPEAVGuid@2@@Z 000000018006a850 f i _nodert_generated.obj
 0001:000698fc       ?__abi_GetIids@?QObject@Platform@@?$WriteOnlyArray@VDateTime@Foundation@Windows@@$00@2@W7E$AAAJPEAKPEAPEAVGuid@2@@Z 000000018006a8fc f i _nodert_generated.obj
 0001:00069908       ?__abi_GetIids@?QObject@Platform@@?$WriteOnlyArray@VDateTime@Foundation@Windows@@$00@2@WBA@E$AAAJPEAKPEAPEAVGuid@2@@Z 000000018006a908 f i _nodert_generated.obj
 0001:00069914       ?__abi_GetIids@?QObject@Platform@@?$WriteOnlyArray@VDateTime@Foundation@Windows@@$00@2@WCA@E$AAAJPEAKPEAPEAVGuid@2@@Z 000000018006a914 f i _nodert_generated.obj
 0001:00069920       ?__abi_GetIids@?QObject@Platform@@?$WriteOnlyArray@VGuid@Platform@@$00@2@UE$AAAJPEAKPEAPEAVGuid@2@@Z 000000018006a920 f i _nodert_generated.obj
 0001:000699cc       ?__abi_GetIids@?QObject@Platform@@?$WriteOnlyArray@VGuid@Platform@@$00@2@W7E$AAAJPEAKPEAPEAVGuid@2@@Z 000000018006a9cc f i _nodert_generated.obj
 0001:000699d8       ?__abi_GetIids@?QObject@Platform@@?$WriteOnlyArray@VGuid@Platform@@$00@2@WBA@E$AAAJPEAKPEAPEAVGuid@2@@Z 000000018006a9d8 f i _nodert_generated.obj
 0001:000699e4       ?__abi_GetIids@?QObject@Platform@@?$WriteOnlyArray@VGuid@Platform@@$00@2@WCA@E$AAAJPEAKPEAPEAVGuid@2@@Z 000000018006a9e4 f i _nodert_generated.obj
 0001:000699f0       ?__abi_GetIids@?QObject@Platform@@?$WriteOnlyArray@VPoint@Foundation@Windows@@$00@2@UE$AAAJPEAKPEAPEAVGuid@2@@Z 000000018006a9f0 f i _nodert_generated.obj
 0001:00069a9c       ?__abi_GetIids@?QObject@Platform@@?$WriteOnlyArray@VPoint@Foundation@Windows@@$00@2@W7E$AAAJPEAKPEAPEAVGuid@2@@Z 000000018006aa9c f i _nodert_generated.obj
 0001:00069aa8       ?__abi_GetIids@?QObject@Platform@@?$WriteOnlyArray@VPoint@Foundation@Windows@@$00@2@WBA@E$AAAJPEAKPEAPEAVGuid@2@@Z 000000018006aaa8 f i _nodert_generated.obj
 0001:00069ab4       ?__abi_GetIids@?QObject@Platform@@?$WriteOnlyArray@VPoint@Foundation@Windows@@$00@2@WCA@E$AAAJPEAKPEAPEAVGuid@2@@Z 000000018006aab4 f i _nodert_generated.obj
 0001:00069ac0       ?__abi_GetIids@?QObject@Platform@@?$WriteOnlyArray@VRect@Foundation@Windows@@$00@2@UE$AAAJPEAKPEAPEAVGuid@2@@Z 000000018006aac0 f i _nodert_generated.obj
 0001:00069b6c       ?__abi_GetIids@?QObject@Platform@@?$WriteOnlyArray@VRect@Foundation@Windows@@$00@2@W7E$AAAJPEAKPEAPEAVGuid@2@@Z 000000018006ab6c f i _nodert_generated.obj
 0001:00069b78       ?__abi_GetIids@?QObject@Platform@@?$WriteOnlyArray@VRect@Foundation@Windows@@$00@2@WBA@E$AAAJPEAKPEAPEAVGuid@2@@Z 000000018006ab78 f i _nodert_generated.obj
 0001:00069b84       ?__abi_GetIids@?QObject@Platform@@?$WriteOnlyArray@VRect@Foundation@Windows@@$00@2@WCA@E$AAAJPEAKPEAPEAVGuid@2@@Z 000000018006ab84 f i _nodert_generated.obj
 0001:00069b90       ?__abi_GetIids@?QObject@Platform@@?$WriteOnlyArray@VSize@Foundation@Windows@@$00@2@UE$AAAJPEAKPEAPEAVGuid@2@@Z 000000018006ab90 f i _nodert_generated.obj
 0001:00069c3c       ?__abi_GetIids@?QObject@Platform@@?$WriteOnlyArray@VSize@Foundation@Windows@@$00@2@W7E$AAAJPEAKPEAPEAVGuid@2@@Z 000000018006ac3c f i _nodert_generated.obj
 0001:00069c48       ?__abi_GetIids@?QObject@Platform@@?$WriteOnlyArray@VSize@Foundation@Windows@@$00@2@WBA@E$AAAJPEAKPEAPEAVGuid@2@@Z 000000018006ac48 f i _nodert_generated.obj
 0001:00069c54       ?__abi_GetIids@?QObject@Platform@@?$WriteOnlyArray@VSize@Foundation@Windows@@$00@2@WCA@E$AAAJPEAKPEAPEAVGuid@2@@Z 000000018006ac54 f i _nodert_generated.obj
 0001:00069c60       ?__abi_GetIids@?QObject@Platform@@?$WriteOnlyArray@VTimeSpan@Foundation@Windows@@$00@2@UE$AAAJPEAKPEAPEAVGuid@2@@Z 000000018006ac60 f i _nodert_generated.obj
 0001:00069d0c       ?__abi_GetIids@?QObject@Platform@@?$WriteOnlyArray@VTimeSpan@Foundation@Windows@@$00@2@W7E$AAAJPEAKPEAPEAVGuid@2@@Z 000000018006ad0c f i _nodert_generated.obj
 0001:00069d18       ?__abi_GetIids@?QObject@Platform@@?$WriteOnlyArray@VTimeSpan@Foundation@Windows@@$00@2@WBA@E$AAAJPEAKPEAPEAVGuid@2@@Z 000000018006ad18 f i _nodert_generated.obj
 0001:00069d24       ?__abi_GetIids@?QObject@Platform@@?$WriteOnlyArray@VTimeSpan@Foundation@Windows@@$00@2@WCA@E$AAAJPEAKPEAPEAVGuid@2@@Z 000000018006ad24 f i _nodert_generated.obj
 0001:00069d30       ?__abi_GetIids@?QObject@Platform@@?$WriteOnlyArray@_J$00@2@UE$AAAJPEAKPEAPEAVGuid@2@@Z 000000018006ad30 f i _nodert_generated.obj
 0001:00069ddc       ?__abi_GetIids@?QObject@Platform@@?$WriteOnlyArray@_J$00@2@W7E$AAAJPEAKPEAPEAVGuid@2@@Z 000000018006addc f i _nodert_generated.obj
 0001:00069de8       ?__abi_GetIids@?QObject@Platform@@?$WriteOnlyArray@_J$00@2@WBA@E$AAAJPEAKPEAPEAVGuid@2@@Z 000000018006ade8 f i _nodert_generated.obj
 0001:00069df4       ?__abi_GetIids@?QObject@Platform@@?$WriteOnlyArray@_J$00@2@WCA@E$AAAJPEAKPEAPEAVGuid@2@@Z 000000018006adf4 f i _nodert_generated.obj
 0001:00069e00       ?__abi_GetIids@?QObject@Platform@@?$WriteOnlyArray@_K$00@2@UE$AAAJPEAKPEAPEAVGuid@2@@Z 000000018006ae00 f i _nodert_generated.obj
 0001:00069eac       ?__abi_GetIids@?QObject@Platform@@?$WriteOnlyArray@_K$00@2@W7E$AAAJPEAKPEAPEAVGuid@2@@Z 000000018006aeac f i _nodert_generated.obj
 0001:00069eb8       ?__abi_GetIids@?QObject@Platform@@?$WriteOnlyArray@_K$00@2@WBA@E$AAAJPEAKPEAPEAVGuid@2@@Z 000000018006aeb8 f i _nodert_generated.obj
 0001:00069ec4       ?__abi_GetIids@?QObject@Platform@@?$WriteOnlyArray@_K$00@2@WCA@E$AAAJPEAKPEAPEAVGuid@2@@Z 000000018006aec4 f i _nodert_generated.obj
 0001:00069ed0       ?__abi_GetIids@?QObject@Platform@@?$WriteOnlyArray@_N$00@2@UE$AAAJPEAKPEAPEAVGuid@2@@Z 000000018006aed0 f i _nodert_generated.obj
 0001:00069f7c       ?__abi_GetIids@?QObject@Platform@@?$WriteOnlyArray@_N$00@2@W7E$AAAJPEAKPEAPEAVGuid@2@@Z 000000018006af7c f i _nodert_generated.obj
 0001:00069f88       ?__abi_GetIids@?QObject@Platform@@?$WriteOnlyArray@_N$00@2@WBA@E$AAAJPEAKPEAPEAVGuid@2@@Z 000000018006af88 f i _nodert_generated.obj
 0001:00069f94       ?__abi_GetIids@?QObject@Platform@@?$WriteOnlyArray@_N$00@2@WCA@E$AAAJPEAKPEAPEAVGuid@2@@Z 000000018006af94 f i _nodert_generated.obj
 0001:00069fa0       ?__abi_GetIids@?QObject@Platform@@?$WriteOnlyArray@_W$00@2@UE$AAAJPEAKPEAPEAVGuid@2@@Z 000000018006afa0 f i _nodert_generated.obj
 0001:0006a04c       ?__abi_GetIids@?QObject@Platform@@?$WriteOnlyArray@_W$00@2@W7E$AAAJPEAKPEAPEAVGuid@2@@Z 000000018006b04c f i _nodert_generated.obj
 0001:0006a058       ?__abi_GetIids@?QObject@Platform@@?$WriteOnlyArray@_W$00@2@WBA@E$AAAJPEAKPEAPEAVGuid@2@@Z 000000018006b058 f i _nodert_generated.obj
 0001:0006a064       ?__abi_GetIids@?QObject@Platform@@?$WriteOnlyArray@_W$00@2@WCA@E$AAAJPEAKPEAPEAVGuid@2@@Z 000000018006b064 f i _nodert_generated.obj
 0001:0006a070       ?__abi_GetRuntimeClassName@?$TypedEventHandler@PE$AAUIMemoryBufferReference@Foundation@Windows@@PE$AAVObject@Platform@@@Foundation@Windows@@UE$AAAJPEAPEAUHSTRING__@@@Z 000000018006b070 f i _nodert_generated.obj
 0001:0006a08c       ?__abi_GetRuntimeClassName@?$TypedEventHandler@PE$AAUIMemoryBufferReference@Foundation@Windows@@PE$AAVObject@Platform@@@Foundation@Windows@@W7E$AAAJPEAPEAUHSTRING__@@@Z 000000018006b08c f i _nodert_generated.obj
 0001:0006a098       ?__abi_GetRuntimeClassName@?$TypedEventHandler@PE$AAUIMemoryBufferReference@Foundation@Windows@@PE$AAVObject@Platform@@@Foundation@Windows@@WBA@E$AAAJPEAPEAUHSTRING__@@@Z 000000018006b098 f i _nodert_generated.obj
 0001:0006a0b0       ?__abi_GetRuntimeClassName@?QObject@Platform@@?$Array@E$00@2@UE$AAAJPEAPEAUHSTRING__@@@Z 000000018006b0b0 f i _nodert_generated.obj
 0001:0006a0cc       ?__abi_GetRuntimeClassName@?QObject@Platform@@?$Array@E$00@2@W7E$AAAJPEAPEAUHSTRING__@@@Z 000000018006b0cc f i _nodert_generated.obj
 0001:0006a0d8       ?__abi_GetRuntimeClassName@?QObject@Platform@@?$Array@E$00@2@WBA@E$AAAJPEAPEAUHSTRING__@@@Z 000000018006b0d8 f i _nodert_generated.obj
 0001:0006a0e4       ?__abi_GetRuntimeClassName@?QObject@Platform@@?$Array@E$00@2@WBI@E$AAAJPEAPEAUHSTRING__@@@Z 000000018006b0e4 f i _nodert_generated.obj
 0001:0006a0f0       ?__abi_GetRuntimeClassName@?QObject@Platform@@?$Array@E$00@2@WCA@E$AAAJPEAPEAUHSTRING__@@@Z 000000018006b0f0 f i _nodert_generated.obj
 0001:0006a0fc       ?__abi_GetRuntimeClassName@?QObject@Platform@@?$Array@E$00@2@WCI@E$AAAJPEAPEAUHSTRING__@@@Z 000000018006b0fc f i _nodert_generated.obj
 0001:0006a108       ?__abi_GetRuntimeClassName@?QObject@Platform@@?$Array@E$00@2@WDA@E$AAAJPEAPEAUHSTRING__@@@Z 000000018006b108 f i _nodert_generated.obj
 0001:0006a114       ?__abi_GetRuntimeClassName@?QObject@Platform@@?$Array@E$00@2@WEA@E$AAAJPEAPEAUHSTRING__@@@Z 000000018006b114 f i _nodert_generated.obj
 0001:0006a120       ?__abi_GetRuntimeClassName@?QObject@Platform@@?$Array@E$00@2@WHI@E$AAAJPEAPEAUHSTRING__@@@Z 000000018006b120 f i _nodert_generated.obj
 0001:0006a130       ?__abi_GetRuntimeClassName@?QObject@Platform@@?$Array@F$00@2@UE$AAAJPEAPEAUHSTRING__@@@Z 000000018006b130 f i _nodert_generated.obj
 0001:0006a14c       ?__abi_GetRuntimeClassName@?QObject@Platform@@?$Array@F$00@2@W7E$AAAJPEAPEAUHSTRING__@@@Z 000000018006b14c f i _nodert_generated.obj
 0001:0006a158       ?__abi_GetRuntimeClassName@?QObject@Platform@@?$Array@F$00@2@WBA@E$AAAJPEAPEAUHSTRING__@@@Z 000000018006b158 f i _nodert_generated.obj
 0001:0006a164       ?__abi_GetRuntimeClassName@?QObject@Platform@@?$Array@F$00@2@WBI@E$AAAJPEAPEAUHSTRING__@@@Z 000000018006b164 f i _nodert_generated.obj
 0001:0006a170       ?__abi_GetRuntimeClassName@?QObject@Platform@@?$Array@F$00@2@WCA@E$AAAJPEAPEAUHSTRING__@@@Z 000000018006b170 f i _nodert_generated.obj
 0001:0006a17c       ?__abi_GetRuntimeClassName@?QObject@Platform@@?$Array@F$00@2@WCI@E$AAAJPEAPEAUHSTRING__@@@Z 000000018006b17c f i _nodert_generated.obj
 0001:0006a188       ?__abi_GetRuntimeClassName@?QObject@Platform@@?$Array@F$00@2@WDA@E$AAAJPEAPEAUHSTRING__@@@Z 000000018006b188 f i _nodert_generated.obj
 0001:0006a194       ?__abi_GetRuntimeClassName@?QObject@Platform@@?$Array@F$00@2@WEA@E$AAAJPEAPEAUHSTRING__@@@Z 000000018006b194 f i _nodert_generated.obj
 0001:0006a1a0       ?__abi_GetRuntimeClassName@?QObject@Platform@@?$Array@F$00@2@WHI@E$AAAJPEAPEAUHSTRING__@@@Z 000000018006b1a0 f i _nodert_generated.obj
 0001:0006a1b0       ?__abi_GetRuntimeClassName@?QObject@Platform@@?$Array@G$00@2@UE$AAAJPEAPEAUHSTRING__@@@Z 000000018006b1b0 f i _nodert_generated.obj
 0001:0006a1cc       ?__abi_GetRuntimeClassName@?QObject@Platform@@?$Array@G$00@2@W7E$AAAJPEAPEAUHSTRING__@@@Z 000000018006b1cc f i _nodert_generated.obj
 0001:0006a1d8       ?__abi_GetRuntimeClassName@?QObject@Platform@@?$Array@G$00@2@WBA@E$AAAJPEAPEAUHSTRING__@@@Z 000000018006b1d8 f i _nodert_generated.obj
 0001:0006a1e4       ?__abi_GetRuntimeClassName@?QObject@Platform@@?$Array@G$00@2@WBI@E$AAAJPEAPEAUHSTRING__@@@Z 000000018006b1e4 f i _nodert_generated.obj
 0001:0006a1f0       ?__abi_GetRuntimeClassName@?QObject@Platform@@?$Array@G$00@2@WCA@E$AAAJPEAPEAUHSTRING__@@@Z 000000018006b1f0 f i _nodert_generated.obj
 0001:0006a1fc       ?__abi_GetRuntimeClassName@?QObject@Platform@@?$Array@G$00@2@WCI@E$AAAJPEAPEAUHSTRING__@@@Z 000000018006b1fc f i _nodert_generated.obj
 0001:0006a208       ?__abi_GetRuntimeClassName@?QObject@Platform@@?$Array@G$00@2@WDA@E$AAAJPEAPEAUHSTRING__@@@Z 000000018006b208 f i _nodert_generated.obj
 0001:0006a214       ?__abi_GetRuntimeClassName@?QObject@Platform@@?$Array@G$00@2@WEA@E$AAAJPEAPEAUHSTRING__@@@Z 000000018006b214 f i _nodert_generated.obj
 0001:0006a220       ?__abi_GetRuntimeClassName@?QObject@Platform@@?$Array@G$00@2@WHI@E$AAAJPEAPEAUHSTRING__@@@Z 000000018006b220 f i _nodert_generated.obj
 0001:0006a230       ?__abi_GetRuntimeClassName@?QObject@Platform@@?$Array@H$00@2@UE$AAAJPEAPEAUHSTRING__@@@Z 000000018006b230 f i _nodert_generated.obj
 0001:0006a24c       ?__abi_GetRuntimeClassName@?QObject@Platform@@?$Array@H$00@2@W7E$AAAJPEAPEAUHSTRING__@@@Z 000000018006b24c f i _nodert_generated.obj
 0001:0006a258       ?__abi_GetRuntimeClassName@?QObject@Platform@@?$Array@H$00@2@WBA@E$AAAJPEAPEAUHSTRING__@@@Z 000000018006b258 f i _nodert_generated.obj
 0001:0006a264       ?__abi_GetRuntimeClassName@?QObject@Platform@@?$Array@H$00@2@WBI@E$AAAJPEAPEAUHSTRING__@@@Z 000000018006b264 f i _nodert_generated.obj
 0001:0006a270       ?__abi_GetRuntimeClassName@?QObject@Platform@@?$Array@H$00@2@WCA@E$AAAJPEAPEAUHSTRING__@@@Z 000000018006b270 f i _nodert_generated.obj
 0001:0006a27c       ?__abi_GetRuntimeClassName@?QObject@Platform@@?$Array@H$00@2@WCI@E$AAAJPEAPEAUHSTRING__@@@Z 000000018006b27c f i _nodert_generated.obj
 0001:0006a288       ?__abi_GetRuntimeClassName@?QObject@Platform@@?$Array@H$00@2@WDA@E$AAAJPEAPEAUHSTRING__@@@Z 000000018006b288 f i _nodert_generated.obj
 0001:0006a294       ?__abi_GetRuntimeClassName@?QObject@Platform@@?$Array@H$00@2@WEA@E$AAAJPEAPEAUHSTRING__@@@Z 000000018006b294 f i _nodert_generated.obj
 0001:0006a2a0       ?__abi_GetRuntimeClassName@?QObject@Platform@@?$Array@H$00@2@WHI@E$AAAJPEAPEAUHSTRING__@@@Z 000000018006b2a0 f i _nodert_generated.obj
 0001:0006a2b0       ?__abi_GetRuntimeClassName@?QObject@Platform@@?$Array@I$00@2@UE$AAAJPEAPEAUHSTRING__@@@Z 000000018006b2b0 f i _nodert_generated.obj
 0001:0006a2cc       ?__abi_GetRuntimeClassName@?QObject@Platform@@?$Array@I$00@2@W7E$AAAJPEAPEAUHSTRING__@@@Z 000000018006b2cc f i _nodert_generated.obj
 0001:0006a2d8       ?__abi_GetRuntimeClassName@?QObject@Platform@@?$Array@I$00@2@WBA@E$AAAJPEAPEAUHSTRING__@@@Z 000000018006b2d8 f i _nodert_generated.obj
 0001:0006a2e4       ?__abi_GetRuntimeClassName@?QObject@Platform@@?$Array@I$00@2@WBI@E$AAAJPEAPEAUHSTRING__@@@Z 000000018006b2e4 f i _nodert_generated.obj
 0001:0006a2f0       ?__abi_GetRuntimeClassName@?QObject@Platform@@?$Array@I$00@2@WCA@E$AAAJPEAPEAUHSTRING__@@@Z 000000018006b2f0 f i _nodert_generated.obj
 0001:0006a2fc       ?__abi_GetRuntimeClassName@?QObject@Platform@@?$Array@I$00@2@WCI@E$AAAJPEAPEAUHSTRING__@@@Z 000000018006b2fc f i _nodert_generated.obj
 0001:0006a308       ?__abi_GetRuntimeClassName@?QObject@Platform@@?$Array@I$00@2@WDA@E$AAAJPEAPEAUHSTRING__@@@Z 000000018006b308 f i _nodert_generated.obj
 0001:0006a314       ?__abi_GetRuntimeClassName@?QObject@Platform@@?$Array@I$00@2@WEA@E$AAAJPEAPEAUHSTRING__@@@Z 000000018006b314 f i _nodert_generated.obj
 0001:0006a320       ?__abi_GetRuntimeClassName@?QObject@Platform@@?$Array@I$00@2@WHI@E$AAAJPEAPEAUHSTRING__@@@Z 000000018006b320 f i _nodert_generated.obj
 0001:0006a330       ?__abi_GetRuntimeClassName@?QObject@Platform@@?$Array@M$00@2@UE$AAAJPEAPEAUHSTRING__@@@Z 000000018006b330 f i _nodert_generated.obj
 0001:0006a34c       ?__abi_GetRuntimeClassName@?QObject@Platform@@?$Array@M$00@2@W7E$AAAJPEAPEAUHSTRING__@@@Z 000000018006b34c f i _nodert_generated.obj
 0001:0006a358       ?__abi_GetRuntimeClassName@?QObject@Platform@@?$Array@M$00@2@WBA@E$AAAJPEAPEAUHSTRING__@@@Z 000000018006b358 f i _nodert_generated.obj
 0001:0006a364       ?__abi_GetRuntimeClassName@?QObject@Platform@@?$Array@M$00@2@WBI@E$AAAJPEAPEAUHSTRING__@@@Z 000000018006b364 f i _nodert_generated.obj
 0001:0006a370       ?__abi_GetRuntimeClassName@?QObject@Platform@@?$Array@M$00@2@WCA@E$AAAJPEAPEAUHSTRING__@@@Z 000000018006b370 f i _nodert_generated.obj
 0001:0006a37c       ?__abi_GetRuntimeClassName@?QObject@Platform@@?$Array@M$00@2@WCI@E$AAAJPEAPEAUHSTRING__@@@Z 000000018006b37c f i _nodert_generated.obj
 0001:0006a388       ?__abi_GetRuntimeClassName@?QObject@Platform@@?$Array@M$00@2@WDA@E$AAAJPEAPEAUHSTRING__@@@Z 000000018006b388 f i _nodert_generated.obj
 0001:0006a394       ?__abi_GetRuntimeClassName@?QObject@Platform@@?$Array@M$00@2@WEA@E$AAAJPEAPEAUHSTRING__@@@Z 000000018006b394 f i _nodert_generated.obj
 0001:0006a3a0       ?__abi_GetRuntimeClassName@?QObject@Platform@@?$Array@M$00@2@WHI@E$AAAJPEAPEAUHSTRING__@@@Z 000000018006b3a0 f i _nodert_generated.obj
 0001:0006a3b0       ?__abi_GetRuntimeClassName@?QObject@Platform@@?$Array@N$00@2@UE$AAAJPEAPEAUHSTRING__@@@Z 000000018006b3b0 f i _nodert_generated.obj
 0001:0006a3cc       ?__abi_GetRuntimeClassName@?QObject@Platform@@?$Array@N$00@2@W7E$AAAJPEAPEAUHSTRING__@@@Z 000000018006b3cc f i _nodert_generated.obj
 0001:0006a3d8       ?__abi_GetRuntimeClassName@?QObject@Platform@@?$Array@N$00@2@WBA@E$AAAJPEAPEAUHSTRING__@@@Z 000000018006b3d8 f i _nodert_generated.obj
 0001:0006a3e4       ?__abi_GetRuntimeClassName@?QObject@Platform@@?$Array@N$00@2@WBI@E$AAAJPEAPEAUHSTRING__@@@Z 000000018006b3e4 f i _nodert_generated.obj
 0001:0006a3f0       ?__abi_GetRuntimeClassName@?QObject@Platform@@?$Array@N$00@2@WCA@E$AAAJPEAPEAUHSTRING__@@@Z 000000018006b3f0 f i _nodert_generated.obj
 0001:0006a3fc       ?__abi_GetRuntimeClassName@?QObject@Platform@@?$Array@N$00@2@WCI@E$AAAJPEAPEAUHSTRING__@@@Z 000000018006b3fc f i _nodert_generated.obj
 0001:0006a408       ?__abi_GetRuntimeClassName@?QObject@Platform@@?$Array@N$00@2@WDA@E$AAAJPEAPEAUHSTRING__@@@Z 000000018006b408 f i _nodert_generated.obj
 0001:0006a414       ?__abi_GetRuntimeClassName@?QObject@Platform@@?$Array@N$00@2@WEA@E$AAAJPEAPEAUHSTRING__@@@Z 000000018006b414 f i _nodert_generated.obj
 0001:0006a420       ?__abi_GetRuntimeClassName@?QObject@Platform@@?$Array@N$00@2@WHI@E$AAAJPEAPEAUHSTRING__@@@Z 000000018006b420 f i _nodert_generated.obj
 0001:0006a430       ?__abi_GetRuntimeClassName@?QObject@Platform@@?$Array@PE$AAVObject@Platform@@$00@2@UE$AAAJPEAPEAUHSTRING__@@@Z 000000018006b430 f i _nodert_generated.obj
 0001:0006a44c       ?__abi_GetRuntimeClassName@?QObject@Platform@@?$Array@PE$AAVObject@Platform@@$00@2@W7E$AAAJPEAPEAUHSTRING__@@@Z 000000018006b44c f i _nodert_generated.obj
 0001:0006a458       ?__abi_GetRuntimeClassName@?QObject@Platform@@?$Array@PE$AAVObject@Platform@@$00@2@WBA@E$AAAJPEAPEAUHSTRING__@@@Z 000000018006b458 f i _nodert_generated.obj
 0001:0006a464       ?__abi_GetRuntimeClassName@?QObject@Platform@@?$Array@PE$AAVObject@Platform@@$00@2@WBI@E$AAAJPEAPEAUHSTRING__@@@Z 000000018006b464 f i _nodert_generated.obj
 0001:0006a470       ?__abi_GetRuntimeClassName@?QObject@Platform@@?$Array@PE$AAVObject@Platform@@$00@2@WCA@E$AAAJPEAPEAUHSTRING__@@@Z 000000018006b470 f i _nodert_generated.obj
 0001:0006a47c       ?__abi_GetRuntimeClassName@?QObject@Platform@@?$Array@PE$AAVObject@Platform@@$00@2@WCI@E$AAAJPEAPEAUHSTRING__@@@Z 000000018006b47c f i _nodert_generated.obj
 0001:0006a488       ?__abi_GetRuntimeClassName@?QObject@Platform@@?$Array@PE$AAVObject@Platform@@$00@2@WDA@E$AAAJPEAPEAUHSTRING__@@@Z 000000018006b488 f i _nodert_generated.obj
 0001:0006a494       ?__abi_GetRuntimeClassName@?QObject@Platform@@?$Array@PE$AAVObject@Platform@@$00@2@WEA@E$AAAJPEAPEAUHSTRING__@@@Z 000000018006b494 f i _nodert_generated.obj
 0001:0006a4a0       ?__abi_GetRuntimeClassName@?QObject@Platform@@?$Array@PE$AAVObject@Platform@@$00@2@WHI@E$AAAJPEAPEAUHSTRING__@@@Z 000000018006b4a0 f i _nodert_generated.obj
 0001:0006a4b0       ?__abi_GetRuntimeClassName@?QObject@Platform@@?$Array@PE$AAVString@Platform@@$00@2@UE$AAAJPEAPEAUHSTRING__@@@Z 000000018006b4b0 f i _nodert_generated.obj
 0001:0006a4cc       ?__abi_GetRuntimeClassName@?QObject@Platform@@?$Array@PE$AAVString@Platform@@$00@2@W7E$AAAJPEAPEAUHSTRING__@@@Z 000000018006b4cc f i _nodert_generated.obj
 0001:0006a4d8       ?__abi_GetRuntimeClassName@?QObject@Platform@@?$Array@PE$AAVString@Platform@@$00@2@WBA@E$AAAJPEAPEAUHSTRING__@@@Z 000000018006b4d8 f i _nodert_generated.obj
 0001:0006a4e4       ?__abi_GetRuntimeClassName@?QObject@Platform@@?$Array@PE$AAVString@Platform@@$00@2@WBI@E$AAAJPEAPEAUHSTRING__@@@Z 000000018006b4e4 f i _nodert_generated.obj
 0001:0006a4f0       ?__abi_GetRuntimeClassName@?QObject@Platform@@?$Array@PE$AAVString@Platform@@$00@2@WCA@E$AAAJPEAPEAUHSTRING__@@@Z 000000018006b4f0 f i _nodert_generated.obj
 0001:0006a4fc       ?__abi_GetRuntimeClassName@?QObject@Platform@@?$Array@PE$AAVString@Platform@@$00@2@WCI@E$AAAJPEAPEAUHSTRING__@@@Z 000000018006b4fc f i _nodert_generated.obj
 0001:0006a508       ?__abi_GetRuntimeClassName@?QObject@Platform@@?$Array@PE$AAVString@Platform@@$00@2@WDA@E$AAAJPEAPEAUHSTRING__@@@Z 000000018006b508 f i _nodert_generated.obj
 0001:0006a514       ?__abi_GetRuntimeClassName@?QObject@Platform@@?$Array@PE$AAVString@Platform@@$00@2@WEA@E$AAAJPEAPEAUHSTRING__@@@Z 000000018006b514 f i _nodert_generated.obj
 0001:0006a520       ?__abi_GetRuntimeClassName@?QObject@Platform@@?$Array@PE$AAVString@Platform@@$00@2@WHI@E$AAAJPEAPEAUHSTRING__@@@Z 000000018006b520 f i _nodert_generated.obj
 0001:0006a530       ?__abi_GetRuntimeClassName@?QObject@Platform@@?$Array@VDateTime@Foundation@Windows@@$00@2@UE$AAAJPEAPEAUHSTRING__@@@Z 000000018006b530 f i _nodert_generated.obj
 0001:0006a54c       ?__abi_GetRuntimeClassName@?QObject@Platform@@?$Array@VDateTime@Foundation@Windows@@$00@2@W7E$AAAJPEAPEAUHSTRING__@@@Z 000000018006b54c f i _nodert_generated.obj
 0001:0006a558       ?__abi_GetRuntimeClassName@?QObject@Platform@@?$Array@VDateTime@Foundation@Windows@@$00@2@WBA@E$AAAJPEAPEAUHSTRING__@@@Z 000000018006b558 f i _nodert_generated.obj
 0001:0006a564       ?__abi_GetRuntimeClassName@?QObject@Platform@@?$Array@VDateTime@Foundation@Windows@@$00@2@WBI@E$AAAJPEAPEAUHSTRING__@@@Z 000000018006b564 f i _nodert_generated.obj
 0001:0006a570       ?__abi_GetRuntimeClassName@?QObject@Platform@@?$Array@VDateTime@Foundation@Windows@@$00@2@WCA@E$AAAJPEAPEAUHSTRING__@@@Z 000000018006b570 f i _nodert_generated.obj
 0001:0006a57c       ?__abi_GetRuntimeClassName@?QObject@Platform@@?$Array@VDateTime@Foundation@Windows@@$00@2@WCI@E$AAAJPEAPEAUHSTRING__@@@Z 000000018006b57c f i _nodert_generated.obj
 0001:0006a588       ?__abi_GetRuntimeClassName@?QObject@Platform@@?$Array@VDateTime@Foundation@Windows@@$00@2@WDA@E$AAAJPEAPEAUHSTRING__@@@Z 000000018006b588 f i _nodert_generated.obj
 0001:0006a594       ?__abi_GetRuntimeClassName@?QObject@Platform@@?$Array@VDateTime@Foundation@Windows@@$00@2@WEA@E$AAAJPEAPEAUHSTRING__@@@Z 000000018006b594 f i _nodert_generated.obj
 0001:0006a5a0       ?__abi_GetRuntimeClassName@?QObject@Platform@@?$Array@VDateTime@Foundation@Windows@@$00@2@WHI@E$AAAJPEAPEAUHSTRING__@@@Z 000000018006b5a0 f i _nodert_generated.obj
 0001:0006a5b0       ?__abi_GetRuntimeClassName@?QObject@Platform@@?$Array@VGuid@Platform@@$00@2@UE$AAAJPEAPEAUHSTRING__@@@Z 000000018006b5b0 f i _nodert_generated.obj
 0001:0006a5cc       ?__abi_GetRuntimeClassName@?QObject@Platform@@?$Array@VGuid@Platform@@$00@2@W7E$AAAJPEAPEAUHSTRING__@@@Z 000000018006b5cc f i _nodert_generated.obj
 0001:0006a5d8       ?__abi_GetRuntimeClassName@?QObject@Platform@@?$Array@VGuid@Platform@@$00@2@WBA@E$AAAJPEAPEAUHSTRING__@@@Z 000000018006b5d8 f i _nodert_generated.obj
 0001:0006a5e4       ?__abi_GetRuntimeClassName@?QObject@Platform@@?$Array@VGuid@Platform@@$00@2@WBI@E$AAAJPEAPEAUHSTRING__@@@Z 000000018006b5e4 f i _nodert_generated.obj
 0001:0006a5f0       ?__abi_GetRuntimeClassName@?QObject@Platform@@?$Array@VGuid@Platform@@$00@2@WCA@E$AAAJPEAPEAUHSTRING__@@@Z 000000018006b5f0 f i _nodert_generated.obj
 0001:0006a5fc       ?__abi_GetRuntimeClassName@?QObject@Platform@@?$Array@VGuid@Platform@@$00@2@WCI@E$AAAJPEAPEAUHSTRING__@@@Z 000000018006b5fc f i _nodert_generated.obj
 0001:0006a608       ?__abi_GetRuntimeClassName@?QObject@Platform@@?$Array@VGuid@Platform@@$00@2@WDA@E$AAAJPEAPEAUHSTRING__@@@Z 000000018006b608 f i _nodert_generated.obj
 0001:0006a614       ?__abi_GetRuntimeClassName@?QObject@Platform@@?$Array@VGuid@Platform@@$00@2@WEA@E$AAAJPEAPEAUHSTRING__@@@Z 000000018006b614 f i _nodert_generated.obj
 0001:0006a620       ?__abi_GetRuntimeClassName@?QObject@Platform@@?$Array@VGuid@Platform@@$00@2@WHI@E$AAAJPEAPEAUHSTRING__@@@Z 000000018006b620 f i _nodert_generated.obj
 0001:0006a630       ?__abi_GetRuntimeClassName@?QObject@Platform@@?$Array@VPoint@Foundation@Windows@@$00@2@UE$AAAJPEAPEAUHSTRING__@@@Z 000000018006b630 f i _nodert_generated.obj
 0001:0006a64c       ?__abi_GetRuntimeClassName@?QObject@Platform@@?$Array@VPoint@Foundation@Windows@@$00@2@W7E$AAAJPEAPEAUHSTRING__@@@Z 000000018006b64c f i _nodert_generated.obj
 0001:0006a658       ?__abi_GetRuntimeClassName@?QObject@Platform@@?$Array@VPoint@Foundation@Windows@@$00@2@WBA@E$AAAJPEAPEAUHSTRING__@@@Z 000000018006b658 f i _nodert_generated.obj
 0001:0006a664       ?__abi_GetRuntimeClassName@?QObject@Platform@@?$Array@VPoint@Foundation@Windows@@$00@2@WBI@E$AAAJPEAPEAUHSTRING__@@@Z 000000018006b664 f i _nodert_generated.obj
 0001:0006a670       ?__abi_GetRuntimeClassName@?QObject@Platform@@?$Array@VPoint@Foundation@Windows@@$00@2@WCA@E$AAAJPEAPEAUHSTRING__@@@Z 000000018006b670 f i _nodert_generated.obj
 0001:0006a67c       ?__abi_GetRuntimeClassName@?QObject@Platform@@?$Array@VPoint@Foundation@Windows@@$00@2@WCI@E$AAAJPEAPEAUHSTRING__@@@Z 000000018006b67c f i _nodert_generated.obj
