 binding

 Timestamp is 5c57ddd0 (Mon Feb  4 15:38:08 2019)

 Preferred load address is 0000000180000000

 Start         Length     Name                   Class
 0001:00000000 0000e0f0H .text$di                CODE
 0001:0000e0f0 000e8270H .text$mn                CODE
 0001:000f6360 00001020H .text$mn$00             CODE
 0001:000f7380 0001c870H .text$x                 CODE
 0001:00113bf0 000018b9H .text$yd                CODE
 0002:00000000 00000110H .CRT$XCA                DATA
 0002:00000110 00000110H .CRT$XCL                DATA
 0002:00000220 00000408H .CRT$XCU                DATA
 0002:00000628 00000110H .CRT$XCZ                DATA
 0002:00000738 00000110H .CRT$XIA                DATA
 0002:00000848 00000110H .CRT$XIC                DATA
 0002:00000958 00000110H .CRT$XIYB               DATA
 0002:00000a68 00000110H .CRT$XIZ                DATA
 0002:00000b78 00000008H .CRT$XLA                DATA
 0002:00000b80 00000008H .CRT$XLZ                DATA
 0002:00000b88 00000110H .CRT$XPA                DATA
 0002:00000c98 00000110H .CRT$XPZ                DATA
 0002:00000da8 00000110H .CRT$XTA                DATA
 0002:00000eb8 00000118H .CRT$XTZ                DATA
 0002:00000fd0 000257d0H .rdata                  DATA
 0002:000267a0 00000130H .rdata$T                DATA
 0002:000268d0 00000648H .rdata$r                DATA
 0002:00026f18 000001e8H .rdata$zzzdbg           DATA
 0002:00027100 00000110H .rtc$IAA                DATA
 0002:00027210 00000110H .rtc$IZZ                DATA
 0002:00027320 00000110H .rtc$TAA                DATA
 0002:00027430 00000110H .rtc$TZZ                DATA
 0002:00027540 000500c0H .xdata                  DATA
 0002:00077600 00000510H .xdata$x                DATA
 0002:00077b10 00000162H .edata                  DATA
 0003:00000000 00007d00H .data                   DATA
 0003:00007d00 00004ee0H .data$r                 DATA
 0003:0000cbe0 00000b71H .bss                    DATA
 0004:00000000 00011994H .pdata                  DATA
 0005:00000000 00000970H .idata$5                DATA
 0005:00000970 000000c8H .idata$2                DATA
 0005:00000a38 00000018H .idata$3                DATA
 0005:00000a50 00000970H .idata$4                DATA
 0005:000013c0 000019d6H .idata$6                DATA
 0006:00000000 00000020H .didat$2                DATA
 0006:00000020 00000020H .didat$3                DATA
 0006:00000040 000003a0H .didat$4                DATA
 0006:000003e0 000003a0H .didat$5                DATA
 0006:00000780 00001c40H .didat$6                DATA
 0006:000023c0 0000040fH .didat$7                DATA
 0007:00000000 00000110H minATL$__a              DATA
 0007:00000110 00000110H minATL$__m              DATA
 0007:00000220 00000109H minATL$__z              DATA
 0008:00000000 00000232H .gfids$y                DATA
 0009:00000000 00000104H .tls                    DATA
 0009:00000104 00000104H .tls$                   DATA
 0009:00000208 00000101H .tls$ZZZ                DATA
 000a:00000000 0000011bH .00cfg                  DATA
 000b:00000000 00000170H .rsrc$01                DATA
 000b:00000170 000002ccH .rsrc$02                DATA

  Address         Publics by Value              Rva+Base               Lib:Object

 0000:00000000       __dynamic_value_reloc_table 0000000000000000     <absolute>
 0000:00000000       ___safe_se_handler_table   0000000000000000     <absolute>
 0000:00000000       __guard_longjmp_table      0000000000000000     <absolute>
 0000:00000000       __guard_iat_count          0000000000000000     <absolute>
 0000:00000000       __guard_fids_table         0000000000000000     <absolute>
 0000:00000000       __guard_iat_table          0000000000000000     <absolute>
 0000:00000000       __guard_longjmp_count      0000000000000000     <absolute>
 0000:00000000       __guard_fids_count         0000000000000000     <absolute>
 0000:00000000       ___safe_se_handler_count   0000000000000000     <absolute>
 0000:00000100       __guard_flags              0000000000000100     <absolute>
 0000:00000000       __ImageBase                0000000180000000     <linker-defined>
 0001:0000e0f0       ?_Copy@?$_Func_impl@V<lambda_7146a09296963002a6248c4645aa11b4>@@V?$allocator@H@std@@_NV?$Local@VValue@v8@@@v8@@@std@@EEBAPEAV?$_Func_base@_NV?$Local@VValue@v8@@@v8@@@2@PEAX@Z 000000018000f0f0 f i _nodert_generated.obj
 0001:0000e110       ?_Move@?$_Func_impl@V<lambda_7146a09296963002a6248c4645aa11b4>@@V?$allocator@H@std@@_NV?$Local@VValue@v8@@@v8@@@std@@EEAAPEAV?$_Func_base@_NV?$Local@VValue@v8@@@v8@@@2@PEAX@Z 000000018000f110 f i _nodert_generated.obj
 0001:0000e130       ?_Do_call@?$_Func_impl@V<lambda_7146a09296963002a6248c4645aa11b4>@@V?$allocator@H@std@@_NV?$Local@VValue@v8@@@v8@@@std@@EEAA_N$$QEAV?$Local@VValue@v8@@@v8@@@Z 000000018000f130 f i _nodert_generated.obj
 0001:0000e160       ?_Target_type@?$_Func_impl@V<lambda_7146a09296963002a6248c4645aa11b4>@@V?$allocator@H@std@@_NV?$Local@VValue@v8@@@v8@@@std@@EEBAAEBVtype_info@@XZ 000000018000f160 f i _nodert_generated.obj
 0001:0000e170       ?_Get@?$_Func_impl@V<lambda_7146a09296963002a6248c4645aa11b4>@@V?$allocator@H@std@@_NV?$Local@VValue@v8@@@v8@@@std@@EEBAPEBXXZ 000000018000f170 f i _nodert_generated.obj
 0001:0000e180       ?_Delete_this@?$_Func_impl@V<lambda_7146a09296963002a6248c4645aa11b4>@@V?$allocator@H@std@@_NV?$Local@VValue@v8@@@v8@@@std@@EEAAX_N@Z 000000018000f180 f i _nodert_generated.obj
 0001:0000e1a0       ?__abi_winrt_cast_use_helper@@YAPE$AAVObject@Platform@@_NPEAXAEBU_GUID@@PEAU__abi_IUnknown@@@Z 000000018000f1a0 f i _nodert_generated.obj
 0001:0000e220       ?init@@YAXV?$Local@VObject@v8@@@v8@@@Z 000000018000f220 f   _nodert_generated.obj
 0001:0000e490       ?<Dispose>@?QIDisposable@Platform@@?$Array@PE$AAVGattPresentationFormat@GenericAttributeProfile@Bluetooth@Devices@Windows@@$00@2@UE$AAAXXZ 000000018000f490 f i _nodert_generated.obj
 0001:0000e4c0       ?<Dispose>@?QIDisposable@Platform@@?$Array@PE$AAVGattPresentationFormat@GenericAttributeProfile@Bluetooth@Devices@Windows@@$00@2@WBI@E$AAAXXZ 000000018000f4c0 f i _nodert_generated.obj
 0001:0000e4cc       ?<Dispose>@?QIDisposable@Platform@@?$Array@PE$AAVGattPresentationFormat@GenericAttributeProfile@Bluetooth@Devices@Windows@@$00@2@WCI@E$AAAXXZ 000000018000f4cc f i _nodert_generated.obj
 0001:0000e4e0       ?<Dispose>@?QIDisposable@Platform@@?$WriteOnlyArray@PE$AAVGattPresentationFormat@GenericAttributeProfile@Bluetooth@Devices@Windows@@$00@2@UE$AAAXXZ 000000018000f4e0 f i _nodert_generated.obj
 0001:0000e4f4       ?<Dispose>@?QIDisposable@Platform@@?$WriteOnlyArray@PE$AAVGattPresentationFormat@GenericAttributeProfile@Bluetooth@Devices@Windows@@$00@2@W7E$AAAXXZ 000000018000f4f4 f i _nodert_generated.obj
 0001:0000e500       ?<Dispose>@IDisposable@Platform@@UE$AAAXXZ 000000018000f500 f i _nodert_generated.obj
 0001:0000e530       ??$?0AEBV?$allocator@H@std@@@?$_Wrap_alloc@V?$allocator@V?$_Func_impl@V<lambda_7146a09296963002a6248c4645aa11b4>@@V?$allocator@H@std@@_NV?$Local@VValue@v8@@@v8@@@std@@@std@@@std@@QEAA@AEBV?$allocator@H@1@@Z 000000018000f530 f i _nodert_generated.obj
 0001:0000e540       ??$?0AEBV?$allocator@H@std@@V<lambda_7146a09296963002a6248c4645aa11b4>@@@?$_Compressed_pair@V?$allocator@H@std@@V<lambda_7146a09296963002a6248c4645aa11b4>@@$00@std@@QEAA@U_One_then_variadic_args_t@1@AEBV?$allocator@H@1@$$QEAV<lambda_7146a09296963002a6248c4645aa11b4>@@@Z 000000018000f540 f i _nodert_generated.obj
 0001:0000e550       ??$?0PE$AAU?$IAsyncOperation@PE$AAU?$IVectorView@PE$AAVGattClientNotificationResult@GenericAttributeProfile@Bluetooth@Devices@Windows@@@Collections@Foundation@Windows@@@Foundation@Windows@@@?$task@PE$AAU?$IVectorView@PE$AAVGattClientNotificationResult@GenericAttributeProfile@Bluetooth@Devices@Windows@@@Collections@Foundation@Windows@@@Concurrency@@QEAA@PE$AAU?$IAsyncOperation@PE$AAU?$IVectorView@PE$AAVGattClientNotificationResult@GenericAttributeProfile@Bluetooth@Devices@Windows@@@Collections@Foundation@Windows@@@Foundation@Windows@@AEBVtask_options@1@@Z 000000018000f550 f i _nodert_generated.obj
 0001:0000e760       ??$?0PE$AAU?$IAsyncOperation@PE$AAVGattCharacteristicsResult@GenericAttributeProfile@Bluetooth@Devices@Windows@@@Foundation@Windows@@@?$task@PE$AAVGattCharacteristicsResult@GenericAttributeProfile@Bluetooth@Devices@Windows@@@Concurrency@@QEAA@PE$AAU?$IAsyncOperation@PE$AAVGattCharacteristicsResult@GenericAttributeProfile@Bluetooth@Devices@Windows@@@Foundation@Windows@@AEBVtask_options@1@@Z 000000018000f760 f i _nodert_generated.obj
 0001:0000e970       ??$?0PE$AAU?$IAsyncOperation@PE$AAVGattClientNotificationResult@GenericAttributeProfile@Bluetooth@Devices@Windows@@@Foundation@Windows@@@?$task@PE$AAVGattClientNotificationResult@GenericAttributeProfile@Bluetooth@Devices@Windows@@@Concurrency@@QEAA@PE$AAU?$IAsyncOperation@PE$AAVGattClientNotificationResult@GenericAttributeProfile@Bluetooth@Devices@Windows@@@Foundation@Windows@@AEBVtask_options@1@@Z 000000018000f970 f i _nodert_generated.obj
 0001:0000eb80       ??$?0PE$AAU?$IAsyncOperation@PE$AAVGattDescriptorsResult@GenericAttributeProfile@Bluetooth@Devices@Windows@@@Foundation@Windows@@@?$task@PE$AAVGattDescriptorsResult@GenericAttributeProfile@Bluetooth@Devices@Windows@@@Concurrency@@QEAA@PE$AAU?$IAsyncOperation@PE$AAVGattDescriptorsResult@GenericAttributeProfile@Bluetooth@Devices@Windows@@@Foundation@Windows@@AEBVtask_options@1@@Z 000000018000fb80 f i _nodert_generated.obj
 0001:0000ed90       ??$?0PE$AAU?$IAsyncOperation@PE$AAVGattDeviceService@GenericAttributeProfile@Bluetooth@Devices@Windows@@@Foundation@Windows@@@?$task@PE$AAVGattDeviceService@GenericAttributeProfile@Bluetooth@Devices@Windows@@@Concurrency@@QEAA@PE$AAU?$IAsyncOperation@PE$AAVGattDeviceService@GenericAttributeProfile@Bluetooth@Devices@Windows@@@Foundation@Windows@@AEBVtask_options@1@@Z 000000018000fd90 f i _nodert_generated.obj
 0001:0000efa0       ??$?0PE$AAU?$IAsyncOperation@PE$AAVGattDeviceServicesResult@GenericAttributeProfile@Bluetooth@Devices@Windows@@@Foundation@Windows@@@?$task@PE$AAVGattDeviceServicesResult@GenericAttributeProfile@Bluetooth@Devices@Windows@@@Concurrency@@QEAA@PE$AAU?$IAsyncOperation@PE$AAVGattDeviceServicesResult@GenericAttributeProfile@Bluetooth@Devices@Windows@@@Foundation@Windows@@AEBVtask_options@1@@Z 000000018000ffa0 f i _nodert_generated.obj
 0001:0000f1b0       ??$?0PE$AAU?$IAsyncOperation@PE$AAVGattLocalCharacteristicResult@GenericAttributeProfile@Bluetooth@Devices@Windows@@@Foundation@Windows@@@?$task@PE$AAVGattLocalCharacteristicResult@GenericAttributeProfile@Bluetooth@Devices@Windows@@@Concurrency@@QEAA@PE$AAU?$IAsyncOperation@PE$AAVGattLocalCharacteristicResult@GenericAttributeProfile@Bluetooth@Devices@Windows@@@Foundation@Windows@@AEBVtask_options@1@@Z 00000001800101b0 f i _nodert_generated.obj
 0001:0000f3c0       ??$?0PE$AAU?$IAsyncOperation@PE$AAVGattLocalDescriptorResult@GenericAttributeProfile@Bluetooth@Devices@Windows@@@Foundation@Windows@@@?$task@PE$AAVGattLocalDescriptorResult@GenericAttributeProfile@Bluetooth@Devices@Windows@@@Concurrency@@QEAA@PE$AAU?$IAsyncOperation@PE$AAVGattLocalDescriptorResult@GenericAttributeProfile@Bluetooth@Devices@Windows@@@Foundation@Windows@@AEBVtask_options@1@@Z 00000001800103c0 f i _nodert_generated.obj
 0001:0000f5d0       ??$?0PE$AAU?$IAsyncOperation@PE$AAVGattReadClientCharacteristicConfigurationDescriptorResult@GenericAttributeProfile@Bluetooth@Devices@Windows@@@Foundation@Windows@@@?$task@PE$AAVGattReadClientCharacteristicConfigurationDescriptorResult@GenericAttributeProfile@Bluetooth@Devices@Windows@@@Concurrency@@QEAA@PE$AAU?$IAsyncOperation@PE$AAVGattReadClientCharacteristicConfigurationDescriptorResult@GenericAttributeProfile@Bluetooth@Devices@Windows@@@Foundation@Windows@@AEBVtask_options@1@@Z 00000001800105d0 f i _nodert_generated.obj
 0001:0000f7e0       ??$?0PE$AAU?$IAsyncOperation@PE$AAVGattReadRequest@GenericAttributeProfile@Bluetooth@Devices@Windows@@@Foundation@Windows@@@?$task@PE$AAVGattReadRequest@GenericAttributeProfile@Bluetooth@Devices@Windows@@@Concurrency@@QEAA@PE$AAU?$IAsyncOperation@PE$AAVGattReadRequest@GenericAttributeProfile@Bluetooth@Devices@Windows@@@Foundation@Windows@@AEBVtask_options@1@@Z 00000001800107e0 f i _nodert_generated.obj
 0001:0000f9f0       ??$?0PE$AAU?$IAsyncOperation@PE$AAVGattReadResult@GenericAttributeProfile@Bluetooth@Devices@Windows@@@Foundation@Windows@@@?$task@PE$AAVGattReadResult@GenericAttributeProfile@Bluetooth@Devices@Windows@@@Concurrency@@QEAA@PE$AAU?$IAsyncOperation@PE$AAVGattReadResult@GenericAttributeProfile@Bluetooth@Devices@Windows@@@Foundation@Windows@@AEBVtask_options@1@@Z 00000001800109f0 f i _nodert_generated.obj
 0001:0000fc00       ??$?0PE$AAU?$IAsyncOperation@PE$AAVGattServiceProviderResult@GenericAttributeProfile@Bluetooth@Devices@Windows@@@Foundation@Windows@@@?$task@PE$AAVGattServiceProviderResult@GenericAttributeProfile@Bluetooth@Devices@Windows@@@Concurrency@@QEAA@PE$AAU?$IAsyncOperation@PE$AAVGattServiceProviderResult@GenericAttributeProfile@Bluetooth@Devices@Windows@@@Foundation@Windows@@AEBVtask_options@1@@Z 0000000180010c00 f i _nodert_generated.obj
 0001:0000fe10       ??$?0PE$AAU?$IAsyncOperation@PE$AAVGattSession@GenericAttributeProfile@Bluetooth@Devices@Windows@@@Foundation@Windows@@@?$task@PE$AAVGattSession@GenericAttributeProfile@Bluetooth@Devices@Windows@@@Concurrency@@QEAA@PE$AAU?$IAsyncOperation@PE$AAVGattSession@GenericAttributeProfile@Bluetooth@Devices@Windows@@@Foundation@Windows@@AEBVtask_options@1@@Z 0000000180010e10 f i _nodert_generated.obj
 0001:00010020       ??$?0PE$AAU?$IAsyncOperation@PE$AAVGattWriteRequest@GenericAttributeProfile@Bluetooth@Devices@Windows@@@Foundation@Windows@@@?$task@PE$AAVGattWriteRequest@GenericAttributeProfile@Bluetooth@Devices@Windows@@@Concurrency@@QEAA@PE$AAU?$IAsyncOperation@PE$AAVGattWriteRequest@GenericAttributeProfile@Bluetooth@Devices@Windows@@@Foundation@Windows@@AEBVtask_options@1@@Z 0000000180011020 f i _nodert_generated.obj
 0001:00010230       ??$?0PE$AAU?$IAsyncOperation@PE$AAVGattWriteResult@GenericAttributeProfile@Bluetooth@Devices@Windows@@@Foundation@Windows@@@?$task@PE$AAVGattWriteResult@GenericAttributeProfile@Bluetooth@Devices@Windows@@@Concurrency@@QEAA@PE$AAU?$IAsyncOperation@PE$AAVGattWriteResult@GenericAttributeProfile@Bluetooth@Devices@Windows@@@Foundation@Windows@@AEBVtask_options@1@@Z 0000000180011230 f i _nodert_generated.obj
 0001:00010440       ??$?0PE$AAU?$IAsyncOperation@W4DeviceAccessStatus@Enumeration@Devices@Windows@@@Foundation@Windows@@@?$task@W4DeviceAccessStatus@Enumeration@Devices@Windows@@@Concurrency@@QEAA@PE$AAU?$IAsyncOperation@W4DeviceAccessStatus@Enumeration@Devices@Windows@@@Foundation@Windows@@AEBVtask_options@1@@Z 0000000180011440 f i _nodert_generated.obj
 0001:00010650       ??$?0PE$AAU?$IAsyncOperation@W4GattCommunicationStatus@GenericAttributeProfile@Bluetooth@Devices@Windows@@@Foundation@Windows@@@?$task@W4GattCommunicationStatus@GenericAttributeProfile@Bluetooth@Devices@Windows@@@Concurrency@@QEAA@PE$AAU?$IAsyncOperation@W4GattCommunicationStatus@GenericAttributeProfile@Bluetooth@Devices@Windows@@@Foundation@Windows@@AEBVtask_options@1@@Z 0000000180011650 f i _nodert_generated.obj
 0001:00010860       ??$?0PE$AAU?$IAsyncOperation@W4GattOpenStatus@GenericAttributeProfile@Bluetooth@Devices@Windows@@@Foundation@Windows@@@?$task@W4GattOpenStatus@GenericAttributeProfile@Bluetooth@Devices@Windows@@@Concurrency@@QEAA@PE$AAU?$IAsyncOperation@W4GattOpenStatus@GenericAttributeProfile@Bluetooth@Devices@Windows@@@Foundation@Windows@@AEBVtask_options@1@@Z 0000000180011860 f i _nodert_generated.obj
 0001:00010a70       ??$?0V<lambda_012d1b0716f3329ce77b4dc59e2ea2c4>@@@?$AsyncOperationCompletedHandler@PE$AAVGattReadResult@GenericAttributeProfile@Bluetooth@Devices@Windows@@@Foundation@Windows@@QE$AAA@V<lambda_012d1b0716f3329ce77b4dc59e2ea2c4>@@W4CallbackContext@Platform@@_N@Z 0000000180011a70 f i _nodert_generated.obj
 0001:00010bd0       ??$?0V<lambda_02b0f3c4520c6169d924da73c90c9764>@@XX@?$function@$$A6AXV?$function@$$A6AXHPEAV?$Local@VValue@v8@@@v8@@@Z@std@@@Z@std@@QEAA@V<lambda_02b0f3c4520c6169d924da73c90c9764>@@@Z 0000000180011bd0 f i _nodert_generated.obj
 0001:00010c70       ??$?0V<lambda_07da27f715136a134991f48a92f0eb5f>@@XX@?$function@$$A6AXV?$function@$$A6AXHPEAV?$Local@VValue@v8@@@v8@@@Z@std@@@Z@std@@QEAA@V<lambda_07da27f715136a134991f48a92f0eb5f>@@@Z 0000000180011c70 f i _nodert_generated.obj
 0001:00010d10       ??$?0V<lambda_090bdc159f06daf1ad7df2aa3c78a4be>@@@?$TypedEventHandler@PE$AAVGattReadRequest@GenericAttributeProfile@Bluetooth@Devices@Windows@@PE$AAVGattRequestStateChangedEventArgs@2345@@Foundation@Windows@@QE$AAA@V<lambda_090bdc159f06daf1ad7df2aa3c78a4be>@@W4CallbackContext@Platform@@_N@Z 0000000180011d10 f i _nodert_generated.obj
 0001:00010e70       ??$?0V<lambda_092e21b2bfaec486219432de51366c1f>@@XX@?$function@$$A6AXV?$function@$$A6AXHPEAV?$Local@VValue@v8@@@v8@@@Z@std@@@Z@std@@QEAA@V<lambda_092e21b2bfaec486219432de51366c1f>@@@Z 0000000180011e70 f i _nodert_generated.obj
 0001:00010f10       ??$?0V<lambda_0a9020982a14342fb1e918139af240e1>@@@?$AsyncOperationCompletedHandler@PE$AAVGattReadRequest@GenericAttributeProfile@Bluetooth@Devices@Windows@@@Foundation@Windows@@QE$AAA@V<lambda_0a9020982a14342fb1e918139af240e1>@@W4CallbackContext@Platform@@_N@Z 0000000180011f10 f i _nodert_generated.obj
 0001:00011070       ??$?0V<lambda_0f0a7aebbeabd1021de00fda274e6555>@@XX@?$function@$$A6AXV?$function@$$A6AXHPEAV?$Local@VValue@v8@@@v8@@@Z@std@@@Z@std@@QEAA@V<lambda_0f0a7aebbeabd1021de00fda274e6555>@@@Z 0000000180012070 f i _nodert_generated.obj
 0001:00011110       ??$?0V<lambda_14a6ed1123ee2be0defef5647eda04cd>@@XX@?$function@$$A6AXV?$function@$$A6AXHPEAV?$Local@VValue@v8@@@v8@@@Z@std@@@Z@std@@QEAA@V<lambda_14a6ed1123ee2be0defef5647eda04cd>@@@Z 0000000180012110 f i _nodert_generated.obj
 0001:000111b0       ??$?0V<lambda_1d6cbfa2ad5e355bd7f5249d7eed35f7>@@XX@?$function@$$A6AXV?$function@$$A6AXHPEAV?$Local@VValue@v8@@@v8@@@Z@std@@@Z@std@@QEAA@V<lambda_1d6cbfa2ad5e355bd7f5249d7eed35f7>@@@Z 00000001800121b0 f i _nodert_generated.obj
 0001:00011250       ??$?0V<lambda_1e353c382b1961a4a3075a6249facb3a>@@XX@?$function@$$A6AXV?$function@$$A6AXHPEAV?$Local@VValue@v8@@@v8@@@Z@std@@@Z@std@@QEAA@V<lambda_1e353c382b1961a4a3075a6249facb3a>@@@Z 0000000180012250 f i _nodert_generated.obj
 0001:000112f0       ??$?0V<lambda_1e7c9a6d2940facc4be4f3701614cac2>@@@?$TypedEventHandler@PE$AAVGattCharacteristic@GenericAttributeProfile@Bluetooth@Devices@Windows@@PE$AAVGattValueChangedEventArgs@2345@@Foundation@Windows@@QE$AAA@V<lambda_1e7c9a6d2940facc4be4f3701614cac2>@@W4CallbackContext@Platform@@_N@Z 00000001800122f0 f i _nodert_generated.obj
 0001:00011450       ??$?0V<lambda_22cbd3bcf101e2c8e8759127b89f2051>@@XX@?$function@$$A6AXV?$function@$$A6AXHPEAV?$Local@VValue@v8@@@v8@@@Z@std@@@Z@std@@QEAA@V<lambda_22cbd3bcf101e2c8e8759127b89f2051>@@@Z 0000000180012450 f i _nodert_generated.obj
 0001:000114f0       ??$?0V<lambda_27c3f1d4b0a81c9410ff8960a453e918>@@@?$AsyncOperationCompletedHandler@PE$AAVGattServiceProviderResult@GenericAttributeProfile@Bluetooth@Devices@Windows@@@Foundation@Windows@@QE$AAA@V<lambda_27c3f1d4b0a81c9410ff8960a453e918>@@W4CallbackContext@Platform@@_N@Z 00000001800124f0 f i _nodert_generated.obj
 0001:00011650       ??$?0V<lambda_29078d26a9cb4954e790b33db19aa3c6>@@XX@?$function@$$A6AXV?$function@$$A6AXHPEAV?$Local@VValue@v8@@@v8@@@Z@std@@@Z@std@@QEAA@V<lambda_29078d26a9cb4954e790b33db19aa3c6>@@@Z 0000000180012650 f i _nodert_generated.obj
 0001:000116f0       ??$?0V<lambda_2941f0f5b35d06110b6e384045b5e252>@@XX@?$function@$$A6AXV?$function@$$A6AXHPEAV?$Local@VValue@v8@@@v8@@@Z@std@@@Z@std@@QEAA@V<lambda_2941f0f5b35d06110b6e384045b5e252>@@@Z 00000001800126f0 f i _nodert_generated.obj
 0001:00011790       ??$?0V<lambda_2c0a6636ae14641389e798624ba358eb>@@@?$AsyncOperationCompletedHandler@W4GattOpenStatus@GenericAttributeProfile@Bluetooth@Devices@Windows@@@Foundation@Windows@@QE$AAA@V<lambda_2c0a6636ae14641389e798624ba358eb>@@W4CallbackContext@Platform@@_N@Z 0000000180012790 f i _nodert_generated.obj
 0001:000118f0       ??$?0V<lambda_2fccc5d20f5a74bbbd3c284e46a273b8>@@XX@?$function@$$A6AXV?$function@$$A6AXHPEAV?$Local@VValue@v8@@@v8@@@Z@std@@@Z@std@@QEAA@V<lambda_2fccc5d20f5a74bbbd3c284e46a273b8>@@@Z 00000001800128f0 f i _nodert_generated.obj
 0001:00011990       ??$?0V<lambda_36edb5aca925652f02c46190c24569b0>@@XX@?$function@$$A6AXV?$function@$$A6AXHPEAV?$Local@VValue@v8@@@v8@@@Z@std@@@Z@std@@QEAA@V<lambda_36edb5aca925652f02c46190c24569b0>@@@Z 0000000180012990 f i _nodert_generated.obj
 0001:00011a30       ??$?0V<lambda_399b06989cb7af58905804fceeab192c>@@@?$AsyncOperationCompletedHandler@PE$AAVGattLocalCharacteristicResult@GenericAttributeProfile@Bluetooth@Devices@Windows@@@Foundation@Windows@@QE$AAA@V<lambda_399b06989cb7af58905804fceeab192c>@@W4CallbackContext@Platform@@_N@Z 0000000180012a30 f i _nodert_generated.obj
 0001:00011b90       ??$?0V<lambda_3c0b9ba17dd02dcb4e2f0babb72148e7>@@XX@?$function@$$A6AXV?$function@$$A6AXHPEAV?$Local@VValue@v8@@@v8@@@Z@std@@@Z@std@@QEAA@V<lambda_3c0b9ba17dd02dcb4e2f0babb72148e7>@@@Z 0000000180012b90 f i _nodert_generated.obj
 0001:00011c30       ??$?0V<lambda_3c978137aa0f066ef5485254eb0bbd1d>@@XX@?$function@$$A6AXV?$function@$$A6AXHPEAV?$Local@VValue@v8@@@v8@@@Z@std@@@Z@std@@QEAA@V<lambda_3c978137aa0f066ef5485254eb0bbd1d>@@@Z 0000000180012c30 f i _nodert_generated.obj
 0001:00011cd0       ??$?0V<lambda_3dd11d7103ed459b5d4fc1ed310e47da>@@XX@?$function@$$A6AXV?$function@$$A6AXHPEAV?$Local@VValue@v8@@@v8@@@Z@std@@@Z@std@@QEAA@V<lambda_3dd11d7103ed459b5d4fc1ed310e47da>@@@Z 0000000180012cd0 f i _nodert_generated.obj
 0001:00011d70       ??$?0V<lambda_3f385f7136180657b99a85d2aef88f1a>@@@?$AsyncOperationCompletedHandler@PE$AAVGattClientNotificationResult@GenericAttributeProfile@Bluetooth@Devices@Windows@@@Foundation@Windows@@QE$AAA@V<lambda_3f385f7136180657b99a85d2aef88f1a>@@W4CallbackContext@Platform@@_N@Z 0000000180012d70 f i _nodert_generated.obj
 0001:00011ed0       ??$?0V<lambda_44085ac6bd1796e2a2340b6b4dd3af22>@@XX@?$function@$$A6AXV?$function@$$A6AXHPEAV?$Local@VValue@v8@@@v8@@@Z@std@@@Z@std@@QEAA@V<lambda_44085ac6bd1796e2a2340b6b4dd3af22>@@@Z 0000000180012ed0 f i _nodert_generated.obj
 0001:00011f70       ??$?0V<lambda_46daab06325bbe91652f01e0c6295194>@@XX@?$function@$$A6AXV?$function@$$A6AXHPEAV?$Local@VValue@v8@@@v8@@@Z@std@@@Z@std@@QEAA@V<lambda_46daab06325bbe91652f01e0c6295194>@@@Z 0000000180012f70 f i _nodert_generated.obj
 0001:00012010       ??$?0V<lambda_4888d9310bec5452d0bb8f7f1b36752b>@@@?$AsyncOperationCompletedHandler@W4DeviceAccessStatus@Enumeration@Devices@Windows@@@Foundation@Windows@@QE$AAA@V<lambda_4888d9310bec5452d0bb8f7f1b36752b>@@W4CallbackContext@Platform@@_N@Z 0000000180013010 f i _nodert_generated.obj
 0001:00012170       ??$?0V<lambda_48989659ac40443aaa5821cc479a3607>@@XX@?$function@$$A6AXV?$function@$$A6AXHPEAV?$Local@VValue@v8@@@v8@@@Z@std@@@Z@std@@QEAA@V<lambda_48989659ac40443aaa5821cc479a3607>@@@Z 0000000180013170 f i _nodert_generated.obj
 0001:00012210       ??$?0V<lambda_4b5d0e7a0d2737779b3e2ca59a60bd83>@@XX@?$function@$$A6AXV?$function@$$A6AXHPEAV?$Local@VValue@v8@@@v8@@@Z@std@@@Z@std@@QEAA@V<lambda_4b5d0e7a0d2737779b3e2ca59a60bd83>@@@Z 0000000180013210 f i _nodert_generated.obj
 0001:000122b0       ??$?0V<lambda_4c66224b3713d42497d7db828f279910>@@XX@?$function@$$A6AXV?$function@$$A6AXHPEAV?$Local@VValue@v8@@@v8@@@Z@std@@@Z@std@@QEAA@V<lambda_4c66224b3713d42497d7db828f279910>@@@Z 00000001800132b0 f i _nodert_generated.obj
 0001:00012350       ??$?0V<lambda_59deb91dcb35d7ef053ea0a6eba68806>@@@?$AsyncOperationCompletedHandler@PE$AAVGattWriteRequest@GenericAttributeProfile@Bluetooth@Devices@Windows@@@Foundation@Windows@@QE$AAA@V<lambda_59deb91dcb35d7ef053ea0a6eba68806>@@W4CallbackContext@Platform@@_N@Z 0000000180013350 f i _nodert_generated.obj
 0001:000124b0       ??$?0V<lambda_5b5d6f33d7c1af9e4714bef40fb1bdd8>@@@?$AsyncOperationCompletedHandler@PE$AAVGattDeviceService@GenericAttributeProfile@Bluetooth@Devices@Windows@@@Foundation@Windows@@QE$AAA@V<lambda_5b5d6f33d7c1af9e4714bef40fb1bdd8>@@W4CallbackContext@Platform@@_N@Z 00000001800134b0 f i _nodert_generated.obj
 0001:00012610       ??$?0V<lambda_6058f1a29adbc5b65a30933c61073539>@@XX@?$function@$$A6AXV?$function@$$A6AXHPEAV?$Local@VValue@v8@@@v8@@@Z@std@@@Z@std@@QEAA@V<lambda_6058f1a29adbc5b65a30933c61073539>@@@Z 0000000180013610 f i _nodert_generated.obj
 0001:000126b0       ??$?0V<lambda_612ad084fcff225487c3b5720354a7f7>@@XX@?$function@$$A6AXV?$function@$$A6AXHPEAV?$Local@VValue@v8@@@v8@@@Z@std@@@Z@std@@QEAA@V<lambda_612ad084fcff225487c3b5720354a7f7>@@@Z 00000001800136b0 f i _nodert_generated.obj
 0001:00012750       ??$?0V<lambda_67d43b9443a249c9bdd0ddd65a0a7143>@@@?$TypedEventHandler@PE$AAVGattSession@GenericAttributeProfile@Bluetooth@Devices@Windows@@PE$AAVObject@Platform@@@Foundation@Windows@@QE$AAA@V<lambda_67d43b9443a249c9bdd0ddd65a0a7143>@@W4CallbackContext@Platform@@_N@Z 0000000180013750 f i _nodert_generated.obj
 0001:000128b0       ??$?0V<lambda_6a95c42219ea05b374040d54ed0dcf40>@@@?$TypedEventHandler@PE$AAVGattLocalDescriptor@GenericAttributeProfile@Bluetooth@Devices@Windows@@PE$AAVGattReadRequestedEventArgs@2345@@Foundation@Windows@@QE$AAA@V<lambda_6a95c42219ea05b374040d54ed0dcf40>@@W4CallbackContext@Platform@@_N@Z 00000001800138b0 f i _nodert_generated.obj
 0001:00012a10       ??$?0V<lambda_73bc168997f6e1ad8421deac13dff798>@@XX@?$function@$$A6AXV?$function@$$A6AXHPEAV?$Local@VValue@v8@@@v8@@@Z@std@@@Z@std@@QEAA@V<lambda_73bc168997f6e1ad8421deac13dff798>@@@Z 0000000180013a10 f i _nodert_generated.obj
 0001:00012ab0       ??$?0V<lambda_73f22749bd90b9f45eef95c6275f22f9>@@XX@?$function@$$A6AXV?$function@$$A6AXHPEAV?$Local@VValue@v8@@@v8@@@Z@std@@@Z@std@@QEAA@V<lambda_73f22749bd90b9f45eef95c6275f22f9>@@@Z 0000000180013ab0 f i _nodert_generated.obj
 0001:00012b50       ??$?0V<lambda_74845d04b0ded4417a55353b3d1ccc92>@@@?$AsyncOperationCompletedHandler@PE$AAVGattSession@GenericAttributeProfile@Bluetooth@Devices@Windows@@@Foundation@Windows@@QE$AAA@V<lambda_74845d04b0ded4417a55353b3d1ccc92>@@W4CallbackContext@Platform@@_N@Z 0000000180013b50 f i _nodert_generated.obj
 0001:00012cb0       ??$?0V<lambda_78435badbdad8286054cccdf55e74883>@@@?$AsyncOperationCompletedHandler@PE$AAVGattDescriptorsResult@GenericAttributeProfile@Bluetooth@Devices@Windows@@@Foundation@Windows@@QE$AAA@V<lambda_78435badbdad8286054cccdf55e74883>@@W4CallbackContext@Platform@@_N@Z 0000000180013cb0 f i _nodert_generated.obj
 0001:00012e10       ??$?0V<lambda_7a26b57eb9677f8752dafda9a6b7643d>@@XX@?$function@$$A6AXV?$function@$$A6AXHPEAV?$Local@VValue@v8@@@v8@@@Z@std@@@Z@std@@QEAA@V<lambda_7a26b57eb9677f8752dafda9a6b7643d>@@@Z 0000000180013e10 f i _nodert_generated.obj
 0001:00012eb0       ??$?0V<lambda_7a59f362d5d7e53ea2283eda76e9d412>@@@?$TypedEventHandler@PE$AAVGattSession@GenericAttributeProfile@Bluetooth@Devices@Windows@@PE$AAVGattSessionStatusChangedEventArgs@2345@@Foundation@Windows@@QE$AAA@V<lambda_7a59f362d5d7e53ea2283eda76e9d412>@@W4CallbackContext@Platform@@_N@Z 0000000180013eb0 f i _nodert_generated.obj
 0001:00013010       ??$?0V<lambda_7f5659bcea5d2531b7562165d7c1ccb3>@@@?$TypedEventHandler@PE$AAVGattSubscribedClient@GenericAttributeProfile@Bluetooth@Devices@Windows@@PE$AAVObject@Platform@@@Foundation@Windows@@QE$AAA@V<lambda_7f5659bcea5d2531b7562165d7c1ccb3>@@W4CallbackContext@Platform@@_N@Z 0000000180014010 f i _nodert_generated.obj
 0001:00013170       ??$?0V<lambda_812e5ebbfa0a86843c06a94c3e17d73f>@@XX@?$function@$$A6AXV?$function@$$A6AXHPEAV?$Local@VValue@v8@@@v8@@@Z@std@@@Z@std@@QEAA@V<lambda_812e5ebbfa0a86843c06a94c3e17d73f>@@@Z 0000000180014170 f i _nodert_generated.obj
 0001:00013210       ??$?0V<lambda_892ecfc1c25b27a1b568c582a5260946>@@XX@?$function@$$A6AXV?$function@$$A6AXHPEAV?$Local@VValue@v8@@@v8@@@Z@std@@@Z@std@@QEAA@V<lambda_892ecfc1c25b27a1b568c582a5260946>@@@Z 0000000180014210 f i _nodert_generated.obj
 0001:000132b0       ??$?0V<lambda_89383c43d783100c07db21b4c104cede>@@XX@?$function@$$A6AXV?$function@$$A6AXHPEAV?$Local@VValue@v8@@@v8@@@Z@std@@@Z@std@@QEAA@V<lambda_89383c43d783100c07db21b4c104cede>@@@Z 00000001800142b0 f i _nodert_generated.obj
 0001:00013350       ??$?0V<lambda_8a184a7b15054694030a78acb2100e45>@@@?$TypedEventHandler@PE$AAVGattWriteRequest@GenericAttributeProfile@Bluetooth@Devices@Windows@@PE$AAVGattRequestStateChangedEventArgs@2345@@Foundation@Windows@@QE$AAA@V<lambda_8a184a7b15054694030a78acb2100e45>@@W4CallbackContext@Platform@@_N@Z 0000000180014350 f i _nodert_generated.obj
 0001:000134b0       ??$?0V<lambda_92cff0b3b409e2760fc225e4c056d843>@@XX@?$function@$$A6AXV?$function@$$A6AXHPEAV?$Local@VValue@v8@@@v8@@@Z@std@@@Z@std@@QEAA@V<lambda_92cff0b3b409e2760fc225e4c056d843>@@@Z 00000001800144b0 f i _nodert_generated.obj
 0001:00013550       ??$?0V<lambda_958e98f18cd148e1fa1080b98c3192aa>@@XX@?$function@$$A6AXV?$function@$$A6AXHPEAV?$Local@VValue@v8@@@v8@@@Z@std@@@Z@std@@QEAA@V<lambda_958e98f18cd148e1fa1080b98c3192aa>@@@Z 0000000180014550 f i _nodert_generated.obj
 0001:000135f0       ??$?0V<lambda_98d579945f4c83d34f8a428098012be1>@@@?$TypedEventHandler@PE$AAVGattServiceProvider@GenericAttributeProfile@Bluetooth@Devices@Windows@@PE$AAVGattServiceProviderAdvertisementStatusChangedEventArgs@2345@@Foundation@Windows@@QE$AAA@V<lambda_98d579945f4c83d34f8a428098012be1>@@W4CallbackContext@Platform@@_N@Z 00000001800145f0 f i _nodert_generated.obj
 0001:00013750       ??$?0V<lambda_996f0f9cb0f9d634bdef3c221a26fc09>@@XX@?$function@$$A6AXV?$function@$$A6AXHPEAV?$Local@VValue@v8@@@v8@@@Z@std@@@Z@std@@QEAA@V<lambda_996f0f9cb0f9d634bdef3c221a26fc09>@@@Z 0000000180014750 f i _nodert_generated.obj
 0001:000137f0       ??$?0V<lambda_a0302cf3a5e5ab57348d3ae6e320902d>@@@?$AsyncOperationCompletedHandler@PE$AAVGattReadClientCharacteristicConfigurationDescriptorResult@GenericAttributeProfile@Bluetooth@Devices@Windows@@@Foundation@Windows@@QE$AAA@V<lambda_a0302cf3a5e5ab57348d3ae6e320902d>@@W4CallbackContext@Platform@@_N@Z 00000001800147f0 f i _nodert_generated.obj
 0001:00013950       ??$?0V<lambda_a246664974fc79144cc8449a78b38011>@@XX@?$function@$$A6AXV?$function@$$A6AXHPEAV?$Local@VValue@v8@@@v8@@@Z@std@@@Z@std@@QEAA@V<lambda_a246664974fc79144cc8449a78b38011>@@@Z 0000000180014950 f i _nodert_generated.obj
 0001:000139f0       ??$?0V<lambda_a2ec8993e3195d98f8930e2ab9b09ca6>@@XX@?$function@$$A6AXV?$function@$$A6AXHPEAV?$Local@VValue@v8@@@v8@@@Z@std@@@Z@std@@QEAA@V<lambda_a2ec8993e3195d98f8930e2ab9b09ca6>@@@Z 00000001800149f0 f i _nodert_generated.obj
 0001:00013a90       ??$?0V<lambda_a72d7d755ea2b68030b9db336f3a6993>@@@?$TypedEventHandler@PE$AAVGattLocalCharacteristic@GenericAttributeProfile@Bluetooth@Devices@Windows@@PE$AAVGattWriteRequestedEventArgs@2345@@Foundation@Windows@@QE$AAA@V<lambda_a72d7d755ea2b68030b9db336f3a6993>@@W4CallbackContext@Platform@@_N@Z 0000000180014a90 f i _nodert_generated.obj
 0001:00013bf0       ??$?0V<lambda_a8834aaf222d29bff47139cb548fc10f>@@@?$TypedEventHandler@PE$AAVGattLocalCharacteristic@GenericAttributeProfile@Bluetooth@Devices@Windows@@PE$AAVObject@Platform@@@Foundation@Windows@@QE$AAA@V<lambda_a8834aaf222d29bff47139cb548fc10f>@@W4CallbackContext@Platform@@_N@Z 0000000180014bf0 f i _nodert_generated.obj
 0001:00013d50       ??$?0V<lambda_abc89208398fe61ed8a5e99711cb35c7>@@@?$AsyncOperationCompletedHandler@PE$AAVGattCharacteristicsResult@GenericAttributeProfile@Bluetooth@Devices@Windows@@@Foundation@Windows@@QE$AAA@V<lambda_abc89208398fe61ed8a5e99711cb35c7>@@W4CallbackContext@Platform@@_N@Z 0000000180014d50 f i _nodert_generated.obj
 0001:00013eb0       ??$?0V<lambda_b4c7057bec7da654bf6d0484276ecaf8>@@XX@?$function@$$A6AXV?$function@$$A6AXHPEAV?$Local@VValue@v8@@@v8@@@Z@std@@@Z@std@@QEAA@V<lambda_b4c7057bec7da654bf6d0484276ecaf8>@@@Z 0000000180014eb0 f i _nodert_generated.obj
 0001:00013f50       ??$?0V<lambda_b8653ce1a14ac984269789d7c259aae2>@@XX@?$function@$$A6AXV?$function@$$A6AXHPEAV?$Local@VValue@v8@@@v8@@@Z@std@@@Z@std@@QEAA@V<lambda_b8653ce1a14ac984269789d7c259aae2>@@@Z 0000000180014f50 f i _nodert_generated.obj
 0001:00013ff0       ??$?0V<lambda_bdf0c18e449f6315f3f216970e84a193>@@XX@?$function@$$A6AXV?$function@$$A6AXHPEAV?$Local@VValue@v8@@@v8@@@Z@std@@@Z@std@@QEAA@V<lambda_bdf0c18e449f6315f3f216970e84a193>@@@Z 0000000180014ff0 f i _nodert_generated.obj
 0001:00014090       ??$?0V<lambda_bfa039ad7ab13f51b6f9c72e21d85e37>@@XX@?$function@$$A6AXV?$function@$$A6AXHPEAV?$Local@VValue@v8@@@v8@@@Z@std@@@Z@std@@QEAA@V<lambda_bfa039ad7ab13f51b6f9c72e21d85e37>@@@Z 0000000180015090 f i _nodert_generated.obj
 0001:00014130       ??$?0V<lambda_bfddb030084298f4346709237491b2f5>@@@?$AsyncOperationCompletedHandler@PE$AAVGattWriteResult@GenericAttributeProfile@Bluetooth@Devices@Windows@@@Foundation@Windows@@QE$AAA@V<lambda_bfddb030084298f4346709237491b2f5>@@W4CallbackContext@Platform@@_N@Z 0000000180015130 f i _nodert_generated.obj
 0001:00014290       ??$?0V<lambda_cbc56e7ad2939e9610c6202988932ddc>@@XX@?$function@$$A6AXV?$function@$$A6AXHPEAV?$Local@VValue@v8@@@v8@@@Z@std@@@Z@std@@QEAA@V<lambda_cbc56e7ad2939e9610c6202988932ddc>@@@Z 0000000180015290 f i _nodert_generated.obj
 0001:00014330       ??$?0V<lambda_cc55597354acc091e9707dab3be69e07>@@XX@?$function@$$A6AXV?$function@$$A6AXHPEAV?$Local@VValue@v8@@@v8@@@Z@std@@@Z@std@@QEAA@V<lambda_cc55597354acc091e9707dab3be69e07>@@@Z 0000000180015330 f i _nodert_generated.obj
 0001:000143d0       ??$?0V<lambda_ccf9566bf9ed601916af276cc06e743a>@@XX@?$function@$$A6AXV?$function@$$A6AXHPEAV?$Local@VValue@v8@@@v8@@@Z@std@@@Z@std@@QEAA@V<lambda_ccf9566bf9ed601916af276cc06e743a>@@@Z 00000001800153d0 f i _nodert_generated.obj
 0001:00014470       ??$?0V<lambda_cd1e0c671fdfa373cd4c83898506f7ac>@@@?$AsyncOperationCompletedHandler@PE$AAVGattDeviceServicesResult@GenericAttributeProfile@Bluetooth@Devices@Windows@@@Foundation@Windows@@QE$AAA@V<lambda_cd1e0c671fdfa373cd4c83898506f7ac>@@W4CallbackContext@Platform@@_N@Z 0000000180015470 f i _nodert_generated.obj
 0001:000145d0       ??$?0V<lambda_d0594cf826bb2145779ce00bab0b1645>@@XX@?$function@$$A6AXV?$function@$$A6AXHPEAV?$Local@VValue@v8@@@v8@@@Z@std@@@Z@std@@QEAA@V<lambda_d0594cf826bb2145779ce00bab0b1645>@@@Z 00000001800155d0 f i _nodert_generated.obj
 0001:00014670       ??$?0V<lambda_d198f58cb38642f4ce4504b7023daa7d>@@@?$AsyncOperationCompletedHandler@W4GattCommunicationStatus@GenericAttributeProfile@Bluetooth@Devices@Windows@@@Foundation@Windows@@QE$AAA@V<lambda_d198f58cb38642f4ce4504b7023daa7d>@@W4CallbackContext@Platform@@_N@Z 0000000180015670 f i _nodert_generated.obj
 0001:000147d0       ??$?0V<lambda_d364069c78f44ced2d04e6f16c14fb6e>@@@?$AsyncOperationCompletedHandler@PE$AAU?$IVectorView@PE$AAVGattClientNotificationResult@GenericAttributeProfile@Bluetooth@Devices@Windows@@@Collections@Foundation@Windows@@@Foundation@Windows@@QE$AAA@V<lambda_d364069c78f44ced2d04e6f16c14fb6e>@@W4CallbackContext@Platform@@_N@Z 00000001800157d0 f i _nodert_generated.obj
 0001:00014930       ??$?0V<lambda_d6a38aa9d87cf08aeefd456bc6858328>@@XX@?$function@$$A6AXV?$function@$$A6AXHPEAV?$Local@VValue@v8@@@v8@@@Z@std@@@Z@std@@QEAA@V<lambda_d6a38aa9d87cf08aeefd456bc6858328>@@@Z 0000000180015930 f i _nodert_generated.obj
 0001:000149d0       ??$?0V<lambda_d79b54f7c67b229f102d6fd8c362942c>@@XX@?$function@$$A6AXV?$function@$$A6AXHPEAV?$Local@VValue@v8@@@v8@@@Z@std@@@Z@std@@QEAA@V<lambda_d79b54f7c67b229f102d6fd8c362942c>@@@Z 00000001800159d0 f i _nodert_generated.obj
 0001:00014a70       ??$?0V<lambda_d9073214c80e5a1d0b792ad7b25dc3db>@@XX@?$function@$$A6AXV?$function@$$A6AXHPEAV?$Local@VValue@v8@@@v8@@@Z@std@@@Z@std@@QEAA@V<lambda_d9073214c80e5a1d0b792ad7b25dc3db>@@@Z 0000000180015a70 f i _nodert_generated.obj
 0001:00014b10       ??$?0V<lambda_dc8e19b434096b7304738a930908a340>@@XX@?$function@$$A6AXV?$function@$$A6AXHPEAV?$Local@VValue@v8@@@v8@@@Z@std@@@Z@std@@QEAA@V<lambda_dc8e19b434096b7304738a930908a340>@@@Z 0000000180015b10 f i _nodert_generated.obj
 0001:00014bb0       ??$?0V<lambda_df0202c41a1d680defb6b14d7a411f59>@@XX@?$function@$$A6AXV?$function@$$A6AXHPEAV?$Local@VValue@v8@@@v8@@@Z@std@@@Z@std@@QEAA@V<lambda_df0202c41a1d680defb6b14d7a411f59>@@@Z 0000000180015bb0 f i _nodert_generated.obj
 0001:00014c50       ??$?0V<lambda_e1a459e7bbbcba5bbde252c4a02fe57d>@@XX@?$function@$$A6AXV?$function@$$A6AXHPEAV?$Local@VValue@v8@@@v8@@@Z@std@@@Z@std@@QEAA@V<lambda_e1a459e7bbbcba5bbde252c4a02fe57d>@@@Z 0000000180015c50 f i _nodert_generated.obj
 0001:00014cf0       ??$?0V<lambda_f25c37099038263181b5186a3fa41b37>@@XX@?$function@$$A6AXXZ@std@@QEAA@V<lambda_f25c37099038263181b5186a3fa41b37>@@@Z 0000000180015cf0 f i _nodert_generated.obj
 0001:00014db0       ??$?0V<lambda_f2b824a51dd16c5a52405a136263d880>@@XX@?$function@$$A6AXV?$function@$$A6AXHPEAV?$Local@VValue@v8@@@v8@@@Z@std@@@Z@std@@QEAA@V<lambda_f2b824a51dd16c5a52405a136263d880>@@@Z 0000000180015db0 f i _nodert_generated.obj
 0001:00014e50       ??$?0V<lambda_f2c183ffcc3e535ab19cd5a930224e71>@@@?$TypedEventHandler@PE$AAVGattLocalCharacteristic@GenericAttributeProfile@Bluetooth@Devices@Windows@@PE$AAVGattReadRequestedEventArgs@2345@@Foundation@Windows@@QE$AAA@V<lambda_f2c183ffcc3e535ab19cd5a930224e71>@@W4CallbackContext@Platform@@_N@Z 0000000180015e50 f i _nodert_generated.obj
 0001:00014fb0       ??$?0V<lambda_f5eda7eec1335d8b7bcf03e563e396d4>@@XX@?$function@$$A6AXV?$function@$$A6AXHPEAV?$Local@VValue@v8@@@v8@@@Z@std@@@Z@std@@QEAA@V<lambda_f5eda7eec1335d8b7bcf03e563e396d4>@@@Z 0000000180015fb0 f i _nodert_generated.obj
 0001:00015050       ??$?0V<lambda_f6eb5e8ff9eee22c43db54cd6513208d>@@XX@?$function@$$A6AXV?$function@$$A6AXHPEAV?$Local@VValue@v8@@@v8@@@Z@std@@@Z@std@@QEAA@V<lambda_f6eb5e8ff9eee22c43db54cd6513208d>@@@Z 0000000180016050 f i _nodert_generated.obj
 0001:000150f0       ??$?0V<lambda_fd38ceb54481fc5685093e4ce388a0db>@@@?$AsyncOperationCompletedHandler@PE$AAVGattLocalDescriptorResult@GenericAttributeProfile@Bluetooth@Devices@Windows@@@Foundation@Windows@@QE$AAA@V<lambda_fd38ceb54481fc5685093e4ce388a0db>@@W4CallbackContext@Platform@@_N@Z 00000001800160f0 f i _nodert_generated.obj
 0001:00015250       ??$?0V<lambda_ff76360401e4d6f85634a86ab84aed97>@@@?$TypedEventHandler@PE$AAVGattLocalDescriptor@GenericAttributeProfile@Bluetooth@Devices@Windows@@PE$AAVGattWriteRequestedEventArgs@2345@@Foundation@Windows@@QE$AAA@V<lambda_ff76360401e4d6f85634a86ab84aed97>@@W4CallbackContext@Platform@@_N@Z 0000000180016250 f i _nodert_generated.obj
 0001:000153b0       ??$?4AEAV?$function@$$A6AXXZ@std@@XX@?$function@$$A6AXXZ@std@@QEAAAEAV01@AEAV01@@Z 00000001800163b0 f i _nodert_generated.obj
 0001:00015460       ??$?4V<lambda_0d6fcde773c7b6b4d21b024869fa6bfb>@@XX@?$function@$$A6AXXZ@std@@QEAAAEAV01@$$QEAV<lambda_0d6fcde773c7b6b4d21b024869fa6bfb>@@@Z 0000000180016460 f i _nodert_generated.obj
 0001:00015560       ??$?4V<lambda_1c8ff7a4dfd6b22acbb53dd32b4c45c3>@@XX@?$function@$$A6AXXZ@std@@QEAAAEAV01@$$QEAV<lambda_1c8ff7a4dfd6b22acbb53dd32b4c45c3>@@@Z 0000000180016560 f i _nodert_generated.obj
 0001:00015660       ??$?4V<lambda_1db4255dab1d2be80ddc36be79d1c626>@@XX@?$function@$$A6AXXZ@std@@QEAAAEAV01@$$QEAV<lambda_1db4255dab1d2be80ddc36be79d1c626>@@@Z 0000000180016660 f i _nodert_generated.obj
 0001:00015760       ??$?4V<lambda_407003a2ba06051ef419524776d57d69>@@XX@?$function@$$A6AXXZ@std@@QEAAAEAV01@$$QEAV<lambda_407003a2ba06051ef419524776d57d69>@@@Z 0000000180016760 f i _nodert_generated.obj
 0001:00015860       ??$?4V<lambda_41ab7ce8c7b4be61785fb742ac9a47a4>@@XX@?$function@$$A6AXXZ@std@@QEAAAEAV01@$$QEAV<lambda_41ab7ce8c7b4be61785fb742ac9a47a4>@@@Z 0000000180016860 f i _nodert_generated.obj
 0001:00015960       ??$?4V<lambda_55616d86aaaaaf30174f84a85a8eafc5>@@XX@?$function@$$A6AXXZ@std@@QEAAAEAV01@$$QEAV<lambda_55616d86aaaaaf30174f84a85a8eafc5>@@@Z 0000000180016960 f i _nodert_generated.obj
 0001:00015a60       ??$?4V<lambda_565b780efd63290203eea2aa0513f436>@@XX@?$function@$$A6AXXZ@std@@QEAAAEAV01@$$QEAV<lambda_565b780efd63290203eea2aa0513f436>@@@Z 0000000180016a60 f i _nodert_generated.obj
 0001:00015b60       ??$?4V<lambda_6b70a425cada071cfa00fdb55fc23e5e>@@XX@?$function@$$A6AXXZ@std@@QEAAAEAV01@$$QEAV<lambda_6b70a425cada071cfa00fdb55fc23e5e>@@@Z 0000000180016b60 f i _nodert_generated.obj
 0001:00015c60       ??$?4V<lambda_8ae91e0f45bab82ffb3bc9cf140833f0>@@XX@?$function@$$A6AXXZ@std@@QEAAAEAV01@$$QEAV<lambda_8ae91e0f45bab82ffb3bc9cf140833f0>@@@Z 0000000180016c60 f i _nodert_generated.obj
 0001:00015d60       ??$?4V<lambda_8e2b455318f4ddbba2469ff4218d2076>@@XX@?$function@$$A6AXXZ@std@@QEAAAEAV01@$$QEAV<lambda_8e2b455318f4ddbba2469ff4218d2076>@@@Z 0000000180016d60 f i _nodert_generated.obj
 0001:00015e60       ??$?4V<lambda_b1f8ba4d902309fea27ec41444e39b4b>@@XX@?$function@$$A6AXXZ@std@@QEAAAEAV01@$$QEAV<lambda_b1f8ba4d902309fea27ec41444e39b4b>@@@Z 0000000180016e60 f i _nodert_generated.obj
 0001:00015f60       ??$?4V<lambda_c70ccf9882e06284b2a7d0cd8d6d7280>@@XX@?$function@$$A6AXXZ@std@@QEAAAEAV01@$$QEAV<lambda_c70ccf9882e06284b2a7d0cd8d6d7280>@@@Z 0000000180016f60 f i _nodert_generated.obj
 0001:00016060       ??$?4V<lambda_d9e52eabd55ab07dc4cb69b650eb97bd>@@XX@?$function@$$A6AXXZ@std@@QEAAAEAV01@$$QEAV<lambda_d9e52eabd55ab07dc4cb69b650eb97bd>@@@Z 0000000180017060 f i _nodert_generated.obj
 0001:00016160       ??$?4V<lambda_dc6e8a07e2ecf10cc4504b26daf53b7e>@@XX@?$function@$$A6AXXZ@std@@QEAAAEAV01@$$QEAV<lambda_dc6e8a07e2ecf10cc4504b26daf53b7e>@@@Z 0000000180017160 f i _nodert_generated.obj
 0001:00016260       ??$?4V<lambda_ddcadf660d50f5091b8d2134fee554ab>@@XX@?$function@$$A6AXXZ@std@@QEAAAEAV01@$$QEAV<lambda_ddcadf660d50f5091b8d2134fee554ab>@@@Z 0000000180017260 f i _nodert_generated.obj
 0001:00016360       ??$?4V<lambda_e852288caec5f99fe5fde46aaddd6ac0>@@XX@?$function@$$A6AXXZ@std@@QEAAAEAV01@$$QEAV<lambda_e852288caec5f99fe5fde46aaddd6ac0>@@@Z 0000000180017360 f i _nodert_generated.obj
 0001:00016460       ??$?4V<lambda_fcdc23fb2483b4d1e2ddab07a3d7e1fb>@@XX@?$function@$$A6AXXZ@std@@QEAAAEAV01@$$QEAV<lambda_fcdc23fb2483b4d1e2ddab07a3d7e1fb>@@@Z 0000000180017460 f i _nodert_generated.obj
 0001:00016560       ??$?4V<lambda_fe0e610d64fd6343be08eb2b29b43eca>@@XX@?$function@$$A6AXXZ@std@@QEAAAEAV01@$$QEAV<lambda_fe0e610d64fd6343be08eb2b29b43eca>@@@Z 0000000180017560 f i _nodert_generated.obj
 0001:00016660       ??$?8UIUnknown@@@WRL@Microsoft@@YA_NAEBV?$ComPtr@UIUnknown@@@01@$$T@Z 0000000180017660 f i _nodert_generated.obj
 0001:00016670       ??$?8U_Task_impl_base@details@Concurrency@@@std@@YA_NAEBV?$shared_ptr@U_Task_impl_base@details@Concurrency@@@0@$$T@Z 0000000180017670 f i _nodert_generated.obj
 0001:00016680       ??$?9U_Task_impl_base@details@Concurrency@@@std@@YA_NAEBV?$shared_ptr@U_Task_impl_base@details@Concurrency@@@0@$$T@Z 0000000180017680 f i _nodert_generated.obj
 0001:00016690       ??$IsWinRtWrapperOf@P$01E$AAV?$Array@PE$AAVGattPresentationFormat@GenericAttributeProfile@Bluetooth@Devices@Windows@@$00@Platform@@@Utils@NodeRT@@YA_NV?$Local@VValue@v8@@@v8@@@Z 0000000180017690 f i _nodert_generated.obj
 0001:00016800       ??$IsWinRtWrapperOf@PE$AAU?$IIterator@PE$AAVGattCharacteristic@GenericAttributeProfile@Bluetooth@Devices@Windows@@@Collections@Foundation@Windows@@@Utils@NodeRT@@YA_NV?$Local@VValue@v8@@@v8@@@Z 0000000180017800 f i _nodert_generated.obj
 0001:00016970       ??$IsWinRtWrapperOf@PE$AAU?$IIterator@PE$AAVGattClientNotificationResult@GenericAttributeProfile@Bluetooth@Devices@Windows@@@Collections@Foundation@Windows@@@Utils@NodeRT@@YA_NV?$Local@VValue@v8@@@v8@@@Z 0000000180017970 f i _nodert_generated.obj
 0001:00016ae0       ??$IsWinRtWrapperOf@PE$AAU?$IIterator@PE$AAVGattDescriptor@GenericAttributeProfile@Bluetooth@Devices@Windows@@@Collections@Foundation@Windows@@@Utils@NodeRT@@YA_NV?$Local@VValue@v8@@@v8@@@Z 0000000180017ae0 f i _nodert_generated.obj
 0001:00016c50       ??$IsWinRtWrapperOf@PE$AAU?$IIterator@PE$AAVGattDeviceService@GenericAttributeProfile@Bluetooth@Devices@Windows@@@Collections@Foundation@Windows@@@Utils@NodeRT@@YA_NV?$Local@VValue@v8@@@v8@@@Z 0000000180017c50 f i _nodert_generated.obj
 0001:00016dc0       ??$IsWinRtWrapperOf@PE$AAU?$IIterator@PE$AAVGattLocalCharacteristic@GenericAttributeProfile@Bluetooth@Devices@Windows@@@Collections@Foundation@Windows@@@Utils@NodeRT@@YA_NV?$Local@VValue@v8@@@v8@@@Z 0000000180017dc0 f i _nodert_generated.obj
 0001:00016f30       ??$IsWinRtWrapperOf@PE$AAU?$IIterator@PE$AAVGattLocalDescriptor@GenericAttributeProfile@Bluetooth@Devices@Windows@@@Collections@Foundation@Windows@@@Utils@NodeRT@@YA_NV?$Local@VValue@v8@@@v8@@@Z 0000000180017f30 f i _nodert_generated.obj
 0001:000170a0       ??$IsWinRtWrapperOf@PE$AAU?$IIterator@PE$AAVGattPresentationFormat@GenericAttributeProfile@Bluetooth@Devices@Windows@@@Collections@Foundation@Windows@@@Utils@NodeRT@@YA_NV?$Local@VValue@v8@@@v8@@@Z 00000001800180a0 f i _nodert_generated.obj
 0001:00017210       ??$IsWinRtWrapperOf@PE$AAU?$IIterator@PE$AAVGattSubscribedClient@GenericAttributeProfile@Bluetooth@Devices@Windows@@@Collections@Foundation@Windows@@@Utils@NodeRT@@YA_NV?$Local@VValue@v8@@@v8@@@Z 0000000180018210 f i _nodert_generated.obj
 0001:00017380       ??$IsWinRtWrapperOf@PE$AAU?$IVector@PE$AAVGattPresentationFormat@GenericAttributeProfile@Bluetooth@Devices@Windows@@@Collections@Foundation@Windows@@@Utils@NodeRT@@YA_NV?$Local@VValue@v8@@@v8@@@Z 0000000180018380 f i _nodert_generated.obj
 0001:000174f0       ??$IsWinRtWrapperOf@PE$AAU?$IVectorView@PE$AAVGattCharacteristic@GenericAttributeProfile@Bluetooth@Devices@Windows@@@Collections@Foundation@Windows@@@Utils@NodeRT@@YA_NV?$Local@VValue@v8@@@v8@@@Z 00000001800184f0 f i _nodert_generated.obj
 0001:00017660       ??$IsWinRtWrapperOf@PE$AAU?$IVectorView@PE$AAVGattClientNotificationResult@GenericAttributeProfile@Bluetooth@Devices@Windows@@@Collections@Foundation@Windows@@@Utils@NodeRT@@YA_NV?$Local@VValue@v8@@@v8@@@Z 0000000180018660 f i _nodert_generated.obj
 0001:000177d0       ??$IsWinRtWrapperOf@PE$AAU?$IVectorView@PE$AAVGattDescriptor@GenericAttributeProfile@Bluetooth@Devices@Windows@@@Collections@Foundation@Windows@@@Utils@NodeRT@@YA_NV?$Local@VValue@v8@@@v8@@@Z 00000001800187d0 f i _nodert_generated.obj
 0001:00017940       ??$IsWinRtWrapperOf@PE$AAU?$IVectorView@PE$AAVGattDeviceService@GenericAttributeProfile@Bluetooth@Devices@Windows@@@Collections@Foundation@Windows@@@Utils@NodeRT@@YA_NV?$Local@VValue@v8@@@v8@@@Z 0000000180018940 f i _nodert_generated.obj
 0001:00017ab0       ??$IsWinRtWrapperOf@PE$AAU?$IVectorView@PE$AAVGattLocalCharacteristic@GenericAttributeProfile@Bluetooth@Devices@Windows@@@Collections@Foundation@Windows@@@Utils@NodeRT@@YA_NV?$Local@VValue@v8@@@v8@@@Z 0000000180018ab0 f i _nodert_generated.obj
 0001:00017c20       ??$IsWinRtWrapperOf@PE$AAU?$IVectorView@PE$AAVGattLocalDescriptor@GenericAttributeProfile@Bluetooth@Devices@Windows@@@Collections@Foundation@Windows@@@Utils@NodeRT@@YA_NV?$Local@VValue@v8@@@v8@@@Z 0000000180018c20 f i _nodert_generated.obj
 0001:00017d90       ??$IsWinRtWrapperOf@PE$AAU?$IVectorView@PE$AAVGattPresentationFormat@GenericAttributeProfile@Bluetooth@Devices@Windows@@@Collections@Foundation@Windows@@@Utils@NodeRT@@YA_NV?$Local@VValue@v8@@@v8@@@Z 0000000180018d90 f i _nodert_generated.obj
 0001:00017f00       ??$IsWinRtWrapperOf@PE$AAU?$IVectorView@PE$AAVGattSubscribedClient@GenericAttributeProfile@Bluetooth@Devices@Windows@@@Collections@Foundation@Windows@@@Utils@NodeRT@@YA_NV?$Local@VValue@v8@@@v8@@@Z 0000000180018f00 f i _nodert_generated.obj
 0001:00018070       ??$IsWinRtWrapperOf@PE$AAUIBuffer@Streams@Storage@Windows@@@Utils@NodeRT@@YA_NV?$Local@VValue@v8@@@v8@@@Z 0000000180019070 f i _nodert_generated.obj
 0001:000181e0       ??$IsWinRtWrapperOf@PE$AAVBluetoothDeviceId@Bluetooth@Devices@Windows@@@Utils@NodeRT@@YA_NV?$Local@VValue@v8@@@v8@@@Z 00000001800191e0 f i _nodert_generated.obj
 0001:00018350       ??$IsWinRtWrapperOf@PE$AAVGattCharacteristic@GenericAttributeProfile@Bluetooth@Devices@Windows@@@Utils@NodeRT@@YA_NV?$Local@VValue@v8@@@v8@@@Z 0000000180019350 f i _nodert_generated.obj
 0001:000184c0       ??$IsWinRtWrapperOf@PE$AAVGattCharacteristicUuids@GenericAttributeProfile@Bluetooth@Devices@Windows@@@Utils@NodeRT@@YA_NV?$Local@VValue@v8@@@v8@@@Z 00000001800194c0 f i _nodert_generated.obj
 0001:00018630       ??$IsWinRtWrapperOf@PE$AAVGattCharacteristicsResult@GenericAttributeProfile@Bluetooth@Devices@Windows@@@Utils@NodeRT@@YA_NV?$Local@VValue@v8@@@v8@@@Z 0000000180019630 f i _nodert_generated.obj
 0001:000187a0       ??$IsWinRtWrapperOf@PE$AAVGattClientNotificationResult@GenericAttributeProfile@Bluetooth@Devices@Windows@@@Utils@NodeRT@@YA_NV?$Local@VValue@v8@@@v8@@@Z 00000001800197a0 f i _nodert_generated.obj
 0001:00018910       ??$IsWinRtWrapperOf@PE$AAVGattDescriptor@GenericAttributeProfile@Bluetooth@Devices@Windows@@@Utils@NodeRT@@YA_NV?$Local@VValue@v8@@@v8@@@Z 0000000180019910 f i _nodert_generated.obj
 0001:00018a80       ??$IsWinRtWrapperOf@PE$AAVGattDescriptorUuids@GenericAttributeProfile@Bluetooth@Devices@Windows@@@Utils@NodeRT@@YA_NV?$Local@VValue@v8@@@v8@@@Z 0000000180019a80 f i _nodert_generated.obj
 0001:00018bf0       ??$IsWinRtWrapperOf@PE$AAVGattDescriptorsResult@GenericAttributeProfile@Bluetooth@Devices@Windows@@@Utils@NodeRT@@YA_NV?$Local@VValue@v8@@@v8@@@Z 0000000180019bf0 f i _nodert_generated.obj
 0001:00018d60       ??$IsWinRtWrapperOf@PE$AAVGattDeviceService@GenericAttributeProfile@Bluetooth@Devices@Windows@@@Utils@NodeRT@@YA_NV?$Local@VValue@v8@@@v8@@@Z 0000000180019d60 f i _nodert_generated.obj
 0001:00018ed0       ??$IsWinRtWrapperOf@PE$AAVGattDeviceServicesResult@GenericAttributeProfile@Bluetooth@Devices@Windows@@@Utils@NodeRT@@YA_NV?$Local@VValue@v8@@@v8@@@Z 0000000180019ed0 f i _nodert_generated.obj
 0001:00019040       ??$IsWinRtWrapperOf@PE$AAVGattLocalCharacteristic@GenericAttributeProfile@Bluetooth@Devices@Windows@@@Utils@NodeRT@@YA_NV?$Local@VValue@v8@@@v8@@@Z 000000018001a040 f i _nodert_generated.obj
 0001:000191b0       ??$IsWinRtWrapperOf@PE$AAVGattLocalCharacteristicParameters@GenericAttributeProfile@Bluetooth@Devices@Windows@@@Utils@NodeRT@@YA_NV?$Local@VValue@v8@@@v8@@@Z 000000018001a1b0 f i _nodert_generated.obj
 0001:00019320       ??$IsWinRtWrapperOf@PE$AAVGattLocalCharacteristicResult@GenericAttributeProfile@Bluetooth@Devices@Windows@@@Utils@NodeRT@@YA_NV?$Local@VValue@v8@@@v8@@@Z 000000018001a320 f i _nodert_generated.obj
 0001:00019490       ??$IsWinRtWrapperOf@PE$AAVGattLocalDescriptor@GenericAttributeProfile@Bluetooth@Devices@Windows@@@Utils@NodeRT@@YA_NV?$Local@VValue@v8@@@v8@@@Z 000000018001a490 f i _nodert_generated.obj
 0001:00019600       ??$IsWinRtWrapperOf@PE$AAVGattLocalDescriptorParameters@GenericAttributeProfile@Bluetooth@Devices@Windows@@@Utils@NodeRT@@YA_NV?$Local@VValue@v8@@@v8@@@Z 000000018001a600 f i _nodert_generated.obj
 0001:00019770       ??$IsWinRtWrapperOf@PE$AAVGattLocalDescriptorResult@GenericAttributeProfile@Bluetooth@Devices@Windows@@@Utils@NodeRT@@YA_NV?$Local@VValue@v8@@@v8@@@Z 000000018001a770 f i _nodert_generated.obj
 0001:000198e0       ??$IsWinRtWrapperOf@PE$AAVGattLocalService@GenericAttributeProfile@Bluetooth@Devices@Windows@@@Utils@NodeRT@@YA_NV?$Local@VValue@v8@@@v8@@@Z 000000018001a8e0 f i _nodert_generated.obj
 0001:00019a50       ??$IsWinRtWrapperOf@PE$AAVGattPresentationFormat@GenericAttributeProfile@Bluetooth@Devices@Windows@@@Utils@NodeRT@@YA_NV?$Local@VValue@v8@@@v8@@@Z 000000018001aa50 f i _nodert_generated.obj
 0001:00019bc0       ??$IsWinRtWrapperOf@PE$AAVGattPresentationFormatTypes@GenericAttributeProfile@Bluetooth@Devices@Windows@@@Utils@NodeRT@@YA_NV?$Local@VValue@v8@@@v8@@@Z 000000018001abc0 f i _nodert_generated.obj
 0001:00019d30       ??$IsWinRtWrapperOf@PE$AAVGattProtocolError@GenericAttributeProfile@Bluetooth@Devices@Windows@@@Utils@NodeRT@@YA_NV?$Local@VValue@v8@@@v8@@@Z 000000018001ad30 f i _nodert_generated.obj
 0001:00019ea0       ??$IsWinRtWrapperOf@PE$AAVGattReadClientCharacteristicConfigurationDescriptorResult@GenericAttributeProfile@Bluetooth@Devices@Windows@@@Utils@NodeRT@@YA_NV?$Local@VValue@v8@@@v8@@@Z 000000018001aea0 f i _nodert_generated.obj
 0001:0001a010       ??$IsWinRtWrapperOf@PE$AAVGattReadRequest@GenericAttributeProfile@Bluetooth@Devices@Windows@@@Utils@NodeRT@@YA_NV?$Local@VValue@v8@@@v8@@@Z 000000018001b010 f i _nodert_generated.obj
 0001:0001a180       ??$IsWinRtWrapperOf@PE$AAVGattReadRequestedEventArgs@GenericAttributeProfile@Bluetooth@Devices@Windows@@@Utils@NodeRT@@YA_NV?$Local@VValue@v8@@@v8@@@Z 000000018001b180 f i _nodert_generated.obj
 0001:0001a2f0       ??$IsWinRtWrapperOf@PE$AAVGattReadResult@GenericAttributeProfile@Bluetooth@Devices@Windows@@@Utils@NodeRT@@YA_NV?$Local@VValue@v8@@@v8@@@Z 000000018001b2f0 f i _nodert_generated.obj
 0001:0001a460       ??$IsWinRtWrapperOf@PE$AAVGattReliableWriteTransaction@GenericAttributeProfile@Bluetooth@Devices@Windows@@@Utils@NodeRT@@YA_NV?$Local@VValue@v8@@@v8@@@Z 000000018001b460 f i _nodert_generated.obj
 0001:0001a5d0       ??$IsWinRtWrapperOf@PE$AAVGattRequestStateChangedEventArgs@GenericAttributeProfile@Bluetooth@Devices@Windows@@@Utils@NodeRT@@YA_NV?$Local@VValue@v8@@@v8@@@Z 000000018001b5d0 f i _nodert_generated.obj
 0001:0001a740       ??$IsWinRtWrapperOf@PE$AAVGattServiceProvider@GenericAttributeProfile@Bluetooth@Devices@Windows@@@Utils@NodeRT@@YA_NV?$Local@VValue@v8@@@v8@@@Z 000000018001b740 f i _nodert_generated.obj
 0001:0001a8b0       ??$IsWinRtWrapperOf@PE$AAVGattServiceProviderAdvertisementStatusChangedEventArgs@GenericAttributeProfile@Bluetooth@Devices@Windows@@@Utils@NodeRT@@YA_NV?$Local@VValue@v8@@@v8@@@Z 000000018001b8b0 f i _nodert_generated.obj
 0001:0001aa20       ??$IsWinRtWrapperOf@PE$AAVGattServiceProviderAdvertisingParameters@GenericAttributeProfile@Bluetooth@Devices@Windows@@@Utils@NodeRT@@YA_NV?$Local@VValue@v8@@@v8@@@Z 000000018001ba20 f i _nodert_generated.obj
 0001:0001ab90       ??$IsWinRtWrapperOf@PE$AAVGattServiceProviderResult@GenericAttributeProfile@Bluetooth@Devices@Windows@@@Utils@NodeRT@@YA_NV?$Local@VValue@v8@@@v8@@@Z 000000018001bb90 f i _nodert_generated.obj
 0001:0001ad00       ??$IsWinRtWrapperOf@PE$AAVGattServiceUuids@GenericAttributeProfile@Bluetooth@Devices@Windows@@@Utils@NodeRT@@YA_NV?$Local@VValue@v8@@@v8@@@Z 000000018001bd00 f i _nodert_generated.obj
 0001:0001ae70       ??$IsWinRtWrapperOf@PE$AAVGattSession@GenericAttributeProfile@Bluetooth@Devices@Windows@@@Utils@NodeRT@@YA_NV?$Local@VValue@v8@@@v8@@@Z 000000018001be70 f i _nodert_generated.obj
 0001:0001afe0       ??$IsWinRtWrapperOf@PE$AAVGattSessionStatusChangedEventArgs@GenericAttributeProfile@Bluetooth@Devices@Windows@@@Utils@NodeRT@@YA_NV?$Local@VValue@v8@@@v8@@@Z 000000018001bfe0 f i _nodert_generated.obj
 0001:0001b150       ??$IsWinRtWrapperOf@PE$AAVGattSubscribedClient@GenericAttributeProfile@Bluetooth@Devices@Windows@@@Utils@NodeRT@@YA_NV?$Local@VValue@v8@@@v8@@@Z 000000018001c150 f i _nodert_generated.obj
 0001:0001b2c0       ??$IsWinRtWrapperOf@PE$AAVGattValueChangedEventArgs@GenericAttributeProfile@Bluetooth@Devices@Windows@@@Utils@NodeRT@@YA_NV?$Local@VValue@v8@@@v8@@@Z 000000018001c2c0 f i _nodert_generated.obj
 0001:0001b430       ??$IsWinRtWrapperOf@PE$AAVGattWriteRequest@GenericAttributeProfile@Bluetooth@Devices@Windows@@@Utils@NodeRT@@YA_NV?$Local@VValue@v8@@@v8@@@Z 000000018001c430 f i _nodert_generated.obj
 0001:0001b5a0       ??$IsWinRtWrapperOf@PE$AAVGattWriteRequestedEventArgs@GenericAttributeProfile@Bluetooth@Devices@Windows@@@Utils@NodeRT@@YA_NV?$Local@VValue@v8@@@v8@@@Z 000000018001c5a0 f i _nodert_generated.obj
 0001:0001b710       ??$IsWinRtWrapperOf@PE$AAVGattWriteResult@GenericAttributeProfile@Bluetooth@Devices@Windows@@@Utils@NodeRT@@YA_NV?$Local@VValue@v8@@@v8@@@Z 000000018001c710 f i _nodert_generated.obj
 0001:0001b880       ??$New@VBoolean@v8@@_N@Nan@@YA?AV?$Local@VBoolean@v8@@@v8@@_N@Z 000000018001c880 f i _nodert_generated.obj
 0001:0001b8e0       ??$New@VExternal@v8@@PEAX@Nan@@YA?AV?$Local@VExternal@v8@@@v8@@PEAX@Z 000000018001c8e0 f i _nodert_generated.obj
 0001:0001b920       ??$New@VFunctionTemplate@v8@@@Nan@@YA?AV?$Local@VFunctionTemplate@v8@@@v8@@P6AXAEBV?$FunctionCallbackInfo@VValue@v8@@@0@@ZV?$Local@VValue@v8@@@2@@Z 000000018001c920 f i _nodert_generated.obj
 0001:0001b940       ??$New@VFunctionTemplate@v8@@V?$Local@VSignature@v8@@@2@@Nan@@YA?AV?$Local@VFunctionTemplate@v8@@@v8@@P6AXAEBV?$FunctionCallbackInfo@VValue@v8@@@0@@ZV?$Local@VValue@v8@@@2@V?$Local@VSignature@v8@@@2@@Z 000000018001c940 f i _nodert_generated.obj
 0001:0001b960       ??$New@VInteger@v8@@E@Nan@@YA?AV?$Local@VInteger@v8@@@v8@@E@Z 000000018001c960 f i _nodert_generated.obj
 0001:0001b9d0       ??$New@VInteger@v8@@G@Nan@@YA?AV?$Local@VInteger@v8@@@v8@@G@Z 000000018001c9d0 f i _nodert_generated.obj
 0001:0001ba40       ??$New@VInteger@v8@@H@Nan@@YA?AV?$Local@VInteger@v8@@@v8@@H@Z 000000018001ca40 f i _nodert_generated.obj
 0001:0001bab0       ??$New@VInteger@v8@@I@Nan@@YA?AV?$Local@VInteger@v8@@@v8@@I@Z 000000018001cab0 f i _nodert_generated.obj
 0001:0001bb20       ??$New@VObject@v8@@@Nan@@YA?AV?$Local@VObject@v8@@@v8@@XZ 000000018001cb20 f i _nodert_generated.obj
 0001:0001bb50       ??$New@VObjectTemplate@v8@@@Nan@@YA?AV?$Local@VObjectTemplate@v8@@@v8@@XZ 000000018001cb50 f i _nodert_generated.obj
 0001:0001bb80       ??$New@VSignature@v8@@V?$Local@VFunctionTemplate@v8@@@2@@Nan@@YA?AV?$Local@VSignature@v8@@@v8@@V?$Local@VFunctionTemplate@v8@@@2@@Z 000000018001cb80 f i _nodert_generated.obj
 0001:0001bbc0       ??$New@VString@v8@@PEBD@Nan@@YA?AV?$MaybeLocal@VString@v8@@@v8@@PEBD@Z 000000018001cbc0 f i _nodert_generated.obj
 0001:0001bc10       ??$Reset@VObject@v8@@@?$Persistent@VObject@v8@@V?$NonCopyablePersistentTraits@VObject@v8@@@2@@Nan@@QEAAXAEBV?$Local@VObject@v8@@@v8@@@Z 000000018001cc10 f i _nodert_generated.obj
 0001:0001bc80       ??$SetMethod@VObject@v8@@VLocal@2@@Nan@@YAXV?$Local@VObject@v8@@@v8@@PEBDP6AXAEBV?$FunctionCallbackInfo@VValue@v8@@@0@@Z@Z 000000018001cc80 f i _nodert_generated.obj
 0001:0001bd70       ??$SetMethodAux@V?$Local@VObject@v8@@@v8@@@imp@Nan@@YAXV?$Local@VObject@v8@@@v8@@V?$Local@VString@v8@@@3@V?$Local@VFunctionTemplate@v8@@@3@ZZ 000000018001cd70 f i _nodert_generated.obj
 0001:0001bde0       ??$Unwrap@V?$IteratorWrapper@PE$AAVGattCharacteristic@GenericAttributeProfile@Bluetooth@Devices@Windows@@@Collections@NodeRT@@@ObjectWrap@Nan@@SAPEAV?$IteratorWrapper@PE$AAVGattCharacteristic@GenericAttributeProfile@Bluetooth@Devices@Windows@@@Collections@NodeRT@@V?$Local@VObject@v8@@@v8@@@Z 000000018001cde0 f i _nodert_generated.obj
 0001:0001be90       ??$Unwrap@V?$IteratorWrapper@PE$AAVGattClientNotificationResult@GenericAttributeProfile@Bluetooth@Devices@Windows@@@Collections@NodeRT@@@ObjectWrap@Nan@@SAPEAV?$IteratorWrapper@PE$AAVGattClientNotificationResult@GenericAttributeProfile@Bluetooth@Devices@Windows@@@Collections@NodeRT@@V?$Local@VObject@v8@@@v8@@@Z 000000018001ce90 f i _nodert_generated.obj
 0001:0001bf40       ??$Unwrap@V?$IteratorWrapper@PE$AAVGattDescriptor@GenericAttributeProfile@Bluetooth@Devices@Windows@@@Collections@NodeRT@@@ObjectWrap@Nan@@SAPEAV?$IteratorWrapper@PE$AAVGattDescriptor@GenericAttributeProfile@Bluetooth@Devices@Windows@@@Collections@NodeRT@@V?$Local@VObject@v8@@@v8@@@Z 000000018001cf40 f i _nodert_generated.obj
 0001:0001bff0       ??$Unwrap@V?$IteratorWrapper@PE$AAVGattDeviceService@GenericAttributeProfile@Bluetooth@Devices@Windows@@@Collections@NodeRT@@@ObjectWrap@Nan@@SAPEAV?$IteratorWrapper@PE$AAVGattDeviceService@GenericAttributeProfile@Bluetooth@Devices@Windows@@@Collections@NodeRT@@V?$Local@VObject@v8@@@v8@@@Z 000000018001cff0 f i _nodert_generated.obj
 0001:0001c0a0       ??$Unwrap@V?$IteratorWrapper@PE$AAVGattLocalCharacteristic@GenericAttributeProfile@Bluetooth@Devices@Windows@@@Collections@NodeRT@@@ObjectWrap@Nan@@SAPEAV?$IteratorWrapper@PE$AAVGattLocalCharacteristic@GenericAttributeProfile@Bluetooth@Devices@Windows@@@Collections@NodeRT@@V?$Local@VObject@v8@@@v8@@@Z 000000018001d0a0 f i _nodert_generated.obj
 0001:0001c150       ??$Unwrap@V?$IteratorWrapper@PE$AAVGattLocalDescriptor@GenericAttributeProfile@Bluetooth@Devices@Windows@@@Collections@NodeRT@@@ObjectWrap@Nan@@SAPEAV?$IteratorWrapper@PE$AAVGattLocalDescriptor@GenericAttributeProfile@Bluetooth@Devices@Windows@@@Collections@NodeRT@@V?$Local@VObject@v8@@@v8@@@Z 000000018001d150 f i _nodert_generated.obj
 0001:0001c200       ??$Unwrap@V?$IteratorWrapper@PE$AAVGattPresentationFormat@GenericAttributeProfile@Bluetooth@Devices@Windows@@@Collections@NodeRT@@@ObjectWrap@Nan@@SAPEAV?$IteratorWrapper@PE$AAVGattPresentationFormat@GenericAttributeProfile@Bluetooth@Devices@Windows@@@Collections@NodeRT@@V?$Local@VObject@v8@@@v8@@@Z 000000018001d200 f i _nodert_generated.obj
 0001:0001c2b0       ??$Unwrap@V?$IteratorWrapper@PE$AAVGattSubscribedClient@GenericAttributeProfile@Bluetooth@Devices@Windows@@@Collections@NodeRT@@@ObjectWrap@Nan@@SAPEAV?$IteratorWrapper@PE$AAVGattSubscribedClient@GenericAttributeProfile@Bluetooth@Devices@Windows@@@Collections@NodeRT@@V?$Local@VObject@v8@@@v8@@@Z 000000018001d2b0 f i _nodert_generated.obj
 0001:0001c360       ??$Unwrap@V?$VectorViewWrapper@PE$AAVGattCharacteristic@GenericAttributeProfile@Bluetooth@Devices@Windows@@@Collections@NodeRT@@@ObjectWrap@Nan@@SAPEAV?$VectorViewWrapper@PE$AAVGattCharacteristic@GenericAttributeProfile@Bluetooth@Devices@Windows@@@Collections@NodeRT@@V?$Local@VObject@v8@@@v8@@@Z 000000018001d360 f i _nodert_generated.obj
 0001:0001c410       ??$Unwrap@V?$VectorViewWrapper@PE$AAVGattClientNotificationResult@GenericAttributeProfile@Bluetooth@Devices@Windows@@@Collections@NodeRT@@@ObjectWrap@Nan@@SAPEAV?$VectorViewWrapper@PE$AAVGattClientNotificationResult@GenericAttributeProfile@Bluetooth@Devices@Windows@@@Collections@NodeRT@@V?$Local@VObject@v8@@@v8@@@Z 000000018001d410 f i _nodert_generated.obj
 0001:0001c4c0       ??$Unwrap@V?$VectorViewWrapper@PE$AAVGattDescriptor@GenericAttributeProfile@Bluetooth@Devices@Windows@@@Collections@NodeRT@@@ObjectWrap@Nan@@SAPEAV?$VectorViewWrapper@PE$AAVGattDescriptor@GenericAttributeProfile@Bluetooth@Devices@Windows@@@Collections@NodeRT@@V?$Local@VObject@v8@@@v8@@@Z 000000018001d4c0 f i _nodert_generated.obj
 0001:0001c570       ??$Unwrap@V?$VectorViewWrapper@PE$AAVGattDeviceService@GenericAttributeProfile@Bluetooth@Devices@Windows@@@Collections@NodeRT@@@ObjectWrap@Nan@@SAPEAV?$VectorViewWrapper@PE$AAVGattDeviceService@GenericAttributeProfile@Bluetooth@Devices@Windows@@@Collections@NodeRT@@V?$Local@VObject@v8@@@v8@@@Z 000000018001d570 f i _nodert_generated.obj
 0001:0001c620       ??$Unwrap@V?$VectorViewWrapper@PE$AAVGattLocalCharacteristic@GenericAttributeProfile@Bluetooth@Devices@Windows@@@Collections@NodeRT@@@ObjectWrap@Nan@@SAPEAV?$VectorViewWrapper@PE$AAVGattLocalCharacteristic@GenericAttributeProfile@Bluetooth@Devices@Windows@@@Collections@NodeRT@@V?$Local@VObject@v8@@@v8@@@Z 000000018001d620 f i _nodert_generated.obj
 0001:0001c6d0       ??$Unwrap@V?$VectorViewWrapper@PE$AAVGattLocalDescriptor@GenericAttributeProfile@Bluetooth@Devices@Windows@@@Collections@NodeRT@@@ObjectWrap@Nan@@SAPEAV?$VectorViewWrapper@PE$AAVGattLocalDescriptor@GenericAttributeProfile@Bluetooth@Devices@Windows@@@Collections@NodeRT@@V?$Local@VObject@v8@@@v8@@@Z 000000018001d6d0 f i _nodert_generated.obj
 0001:0001c780       ??$Unwrap@V?$VectorViewWrapper@PE$AAVGattPresentationFormat@GenericAttributeProfile@Bluetooth@Devices@Windows@@@Collections@NodeRT@@@ObjectWrap@Nan@@SAPEAV?$VectorViewWrapper@PE$AAVGattPresentationFormat@GenericAttributeProfile@Bluetooth@Devices@Windows@@@Collections@NodeRT@@V?$Local@VObject@v8@@@v8@@@Z 000000018001d780 f i _nodert_generated.obj
 0001:0001c830       ??$Unwrap@V?$VectorViewWrapper@PE$AAVGattSubscribedClient@GenericAttributeProfile@Bluetooth@Devices@Windows@@@Collections@NodeRT@@@ObjectWrap@Nan@@SAPEAV?$VectorViewWrapper@PE$AAVGattSubscribedClient@GenericAttributeProfile@Bluetooth@Devices@Windows@@@Collections@NodeRT@@V?$Local@VObject@v8@@@v8@@@Z 000000018001d830 f i _nodert_generated.obj
 0001:0001c8e0       ??$Unwrap@V?$VectorWrapper@PE$AAVGattPresentationFormat@GenericAttributeProfile@Bluetooth@Devices@Windows@@@Collections@NodeRT@@@ObjectWrap@Nan@@SAPEAV?$VectorWrapper@PE$AAVGattPresentationFormat@GenericAttributeProfile@Bluetooth@Devices@Windows@@@Collections@NodeRT@@V?$Local@VObject@v8@@@v8@@@Z 000000018001d8e0 f i _nodert_generated.obj
 0001:0001c990       ??$Unwrap@VGattCharacteristic@GenericAttributeProfile@Bluetooth@Devices@Windows@NodeRT@@@ObjectWrap@Nan@@SAPEAVGattCharacteristic@GenericAttributeProfile@Bluetooth@Devices@Windows@NodeRT@@V?$Local@VObject@v8@@@v8@@@Z 000000018001d990 f i _nodert_generated.obj
 0001:0001ca40       ??$Unwrap@VGattCharacteristicUuids@GenericAttributeProfile@Bluetooth@Devices@Windows@NodeRT@@@ObjectWrap@Nan@@SAPEAVGattCharacteristicUuids@GenericAttributeProfile@Bluetooth@Devices@Windows@NodeRT@@V?$Local@VObject@v8@@@v8@@@Z 000000018001da40 f i _nodert_generated.obj
 0001:0001caf0       ??$Unwrap@VGattCharacteristicsResult@GenericAttributeProfile@Bluetooth@Devices@Windows@NodeRT@@@ObjectWrap@Nan@@SAPEAVGattCharacteristicsResult@GenericAttributeProfile@Bluetooth@Devices@Windows@NodeRT@@V?$Local@VObject@v8@@@v8@@@Z 000000018001daf0 f i _nodert_generated.obj
 0001:0001cba0       ??$Unwrap@VGattClientNotificationResult@GenericAttributeProfile@Bluetooth@Devices@Windows@NodeRT@@@ObjectWrap@Nan@@SAPEAVGattClientNotificationResult@GenericAttributeProfile@Bluetooth@Devices@Windows@NodeRT@@V?$Local@VObject@v8@@@v8@@@Z 000000018001dba0 f i _nodert_generated.obj
 0001:0001cc50       ??$Unwrap@VGattDescriptor@GenericAttributeProfile@Bluetooth@Devices@Windows@NodeRT@@@ObjectWrap@Nan@@SAPEAVGattDescriptor@GenericAttributeProfile@Bluetooth@Devices@Windows@NodeRT@@V?$Local@VObject@v8@@@v8@@@Z 000000018001dc50 f i _nodert_generated.obj
 0001:0001cd00       ??$Unwrap@VGattDescriptorUuids@GenericAttributeProfile@Bluetooth@Devices@Windows@NodeRT@@@ObjectWrap@Nan@@SAPEAVGattDescriptorUuids@GenericAttributeProfile@Bluetooth@Devices@Windows@NodeRT@@V?$Local@VObject@v8@@@v8@@@Z 000000018001dd00 f i _nodert_generated.obj
 0001:0001cdb0       ??$Unwrap@VGattDescriptorsResult@GenericAttributeProfile@Bluetooth@Devices@Windows@NodeRT@@@ObjectWrap@Nan@@SAPEAVGattDescriptorsResult@GenericAttributeProfile@Bluetooth@Devices@Windows@NodeRT@@V?$Local@VObject@v8@@@v8@@@Z 000000018001ddb0 f i _nodert_generated.obj
 0001:0001ce60       ??$Unwrap@VGattDeviceService@GenericAttributeProfile@Bluetooth@Devices@Windows@NodeRT@@@ObjectWrap@Nan@@SAPEAVGattDeviceService@GenericAttributeProfile@Bluetooth@Devices@Windows@NodeRT@@V?$Local@VObject@v8@@@v8@@@Z 000000018001de60 f i _nodert_generated.obj
 0001:0001cf10       ??$Unwrap@VGattDeviceServicesResult@GenericAttributeProfile@Bluetooth@Devices@Windows@NodeRT@@@ObjectWrap@Nan@@SAPEAVGattDeviceServicesResult@GenericAttributeProfile@Bluetooth@Devices@Windows@NodeRT@@V?$Local@VObject@v8@@@v8@@@Z 000000018001df10 f i _nodert_generated.obj
 0001:0001cfc0       ??$Unwrap@VGattLocalCharacteristic@GenericAttributeProfile@Bluetooth@Devices@Windows@NodeRT@@@ObjectWrap@Nan@@SAPEAVGattLocalCharacteristic@GenericAttributeProfile@Bluetooth@Devices@Windows@NodeRT@@V?$Local@VObject@v8@@@v8@@@Z 000000018001dfc0 f i _nodert_generated.obj
 0001:0001d070       ??$Unwrap@VGattLocalCharacteristicParameters@GenericAttributeProfile@Bluetooth@Devices@Windows@NodeRT@@@ObjectWrap@Nan@@SAPEAVGattLocalCharacteristicParameters@GenericAttributeProfile@Bluetooth@Devices@Windows@NodeRT@@V?$Local@VObject@v8@@@v8@@@Z 000000018001e070 f i _nodert_generated.obj
 0001:0001d120       ??$Unwrap@VGattLocalCharacteristicResult@GenericAttributeProfile@Bluetooth@Devices@Windows@NodeRT@@@ObjectWrap@Nan@@SAPEAVGattLocalCharacteristicResult@GenericAttributeProfile@Bluetooth@Devices@Windows@NodeRT@@V?$Local@VObject@v8@@@v8@@@Z 000000018001e120 f i _nodert_generated.obj
 0001:0001d1d0       ??$Unwrap@VGattLocalDescriptor@GenericAttributeProfile@Bluetooth@Devices@Windows@NodeRT@@@ObjectWrap@Nan@@SAPEAVGattLocalDescriptor@GenericAttributeProfile@Bluetooth@Devices@Windows@NodeRT@@V?$Local@VObject@v8@@@v8@@@Z 000000018001e1d0 f i _nodert_generated.obj
 0001:0001d280       ??$Unwrap@VGattLocalDescriptorParameters@GenericAttributeProfile@Bluetooth@Devices@Windows@NodeRT@@@ObjectWrap@Nan@@SAPEAVGattLocalDescriptorParameters@GenericAttributeProfile@Bluetooth@Devices@Windows@NodeRT@@V?$Local@VObject@v8@@@v8@@@Z 000000018001e280 f i _nodert_generated.obj
 0001:0001d330       ??$Unwrap@VGattLocalDescriptorResult@GenericAttributeProfile@Bluetooth@Devices@Windows@NodeRT@@@ObjectWrap@Nan@@SAPEAVGattLocalDescriptorResult@GenericAttributeProfile@Bluetooth@Devices@Windows@NodeRT@@V?$Local@VObject@v8@@@v8@@@Z 000000018001e330 f i _nodert_generated.obj
 0001:0001d3e0       ??$Unwrap@VGattLocalService@GenericAttributeProfile@Bluetooth@Devices@Windows@NodeRT@@@ObjectWrap@Nan@@SAPEAVGattLocalService@GenericAttributeProfile@Bluetooth@Devices@Windows@NodeRT@@V?$Local@VObject@v8@@@v8@@@Z 000000018001e3e0 f i _nodert_generated.obj
 0001:0001d490       ??$Unwrap@VGattPresentationFormat@GenericAttributeProfile@Bluetooth@Devices@Windows@NodeRT@@@ObjectWrap@Nan@@SAPEAVGattPresentationFormat@GenericAttributeProfile@Bluetooth@Devices@Windows@NodeRT@@V?$Local@VObject@v8@@@v8@@@Z 000000018001e490 f i _nodert_generated.obj
 0001:0001d540       ??$Unwrap@VGattPresentationFormatTypes@GenericAttributeProfile@Bluetooth@Devices@Windows@NodeRT@@@ObjectWrap@Nan@@SAPEAVGattPresentationFormatTypes@GenericAttributeProfile@Bluetooth@Devices@Windows@NodeRT@@V?$Local@VObject@v8@@@v8@@@Z 000000018001e540 f i _nodert_generated.obj
 0001:0001d5f0       ??$Unwrap@VGattProtocolError@GenericAttributeProfile@Bluetooth@Devices@Windows@NodeRT@@@ObjectWrap@Nan@@SAPEAVGattProtocolError@GenericAttributeProfile@Bluetooth@Devices@Windows@NodeRT@@V?$Local@VObject@v8@@@v8@@@Z 000000018001e5f0 f i _nodert_generated.obj
 0001:0001d6a0       ??$Unwrap@VGattReadClientCharacteristicConfigurationDescriptorResult@GenericAttributeProfile@Bluetooth@Devices@Windows@NodeRT@@@ObjectWrap@Nan@@SAPEAVGattReadClientCharacteristicConfigurationDescriptorResult@GenericAttributeProfile@Bluetooth@Devices@Windows@NodeRT@@V?$Local@VObject@v8@@@v8@@@Z 000000018001e6a0 f i _nodert_generated.obj
 0001:0001d750       ??$Unwrap@VGattReadRequest@GenericAttributeProfile@Bluetooth@Devices@Windows@NodeRT@@@ObjectWrap@Nan@@SAPEAVGattReadRequest@GenericAttributeProfile@Bluetooth@Devices@Windows@NodeRT@@V?$Local@VObject@v8@@@v8@@@Z 000000018001e750 f i _nodert_generated.obj
 0001:0001d800       ??$Unwrap@VGattReadRequestedEventArgs@GenericAttributeProfile@Bluetooth@Devices@Windows@NodeRT@@@ObjectWrap@Nan@@SAPEAVGattReadRequestedEventArgs@GenericAttributeProfile@Bluetooth@Devices@Windows@NodeRT@@V?$Local@VObject@v8@@@v8@@@Z 000000018001e800 f i _nodert_generated.obj
 0001:0001d8b0       ??$Unwrap@VGattReadResult@GenericAttributeProfile@Bluetooth@Devices@Windows@NodeRT@@@ObjectWrap@Nan@@SAPEAVGattReadResult@GenericAttributeProfile@Bluetooth@Devices@Windows@NodeRT@@V?$Local@VObject@v8@@@v8@@@Z 000000018001e8b0 f i _nodert_generated.obj
 0001:0001d960       ??$Unwrap@VGattReliableWriteTransaction@GenericAttributeProfile@Bluetooth@Devices@Windows@NodeRT@@@ObjectWrap@Nan@@SAPEAVGattReliableWriteTransaction@GenericAttributeProfile@Bluetooth@Devices@Windows@NodeRT@@V?$Local@VObject@v8@@@v8@@@Z 000000018001e960 f i _nodert_generated.obj
 0001:0001da10       ??$Unwrap@VGattRequestStateChangedEventArgs@GenericAttributeProfile@Bluetooth@Devices@Windows@NodeRT@@@ObjectWrap@Nan@@SAPEAVGattRequestStateChangedEventArgs@GenericAttributeProfile@Bluetooth@Devices@Windows@NodeRT@@V?$Local@VObject@v8@@@v8@@@Z 000000018001ea10 f i _nodert_generated.obj
 0001:0001dac0       ??$Unwrap@VGattServiceProvider@GenericAttributeProfile@Bluetooth@Devices@Windows@NodeRT@@@ObjectWrap@Nan@@SAPEAVGattServiceProvider@GenericAttributeProfile@Bluetooth@Devices@Windows@NodeRT@@V?$Local@VObject@v8@@@v8@@@Z 000000018001eac0 f i _nodert_generated.obj
 0001:0001db70       ??$Unwrap@VGattServiceProviderAdvertisementStatusChangedEventArgs@GenericAttributeProfile@Bluetooth@Devices@Windows@NodeRT@@@ObjectWrap@Nan@@SAPEAVGattServiceProviderAdvertisementStatusChangedEventArgs@GenericAttributeProfile@Bluetooth@Devices@Windows@NodeRT@@V?$Local@VObject@v8@@@v8@@@Z 000000018001eb70 f i _nodert_generated.obj
 0001:0001dc20       ??$Unwrap@VGattServiceProviderAdvertisingParameters@GenericAttributeProfile@Bluetooth@Devices@Windows@NodeRT@@@ObjectWrap@Nan@@SAPEAVGattServiceProviderAdvertisingParameters@GenericAttributeProfile@Bluetooth@Devices@Windows@NodeRT@@V?$Local@VObject@v8@@@v8@@@Z 000000018001ec20 f i _nodert_generated.obj
 0001:0001dcd0       ??$Unwrap@VGattServiceProviderResult@GenericAttributeProfile@Bluetooth@Devices@Windows@NodeRT@@@ObjectWrap@Nan@@SAPEAVGattServiceProviderResult@GenericAttributeProfile@Bluetooth@Devices@Windows@NodeRT@@V?$Local@VObject@v8@@@v8@@@Z 000000018001ecd0 f i _nodert_generated.obj
 0001:0001dd80       ??$Unwrap@VGattServiceUuids@GenericAttributeProfile@Bluetooth@Devices@Windows@NodeRT@@@ObjectWrap@Nan@@SAPEAVGattServiceUuids@GenericAttributeProfile@Bluetooth@Devices@Windows@NodeRT@@V?$Local@VObject@v8@@@v8@@@Z 000000018001ed80 f i _nodert_generated.obj
 0001:0001de30       ??$Unwrap@VGattSession@GenericAttributeProfile@Bluetooth@Devices@Windows@NodeRT@@@ObjectWrap@Nan@@SAPEAVGattSession@GenericAttributeProfile@Bluetooth@Devices@Windows@NodeRT@@V?$Local@VObject@v8@@@v8@@@Z 000000018001ee30 f i _nodert_generated.obj
 0001:0001dee0       ??$Unwrap@VGattSessionStatusChangedEventArgs@GenericAttributeProfile@Bluetooth@Devices@Windows@NodeRT@@@ObjectWrap@Nan@@SAPEAVGattSessionStatusChangedEventArgs@GenericAttributeProfile@Bluetooth@Devices@Windows@NodeRT@@V?$Local@VObject@v8@@@v8@@@Z 000000018001eee0 f i _nodert_generated.obj
 0001:0001df90       ??$Unwrap@VGattSubscribedClient@GenericAttributeProfile@Bluetooth@Devices@Windows@NodeRT@@@ObjectWrap@Nan@@SAPEAVGattSubscribedClient@GenericAttributeProfile@Bluetooth@Devices@Windows@NodeRT@@V?$Local@VObject@v8@@@v8@@@Z 000000018001ef90 f i _nodert_generated.obj
 0001:0001e040       ??$Unwrap@VGattValueChangedEventArgs@GenericAttributeProfile@Bluetooth@Devices@Windows@NodeRT@@@ObjectWrap@Nan@@SAPEAVGattValueChangedEventArgs@GenericAttributeProfile@Bluetooth@Devices@Windows@NodeRT@@V?$Local@VObject@v8@@@v8@@@Z 000000018001f040 f i _nodert_generated.obj
 0001:0001e0f0       ??$Unwrap@VGattWriteRequest@GenericAttributeProfile@Bluetooth@Devices@Windows@NodeRT@@@ObjectWrap@Nan@@SAPEAVGattWriteRequest@GenericAttributeProfile@Bluetooth@Devices@Windows@NodeRT@@V?$Local@VObject@v8@@@v8@@@Z 000000018001f0f0 f i _nodert_generated.obj
 0001:0001e1a0       ??$Unwrap@VGattWriteRequestedEventArgs@GenericAttributeProfile@Bluetooth@Devices@Windows@NodeRT@@@ObjectWrap@Nan@@SAPEAVGattWriteRequestedEventArgs@GenericAttributeProfile@Bluetooth@Devices@Windows@NodeRT@@V?$Local@VObject@v8@@@v8@@@Z 000000018001f1a0 f i _nodert_generated.obj
 0001:0001e250       ??$Unwrap@VGattWriteResult@GenericAttributeProfile@Bluetooth@Devices@Windows@NodeRT@@@ObjectWrap@Nan@@SAPEAVGattWriteResult@GenericAttributeProfile@Bluetooth@Devices@Windows@NodeRT@@V?$Local@VObject@v8@@@v8@@@Z 000000018001f250 f i _nodert_generated.obj
 0001:0001e300       ??$Unwrap@VOpaqueWrapper@NodeRT@@@ObjectWrap@Nan@@SAPEAVOpaqueWrapper@NodeRT@@V?$Local@VObject@v8@@@v8@@@Z 000000018001f300 f i _nodert_generated.obj
 0001:0001e3b0       ??$Unwrap@VWrapperBase@NodeRT@@@ObjectWrap@Nan@@SAPEAVWrapperBase@NodeRT@@V?$Local@VObject@v8@@@v8@@@Z 000000018001f3b0 f i _nodert_generated.obj
 0001:0001e460       ??$_AsyncInit@PE$AAU?$IVectorView@PE$AAVGattClientNotificationResult@GenericAttributeProfile@Bluetooth@Devices@Windows@@@Collections@Foundation@Windows@@PE$AAU1234@@_Task_impl_base@details@Concurrency@@SAXAEBV?$shared_ptr@U?$_Task_impl@PE$AAU?$IVectorView@PE$AAVGattClientNotificationResult@GenericAttributeProfile@Bluetooth@Devices@Windows@@@Collections@Foundation@Windows@@@details@Concurrency@@@std@@PE$AAU?$IAsyncOperation@PE$AAU?$IVectorView@PE$AAVGattClientNotificationResult@GenericAttributeProfile@Bluetooth@Devices@Windows@@@Collections@Foundation@Windows@@@Foundation@Windows@@@Z 000000018001f460 f i _nodert_generated.obj
 0001:0001e550       ??$_AsyncInit@PE$AAVGattCharacteristicsResult@GenericAttributeProfile@Bluetooth@Devices@Windows@@PE$AAV12345@@_Task_impl_base@details@Concurrency@@SAXAEBV?$shared_ptr@U?$_Task_impl@PE$AAVGattCharacteristicsResult@GenericAttributeProfile@Bluetooth@Devices@Windows@@@details@Concurrency@@@std@@PE$AAU?$IAsyncOperation@PE$AAVGattCharacteristicsResult@GenericAttributeProfile@Bluetooth@Devices@Windows@@@Foundation@Windows@@@Z 000000018001f550 f i _nodert_generated.obj
 0001:0001e640       ??$_AsyncInit@PE$AAVGattClientNotificationResult@GenericAttributeProfile@Bluetooth@Devices@Windows@@PE$AAV12345@@_Task_impl_base@details@Concurrency@@SAXAEBV?$shared_ptr@U?$_Task_impl@PE$AAVGattClientNotificationResult@GenericAttributeProfile@Bluetooth@Devices@Windows@@@details@Concurrency@@@std@@PE$AAU?$IAsyncOperation@PE$AAVGattClientNotificationResult@GenericAttributeProfile@Bluetooth@Devices@Windows@@@Foundation@Windows@@@Z 000000018001f640 f i _nodert_generated.obj
 0001:0001e730       ??$_AsyncInit@PE$AAVGattDescriptorsResult@GenericAttributeProfile@Bluetooth@Devices@Windows@@PE$AAV12345@@_Task_impl_base@details@Concurrency@@SAXAEBV?$shared_ptr@U?$_Task_impl@PE$AAVGattDescriptorsResult@GenericAttributeProfile@Bluetooth@Devices@Windows@@@details@Concurrency@@@std@@PE$AAU?$IAsyncOperation@PE$AAVGattDescriptorsResult@GenericAttributeProfile@Bluetooth@Devices@Windows@@@Foundation@Windows@@@Z 000000018001f730 f i _nodert_generated.obj
 0001:0001e820       ??$_AsyncInit@PE$AAVGattDeviceService@GenericAttributeProfile@Bluetooth@Devices@Windows@@PE$AAV12345@@_Task_impl_base@details@Concurrency@@SAXAEBV?$shared_ptr@U?$_Task_impl@PE$AAVGattDeviceService@GenericAttributeProfile@Bluetooth@Devices@Windows@@@details@Concurrency@@@std@@PE$AAU?$IAsyncOperation@PE$AAVGattDeviceService@GenericAttributeProfile@Bluetooth@Devices@Windows@@@Foundation@Windows@@@Z 000000018001f820 f i _nodert_generated.obj
 0001:0001e910       ??$_AsyncInit@PE$AAVGattDeviceServicesResult@GenericAttributeProfile@Bluetooth@Devices@Windows@@PE$AAV12345@@_Task_impl_base@details@Concurrency@@SAXAEBV?$shared_ptr@U?$_Task_impl@PE$AAVGattDeviceServicesResult@GenericAttributeProfile@Bluetooth@Devices@Windows@@@details@Concurrency@@@std@@PE$AAU?$IAsyncOperation@PE$AAVGattDeviceServicesResult@GenericAttributeProfile@Bluetooth@Devices@Windows@@@Foundation@Windows@@@Z 000000018001f910 f i _nodert_generated.obj
 0001:0001ea00       ??$_AsyncInit@PE$AAVGattLocalCharacteristicResult@GenericAttributeProfile@Bluetooth@Devices@Windows@@PE$AAV12345@@_Task_impl_base@details@Concurrency@@SAXAEBV?$shared_ptr@U?$_Task_impl@PE$AAVGattLocalCharacteristicResult@GenericAttributeProfile@Bluetooth@Devices@Windows@@@details@Concurrency@@@std@@PE$AAU?$IAsyncOperation@PE$AAVGattLocalCharacteristicResult@GenericAttributeProfile@Bluetooth@Devices@Windows@@@Foundation@Windows@@@Z 000000018001fa00 f i _nodert_generated.obj
 0001:0001eaf0       ??$_AsyncInit@PE$AAVGattLocalDescriptorResult@GenericAttributeProfile@Bluetooth@Devices@Windows@@PE$AAV12345@@_Task_impl_base@details@Concurrency@@SAXAEBV?$shared_ptr@U?$_Task_impl@PE$AAVGattLocalDescriptorResult@GenericAttributeProfile@Bluetooth@Devices@Windows@@@details@Concurrency@@@std@@PE$AAU?$IAsyncOperation@PE$AAVGattLocalDescriptorResult@GenericAttributeProfile@Bluetooth@Devices@Windows@@@Foundation@Windows@@@Z 000000018001faf0 f i _nodert_generated.obj
 0001:0001ebe0       ??$_AsyncInit@PE$AAVGattReadClientCharacteristicConfigurationDescriptorResult@GenericAttributeProfile@Bluetooth@Devices@Windows@@PE$AAV12345@@_Task_impl_base@details@Concurrency@@SAXAEBV?$shared_ptr@U?$_Task_impl@PE$AAVGattReadClientCharacteristicConfigurationDescriptorResult@GenericAttributeProfile@Bluetooth@Devices@Windows@@@details@Concurrency@@@std@@PE$AAU?$IAsyncOperation@PE$AAVGattReadClientCharacteristicConfigurationDescriptorResult@GenericAttributeProfile@Bluetooth@Devices@Windows@@@Foundation@Windows@@@Z 000000018001fbe0 f i _nodert_generated.obj
 0001:0001ecd0       ??$_AsyncInit@PE$AAVGattReadRequest@GenericAttributeProfile@Bluetooth@Devices@Windows@@PE$AAV12345@@_Task_impl_base@details@Concurrency@@SAXAEBV?$shared_ptr@U?$_Task_impl@PE$AAVGattReadRequest@GenericAttributeProfile@Bluetooth@Devices@Windows@@@details@Concurrency@@@std@@PE$AAU?$IAsyncOperation@PE$AAVGattReadRequest@GenericAttributeProfile@Bluetooth@Devices@Windows@@@Foundation@Windows@@@Z 000000018001fcd0 f i _nodert_generated.obj
 0001:0001edc0       ??$_AsyncInit@PE$AAVGattReadResult@GenericAttributeProfile@Bluetooth@Devices@Windows@@PE$AAV12345@@_Task_impl_base@details@Concurrency@@SAXAEBV?$shared_ptr@U?$_Task_impl@PE$AAVGattReadResult@GenericAttributeProfile@Bluetooth@Devices@Windows@@@details@Concurrency@@@std@@PE$AAU?$IAsyncOperation@PE$AAVGattReadResult@GenericAttributeProfile@Bluetooth@Devices@Windows@@@Foundation@Windows@@@Z 000000018001fdc0 f i _nodert_generated.obj
 0001:0001eeb0       ??$_AsyncInit@PE$AAVGattServiceProviderResult@GenericAttributeProfile@Bluetooth@Devices@Windows@@PE$AAV12345@@_Task_impl_base@details@Concurrency@@SAXAEBV?$shared_ptr@U?$_Task_impl@PE$AAVGattServiceProviderResult@GenericAttributeProfile@Bluetooth@Devices@Windows@@@details@Concurrency@@@std@@PE$AAU?$IAsyncOperation@PE$AAVGattServiceProviderResult@GenericAttributeProfile@Bluetooth@Devices@Windows@@@Foundation@Windows@@@Z 000000018001feb0 f i _nodert_generated.obj
 0001:0001efa0       ??$_AsyncInit@PE$AAVGattSession@GenericAttributeProfile@Bluetooth@Devices@Windows@@PE$AAV12345@@_Task_impl_base@details@Concurrency@@SAXAEBV?$shared_ptr@U?$_Task_impl@PE$AAVGattSession@GenericAttributeProfile@Bluetooth@Devices@Windows@@@details@Concurrency@@@std@@PE$AAU?$IAsyncOperation@PE$AAVGattSession@GenericAttributeProfile@Bluetooth@Devices@Windows@@@Foundation@Windows@@@Z 000000018001ffa0 f i _nodert_generated.obj
 0001:0001f090       ??$_AsyncInit@PE$AAVGattWriteRequest@GenericAttributeProfile@Bluetooth@Devices@Windows@@PE$AAV12345@@_Task_impl_base@details@Concurrency@@SAXAEBV?$shared_ptr@U?$_Task_impl@PE$AAVGattWriteRequest@GenericAttributeProfile@Bluetooth@Devices@Windows@@@details@Concurrency@@@std@@PE$AAU?$IAsyncOperation@PE$AAVGattWriteRequest@GenericAttributeProfile@Bluetooth@Devices@Windows@@@Foundation@Windows@@@Z 0000000180020090 f i _nodert_generated.obj
 0001:0001f180       ??$_AsyncInit@PE$AAVGattWriteResult@GenericAttributeProfile@Bluetooth@Devices@Windows@@PE$AAV12345@@_Task_impl_base@details@Concurrency@@SAXAEBV?$shared_ptr@U?$_Task_impl@PE$AAVGattWriteResult@GenericAttributeProfile@Bluetooth@Devices@Windows@@@details@Concurrency@@@std@@PE$AAU?$IAsyncOperation@PE$AAVGattWriteResult@GenericAttributeProfile@Bluetooth@Devices@Windows@@@Foundation@Windows@@@Z 0000000180020180 f i _nodert_generated.obj
 0001:0001f270       ??$_AsyncInit@W4DeviceAccessStatus@Enumeration@Devices@Windows@@W41234@@_Task_impl_base@details@Concurrency@@SAXAEBV?$shared_ptr@U?$_Task_impl@W4DeviceAccessStatus@Enumeration@Devices@Windows@@@details@Concurrency@@@std@@PE$AAU?$IAsyncOperation@W4DeviceAccessStatus@Enumeration@Devices@Windows@@@Foundation@Windows@@@Z 0000000180020270 f i _nodert_generated.obj
 0001:0001f360       ??$_AsyncInit@W4GattCommunicationStatus@GenericAttributeProfile@Bluetooth@Devices@Windows@@W412345@@_Task_impl_base@details@Concurrency@@SAXAEBV?$shared_ptr@U?$_Task_impl@W4GattCommunicationStatus@GenericAttributeProfile@Bluetooth@Devices@Windows@@@details@Concurrency@@@std@@PE$AAU?$IAsyncOperation@W4GattCommunicationStatus@GenericAttributeProfile@Bluetooth@Devices@Windows@@@Foundation@Windows@@@Z 0000000180020360 f i _nodert_generated.obj
 0001:0001f450       ??$_AsyncInit@W4GattOpenStatus@GenericAttributeProfile@Bluetooth@Devices@Windows@@W412345@@_Task_impl_base@details@Concurrency@@SAXAEBV?$shared_ptr@U?$_Task_impl@W4GattOpenStatus@GenericAttributeProfile@Bluetooth@Devices@Windows@@@details@Concurrency@@@std@@PE$AAU?$IAsyncOperation@W4GattOpenStatus@GenericAttributeProfile@Bluetooth@Devices@Windows@@@Foundation@Windows@@@Z 0000000180020450 f i _nodert_generated.obj
 0001:0001f540       ??$_Clone@X@?$_Func_impl@V<lambda_0a219aefac679d5ee9e5641ee34ab935>@@V?$allocator@H@std@@EV?$task@PE$AAVGattDescriptorsResult@GenericAttributeProfile@Bluetooth@Devices@Windows@@@Concurrency@@@std@@AEBAPEAV?$_Func_base@EV?$task@PE$AAVGattDescriptorsResult@GenericAttributeProfile@Bluetooth@Devices@Windows@@@Concurrency@@@1@PEAXU?$integral_constant@_N$00@1@@Z 0000000180020540 f i _nodert_generated.obj
 0001:0001f5f0       ??$_Clone@X@?$_Func_impl@V<lambda_298ecc41997b120282db507274d53e9f>@@V?$allocator@H@std@@EV?$task@PE$AAVGattLocalDescriptorResult@GenericAttributeProfile@Bluetooth@Devices@Windows@@@Concurrency@@@std@@AEBAPEAV?$_Func_base@EV?$task@PE$AAVGattLocalDescriptorResult@GenericAttributeProfile@Bluetooth@Devices@Windows@@@Concurrency@@@1@PEAXU?$integral_constant@_N$00@1@@Z 00000001800205f0 f i _nodert_generated.obj
 0001:0001f6a0       ??$_Clone@X@?$_Func_impl@V<lambda_3745ed324656a217e493fae94ff0717c>@@V?$allocator@H@std@@EV?$task@PE$AAVGattReadClientCharacteristicConfigurationDescriptorResult@GenericAttributeProfile@Bluetooth@Devices@Windows@@@Concurrency@@@std@@AEBAPEAV?$_Func_base@EV?$task@PE$AAVGattReadClientCharacteristicConfigurationDescriptorResult@GenericAttributeProfile@Bluetooth@Devices@Windows@@@Concurrency@@@1@PEAXU?$integral_constant@_N$00@1@@Z 00000001800206a0 f i _nodert_generated.obj
 0001:0001f750       ??$_Clone@X@?$_Func_impl@V<lambda_4470a50fb9094040307e81bef5d8b6dd>@@V?$allocator@H@std@@EV?$task@PE$AAVGattSession@GenericAttributeProfile@Bluetooth@Devices@Windows@@@Concurrency@@@std@@AEBAPEAV?$_Func_base@EV?$task@PE$AAVGattSession@GenericAttributeProfile@Bluetooth@Devices@Windows@@@Concurrency@@@1@PEAXU?$integral_constant@_N$00@1@@Z 0000000180020750 f i _nodert_generated.obj
 0001:0001f800       ??$_Clone@X@?$_Func_impl@V<lambda_46e9c447bcf01ec2a912262b8b3c3596>@@V?$allocator@H@std@@EV?$task@PE$AAVGattLocalCharacteristicResult@GenericAttributeProfile@Bluetooth@Devices@Windows@@@Concurrency@@@std@@AEBAPEAV?$_Func_base@EV?$task@PE$AAVGattLocalCharacteristicResult@GenericAttributeProfile@Bluetooth@Devices@Windows@@@Concurrency@@@1@PEAXU?$integral_constant@_N$00@1@@Z 0000000180020800 f i _nodert_generated.obj
 0001:0001f8b0       ??$_Clone@X@?$_Func_impl@V<lambda_5d33e422234ff2220059131078a7ef6d>@@V?$allocator@H@std@@EV?$task@PE$AAVGattDeviceService@GenericAttributeProfile@Bluetooth@Devices@Windows@@@Concurrency@@@std@@AEBAPEAV?$_Func_base@EV?$task@PE$AAVGattDeviceService@GenericAttributeProfile@Bluetooth@Devices@Windows@@@Concurrency@@@1@PEAXU?$integral_constant@_N$00@1@@Z 00000001800208b0 f i _nodert_generated.obj
 0001:0001f960       ??$_Clone@X@?$_Func_impl@V<lambda_950913f23e490c7cab174c6b689aec15>@@V?$allocator@H@std@@EV?$task@PE$AAVGattReadResult@GenericAttributeProfile@Bluetooth@Devices@Windows@@@Concurrency@@@std@@AEBAPEAV?$_Func_base@EV?$task@PE$AAVGattReadResult@GenericAttributeProfile@Bluetooth@Devices@Windows@@@Concurrency@@@1@PEAXU?$integral_constant@_N$00@1@@Z 0000000180020960 f i _nodert_generated.obj
 0001:0001fa10       ??$_Clone@X@?$_Func_impl@V<lambda_98262bf25e65d71bf22b48a23b8b0e49>@@V?$allocator@H@std@@EV?$task@PE$AAVGattDeviceServicesResult@GenericAttributeProfile@Bluetooth@Devices@Windows@@@Concurrency@@@std@@AEBAPEAV?$_Func_base@EV?$task@PE$AAVGattDeviceServicesResult@GenericAttributeProfile@Bluetooth@Devices@Windows@@@Concurrency@@@1@PEAXU?$integral_constant@_N$00@1@@Z 0000000180020a10 f i _nodert_generated.obj
 0001:0001fac0       ??$_Clone@X@?$_Func_impl@V<lambda_a236920ffd4917f4e27b21ab9bf2c374>@@V?$allocator@H@std@@EV?$task@PE$AAU?$IVectorView@PE$AAVGattClientNotificationResult@GenericAttributeProfile@Bluetooth@Devices@Windows@@@Collections@Foundation@Windows@@@Concurrency@@@std@@AEBAPEAV?$_Func_base@EV?$task@PE$AAU?$IVectorView@PE$AAVGattClientNotificationResult@GenericAttributeProfile@Bluetooth@Devices@Windows@@@Collections@Foundation@Windows@@@Concurrency@@@1@PEAXU?$integral_constant@_N$00@1@@Z 0000000180020ac0 f i _nodert_generated.obj
 0001:0001fb70       ??$_Clone@X@?$_Func_impl@V<lambda_aecc587b935dc5f1326eab2ed52651b2>@@V?$allocator@H@std@@EV?$task@PE$AAVGattWriteResult@GenericAttributeProfile@Bluetooth@Devices@Windows@@@Concurrency@@@std@@AEBAPEAV?$_Func_base@EV?$task@PE$AAVGattWriteResult@GenericAttributeProfile@Bluetooth@Devices@Windows@@@Concurrency@@@1@PEAXU?$integral_constant@_N$00@1@@Z 0000000180020b70 f i _nodert_generated.obj
 0001:0001fc20       ??$_Clone@X@?$_Func_impl@V<lambda_bc28a53fe1d1c8b65ff6def53177b542>@@V?$allocator@H@std@@EV?$task@PE$AAVGattServiceProviderResult@GenericAttributeProfile@Bluetooth@Devices@Windows@@@Concurrency@@@std@@AEBAPEAV?$_Func_base@EV?$task@PE$AAVGattServiceProviderResult@GenericAttributeProfile@Bluetooth@Devices@Windows@@@Concurrency@@@1@PEAXU?$integral_constant@_N$00@1@@Z 0000000180020c20 f i _nodert_generated.obj
 0001:0001fcd0       ??$_Clone@X@?$_Func_impl@V<lambda_bc5908c1d373848cc3bc6cf3f93b4fd4>@@V?$allocator@H@std@@EV?$task@W4GattCommunicationStatus@GenericAttributeProfile@Bluetooth@Devices@Windows@@@Concurrency@@@std@@AEBAPEAV?$_Func_base@EV?$task@W4GattCommunicationStatus@GenericAttributeProfile@Bluetooth@Devices@Windows@@@Concurrency@@@1@PEAXU?$integral_constant@_N$00@1@@Z 0000000180020cd0 f i _nodert_generated.obj
 0001:0001fd80       ??$_Clone@X@?$_Func_impl@V<lambda_bf83f37666fb41ee58753541dd9c5b00>@@V?$allocator@H@std@@EV?$task@PE$AAVGattClientNotificationResult@GenericAttributeProfile@Bluetooth@Devices@Windows@@@Concurrency@@@std@@AEBAPEAV?$_Func_base@EV?$task@PE$AAVGattClientNotificationResult@GenericAttributeProfile@Bluetooth@Devices@Windows@@@Concurrency@@@1@PEAXU?$integral_constant@_N$00@1@@Z 0000000180020d80 f i _nodert_generated.obj
 0001:0001fe30       ??$_Clone@X@?$_Func_impl@V<lambda_c61864053f2eec66be7a3bf5d678ee1f>@@V?$allocator@H@std@@EV?$task@W4DeviceAccessStatus@Enumeration@Devices@Windows@@@Concurrency@@@std@@AEBAPEAV?$_Func_base@EV?$task@W4DeviceAccessStatus@Enumeration@Devices@Windows@@@Concurrency@@@1@PEAXU?$integral_constant@_N$00@1@@Z 0000000180020e30 f i _nodert_generated.obj
 0001:0001fee0       ??$_Clone@X@?$_Func_impl@V<lambda_db45f113dfaaf049e9ec5e093de51abe>@@V?$allocator@H@std@@EV?$task@PE$AAVGattReadRequest@GenericAttributeProfile@Bluetooth@Devices@Windows@@@Concurrency@@@std@@AEBAPEAV?$_Func_base@EV?$task@PE$AAVGattReadRequest@GenericAttributeProfile@Bluetooth@Devices@Windows@@@Concurrency@@@1@PEAXU?$integral_constant@_N$00@1@@Z 0000000180020ee0 f i _nodert_generated.obj
 0001:0001ff90       ??$_Clone@X@?$_Func_impl@V<lambda_e0e01628a8680f3734222846e25bd565>@@V?$allocator@H@std@@EV?$task@PE$AAVGattWriteRequest@GenericAttributeProfile@Bluetooth@Devices@Windows@@@Concurrency@@@std@@AEBAPEAV?$_Func_base@EV?$task@PE$AAVGattWriteRequest@GenericAttributeProfile@Bluetooth@Devices@Windows@@@Concurrency@@@1@PEAXU?$integral_constant@_N$00@1@@Z 0000000180020f90 f i _nodert_generated.obj
 0001:00020040       ??$_Clone@X@?$_Func_impl@V<lambda_e75b8405f099e196f2557aac0468b146>@@V?$allocator@H@std@@EV?$task@W4GattOpenStatus@GenericAttributeProfile@Bluetooth@Devices@Windows@@@Concurrency@@@std@@AEBAPEAV?$_Func_base@EV?$task@W4GattOpenStatus@GenericAttributeProfile@Bluetooth@Devices@Windows@@@Concurrency@@@1@PEAXU?$integral_constant@_N$00@1@@Z 0000000180021040 f i _nodert_generated.obj
 0001:000200f0       ??$_Clone@X@?$_Func_impl@V<lambda_f00a23c036f2395effc965f825c4f98c>@@V?$allocator@H@std@@EV?$task@PE$AAVGattCharacteristicsResult@GenericAttributeProfile@Bluetooth@Devices@Windows@@@Concurrency@@@std@@AEBAPEAV?$_Func_base@EV?$task@PE$AAVGattCharacteristicsResult@GenericAttributeProfile@Bluetooth@Devices@Windows@@@Concurrency@@@1@PEAXU?$integral_constant@_N$00@1@@Z 00000001800210f0 f i _nodert_generated.obj
 0001:000201a0       ??$_Copy_unchecked@PEAPEAXPEAPEAX@std@@YAPEAPEAXPEAPEAX00@Z 00000001800211a0 f i _nodert_generated.obj
 0001:000201e0       ??$_Invoke_ret@PE$AAVGattCharacteristic@GenericAttributeProfile@Bluetooth@Devices@Windows@@AEAV<lambda_390be801dca0ef1354ae1971b50cb822>@@V?$Local@VValue@v8@@@v8@@@std@@YAPE$AAVGattCharacteristic@GenericAttributeProfile@Bluetooth@Devices@Windows@@U?$_Forced@PE$AAVGattCharacteristic@GenericAttributeProfile@Bluetooth@Devices@Windows@@$0A@@0@AEAV<lambda_390be801dca0ef1354ae1971b50cb822>@@$$QEAV?$Local@VValue@v8@@@v8@@@Z 00000001800211e0 f i _nodert_generated.obj
 0001:00020280       ??$_Invoke_ret@PE$AAVGattCharacteristic@GenericAttributeProfile@Bluetooth@Devices@Windows@@AEAV<lambda_8d6920a3a94f0d27ce8520492edd8b46>@@V?$Local@VValue@v8@@@v8@@@std@@YAPE$AAVGattCharacteristic@GenericAttributeProfile@Bluetooth@Devices@Windows@@U?$_Forced@PE$AAVGattCharacteristic@GenericAttributeProfile@Bluetooth@Devices@Windows@@$0A@@0@AEAV<lambda_8d6920a3a94f0d27ce8520492edd8b46>@@$$QEAV?$Local@VValue@v8@@@v8@@@Z 0000000180021280 f i _nodert_generated.obj
 0001:00020320       ??$_Invoke_ret@PE$AAVGattCharacteristic@GenericAttributeProfile@Bluetooth@Devices@Windows@@AEAV<lambda_f5cf46c6b5cf9b56997b0e33ba72669a>@@V?$Local@VValue@v8@@@v8@@@std@@YAPE$AAVGattCharacteristic@GenericAttributeProfile@Bluetooth@Devices@Windows@@U?$_Forced@PE$AAVGattCharacteristic@GenericAttributeProfile@Bluetooth@Devices@Windows@@$0A@@0@AEAV<lambda_f5cf46c6b5cf9b56997b0e33ba72669a>@@$$QEAV?$Local@VValue@v8@@@v8@@@Z 0000000180021320 f i _nodert_generated.obj
 0001:000203c0       ??$_Invoke_ret@PE$AAVGattClientNotificationResult@GenericAttributeProfile@Bluetooth@Devices@Windows@@AEAV<lambda_6cf020a08dbb03eeeaaba08acb2651a3>@@V?$Local@VValue@v8@@@v8@@@std@@YAPE$AAVGattClientNotificationResult@GenericAttributeProfile@Bluetooth@Devices@Windows@@U?$_Forced@PE$AAVGattClientNotificationResult@GenericAttributeProfile@Bluetooth@Devices@Windows@@$0A@@0@AEAV<lambda_6cf020a08dbb03eeeaaba08acb2651a3>@@$$QEAV?$Local@VValue@v8@@@v8@@@Z 00000001800213c0 f i _nodert_generated.obj
 0001:00020460       ??$_Invoke_ret@PE$AAVGattDescriptor@GenericAttributeProfile@Bluetooth@Devices@Windows@@AEAV<lambda_9a8aaeceb9888ea29840581c99909cd3>@@V?$Local@VValue@v8@@@v8@@@std@@YAPE$AAVGattDescriptor@GenericAttributeProfile@Bluetooth@Devices@Windows@@U?$_Forced@PE$AAVGattDescriptor@GenericAttributeProfile@Bluetooth@Devices@Windows@@$0A@@0@AEAV<lambda_9a8aaeceb9888ea29840581c99909cd3>@@$$QEAV?$Local@VValue@v8@@@v8@@@Z 0000000180021460 f i _nodert_generated.obj
 0001:00020500       ??$_Invoke_ret@PE$AAVGattDescriptor@GenericAttributeProfile@Bluetooth@Devices@Windows@@AEAV<lambda_9e82935a6d62d11a85ad5b25bc40c891>@@V?$Local@VValue@v8@@@v8@@@std@@YAPE$AAVGattDescriptor@GenericAttributeProfile@Bluetooth@Devices@Windows@@U?$_Forced@PE$AAVGattDescriptor@GenericAttributeProfile@Bluetooth@Devices@Windows@@$0A@@0@AEAV<lambda_9e82935a6d62d11a85ad5b25bc40c891>@@$$QEAV?$Local@VValue@v8@@@v8@@@Z 0000000180021500 f i _nodert_generated.obj
 0001:000205a0       ??$_Invoke_ret@PE$AAVGattDescriptor@GenericAttributeProfile@Bluetooth@Devices@Windows@@AEAV<lambda_f03231940d95bd3ffdcfa82a4f992b87>@@V?$Local@VValue@v8@@@v8@@@std@@YAPE$AAVGattDescriptor@GenericAttributeProfile@Bluetooth@Devices@Windows@@U?$_Forced@PE$AAVGattDescriptor@GenericAttributeProfile@Bluetooth@Devices@Windows@@$0A@@0@AEAV<lambda_f03231940d95bd3ffdcfa82a4f992b87>@@$$QEAV?$Local@VValue@v8@@@v8@@@Z 00000001800215a0 f i _nodert_generated.obj
 0001:00020640       ??$_Invoke_ret@PE$AAVGattDeviceService@GenericAttributeProfile@Bluetooth@Devices@Windows@@AEAV<lambda_93868432406e6a3b1314cbf7aab046e9>@@V?$Local@VValue@v8@@@v8@@@std@@YAPE$AAVGattDeviceService@GenericAttributeProfile@Bluetooth@Devices@Windows@@U?$_Forced@PE$AAVGattDeviceService@GenericAttributeProfile@Bluetooth@Devices@Windows@@$0A@@0@AEAV<lambda_93868432406e6a3b1314cbf7aab046e9>@@$$QEAV?$Local@VValue@v8@@@v8@@@Z 0000000180021640 f i _nodert_generated.obj
 0001:000206e0       ??$_Invoke_ret@PE$AAVGattDeviceService@GenericAttributeProfile@Bluetooth@Devices@Windows@@AEAV<lambda_b2a825a1cd3110334a896dbaf43dcbbd>@@V?$Local@VValue@v8@@@v8@@@std@@YAPE$AAVGattDeviceService@GenericAttributeProfile@Bluetooth@Devices@Windows@@U?$_Forced@PE$AAVGattDeviceService@GenericAttributeProfile@Bluetooth@Devices@Windows@@$0A@@0@AEAV<lambda_b2a825a1cd3110334a896dbaf43dcbbd>@@$$QEAV?$Local@VValue@v8@@@v8@@@Z 00000001800216e0 f i _nodert_generated.obj
 0001:00020780       ??$_Invoke_ret@PE$AAVGattDeviceService@GenericAttributeProfile@Bluetooth@Devices@Windows@@AEAV<lambda_c20939762a033aff61abbfad295d92ed>@@V?$Local@VValue@v8@@@v8@@@std@@YAPE$AAVGattDeviceService@GenericAttributeProfile@Bluetooth@Devices@Windows@@U?$_Forced@PE$AAVGattDeviceService@GenericAttributeProfile@Bluetooth@Devices@Windows@@$0A@@0@AEAV<lambda_c20939762a033aff61abbfad295d92ed>@@$$QEAV?$Local@VValue@v8@@@v8@@@Z 0000000180021780 f i _nodert_generated.obj
 0001:00020820       ??$_Invoke_ret@PE$AAVGattDeviceService@GenericAttributeProfile@Bluetooth@Devices@Windows@@AEAV<lambda_c2539647998a2f7fb914e86da7e22383>@@V?$Local@VValue@v8@@@v8@@@std@@YAPE$AAVGattDeviceService@GenericAttributeProfile@Bluetooth@Devices@Windows@@U?$_Forced@PE$AAVGattDeviceService@GenericAttributeProfile@Bluetooth@Devices@Windows@@$0A@@0@AEAV<lambda_c2539647998a2f7fb914e86da7e22383>@@$$QEAV?$Local@VValue@v8@@@v8@@@Z 0000000180021820 f i _nodert_generated.obj
 0001:000208c0       ??$_Invoke_ret@PE$AAVGattLocalCharacteristic@GenericAttributeProfile@Bluetooth@Devices@Windows@@AEAV<lambda_74c07c931e37250550dce408edd5b646>@@V?$Local@VValue@v8@@@v8@@@std@@YAPE$AAVGattLocalCharacteristic@GenericAttributeProfile@Bluetooth@Devices@Windows@@U?$_Forced@PE$AAVGattLocalCharacteristic@GenericAttributeProfile@Bluetooth@Devices@Windows@@$0A@@0@AEAV<lambda_74c07c931e37250550dce408edd5b646>@@$$QEAV?$Local@VValue@v8@@@v8@@@Z 00000001800218c0 f i _nodert_generated.obj
 0001:00020960       ??$_Invoke_ret@PE$AAVGattLocalDescriptor@GenericAttributeProfile@Bluetooth@Devices@Windows@@AEAV<lambda_59dbda81bfb449675bc9fd9a7176b90f>@@V?$Local@VValue@v8@@@v8@@@std@@YAPE$AAVGattLocalDescriptor@GenericAttributeProfile@Bluetooth@Devices@Windows@@U?$_Forced@PE$AAVGattLocalDescriptor@GenericAttributeProfile@Bluetooth@Devices@Windows@@$0A@@0@AEAV<lambda_59dbda81bfb449675bc9fd9a7176b90f>@@$$QEAV?$Local@VValue@v8@@@v8@@@Z 0000000180021960 f i _nodert_generated.obj
 0001:00020a00       ??$_Invoke_ret@PE$AAVGattPresentationFormat@GenericAttributeProfile@Bluetooth@Devices@Windows@@AEAV<lambda_1182659f565670b0714c70e0048cc6bc>@@V?$Local@VValue@v8@@@v8@@@std@@YAPE$AAVGattPresentationFormat@GenericAttributeProfile@Bluetooth@Devices@Windows@@U?$_Forced@PE$AAVGattPresentationFormat@GenericAttributeProfile@Bluetooth@Devices@Windows@@$0A@@0@AEAV<lambda_1182659f565670b0714c70e0048cc6bc>@@$$QEAV?$Local@VValue@v8@@@v8@@@Z 0000000180021a00 f i _nodert_generated.obj
 0001:00020aa0       ??$_Invoke_ret@PE$AAVGattPresentationFormat@GenericAttributeProfile@Bluetooth@Devices@Windows@@AEAV<lambda_8b3c442fdd54de55206842946324571b>@@V?$Local@VValue@v8@@@v8@@@std@@YAPE$AAVGattPresentationFormat@GenericAttributeProfile@Bluetooth@Devices@Windows@@U?$_Forced@PE$AAVGattPresentationFormat@GenericAttributeProfile@Bluetooth@Devices@Windows@@$0A@@0@AEAV<lambda_8b3c442fdd54de55206842946324571b>@@$$QEAV?$Local@VValue@v8@@@v8@@@Z 0000000180021aa0 f i _nodert_generated.obj
 0001:00020b40       ??$_Invoke_ret@PE$AAVGattPresentationFormat@GenericAttributeProfile@Bluetooth@Devices@Windows@@AEAV<lambda_8c10858be29525703df1f0f88711f96e>@@V?$Local@VValue@v8@@@v8@@@std@@YAPE$AAVGattPresentationFormat@GenericAttributeProfile@Bluetooth@Devices@Windows@@U?$_Forced@PE$AAVGattPresentationFormat@GenericAttributeProfile@Bluetooth@Devices@Windows@@$0A@@0@AEAV<lambda_8c10858be29525703df1f0f88711f96e>@@$$QEAV?$Local@VValue@v8@@@v8@@@Z 0000000180021b40 f i _nodert_generated.obj
 0001:00020be0       ??$_Invoke_ret@PE$AAVGattSubscribedClient@GenericAttributeProfile@Bluetooth@Devices@Windows@@AEAV<lambda_f7bcf8751ae5a365d97e22f53e64fd1e>@@V?$Local@VValue@v8@@@v8@@@std@@YAPE$AAVGattSubscribedClient@GenericAttributeProfile@Bluetooth@Devices@Windows@@U?$_Forced@PE$AAVGattSubscribedClient@GenericAttributeProfile@Bluetooth@Devices@Windows@@$0A@@0@AEAV<lambda_f7bcf8751ae5a365d97e22f53e64fd1e>@@$$QEAV?$Local@VValue@v8@@@v8@@@Z 0000000180021be0 f i _nodert_generated.obj
 0001:00020c80       ??$_MakeTToUnitFunc@V?$task@PE$AAU?$IVectorView@PE$AAVGattClientNotificationResult@GenericAttributeProfile@Bluetooth@Devices@Windows@@@Collections@Foundation@Windows@@@Concurrency@@@details@Concurrency@@YA?AV?$function@$$A6AEV?$task@PE$AAU?$IVectorView@PE$AAVGattClientNotificationResult@GenericAttributeProfile@Bluetooth@Devices@Windows@@@Collections@Foundation@Windows@@@Concurrency@@@Z@std@@AEBV?$function@$$A6AXV?$task@PE$AAU?$IVectorView@PE$AAVGattClientNotificationResult@GenericAttributeProfile@Bluetooth@Devices@Windows@@@Collections@Foundation@Windows@@@Concurrency@@@Z@3@@Z 0000000180021c80 f i _nodert_generated.obj
 0001:00020d30       ??$_MakeTToUnitFunc@V?$task@PE$AAVGattCharacteristicsResult@GenericAttributeProfile@Bluetooth@Devices@Windows@@@Concurrency@@@details@Concurrency@@YA?AV?$function@$$A6AEV?$task@PE$AAVGattCharacteristicsResult@GenericAttributeProfile@Bluetooth@Devices@Windows@@@Concurrency@@@Z@std@@AEBV?$function@$$A6AXV?$task@PE$AAVGattCharacteristicsResult@GenericAttributeProfile@Bluetooth@Devices@Windows@@@Concurrency@@@Z@3@@Z 0000000180021d30 f i _nodert_generated.obj
 0001:00020de0       ??$_MakeTToUnitFunc@V?$task@PE$AAVGattClientNotificationResult@GenericAttributeProfile@Bluetooth@Devices@Windows@@@Concurrency@@@details@Concurrency@@YA?AV?$function@$$A6AEV?$task@PE$AAVGattClientNotificationResult@GenericAttributeProfile@Bluetooth@Devices@Windows@@@Concurrency@@@Z@std@@AEBV?$function@$$A6AXV?$task@PE$AAVGattClientNotificationResult@GenericAttributeProfile@Bluetooth@Devices@Windows@@@Concurrency@@@Z@3@@Z 0000000180021de0 f i _nodert_generated.obj
 0001:00020e90       ??$_MakeTToUnitFunc@V?$task@PE$AAVGattDescriptorsResult@GenericAttributeProfile@Bluetooth@Devices@Windows@@@Concurrency@@@details@Concurrency@@YA?AV?$function@$$A6AEV?$task@PE$AAVGattDescriptorsResult@GenericAttributeProfile@Bluetooth@Devices@Windows@@@Concurrency@@@Z@std@@AEBV?$function@$$A6AXV?$task@PE$AAVGattDescriptorsResult@GenericAttributeProfile@Bluetooth@Devices@Windows@@@Concurrency@@@Z@3@@Z 0000000180021e90 f i _nodert_generated.obj
 0001:00020f40       ??$_MakeTToUnitFunc@V?$task@PE$AAVGattDeviceService@GenericAttributeProfile@Bluetooth@Devices@Windows@@@Concurrency@@@details@Concurrency@@YA?AV?$function@$$A6AEV?$task@PE$AAVGattDeviceService@GenericAttributeProfile@Bluetooth@Devices@Windows@@@Concurrency@@@Z@std@@AEBV?$function@$$A6AXV?$task@PE$AAVGattDeviceService@GenericAttributeProfile@Bluetooth@Devices@Windows@@@Concurrency@@@Z@3@@Z 0000000180021f40 f i _nodert_generated.obj
 0001:00020ff0       ??$_MakeTToUnitFunc@V?$task@PE$AAVGattDeviceServicesResult@GenericAttributeProfile@Bluetooth@Devices@Windows@@@Concurrency@@@details@Concurrency@@YA?AV?$function@$$A6AEV?$task@PE$AAVGattDeviceServicesResult@GenericAttributeProfile@Bluetooth@Devices@Windows@@@Concurrency@@@Z@std@@AEBV?$function@$$A6AXV?$task@PE$AAVGattDeviceServicesResult@GenericAttributeProfile@Bluetooth@Devices@Windows@@@Concurrency@@@Z@3@@Z 0000000180021ff0 f i _nodert_generated.obj
 0001:000210a0       ??$_MakeTToUnitFunc@V?$task@PE$AAVGattLocalCharacteristicResult@GenericAttributeProfile@Bluetooth@Devices@Windows@@@Concurrency@@@details@Concurrency@@YA?AV?$function@$$A6AEV?$task@PE$AAVGattLocalCharacteristicResult@GenericAttributeProfile@Bluetooth@Devices@Windows@@@Concurrency@@@Z@std@@AEBV?$function@$$A6AXV?$task@PE$AAVGattLocalCharacteristicResult@GenericAttributeProfile@Bluetooth@Devices@Windows@@@Concurrency@@@Z@3@@Z 00000001800220a0 f i _nodert_generated.obj
 0001:00021150       ??$_MakeTToUnitFunc@V?$task@PE$AAVGattLocalDescriptorResult@GenericAttributeProfile@Bluetooth@Devices@Windows@@@Concurrency@@@details@Concurrency@@YA?AV?$function@$$A6AEV?$task@PE$AAVGattLocalDescriptorResult@GenericAttributeProfile@Bluetooth@Devices@Windows@@@Concurrency@@@Z@std@@AEBV?$function@$$A6AXV?$task@PE$AAVGattLocalDescriptorResult@GenericAttributeProfile@Bluetooth@Devices@Windows@@@Concurrency@@@Z@3@@Z 0000000180022150 f i _nodert_generated.obj
 0001:00021200       ??$_MakeTToUnitFunc@V?$task@PE$AAVGattReadClientCharacteristicConfigurationDescriptorResult@GenericAttributeProfile@Bluetooth@Devices@Windows@@@Concurrency@@@details@Concurrency@@YA?AV?$function@$$A6AEV?$task@PE$AAVGattReadClientCharacteristicConfigurationDescriptorResult@GenericAttributeProfile@Bluetooth@Devices@Windows@@@Concurrency@@@Z@std@@AEBV?$function@$$A6AXV?$task@PE$AAVGattReadClientCharacteristicConfigurationDescriptorResult@GenericAttributeProfile@Bluetooth@Devices@Windows@@@Concurrency@@@Z@3@@Z 0000000180022200 f i _nodert_generated.obj
 0001:000212b0       ??$_MakeTToUnitFunc@V?$task@PE$AAVGattReadRequest@GenericAttributeProfile@Bluetooth@Devices@Windows@@@Concurrency@@@details@Concurrency@@YA?AV?$function@$$A6AEV?$task@PE$AAVGattReadRequest@GenericAttributeProfile@Bluetooth@Devices@Windows@@@Concurrency@@@Z@std@@AEBV?$function@$$A6AXV?$task@PE$AAVGattReadRequest@GenericAttributeProfile@Bluetooth@Devices@Windows@@@Concurrency@@@Z@3@@Z 00000001800222b0 f i _nodert_generated.obj
 0001:00021360       ??$_MakeTToUnitFunc@V?$task@PE$AAVGattReadResult@GenericAttributeProfile@Bluetooth@Devices@Windows@@@Concurrency@@@details@Concurrency@@YA?AV?$function@$$A6AEV?$task@PE$AAVGattReadResult@GenericAttributeProfile@Bluetooth@Devices@Windows@@@Concurrency@@@Z@std@@AEBV?$function@$$A6AXV?$task@PE$AAVGattReadResult@GenericAttributeProfile@Bluetooth@Devices@Windows@@@Concurrency@@@Z@3@@Z 0000000180022360 f i _nodert_generated.obj
 0001:00021410       ??$_MakeTToUnitFunc@V?$task@PE$AAVGattServiceProviderResult@GenericAttributeProfile@Bluetooth@Devices@Windows@@@Concurrency@@@details@Concurrency@@YA?AV?$function@$$A6AEV?$task@PE$AAVGattServiceProviderResult@GenericAttributeProfile@Bluetooth@Devices@Windows@@@Concurrency@@@Z@std@@AEBV?$function@$$A6AXV?$task@PE$AAVGattServiceProviderResult@GenericAttributeProfile@Bluetooth@Devices@Windows@@@Concurrency@@@Z@3@@Z 0000000180022410 f i _nodert_generated.obj
 0001:000214c0       ??$_MakeTToUnitFunc@V?$task@PE$AAVGattSession@GenericAttributeProfile@Bluetooth@Devices@Windows@@@Concurrency@@@details@Concurrency@@YA?AV?$function@$$A6AEV?$task@PE$AAVGattSession@GenericAttributeProfile@Bluetooth@Devices@Windows@@@Concurrency@@@Z@std@@AEBV?$function@$$A6AXV?$task@PE$AAVGattSession@GenericAttributeProfile@Bluetooth@Devices@Windows@@@Concurrency@@@Z@3@@Z 00000001800224c0 f i _nodert_generated.obj
 0001:00021570       ??$_MakeTToUnitFunc@V?$task@PE$AAVGattWriteRequest@GenericAttributeProfile@Bluetooth@Devices@Windows@@@Concurrency@@@details@Concurrency@@YA?AV?$function@$$A6AEV?$task@PE$AAVGattWriteRequest@GenericAttributeProfile@Bluetooth@Devices@Windows@@@Concurrency@@@Z@std@@AEBV?$function@$$A6AXV?$task@PE$AAVGattWriteRequest@GenericAttributeProfile@Bluetooth@Devices@Windows@@@Concurrency@@@Z@3@@Z 0000000180022570 f i _nodert_generated.obj
 0001:00021620       ??$_MakeTToUnitFunc@V?$task@PE$AAVGattWriteResult@GenericAttributeProfile@Bluetooth@Devices@Windows@@@Concurrency@@@details@Concurrency@@YA?AV?$function@$$A6AEV?$task@PE$AAVGattWriteResult@GenericAttributeProfile@Bluetooth@Devices@Windows@@@Concurrency@@@Z@std@@AEBV?$function@$$A6AXV?$task@PE$AAVGattWriteResult@GenericAttributeProfile@Bluetooth@Devices@Windows@@@Concurrency@@@Z@3@@Z 0000000180022620 f i _nodert_generated.obj
 0001:000216d0       ??$_MakeTToUnitFunc@V?$task@W4DeviceAccessStatus@Enumeration@Devices@Windows@@@Concurrency@@@details@Concurrency@@YA?AV?$function@$$A6AEV?$task@W4DeviceAccessStatus@Enumeration@Devices@Windows@@@Concurrency@@@Z@std@@AEBV?$function@$$A6AXV?$task@W4DeviceAccessStatus@Enumeration@Devices@Windows@@@Concurrency@@@Z@3@@Z 00000001800226d0 f i _nodert_generated.obj
 0001:00021780       ??$_MakeTToUnitFunc@V?$task@W4GattCommunicationStatus@GenericAttributeProfile@Bluetooth@Devices@Windows@@@Concurrency@@@details@Concurrency@@YA?AV?$function@$$A6AEV?$task@W4GattCommunicationStatus@GenericAttributeProfile@Bluetooth@Devices@Windows@@@Concurrency@@@Z@std@@AEBV?$function@$$A6AXV?$task@W4GattCommunicationStatus@GenericAttributeProfile@Bluetooth@Devices@Windows@@@Concurrency@@@Z@3@@Z 0000000180022780 f i _nodert_generated.obj
 0001:00021830       ??$_MakeTToUnitFunc@V?$task@W4GattOpenStatus@GenericAttributeProfile@Bluetooth@Devices@Windows@@@Concurrency@@@details@Concurrency@@YA?AV?$function@$$A6AEV?$task@W4GattOpenStatus@GenericAttributeProfile@Bluetooth@Devices@Windows@@@Concurrency@@@Z@std@@AEBV?$function@$$A6AXV?$task@W4GattOpenStatus@GenericAttributeProfile@Bluetooth@Devices@Windows@@@Concurrency@@@Z@3@@Z 0000000180022830 f i _nodert_generated.obj
 0001:000218e0       ??$_Reset@V<lambda_0a219aefac679d5ee9e5641ee34ab935>@@@?$_Func_class@EV?$task@PE$AAVGattDescriptorsResult@GenericAttributeProfile@Bluetooth@Devices@Windows@@@Concurrency@@@std@@IEAAX$$QEAV<lambda_0a219aefac679d5ee9e5641ee34ab935>@@@Z 00000001800228e0 f i _nodert_generated.obj
 0001:00021990       ??$_Reset@V<lambda_298ecc41997b120282db507274d53e9f>@@@?$_Func_class@EV?$task@PE$AAVGattLocalDescriptorResult@GenericAttributeProfile@Bluetooth@Devices@Windows@@@Concurrency@@@std@@IEAAX$$QEAV<lambda_298ecc41997b120282db507274d53e9f>@@@Z 0000000180022990 f i _nodert_generated.obj
 0001:00021a40       ??$_Reset@V<lambda_3745ed324656a217e493fae94ff0717c>@@@?$_Func_class@EV?$task@PE$AAVGattReadClientCharacteristicConfigurationDescriptorResult@GenericAttributeProfile@Bluetooth@Devices@Windows@@@Concurrency@@@std@@IEAAX$$QEAV<lambda_3745ed324656a217e493fae94ff0717c>@@@Z 0000000180022a40 f i _nodert_generated.obj
 0001:00021af0       ??$_Reset@V<lambda_4470a50fb9094040307e81bef5d8b6dd>@@@?$_Func_class@EV?$task@PE$AAVGattSession@GenericAttributeProfile@Bluetooth@Devices@Windows@@@Concurrency@@@std@@IEAAX$$QEAV<lambda_4470a50fb9094040307e81bef5d8b6dd>@@@Z 0000000180022af0 f i _nodert_generated.obj
 0001:00021ba0       ??$_Reset@V<lambda_46e9c447bcf01ec2a912262b8b3c3596>@@@?$_Func_class@EV?$task@PE$AAVGattLocalCharacteristicResult@GenericAttributeProfile@Bluetooth@Devices@Windows@@@Concurrency@@@std@@IEAAX$$QEAV<lambda_46e9c447bcf01ec2a912262b8b3c3596>@@@Z 0000000180022ba0 f i _nodert_generated.obj
 0001:00021c50       ??$_Reset@V<lambda_5d33e422234ff2220059131078a7ef6d>@@@?$_Func_class@EV?$task@PE$AAVGattDeviceService@GenericAttributeProfile@Bluetooth@Devices@Windows@@@Concurrency@@@std@@IEAAX$$QEAV<lambda_5d33e422234ff2220059131078a7ef6d>@@@Z 0000000180022c50 f i _nodert_generated.obj
 0001:00021d00       ??$_Reset@V<lambda_950913f23e490c7cab174c6b689aec15>@@@?$_Func_class@EV?$task@PE$AAVGattReadResult@GenericAttributeProfile@Bluetooth@Devices@Windows@@@Concurrency@@@std@@IEAAX$$QEAV<lambda_950913f23e490c7cab174c6b689aec15>@@@Z 0000000180022d00 f i _nodert_generated.obj
 0001:00021db0       ??$_Reset@V<lambda_98262bf25e65d71bf22b48a23b8b0e49>@@@?$_Func_class@EV?$task@PE$AAVGattDeviceServicesResult@GenericAttributeProfile@Bluetooth@Devices@Windows@@@Concurrency@@@std@@IEAAX$$QEAV<lambda_98262bf25e65d71bf22b48a23b8b0e49>@@@Z 0000000180022db0 f i _nodert_generated.obj
 0001:00021e60       ??$_Reset@V<lambda_a236920ffd4917f4e27b21ab9bf2c374>@@@?$_Func_class@EV?$task@PE$AAU?$IVectorView@PE$AAVGattClientNotificationResult@GenericAttributeProfile@Bluetooth@Devices@Windows@@@Collections@Foundation@Windows@@@Concurrency@@@std@@IEAAX$$QEAV<lambda_a236920ffd4917f4e27b21ab9bf2c374>@@@Z 0000000180022e60 f i _nodert_generated.obj
 0001:00021f10       ??$_Reset@V<lambda_aecc587b935dc5f1326eab2ed52651b2>@@@?$_Func_class@EV?$task@PE$AAVGattWriteResult@GenericAttributeProfile@Bluetooth@Devices@Windows@@@Concurrency@@@std@@IEAAX$$QEAV<lambda_aecc587b935dc5f1326eab2ed52651b2>@@@Z 0000000180022f10 f i _nodert_generated.obj
 0001:00021fc0       ??$_Reset@V<lambda_bc28a53fe1d1c8b65ff6def53177b542>@@@?$_Func_class@EV?$task@PE$AAVGattServiceProviderResult@GenericAttributeProfile@Bluetooth@Devices@Windows@@@Concurrency@@@std@@IEAAX$$QEAV<lambda_bc28a53fe1d1c8b65ff6def53177b542>@@@Z 0000000180022fc0 f i _nodert_generated.obj
 0001:00022070       ??$_Reset@V<lambda_bc5908c1d373848cc3bc6cf3f93b4fd4>@@@?$_Func_class@EV?$task@W4GattCommunicationStatus@GenericAttributeProfile@Bluetooth@Devices@Windows@@@Concurrency@@@std@@IEAAX$$QEAV<lambda_bc5908c1d373848cc3bc6cf3f93b4fd4>@@@Z 0000000180023070 f i _nodert_generated.obj
 0001:00022120       ??$_Reset@V<lambda_bf83f37666fb41ee58753541dd9c5b00>@@@?$_Func_class@EV?$task@PE$AAVGattClientNotificationResult@GenericAttributeProfile@Bluetooth@Devices@Windows@@@Concurrency@@@std@@IEAAX$$QEAV<lambda_bf83f37666fb41ee58753541dd9c5b00>@@@Z 0000000180023120 f i _nodert_generated.obj
 0001:000221d0       ??$_Reset@V<lambda_c61864053f2eec66be7a3bf5d678ee1f>@@@?$_Func_class@EV?$task@W4DeviceAccessStatus@Enumeration@Devices@Windows@@@Concurrency@@@std@@IEAAX$$QEAV<lambda_c61864053f2eec66be7a3bf5d678ee1f>@@@Z 00000001800231d0 f i _nodert_generated.obj
 0001:00022280       ??$_Reset@V<lambda_db45f113dfaaf049e9ec5e093de51abe>@@@?$_Func_class@EV?$task@PE$AAVGattReadRequest@GenericAttributeProfile@Bluetooth@Devices@Windows@@@Concurrency@@@std@@IEAAX$$QEAV<lambda_db45f113dfaaf049e9ec5e093de51abe>@@@Z 0000000180023280 f i _nodert_generated.obj
 0001:00022330       ??$_Reset@V<lambda_e0e01628a8680f3734222846e25bd565>@@@?$_Func_class@EV?$task@PE$AAVGattWriteRequest@GenericAttributeProfile@Bluetooth@Devices@Windows@@@Concurrency@@@std@@IEAAX$$QEAV<lambda_e0e01628a8680f3734222846e25bd565>@@@Z 0000000180023330 f i _nodert_generated.obj
 0001:000223e0       ??$_Reset@V<lambda_e75b8405f099e196f2557aac0468b146>@@@?$_Func_class@EV?$task@W4GattOpenStatus@GenericAttributeProfile@Bluetooth@Devices@Windows@@@Concurrency@@@std@@IEAAX$$QEAV<lambda_e75b8405f099e196f2557aac0468b146>@@@Z 00000001800233e0 f i _nodert_generated.obj
 0001:00022490       ??$_Reset@V<lambda_f00a23c036f2395effc965f825c4f98c>@@@?$_Func_class@EV?$task@PE$AAVGattCharacteristicsResult@GenericAttributeProfile@Bluetooth@Devices@Windows@@@Concurrency@@@std@@IEAAX$$QEAV<lambda_f00a23c036f2395effc965f825c4f98c>@@@Z 0000000180023490 f i _nodert_generated.obj
 0001:00022540       ??$_ThenImpl@PE$AAU?$IVectorView@PE$AAVGattClientNotificationResult@GenericAttributeProfile@Bluetooth@Devices@Windows@@@Collections@Foundation@Windows@@V?$function@$$A6AXV?$task@PE$AAU?$IVectorView@PE$AAVGattClientNotificationResult@GenericAttributeProfile@Bluetooth@Devices@Windows@@@Collections@Foundation@Windows@@@Concurrency@@@Z@std@@@?$task@PE$AAU?$IVectorView@PE$AAVGattClientNotificationResult@GenericAttributeProfile@Bluetooth@Devices@Windows@@@Collections@Foundation@Windows@@@Concurrency@@AEBA?AV?$task@X@1@AEBV?$function@$$A6AXV?$task@PE$AAU?$IVectorView@PE$AAVGattClientNotificationResult@GenericAttributeProfile@Bluetooth@Devices@Windows@@@Collections@Foundation@Windows@@@Concurrency@@@Z@std@@AEAU_ThenImplOptions@details@1@@Z 0000000180023540 f i _nodert_generated.obj
 0001:000226b0       ??$_ThenImpl@PE$AAVGattCharacteristicsResult@GenericAttributeProfile@Bluetooth@Devices@Windows@@V?$function@$$A6AXV?$task@PE$AAVGattCharacteristicsResult@GenericAttributeProfile@Bluetooth@Devices@Windows@@@Concurrency@@@Z@std@@@?$task@PE$AAVGattCharacteristicsResult@GenericAttributeProfile@Bluetooth@Devices@Windows@@@Concurrency@@AEBA?AV?$task@X@1@AEBV?$function@$$A6AXV?$task@PE$AAVGattCharacteristicsResult@GenericAttributeProfile@Bluetooth@Devices@Windows@@@Concurrency@@@Z@std@@AEAU_ThenImplOptions@details@1@@Z 00000001800236b0 f i _nodert_generated.obj
 0001:00022820       ??$_ThenImpl@PE$AAVGattClientNotificationResult@GenericAttributeProfile@Bluetooth@Devices@Windows@@V?$function@$$A6AXV?$task@PE$AAVGattClientNotificationResult@GenericAttributeProfile@Bluetooth@Devices@Windows@@@Concurrency@@@Z@std@@@?$task@PE$AAVGattClientNotificationResult@GenericAttributeProfile@Bluetooth@Devices@Windows@@@Concurrency@@AEBA?AV?$task@X@1@AEBV?$function@$$A6AXV?$task@PE$AAVGattClientNotificationResult@GenericAttributeProfile@Bluetooth@Devices@Windows@@@Concurrency@@@Z@std@@AEAU_ThenImplOptions@details@1@@Z 0000000180023820 f i _nodert_generated.obj
 0001:00022990       ??$_ThenImpl@PE$AAVGattDescriptorsResult@GenericAttributeProfile@Bluetooth@Devices@Windows@@V?$function@$$A6AXV?$task@PE$AAVGattDescriptorsResult@GenericAttributeProfile@Bluetooth@Devices@Windows@@@Concurrency@@@Z@std@@@?$task@PE$AAVGattDescriptorsResult@GenericAttributeProfile@Bluetooth@Devices@Windows@@@Concurrency@@AEBA?AV?$task@X@1@AEBV?$function@$$A6AXV?$task@PE$AAVGattDescriptorsResult@GenericAttributeProfile@Bluetooth@Devices@Windows@@@Concurrency@@@Z@std@@AEAU_ThenImplOptions@details@1@@Z 0000000180023990 f i _nodert_generated.obj
 0001:00022b00       ??$_ThenImpl@PE$AAVGattDeviceService@GenericAttributeProfile@Bluetooth@Devices@Windows@@V?$function@$$A6AXV?$task@PE$AAVGattDeviceService@GenericAttributeProfile@Bluetooth@Devices@Windows@@@Concurrency@@@Z@std@@@?$task@PE$AAVGattDeviceService@GenericAttributeProfile@Bluetooth@Devices@Windows@@@Concurrency@@AEBA?AV?$task@X@1@AEBV?$function@$$A6AXV?$task@PE$AAVGattDeviceService@GenericAttributeProfile@Bluetooth@Devices@Windows@@@Concurrency@@@Z@std@@AEAU_ThenImplOptions@details@1@@Z 0000000180023b00 f i _nodert_generated.obj
 0001:00022c70       ??$_ThenImpl@PE$AAVGattDeviceServicesResult@GenericAttributeProfile@Bluetooth@Devices@Windows@@V?$function@$$A6AXV?$task@PE$AAVGattDeviceServicesResult@GenericAttributeProfile@Bluetooth@Devices@Windows@@@Concurrency@@@Z@std@@@?$task@PE$AAVGattDeviceServicesResult@GenericAttributeProfile@Bluetooth@Devices@Windows@@@Concurrency@@AEBA?AV?$task@X@1@AEBV?$function@$$A6AXV?$task@PE$AAVGattDeviceServicesResult@GenericAttributeProfile@Bluetooth@Devices@Windows@@@Concurrency@@@Z@std@@AEAU_ThenImplOptions@details@1@@Z 0000000180023c70 f i _nodert_generated.obj
 0001:00022de0       ??$_ThenImpl@PE$AAVGattLocalCharacteristicResult@GenericAttributeProfile@Bluetooth@Devices@Windows@@V?$function@$$A6AXV?$task@PE$AAVGattLocalCharacteristicResult@GenericAttributeProfile@Bluetooth@Devices@Windows@@@Concurrency@@@Z@std@@@?$task@PE$AAVGattLocalCharacteristicResult@GenericAttributeProfile@Bluetooth@Devices@Windows@@@Concurrency@@AEBA?AV?$task@X@1@AEBV?$function@$$A6AXV?$task@PE$AAVGattLocalCharacteristicResult@GenericAttributeProfile@Bluetooth@Devices@Windows@@@Concurrency@@@Z@std@@AEAU_ThenImplOptions@details@1@@Z 0000000180023de0 f i _nodert_generated.obj
 0001:00022f50       ??$_ThenImpl@PE$AAVGattLocalDescriptorResult@GenericAttributeProfile@Bluetooth@Devices@Windows@@V?$function@$$A6AXV?$task@PE$AAVGattLocalDescriptorResult@GenericAttributeProfile@Bluetooth@Devices@Windows@@@Concurrency@@@Z@std@@@?$task@PE$AAVGattLocalDescriptorResult@GenericAttributeProfile@Bluetooth@Devices@Windows@@@Concurrency@@AEBA?AV?$task@X@1@AEBV?$function@$$A6AXV?$task@PE$AAVGattLocalDescriptorResult@GenericAttributeProfile@Bluetooth@Devices@Windows@@@Concurrency@@@Z@std@@AEAU_ThenImplOptions@details@1@@Z 0000000180023f50 f i _nodert_generated.obj
 0001:000230c0       ??$_ThenImpl@PE$AAVGattReadClientCharacteristicConfigurationDescriptorResult@GenericAttributeProfile@Bluetooth@Devices@Windows@@V?$function@$$A6AXV?$task@PE$AAVGattReadClientCharacteristicConfigurationDescriptorResult@GenericAttributeProfile@Bluetooth@Devices@Windows@@@Concurrency@@@Z@std@@@?$task@PE$AAVGattReadClientCharacteristicConfigurationDescriptorResult@GenericAttributeProfile@Bluetooth@Devices@Windows@@@Concurrency@@AEBA?AV?$task@X@1@AEBV?$function@$$A6AXV?$task@PE$AAVGattReadClientCharacteristicConfigurationDescriptorResult@GenericAttributeProfile@Bluetooth@Devices@Windows@@@Concurrency@@@Z@std@@AEAU_ThenImplOptions@details@1@@Z 00000001800240c0 f i _nodert_generated.obj
 0001:00023230       ??$_ThenImpl@PE$AAVGattReadRequest@GenericAttributeProfile@Bluetooth@Devices@Windows@@V?$function@$$A6AXV?$task@PE$AAVGattReadRequest@GenericAttributeProfile@Bluetooth@Devices@Windows@@@Concurrency@@@Z@std@@@?$task@PE$AAVGattReadRequest@GenericAttributeProfile@Bluetooth@Devices@Windows@@@Concurrency@@AEBA?AV?$task@X@1@AEBV?$function@$$A6AXV?$task@PE$AAVGattReadRequest@GenericAttributeProfile@Bluetooth@Devices@Windows@@@Concurrency@@@Z@std@@AEAU_ThenImplOptions@details@1@@Z 0000000180024230 f i _nodert_generated.obj
 0001:000233a0       ??$_ThenImpl@PE$AAVGattReadResult@GenericAttributeProfile@Bluetooth@Devices@Windows@@V?$function@$$A6AXV?$task@PE$AAVGattReadResult@GenericAttributeProfile@Bluetooth@Devices@Windows@@@Concurrency@@@Z@std@@@?$task@PE$AAVGattReadResult@GenericAttributeProfile@Bluetooth@Devices@Windows@@@Concurrency@@AEBA?AV?$task@X@1@AEBV?$function@$$A6AXV?$task@PE$AAVGattReadResult@GenericAttributeProfile@Bluetooth@Devices@Windows@@@Concurrency@@@Z@std@@AEAU_ThenImplOptions@details@1@@Z 00000001800243a0 f i _nodert_generated.obj
 0001:00023510       ??$_ThenImpl@PE$AAVGattServiceProviderResult@GenericAttributeProfile@Bluetooth@Devices@Windows@@V?$function@$$A6AXV?$task@PE$AAVGattServiceProviderResult@GenericAttributeProfile@Bluetooth@Devices@Windows@@@Concurrency@@@Z@std@@@?$task@PE$AAVGattServiceProviderResult@GenericAttributeProfile@Bluetooth@Devices@Windows@@@Concurrency@@AEBA?AV?$task@X@1@AEBV?$function@$$A6AXV?$task@PE$AAVGattServiceProviderResult@GenericAttributeProfile@Bluetooth@Devices@Windows@@@Concurrency@@@Z@std@@AEAU_ThenImplOptions@details@1@@Z 0000000180024510 f i _nodert_generated.obj
 0001:00023680       ??$_ThenImpl@PE$AAVGattSession@GenericAttributeProfile@Bluetooth@Devices@Windows@@V?$function@$$A6AXV?$task@PE$AAVGattSession@GenericAttributeProfile@Bluetooth@Devices@Windows@@@Concurrency@@@Z@std@@@?$task@PE$AAVGattSession@GenericAttributeProfile@Bluetooth@Devices@Windows@@@Concurrency@@AEBA?AV?$task@X@1@AEBV?$function@$$A6AXV?$task@PE$AAVGattSession@GenericAttributeProfile@Bluetooth@Devices@Windows@@@Concurrency@@@Z@std@@AEAU_ThenImplOptions@details@1@@Z 0000000180024680 f i _nodert_generated.obj
 0001:000237f0       ??$_ThenImpl@PE$AAVGattWriteRequest@GenericAttributeProfile@Bluetooth@Devices@Windows@@V?$function@$$A6AXV?$task@PE$AAVGattWriteRequest@GenericAttributeProfile@Bluetooth@Devices@Windows@@@Concurrency@@@Z@std@@@?$task@PE$AAVGattWriteRequest@GenericAttributeProfile@Bluetooth@Devices@Windows@@@Concurrency@@AEBA?AV?$task@X@1@AEBV?$function@$$A6AXV?$task@PE$AAVGattWriteRequest@GenericAttributeProfile@Bluetooth@Devices@Windows@@@Concurrency@@@Z@std@@AEAU_ThenImplOptions@details@1@@Z 00000001800247f0 f i _nodert_generated.obj
 0001:00023960       ??$_ThenImpl@PE$AAVGattWriteResult@GenericAttributeProfile@Bluetooth@Devices@Windows@@V?$function@$$A6AXV?$task@PE$AAVGattWriteResult@GenericAttributeProfile@Bluetooth@Devices@Windows@@@Concurrency@@@Z@std@@@?$task@PE$AAVGattWriteResult@GenericAttributeProfile@Bluetooth@Devices@Windows@@@Concurrency@@AEBA?AV?$task@X@1@AEBV?$function@$$A6AXV?$task@PE$AAVGattWriteResult@GenericAttributeProfile@Bluetooth@Devices@Windows@@@Concurrency@@@Z@std@@AEAU_ThenImplOptions@details@1@@Z 0000000180024960 f i _nodert_generated.obj
 0001:00023ad0       ??$_ThenImpl@W4DeviceAccessStatus@Enumeration@Devices@Windows@@V?$function@$$A6AXV?$task@W4DeviceAccessStatus@Enumeration@Devices@Windows@@@Concurrency@@@Z@std@@@?$task@W4DeviceAccessStatus@Enumeration@Devices@Windows@@@Concurrency@@AEBA?AV?$task@X@1@AEBV?$function@$$A6AXV?$task@W4DeviceAccessStatus@Enumeration@Devices@Windows@@@Concurrency@@@Z@std@@AEAU_ThenImplOptions@details@1@@Z 0000000180024ad0 f i _nodert_generated.obj
 0001:00023c40       ??$_ThenImpl@W4GattCommunicationStatus@GenericAttributeProfile@Bluetooth@Devices@Windows@@V?$function@$$A6AXV?$task@W4GattCommunicationStatus@GenericAttributeProfile@Bluetooth@Devices@Windows@@@Concurrency@@@Z@std@@@?$task@W4GattCommunicationStatus@GenericAttributeProfile@Bluetooth@Devices@Windows@@@Concurrency@@AEBA?AV?$task@X@1@AEBV?$function@$$A6AXV?$task@W4GattCommunicationStatus@GenericAttributeProfile@Bluetooth@Devices@Windows@@@Concurrency@@@Z@std@@AEAU_ThenImplOptions@details@1@@Z 0000000180024c40 f i _nodert_generated.obj
 0001:00023db0       ??$_ThenImpl@W4GattOpenStatus@GenericAttributeProfile@Bluetooth@Devices@Windows@@V?$function@$$A6AXV?$task@W4GattOpenStatus@GenericAttributeProfile@Bluetooth@Devices@Windows@@@Concurrency@@@Z@std@@@?$task@W4GattOpenStatus@GenericAttributeProfile@Bluetooth@Devices@Windows@@@Concurrency@@AEBA?AV?$task@X@1@AEBV?$function@$$A6AXV?$task@W4GattOpenStatus@GenericAttributeProfile@Bluetooth@Devices@Windows@@@Concurrency@@@Z@std@@AEAU_ThenImplOptions@details@1@@Z 0000000180024db0 f i _nodert_generated.obj
 0001:00023f20       ??$_ValidateTaskConstructorArgs@PE$AAU?$IVectorView@PE$AAVGattClientNotificationResult@GenericAttributeProfile@Bluetooth@Devices@Windows@@@Collections@Foundation@Windows@@PE$AAU?$IAsyncOperation@PE$AAU?$IVectorView@PE$AAVGattClientNotificationResult@GenericAttributeProfile@Bluetooth@Devices@Windows@@@Collections@Foundation@Windows@@@34@@details@Concurrency@@YAXAEBQE$AAU?$IAsyncOperation@PE$AAU?$IVectorView@PE$AAVGattClientNotificationResult@GenericAttributeProfile@Bluetooth@Devices@Windows@@@Collections@Foundation@Windows@@@Foundation@Windows@@@Z 0000000180024f20 f i _nodert_generated.obj
 0001:00023f30       ??$_ValidateTaskConstructorArgs@PE$AAVGattCharacteristicsResult@GenericAttributeProfile@Bluetooth@Devices@Windows@@PE$AAU?$IAsyncOperation@PE$AAVGattCharacteristicsResult@GenericAttributeProfile@Bluetooth@Devices@Windows@@@Foundation@5@@details@Concurrency@@YAXAEBQE$AAU?$IAsyncOperation@PE$AAVGattCharacteristicsResult@GenericAttributeProfile@Bluetooth@Devices@Windows@@@Foundation@Windows@@@Z 0000000180024f30 f i _nodert_generated.obj
 0001:00023f40       ??$_ValidateTaskConstructorArgs@PE$AAVGattClientNotificationResult@GenericAttributeProfile@Bluetooth@Devices@Windows@@PE$AAU?$IAsyncOperation@PE$AAVGattClientNotificationResult@GenericAttributeProfile@Bluetooth@Devices@Windows@@@Foundation@5@@details@Concurrency@@YAXAEBQE$AAU?$IAsyncOperation@PE$AAVGattClientNotificationResult@GenericAttributeProfile@Bluetooth@Devices@Windows@@@Foundation@Windows@@@Z 0000000180024f40 f i _nodert_generated.obj
 0001:00023f50       ??$_ValidateTaskConstructorArgs@PE$AAVGattDescriptorsResult@GenericAttributeProfile@Bluetooth@Devices@Windows@@PE$AAU?$IAsyncOperation@PE$AAVGattDescriptorsResult@GenericAttributeProfile@Bluetooth@Devices@Windows@@@Foundation@5@@details@Concurrency@@YAXAEBQE$AAU?$IAsyncOperation@PE$AAVGattDescriptorsResult@GenericAttributeProfile@Bluetooth@Devices@Windows@@@Foundation@Windows@@@Z 0000000180024f50 f i _nodert_generated.obj
 0001:00023f60       ??$_ValidateTaskConstructorArgs@PE$AAVGattDeviceService@GenericAttributeProfile@Bluetooth@Devices@Windows@@PE$AAU?$IAsyncOperation@PE$AAVGattDeviceService@GenericAttributeProfile@Bluetooth@Devices@Windows@@@Foundation@5@@details@Concurrency@@YAXAEBQE$AAU?$IAsyncOperation@PE$AAVGattDeviceService@GenericAttributeProfile@Bluetooth@Devices@Windows@@@Foundation@Windows@@@Z 0000000180024f60 f i _nodert_generated.obj
 0001:00023f70       ??$_ValidateTaskConstructorArgs@PE$AAVGattDeviceServicesResult@GenericAttributeProfile@Bluetooth@Devices@Windows@@PE$AAU?$IAsyncOperation@PE$AAVGattDeviceServicesResult@GenericAttributeProfile@Bluetooth@Devices@Windows@@@Foundation@5@@details@Concurrency@@YAXAEBQE$AAU?$IAsyncOperation@PE$AAVGattDeviceServicesResult@GenericAttributeProfile@Bluetooth@Devices@Windows@@@Foundation@Windows@@@Z 0000000180024f70 f i _nodert_generated.obj
 0001:00023f80       ??$_ValidateTaskConstructorArgs@PE$AAVGattLocalCharacteristicResult@GenericAttributeProfile@Bluetooth@Devices@Windows@@PE$AAU?$IAsyncOperation@PE$AAVGattLocalCharacteristicResult@GenericAttributeProfile@Bluetooth@Devices@Windows@@@Foundation@5@@details@Concurrency@@YAXAEBQE$AAU?$IAsyncOperation@PE$AAVGattLocalCharacteristicResult@GenericAttributeProfile@Bluetooth@Devices@Windows@@@Foundation@Windows@@@Z 0000000180024f80 f i _nodert_generated.obj
 0001:00023f90       ??$_ValidateTaskConstructorArgs@PE$AAVGattLocalDescriptorResult@GenericAttributeProfile@Bluetooth@Devices@Windows@@PE$AAU?$IAsyncOperation@PE$AAVGattLocalDescriptorResult@GenericAttributeProfile@Bluetooth@Devices@Windows@@@Foundation@5@@details@Concurrency@@YAXAEBQE$AAU?$IAsyncOperation@PE$AAVGattLocalDescriptorResult@GenericAttributeProfile@Bluetooth@Devices@Windows@@@Foundation@Windows@@@Z 0000000180024f90 f i _nodert_generated.obj
 0001:00023fa0       ??$_ValidateTaskConstructorArgs@PE$AAVGattReadClientCharacteristicConfigurationDescriptorResult@GenericAttributeProfile@Bluetooth@Devices@Windows@@PE$AAU?$IAsyncOperation@PE$AAVGattReadClientCharacteristicConfigurationDescriptorResult@GenericAttributeProfile@Bluetooth@Devices@Windows@@@Foundation@5@@details@Concurrency@@YAXAEBQE$AAU?$IAsyncOperation@PE$AAVGattReadClientCharacteristicConfigurationDescriptorResult@GenericAttributeProfile@Bluetooth@Devices@Windows@@@Foundation@Windows@@@Z 0000000180024fa0 f i _nodert_generated.obj
 0001:00023fb0       ??$_ValidateTaskConstructorArgs@PE$AAVGattReadRequest@GenericAttributeProfile@Bluetooth@Devices@Windows@@PE$AAU?$IAsyncOperation@PE$AAVGattReadRequest@GenericAttributeProfile@Bluetooth@Devices@Windows@@@Foundation@5@@details@Concurrency@@YAXAEBQE$AAU?$IAsyncOperation@PE$AAVGattReadRequest@GenericAttributeProfile@Bluetooth@Devices@Windows@@@Foundation@Windows@@@Z 0000000180024fb0 f i _nodert_generated.obj
 0001:00023fc0       ??$_ValidateTaskConstructorArgs@PE$AAVGattReadResult@GenericAttributeProfile@Bluetooth@Devices@Windows@@PE$AAU?$IAsyncOperation@PE$AAVGattReadResult@GenericAttributeProfile@Bluetooth@Devices@Windows@@@Foundation@5@@details@Concurrency@@YAXAEBQE$AAU?$IAsyncOperation@PE$AAVGattReadResult@GenericAttributeProfile@Bluetooth@Devices@Windows@@@Foundation@Windows@@@Z 0000000180024fc0 f i _nodert_generated.obj
 0001:00023fd0       ??$_ValidateTaskConstructorArgs@PE$AAVGattServiceProviderResult@GenericAttributeProfile@Bluetooth@Devices@Windows@@PE$AAU?$IAsyncOperation@PE$AAVGattServiceProviderResult@GenericAttributeProfile@Bluetooth@Devices@Windows@@@Foundation@5@@details@Concurrency@@YAXAEBQE$AAU?$IAsyncOperation@PE$AAVGattServiceProviderResult@GenericAttributeProfile@Bluetooth@Devices@Windows@@@Foundation@Windows@@@Z 0000000180024fd0 f i _nodert_generated.obj
 0001:00023fe0       ??$_ValidateTaskConstructorArgs@PE$AAVGattSession@GenericAttributeProfile@Bluetooth@Devices@Windows@@PE$AAU?$IAsyncOperation@PE$AAVGattSession@GenericAttributeProfile@Bluetooth@Devices@Windows@@@Foundation@5@@details@Concurrency@@YAXAEBQE$AAU?$IAsyncOperation@PE$AAVGattSession@GenericAttributeProfile@Bluetooth@Devices@Windows@@@Foundation@Windows@@@Z 0000000180024fe0 f i _nodert_generated.obj
 0001:00023ff0       ??$_ValidateTaskConstructorArgs@PE$AAVGattWriteRequest@GenericAttributeProfile@Bluetooth@Devices@Windows@@PE$AAU?$IAsyncOperation@PE$AAVGattWriteRequest@GenericAttributeProfile@Bluetooth@Devices@Windows@@@Foundation@5@@details@Concurrency@@YAXAEBQE$AAU?$IAsyncOperation@PE$AAVGattWriteRequest@GenericAttributeProfile@Bluetooth@Devices@Windows@@@Foundation@Windows@@@Z 0000000180024ff0 f i _nodert_generated.obj
 0001:00024000       ??$_ValidateTaskConstructorArgs@PE$AAVGattWriteResult@GenericAttributeProfile@Bluetooth@Devices@Windows@@PE$AAU?$IAsyncOperation@PE$AAVGattWriteResult@GenericAttributeProfile@Bluetooth@Devices@Windows@@@Foundation@5@@details@Concurrency@@YAXAEBQE$AAU?$IAsyncOperation@PE$AAVGattWriteResult@GenericAttributeProfile@Bluetooth@Devices@Windows@@@Foundation@Windows@@@Z 0000000180025000 f i _nodert_generated.obj
 0001:00024010       ??$_ValidateTaskConstructorArgs@W4DeviceAccessStatus@Enumeration@Devices@Windows@@PE$AAU?$IAsyncOperation@W4DeviceAccessStatus@Enumeration@Devices@Windows@@@Foundation@4@@details@Concurrency@@YAXAEBQE$AAU?$IAsyncOperation@W4DeviceAccessStatus@Enumeration@Devices@Windows@@@Foundation@Windows@@@Z 0000000180025010 f i _nodert_generated.obj
 0001:00024020       ??$_ValidateTaskConstructorArgs@W4GattCommunicationStatus@GenericAttributeProfile@Bluetooth@Devices@Windows@@PE$AAU?$IAsyncOperation@W4GattCommunicationStatus@GenericAttributeProfile@Bluetooth@Devices@Windows@@@Foundation@5@@details@Concurrency@@YAXAEBQE$AAU?$IAsyncOperation@W4GattCommunicationStatus@GenericAttributeProfile@Bluetooth@Devices@Windows@@@Foundation@Windows@@@Z 0000000180025020 f i _nodert_generated.obj
 0001:00024030       ??$_ValidateTaskConstructorArgs@W4GattOpenStatus@GenericAttributeProfile@Bluetooth@Devices@Windows@@PE$AAU?$IAsyncOperation@W4GattOpenStatus@GenericAttributeProfile@Bluetooth@Devices@Windows@@@Foundation@5@@details@Concurrency@@YAXAEBQE$AAU?$IAsyncOperation@W4GattOpenStatus@GenericAttributeProfile@Bluetooth@Devices@Windows@@@Foundation@Windows@@@Z 0000000180025030 f i _nodert_generated.obj
 0001:00024040       ??$__abi_array_to_raw@PE$AAVGattPresentationFormat@GenericAttributeProfile@Bluetooth@Devices@Windows@@PE$AAV12345@$00@Details@Platform@@YAPEAPE$AAVGattPresentationFormat@GenericAttributeProfile@Bluetooth@Devices@Windows@@P$01E$ABV?$Array@PE$AAVGattPresentationFormat@GenericAttributeProfile@Bluetooth@Devices@Windows@@$00@1@@Z 0000000180025040 f i _nodert_generated.obj
 0001:00024050       ??$__abi_unbox@_J@@YA_JPE$AAVObject@Platform@@@Z 0000000180025050 f i _nodert_generated.obj
 0001:000240e0       ??$__abi_winrt_ptrto_array_ctor@PE$AAVGattPresentationFormat@GenericAttributeProfile@Bluetooth@Devices@Windows@@$00@@YAPEAXQ$01E$ADV?$Array@PE$AAVGattPresentationFormat@GenericAttributeProfile@Bluetooth@Devices@Windows@@$00@Platform@@@Z 00000001800250e0 f i _nodert_generated.obj
 0001:00024150       ??$__abi_winrt_ptrto_delegate_dtor@V?$AsyncOperationCompletedHandler@PE$AAU?$IVectorView@PE$AAVGattClientNotificationResult@GenericAttributeProfile@Bluetooth@Devices@Windows@@@Collections@Foundation@Windows@@@Foundation@Windows@@@@YAXPE$ADV?$AsyncOperationCompletedHandler@PE$AAU?$IVectorView@PE$AAVGattClientNotificationResult@GenericAttributeProfile@Bluetooth@Devices@Windows@@@Collections@Foundation@Windows@@@Foundation@Windows@@@Z 0000000180025150 f i _nodert_generated.obj
 0001:00024160       ??$__abi_winrt_ptrto_delegate_dtor@V?$AsyncOperationCompletedHandler@PE$AAVGattCharacteristicsResult@GenericAttributeProfile@Bluetooth@Devices@Windows@@@Foundation@Windows@@@@YAXPE$ADV?$AsyncOperationCompletedHandler@PE$AAVGattCharacteristicsResult@GenericAttributeProfile@Bluetooth@Devices@Windows@@@Foundation@Windows@@@Z 0000000180025160 f i _nodert_generated.obj
 0001:00024170       ??$__abi_winrt_ptrto_delegate_dtor@V?$AsyncOperationCompletedHandler@PE$AAVGattClientNotificationResult@GenericAttributeProfile@Bluetooth@Devices@Windows@@@Foundation@Windows@@@@YAXPE$ADV?$AsyncOperationCompletedHandler@PE$AAVGattClientNotificationResult@GenericAttributeProfile@Bluetooth@Devices@Windows@@@Foundation@Windows@@@Z 0000000180025170 f i _nodert_generated.obj
 0001:00024180       ??$__abi_winrt_ptrto_delegate_dtor@V?$AsyncOperationCompletedHandler@PE$AAVGattDescriptorsResult@GenericAttributeProfile@Bluetooth@Devices@Windows@@@Foundation@Windows@@@@YAXPE$ADV?$AsyncOperationCompletedHandler@PE$AAVGattDescriptorsResult@GenericAttributeProfile@Bluetooth@Devices@Windows@@@Foundation@Windows@@@Z 0000000180025180 f i _nodert_generated.obj
 0001:00024190       ??$__abi_winrt_ptrto_delegate_dtor@V?$AsyncOperationCompletedHandler@PE$AAVGattDeviceService@GenericAttributeProfile@Bluetooth@Devices@Windows@@@Foundation@Windows@@@@YAXPE$ADV?$AsyncOperationCompletedHandler@PE$AAVGattDeviceService@GenericAttributeProfile@Bluetooth@Devices@Windows@@@Foundation@Windows@@@Z 0000000180025190 f i _nodert_generated.obj
 0001:000241a0       ??$__abi_winrt_ptrto_delegate_dtor@V?$AsyncOperationCompletedHandler@PE$AAVGattDeviceServicesResult@GenericAttributeProfile@Bluetooth@Devices@Windows@@@Foundation@Windows@@@@YAXPE$ADV?$AsyncOperationCompletedHandler@PE$AAVGattDeviceServicesResult@GenericAttributeProfile@Bluetooth@Devices@Windows@@@Foundation@Windows@@@Z 00000001800251a0 f i _nodert_generated.obj
 0001:000241b0       ??$__abi_winrt_ptrto_delegate_dtor@V?$AsyncOperationCompletedHandler@PE$AAVGattLocalCharacteristicResult@GenericAttributeProfile@Bluetooth@Devices@Windows@@@Foundation@Windows@@@@YAXPE$ADV?$AsyncOperationCompletedHandler@PE$AAVGattLocalCharacteristicResult@GenericAttributeProfile@Bluetooth@Devices@Windows@@@Foundation@Windows@@@Z 00000001800251b0 f i _nodert_generated.obj
 0001:000241c0       ??$__abi_winrt_ptrto_delegate_dtor@V?$AsyncOperationCompletedHandler@PE$AAVGattLocalDescriptorResult@GenericAttributeProfile@Bluetooth@Devices@Windows@@@Foundation@Windows@@@@YAXPE$ADV?$AsyncOperationCompletedHandler@PE$AAVGattLocalDescriptorResult@GenericAttributeProfile@Bluetooth@Devices@Windows@@@Foundation@Windows@@@Z 00000001800251c0 f i _nodert_generated.obj
 0001:000241d0       ??$__abi_winrt_ptrto_delegate_dtor@V?$AsyncOperationCompletedHandler@PE$AAVGattReadClientCharacteristicConfigurationDescriptorResult@GenericAttributeProfile@Bluetooth@Devices@Windows@@@Foundation@Windows@@@@YAXPE$ADV?$AsyncOperationCompletedHandler@PE$AAVGattReadClientCharacteristicConfigurationDescriptorResult@GenericAttributeProfile@Bluetooth@Devices@Windows@@@Foundation@Windows@@@Z 00000001800251d0 f i _nodert_generated.obj
 0001:000241e0       ??$__abi_winrt_ptrto_delegate_dtor@V?$AsyncOperationCompletedHandler@PE$AAVGattReadRequest@GenericAttributeProfile@Bluetooth@Devices@Windows@@@Foundation@Windows@@@@YAXPE$ADV?$AsyncOperationCompletedHandler@PE$AAVGattReadRequest@GenericAttributeProfile@Bluetooth@Devices@Windows@@@Foundation@Windows@@@Z 00000001800251e0 f i _nodert_generated.obj
 0001:000241f0       ??$__abi_winrt_ptrto_delegate_dtor@V?$AsyncOperationCompletedHandler@PE$AAVGattReadResult@GenericAttributeProfile@Bluetooth@Devices@Windows@@@Foundation@Windows@@@@YAXPE$ADV?$AsyncOperationCompletedHandler@PE$AAVGattReadResult@GenericAttributeProfile@Bluetooth@Devices@Windows@@@Foundation@Windows@@@Z 00000001800251f0 f i _nodert_generated.obj
 0001:00024200       ??$__abi_winrt_ptrto_delegate_dtor@V?$AsyncOperationCompletedHandler@PE$AAVGattServiceProviderResult@GenericAttributeProfile@Bluetooth@Devices@Windows@@@Foundation@Windows@@@@YAXPE$ADV?$AsyncOperationCompletedHandler@PE$AAVGattServiceProviderResult@GenericAttributeProfile@Bluetooth@Devices@Windows@@@Foundation@Windows@@@Z 0000000180025200 f i _nodert_generated.obj
 0001:00024210       ??$__abi_winrt_ptrto_delegate_dtor@V?$AsyncOperationCompletedHandler@PE$AAVGattSession@GenericAttributeProfile@Bluetooth@Devices@Windows@@@Foundation@Windows@@@@YAXPE$ADV?$AsyncOperationCompletedHandler@PE$AAVGattSession@GenericAttributeProfile@Bluetooth@Devices@Windows@@@Foundation@Windows@@@Z 0000000180025210 f i _nodert_generated.obj
 0001:00024220       ??$__abi_winrt_ptrto_delegate_dtor@V?$AsyncOperationCompletedHandler@PE$AAVGattWriteRequest@GenericAttributeProfile@Bluetooth@Devices@Windows@@@Foundation@Windows@@@@YAXPE$ADV?$AsyncOperationCompletedHandler@PE$AAVGattWriteRequest@GenericAttributeProfile@Bluetooth@Devices@Windows@@@Foundation@Windows@@@Z 0000000180025220 f i _nodert_generated.obj
 0001:00024230       ??$__abi_winrt_ptrto_delegate_dtor@V?$AsyncOperationCompletedHandler@PE$AAVGattWriteResult@GenericAttributeProfile@Bluetooth@Devices@Windows@@@Foundation@Windows@@@@YAXPE$ADV?$AsyncOperationCompletedHandler@PE$AAVGattWriteResult@GenericAttributeProfile@Bluetooth@Devices@Windows@@@Foundation@Windows@@@Z 0000000180025230 f i _nodert_generated.obj
 0001:00024240       ??$__abi_winrt_ptrto_delegate_dtor@V?$AsyncOperationCompletedHandler@W4DeviceAccessStatus@Enumeration@Devices@Windows@@@Foundation@Windows@@@@YAXPE$ADV?$AsyncOperationCompletedHandler@W4DeviceAccessStatus@Enumeration@Devices@Windows@@@Foundation@Windows@@@Z 0000000180025240 f i _nodert_generated.obj
 0001:00024250       ??$__abi_winrt_ptrto_delegate_dtor@V?$AsyncOperationCompletedHandler@W4GattCommunicationStatus@GenericAttributeProfile@Bluetooth@Devices@Windows@@@Foundation@Windows@@@@YAXPE$ADV?$AsyncOperationCompletedHandler@W4GattCommunicationStatus@GenericAttributeProfile@Bluetooth@Devices@Windows@@@Foundation@Windows@@@Z 0000000180025250 f i _nodert_generated.obj
 0001:00024260       ??$__abi_winrt_ptrto_delegate_dtor@V?$AsyncOperationCompletedHandler@W4GattOpenStatus@GenericAttributeProfile@Bluetooth@Devices@Windows@@@Foundation@Windows@@@@YAXPE$ADV?$AsyncOperationCompletedHandler@W4GattOpenStatus@GenericAttributeProfile@Bluetooth@Devices@Windows@@@Foundation@Windows@@@Z 0000000180025260 f i _nodert_generated.obj
 0001:00024270       ??$__abi_winrt_ptrto_delegate_dtor@V?$TypedEventHandler@PE$AAVGattCharacteristic@GenericAttributeProfile@Bluetooth@Devices@Windows@@PE$AAVGattValueChangedEventArgs@2345@@Foundation@Windows@@@@YAXPE$ADV?$TypedEventHandler@PE$AAVGattCharacteristic@GenericAttributeProfile@Bluetooth@Devices@Windows@@PE$AAVGattValueChangedEventArgs@2345@@Foundation@Windows@@@Z 0000000180025270 f i _nodert_generated.obj
 0001:00024280       ??$__abi_winrt_ptrto_delegate_dtor@V?$TypedEventHandler@PE$AAVGattLocalCharacteristic@GenericAttributeProfile@Bluetooth@Devices@Windows@@PE$AAVGattReadRequestedEventArgs@2345@@Foundation@Windows@@@@YAXPE$ADV?$TypedEventHandler@PE$AAVGattLocalCharacteristic@GenericAttributeProfile@Bluetooth@Devices@Windows@@PE$AAVGattReadRequestedEventArgs@2345@@Foundation@Windows@@@Z 0000000180025280 f i _nodert_generated.obj
 0001:00024290       ??$__abi_winrt_ptrto_delegate_dtor@V?$TypedEventHandler@PE$AAVGattLocalCharacteristic@GenericAttributeProfile@Bluetooth@Devices@Windows@@PE$AAVGattWriteRequestedEventArgs@2345@@Foundation@Windows@@@@YAXPE$ADV?$TypedEventHandler@PE$AAVGattLocalCharacteristic@GenericAttributeProfile@Bluetooth@Devices@Windows@@PE$AAVGattWriteRequestedEventArgs@2345@@Foundation@Windows@@@Z 0000000180025290 f i _nodert_generated.obj
 0001:000242a0       ??$__abi_winrt_ptrto_delegate_dtor@V?$TypedEventHandler@PE$AAVGattLocalCharacteristic@GenericAttributeProfile@Bluetooth@Devices@Windows@@PE$AAVObject@Platform@@@Foundation@Windows@@@@YAXPE$ADV?$TypedEventHandler@PE$AAVGattLocalCharacteristic@GenericAttributeProfile@Bluetooth@Devices@Windows@@PE$AAVObject@Platform@@@Foundation@Windows@@@Z 00000001800252a0 f i _nodert_generated.obj
 0001:000242b0       ??$__abi_winrt_ptrto_delegate_dtor@V?$TypedEventHandler@PE$AAVGattLocalDescriptor@GenericAttributeProfile@Bluetooth@Devices@Windows@@PE$AAVGattReadRequestedEventArgs@2345@@Foundation@Windows@@@@YAXPE$ADV?$TypedEventHandler@PE$AAVGattLocalDescriptor@GenericAttributeProfile@Bluetooth@Devices@Windows@@PE$AAVGattReadRequestedEventArgs@2345@@Foundation@Windows@@@Z 00000001800252b0 f i _nodert_generated.obj
 0001:000242c0       ??$__abi_winrt_ptrto_delegate_dtor@V?$TypedEventHandler@PE$AAVGattLocalDescriptor@GenericAttributeProfile@Bluetooth@Devices@Windows@@PE$AAVGattWriteRequestedEventArgs@2345@@Foundation@Windows@@@@YAXPE$ADV?$TypedEventHandler@PE$AAVGattLocalDescriptor@GenericAttributeProfile@Bluetooth@Devices@Windows@@PE$AAVGattWriteRequestedEventArgs@2345@@Foundation@Windows@@@Z 00000001800252c0 f i _nodert_generated.obj
 0001:000242d0       ??$__abi_winrt_ptrto_delegate_dtor@V?$TypedEventHandler@PE$AAVGattReadRequest@GenericAttributeProfile@Bluetooth@Devices@Windows@@PE$AAVGattRequestStateChangedEventArgs@2345@@Foundation@Windows@@@@YAXPE$ADV?$TypedEventHandler@PE$AAVGattReadRequest@GenericAttributeProfile@Bluetooth@Devices@Windows@@PE$AAVGattRequestStateChangedEventArgs@2345@@Foundation@Windows@@@Z 00000001800252d0 f i _nodert_generated.obj
 0001:000242e0       ??$__abi_winrt_ptrto_delegate_dtor@V?$TypedEventHandler@PE$AAVGattServiceProvider@GenericAttributeProfile@Bluetooth@Devices@Windows@@PE$AAVGattServiceProviderAdvertisementStatusChangedEventArgs@2345@@Foundation@Windows@@@@YAXPE$ADV?$TypedEventHandler@PE$AAVGattServiceProvider@GenericAttributeProfile@Bluetooth@Devices@Windows@@PE$AAVGattServiceProviderAdvertisementStatusChangedEventArgs@2345@@Foundation@Windows@@@Z 00000001800252e0 f i _nodert_generated.obj
 0001:000242f0       ??$__abi_winrt_ptrto_delegate_dtor@V?$TypedEventHandler@PE$AAVGattSession@GenericAttributeProfile@Bluetooth@Devices@Windows@@PE$AAVGattSessionStatusChangedEventArgs@2345@@Foundation@Windows@@@@YAXPE$ADV?$TypedEventHandler@PE$AAVGattSession@GenericAttributeProfile@Bluetooth@Devices@Windows@@PE$AAVGattSessionStatusChangedEventArgs@2345@@Foundation@Windows@@@Z 00000001800252f0 f i _nodert_generated.obj
 0001:00024300       ??$__abi_winrt_ptrto_delegate_dtor@V?$TypedEventHandler@PE$AAVGattSession@GenericAttributeProfile@Bluetooth@Devices@Windows@@PE$AAVObject@Platform@@@Foundation@Windows@@@@YAXPE$ADV?$TypedEventHandler@PE$AAVGattSession@GenericAttributeProfile@Bluetooth@Devices@Windows@@PE$AAVObject@Platform@@@Foundation@Windows@@@Z 0000000180025300 f i _nodert_generated.obj
 0001:00024310       ??$__abi_winrt_ptrto_delegate_dtor@V?$TypedEventHandler@PE$AAVGattSubscribedClient@GenericAttributeProfile@Bluetooth@Devices@Windows@@PE$AAVObject@Platform@@@Foundation@Windows@@@@YAXPE$ADV?$TypedEventHandler@PE$AAVGattSubscribedClient@GenericAttributeProfile@Bluetooth@Devices@Windows@@PE$AAVObject@Platform@@@Foundation@Windows@@@Z 0000000180025310 f i _nodert_generated.obj
 0001:00024320       ??$__abi_winrt_ptrto_delegate_dtor@V?$TypedEventHandler@PE$AAVGattWriteRequest@GenericAttributeProfile@Bluetooth@Devices@Windows@@PE$AAVGattRequestStateChangedEventArgs@2345@@Foundation@Windows@@@@YAXPE$ADV?$TypedEventHandler@PE$AAVGattWriteRequest@GenericAttributeProfile@Bluetooth@Devices@Windows@@PE$AAVGattRequestStateChangedEventArgs@2345@@Foundation@Windows@@@Z 0000000180025320 f i _nodert_generated.obj
 0001:00024330       ??$atomic_compare_exchange@J@details@Concurrency@@YAJAEAU?$atomic@J@std@@JJ@Z 0000000180025330 f i _nodert_generated.obj
 0001:00024350       ??$atomic_exchange@J@details@Concurrency@@YAJAEAU?$atomic@J@std@@J@Z 0000000180025350 f i _nodert_generated.obj
 0001:00024360       ??$create_task@PE$AAU?$IAsyncOperation@PE$AAU?$IVectorView@PE$AAVGattClientNotificationResult@GenericAttributeProfile@Bluetooth@Devices@Windows@@@Collections@Foundation@Windows@@@Foundation@Windows@@@Concurrency@@YA?AV?$task@PE$AAU?$IVectorView@PE$AAVGattClientNotificationResult@GenericAttributeProfile@Bluetooth@Devices@Windows@@@Collections@Foundation@Windows@@@0@PE$AAU?$IAsyncOperation@PE$AAU?$IVectorView@PE$AAVGattClientNotificationResult@GenericAttributeProfile@Bluetooth@Devices@Windows@@@Collections@Foundation@Windows@@@Foundation@Windows@@Vtask_options@0@@Z 0000000180025360 f i _nodert_generated.obj
 0001:00024430       ??$create_task@PE$AAU?$IAsyncOperation@PE$AAVGattCharacteristicsResult@GenericAttributeProfile@Bluetooth@Devices@Windows@@@Foundation@Windows@@@Concurrency@@YA?AV?$task@PE$AAVGattCharacteristicsResult@GenericAttributeProfile@Bluetooth@Devices@Windows@@@0@PE$AAU?$IAsyncOperation@PE$AAVGattCharacteristicsResult@GenericAttributeProfile@Bluetooth@Devices@Windows@@@Foundation@Windows@@Vtask_options@0@@Z 0000000180025430 f i _nodert_generated.obj
 0001:00024500       ??$create_task@PE$AAU?$IAsyncOperation@PE$AAVGattClientNotificationResult@GenericAttributeProfile@Bluetooth@Devices@Windows@@@Foundation@Windows@@@Concurrency@@YA?AV?$task@PE$AAVGattClientNotificationResult@GenericAttributeProfile@Bluetooth@Devices@Windows@@@0@PE$AAU?$IAsyncOperation@PE$AAVGattClientNotificationResult@GenericAttributeProfile@Bluetooth@Devices@Windows@@@Foundation@Windows@@Vtask_options@0@@Z 0000000180025500 f i _nodert_generated.obj
 0001:000245d0       ??$create_task@PE$AAU?$IAsyncOperation@PE$AAVGattDescriptorsResult@GenericAttributeProfile@Bluetooth@Devices@Windows@@@Foundation@Windows@@@Concurrency@@YA?AV?$task@PE$AAVGattDescriptorsResult@GenericAttributeProfile@Bluetooth@Devices@Windows@@@0@PE$AAU?$IAsyncOperation@PE$AAVGattDescriptorsResult@GenericAttributeProfile@Bluetooth@Devices@Windows@@@Foundation@Windows@@Vtask_options@0@@Z 00000001800255d0 f i _nodert_generated.obj
 0001:000246a0       ??$create_task@PE$AAU?$IAsyncOperation@PE$AAVGattDeviceService@GenericAttributeProfile@Bluetooth@Devices@Windows@@@Foundation@Windows@@@Concurrency@@YA?AV?$task@PE$AAVGattDeviceService@GenericAttributeProfile@Bluetooth@Devices@Windows@@@0@PE$AAU?$IAsyncOperation@PE$AAVGattDeviceService@GenericAttributeProfile@Bluetooth@Devices@Windows@@@Foundation@Windows@@Vtask_options@0@@Z 00000001800256a0 f i _nodert_generated.obj
 0001:00024770       ??$create_task@PE$AAU?$IAsyncOperation@PE$AAVGattDeviceServicesResult@GenericAttributeProfile@Bluetooth@Devices@Windows@@@Foundation@Windows@@@Concurrency@@YA?AV?$task@PE$AAVGattDeviceServicesResult@GenericAttributeProfile@Bluetooth@Devices@Windows@@@0@PE$AAU?$IAsyncOperation@PE$AAVGattDeviceServicesResult@GenericAttributeProfile@Bluetooth@Devices@Windows@@@Foundation@Windows@@Vtask_options@0@@Z 0000000180025770 f i _nodert_generated.obj
 0001:00024840       ??$create_task@PE$AAU?$IAsyncOperation@PE$AAVGattLocalCharacteristicResult@GenericAttributeProfile@Bluetooth@Devices@Windows@@@Foundation@Windows@@@Concurrency@@YA?AV?$task@PE$AAVGattLocalCharacteristicResult@GenericAttributeProfile@Bluetooth@Devices@Windows@@@0@PE$AAU?$IAsyncOperation@PE$AAVGattLocalCharacteristicResult@GenericAttributeProfile@Bluetooth@Devices@Windows@@@Foundation@Windows@@Vtask_options@0@@Z 0000000180025840 f i _nodert_generated.obj
 0001:00024910       ??$create_task@PE$AAU?$IAsyncOperation@PE$AAVGattLocalDescriptorResult@GenericAttributeProfile@Bluetooth@Devices@Windows@@@Foundation@Windows@@@Concurrency@@YA?AV?$task@PE$AAVGattLocalDescriptorResult@GenericAttributeProfile@Bluetooth@Devices@Windows@@@0@PE$AAU?$IAsyncOperation@PE$AAVGattLocalDescriptorResult@GenericAttributeProfile@Bluetooth@Devices@Windows@@@Foundation@Windows@@Vtask_options@0@@Z 0000000180025910 f i _nodert_generated.obj
 0001:000249e0       ??$create_task@PE$AAU?$IAsyncOperation@PE$AAVGattReadClientCharacteristicConfigurationDescriptorResult@GenericAttributeProfile@Bluetooth@Devices@Windows@@@Foundation@Windows@@@Concurrency@@YA?AV?$task@PE$AAVGattReadClientCharacteristicConfigurationDescriptorResult@GenericAttributeProfile@Bluetooth@Devices@Windows@@@0@PE$AAU?$IAsyncOperation@PE$AAVGattReadClientCharacteristicConfigurationDescriptorResult@GenericAttributeProfile@Bluetooth@Devices@Windows@@@Foundation@Windows@@Vtask_options@0@@Z 00000001800259e0 f i _nodert_generated.obj
 0001:00024ab0       ??$create_task@PE$AAU?$IAsyncOperation@PE$AAVGattReadRequest@GenericAttributeProfile@Bluetooth@Devices@Windows@@@Foundation@Windows@@@Concurrency@@YA?AV?$task@PE$AAVGattReadRequest@GenericAttributeProfile@Bluetooth@Devices@Windows@@@0@PE$AAU?$IAsyncOperation@PE$AAVGattReadRequest@GenericAttributeProfile@Bluetooth@Devices@Windows@@@Foundation@Windows@@Vtask_options@0@@Z 0000000180025ab0 f i _nodert_generated.obj
 0001:00024b80       ??$create_task@PE$AAU?$IAsyncOperation@PE$AAVGattReadResult@GenericAttributeProfile@Bluetooth@Devices@Windows@@@Foundation@Windows@@@Concurrency@@YA?AV?$task@PE$AAVGattReadResult@GenericAttributeProfile@Bluetooth@Devices@Windows@@@0@PE$AAU?$IAsyncOperation@PE$AAVGattReadResult@GenericAttributeProfile@Bluetooth@Devices@Windows@@@Foundation@Windows@@Vtask_options@0@@Z 0000000180025b80 f i _nodert_generated.obj
 0001:00024c50       ??$create_task@PE$AAU?$IAsyncOperation@PE$AAVGattServiceProviderResult@GenericAttributeProfile@Bluetooth@Devices@Windows@@@Foundation@Windows@@@Concurrency@@YA?AV?$task@PE$AAVGattServiceProviderResult@GenericAttributeProfile@Bluetooth@Devices@Windows@@@0@PE$AAU?$IAsyncOperation@PE$AAVGattServiceProviderResult@GenericAttributeProfile@Bluetooth@Devices@Windows@@@Foundation@Windows@@Vtask_options@0@@Z 0000000180025c50 f i _nodert_generated.obj
 0001:00024d20       ??$create_task@PE$AAU?$IAsyncOperation@PE$AAVGattSession@GenericAttributeProfile@Bluetooth@Devices@Windows@@@Foundation@Windows@@@Concurrency@@YA?AV?$task@PE$AAVGattSession@GenericAttributeProfile@Bluetooth@Devices@Windows@@@0@PE$AAU?$IAsyncOperation@PE$AAVGattSession@GenericAttributeProfile@Bluetooth@Devices@Windows@@@Foundation@Windows@@Vtask_options@0@@Z 0000000180025d20 f i _nodert_generated.obj
 0001:00024df0       ??$create_task@PE$AAU?$IAsyncOperation@PE$AAVGattWriteRequest@GenericAttributeProfile@Bluetooth@Devices@Windows@@@Foundation@Windows@@@Concurrency@@YA?AV?$task@PE$AAVGattWriteRequest@GenericAttributeProfile@Bluetooth@Devices@Windows@@@0@PE$AAU?$IAsyncOperation@PE$AAVGattWriteRequest@GenericAttributeProfile@Bluetooth@Devices@Windows@@@Foundation@Windows@@Vtask_options@0@@Z 0000000180025df0 f i _nodert_generated.obj
 0001:00024ec0       ??$create_task@PE$AAU?$IAsyncOperation@PE$AAVGattWriteResult@GenericAttributeProfile@Bluetooth@Devices@Windows@@@Foundation@Windows@@@Concurrency@@YA?AV?$task@PE$AAVGattWriteResult@GenericAttributeProfile@Bluetooth@Devices@Windows@@@0@PE$AAU?$IAsyncOperation@PE$AAVGattWriteResult@GenericAttributeProfile@Bluetooth@Devices@Windows@@@Foundation@Windows@@Vtask_options@0@@Z 0000000180025ec0 f i _nodert_generated.obj
 0001:00024f90       ??$create_task@PE$AAU?$IAsyncOperation@W4DeviceAccessStatus@Enumeration@Devices@Windows@@@Foundation@Windows@@@Concurrency@@YA?AV?$task@W4DeviceAccessStatus@Enumeration@Devices@Windows@@@0@PE$AAU?$IAsyncOperation@W4DeviceAccessStatus@Enumeration@Devices@Windows@@@Foundation@Windows@@Vtask_options@0@@Z 0000000180025f90 f i _nodert_generated.obj
 0001:00025060       ??$create_task@PE$AAU?$IAsyncOperation@W4GattCommunicationStatus@GenericAttributeProfile@Bluetooth@Devices@Windows@@@Foundation@Windows@@@Concurrency@@YA?AV?$task@W4GattCommunicationStatus@GenericAttributeProfile@Bluetooth@Devices@Windows@@@0@PE$AAU?$IAsyncOperation@W4GattCommunicationStatus@GenericAttributeProfile@Bluetooth@Devices@Windows@@@Foundation@Windows@@Vtask_options@0@@Z 0000000180026060 f i _nodert_generated.obj
 0001:00025130       ??$create_task@PE$AAU?$IAsyncOperation@W4GattOpenStatus@GenericAttributeProfile@Bluetooth@Devices@Windows@@@Foundation@Windows@@@Concurrency@@YA?AV?$task@W4GattOpenStatus@GenericAttributeProfile@Bluetooth@Devices@Windows@@@0@PE$AAU?$IAsyncOperation@W4GattOpenStatus@GenericAttributeProfile@Bluetooth@Devices@Windows@@@Foundation@Windows@@Vtask_options@0@@Z 0000000180026130 f i _nodert_generated.obj
 0001:00025200       ??$make_exception_ptr@PE$AAVException@Platform@@@std@@YA?AVexception_ptr@0@PE$AAVException@Platform@@@Z 0000000180026200 f i _nodert_generated.obj
 0001:00025270       ??$make_shared@U?$_Task_impl@E@details@Concurrency@@AEAPEAV_CancellationTokenState@23@AEAUscheduler_ptr@3@@std@@YA?AV?$shared_ptr@U?$_Task_impl@E@details@Concurrency@@@0@AEAPEAV_CancellationTokenState@details@Concurrency@@AEAUscheduler_ptr@4@@Z 0000000180026270 f i _nodert_generated.obj
 0001:000253a0       ??$make_shared@U?$_Task_impl@PE$AAU?$IVectorView@PE$AAVGattClientNotificationResult@GenericAttributeProfile@Bluetooth@Devices@Windows@@@Collections@Foundation@Windows@@@details@Concurrency@@AEAPEAV_CancellationTokenState@23@AEAUscheduler_ptr@3@@std@@YA?AV?$shared_ptr@U?$_Task_impl@PE$AAU?$IVectorView@PE$AAVGattClientNotificationResult@GenericAttributeProfile@Bluetooth@Devices@Windows@@@Collections@Foundation@Windows@@@details@Concurrency@@@0@AEAPEAV_CancellationTokenState@details@Concurrency@@AEAUscheduler_ptr@4@@Z 00000001800263a0 f i _nodert_generated.obj
 0001:000254d0       ??$make_shared@U?$_Task_impl@PE$AAVGattCharacteristicsResult@GenericAttributeProfile@Bluetooth@Devices@Windows@@@details@Concurrency@@AEAPEAV_CancellationTokenState@23@AEAUscheduler_ptr@3@@std@@YA?AV?$shared_ptr@U?$_Task_impl@PE$AAVGattCharacteristicsResult@GenericAttributeProfile@Bluetooth@Devices@Windows@@@details@Concurrency@@@0@AEAPEAV_CancellationTokenState@details@Concurrency@@AEAUscheduler_ptr@4@@Z 00000001800264d0 f i _nodert_generated.obj
 0001:00025600       ??$make_shared@U?$_Task_impl@PE$AAVGattClientNotificationResult@GenericAttributeProfile@Bluetooth@Devices@Windows@@@details@Concurrency@@AEAPEAV_CancellationTokenState@23@AEAUscheduler_ptr@3@@std@@YA?AV?$shared_ptr@U?$_Task_impl@PE$AAVGattClientNotificationResult@GenericAttributeProfile@Bluetooth@Devices@Windows@@@details@Concurrency@@@0@AEAPEAV_CancellationTokenState@details@Concurrency@@AEAUscheduler_ptr@4@@Z 0000000180026600 f i _nodert_generated.obj
 0001:00025730       ??$make_shared@U?$_Task_impl@PE$AAVGattDescriptorsResult@GenericAttributeProfile@Bluetooth@Devices@Windows@@@details@Concurrency@@AEAPEAV_CancellationTokenState@23@AEAUscheduler_ptr@3@@std@@YA?AV?$shared_ptr@U?$_Task_impl@PE$AAVGattDescriptorsResult@GenericAttributeProfile@Bluetooth@Devices@Windows@@@details@Concurrency@@@0@AEAPEAV_CancellationTokenState@details@Concurrency@@AEAUscheduler_ptr@4@@Z 0000000180026730 f i _nodert_generated.obj
 0001:00025860       ??$make_shared@U?$_Task_impl@PE$AAVGattDeviceService@GenericAttributeProfile@Bluetooth@Devices@Windows@@@details@Concurrency@@AEAPEAV_CancellationTokenState@23@AEAUscheduler_ptr@3@@std@@YA?AV?$shared_ptr@U?$_Task_impl@PE$AAVGattDeviceService@GenericAttributeProfile@Bluetooth@Devices@Windows@@@details@Concurrency@@@0@AEAPEAV_CancellationTokenState@details@Concurrency@@AEAUscheduler_ptr@4@@Z 0000000180026860 f i _nodert_generated.obj
 0001:00025990       ??$make_shared@U?$_Task_impl@PE$AAVGattDeviceServicesResult@GenericAttributeProfile@Bluetooth@Devices@Windows@@@details@Concurrency@@AEAPEAV_CancellationTokenState@23@AEAUscheduler_ptr@3@@std@@YA?AV?$shared_ptr@U?$_Task_impl@PE$AAVGattDeviceServicesResult@GenericAttributeProfile@Bluetooth@Devices@Windows@@@details@Concurrency@@@0@AEAPEAV_CancellationTokenState@details@Concurrency@@AEAUscheduler_ptr@4@@Z 0000000180026990 f i _nodert_generated.obj
 0001:00025ac0       ??$make_shared@U?$_Task_impl@PE$AAVGattLocalCharacteristicResult@GenericAttributeProfile@Bluetooth@Devices@Windows@@@details@Concurrency@@AEAPEAV_CancellationTokenState@23@AEAUscheduler_ptr@3@@std@@YA?AV?$shared_ptr@U?$_Task_impl@PE$AAVGattLocalCharacteristicResult@GenericAttributeProfile@Bluetooth@Devices@Windows@@@details@Concurrency@@@0@AEAPEAV_CancellationTokenState@details@Concurrency@@AEAUscheduler_ptr@4@@Z 0000000180026ac0 f i _nodert_generated.obj
 0001:00025bf0       ??$make_shared@U?$_Task_impl@PE$AAVGattLocalDescriptorResult@GenericAttributeProfile@Bluetooth@Devices@Windows@@@details@Concurrency@@AEAPEAV_CancellationTokenState@23@AEAUscheduler_ptr@3@@std@@YA?AV?$shared_ptr@U?$_Task_impl@PE$AAVGattLocalDescriptorResult@GenericAttributeProfile@Bluetooth@Devices@Windows@@@details@Concurrency@@@0@AEAPEAV_CancellationTokenState@details@Concurrency@@AEAUscheduler_ptr@4@@Z 0000000180026bf0 f i _nodert_generated.obj
 0001:00025d20       ??$make_shared@U?$_Task_impl@PE$AAVGattReadClientCharacteristicConfigurationDescriptorResult@GenericAttributeProfile@Bluetooth@Devices@Windows@@@details@Concurrency@@AEAPEAV_CancellationTokenState@23@AEAUscheduler_ptr@3@@std@@YA?AV?$shared_ptr@U?$_Task_impl@PE$AAVGattReadClientCharacteristicConfigurationDescriptorResult@GenericAttributeProfile@Bluetooth@Devices@Windows@@@details@Concurrency@@@0@AEAPEAV_CancellationTokenState@details@Concurrency@@AEAUscheduler_ptr@4@@Z 0000000180026d20 f i _nodert_generated.obj
 0001:00025e50       ??$make_shared@U?$_Task_impl@PE$AAVGattReadRequest@GenericAttributeProfile@Bluetooth@Devices@Windows@@@details@Concurrency@@AEAPEAV_CancellationTokenState@23@AEAUscheduler_ptr@3@@std@@YA?AV?$shared_ptr@U?$_Task_impl@PE$AAVGattReadRequest@GenericAttributeProfile@Bluetooth@Devices@Windows@@@details@Concurrency@@@0@AEAPEAV_CancellationTokenState@details@Concurrency@@AEAUscheduler_ptr@4@@Z 0000000180026e50 f i _nodert_generated.obj
 0001:00025f80       ??$make_shared@U?$_Task_impl@PE$AAVGattReadResult@GenericAttributeProfile@Bluetooth@Devices@Windows@@@details@Concurrency@@AEAPEAV_CancellationTokenState@23@AEAUscheduler_ptr@3@@std@@YA?AV?$shared_ptr@U?$_Task_impl@PE$AAVGattReadResult@GenericAttributeProfile@Bluetooth@Devices@Windows@@@details@Concurrency@@@0@AEAPEAV_CancellationTokenState@details@Concurrency@@AEAUscheduler_ptr@4@@Z 0000000180026f80 f i _nodert_generated.obj
 0001:000260b0       ??$make_shared@U?$_Task_impl@PE$AAVGattServiceProviderResult@GenericAttributeProfile@Bluetooth@Devices@Windows@@@details@Concurrency@@AEAPEAV_CancellationTokenState@23@AEAUscheduler_ptr@3@@std@@YA?AV?$shared_ptr@U?$_Task_impl@PE$AAVGattServiceProviderResult@GenericAttributeProfile@Bluetooth@Devices@Windows@@@details@Concurrency@@@0@AEAPEAV_CancellationTokenState@details@Concurrency@@AEAUscheduler_ptr@4@@Z 00000001800270b0 f i _nodert_generated.obj
 0001:000261e0       ??$make_shared@U?$_Task_impl@PE$AAVGattSession@GenericAttributeProfile@Bluetooth@Devices@Windows@@@details@Concurrency@@AEAPEAV_CancellationTokenState@23@AEAUscheduler_ptr@3@@std@@YA?AV?$shared_ptr@U?$_Task_impl@PE$AAVGattSession@GenericAttributeProfile@Bluetooth@Devices@Windows@@@details@Concurrency@@@0@AEAPEAV_CancellationTokenState@details@Concurrency@@AEAUscheduler_ptr@4@@Z 00000001800271e0 f i _nodert_generated.obj
 0001:00026310       ??$make_shared@U?$_Task_impl@PE$AAVGattWriteRequest@GenericAttributeProfile@Bluetooth@Devices@Windows@@@details@Concurrency@@AEAPEAV_CancellationTokenState@23@AEAUscheduler_ptr@3@@std@@YA?AV?$shared_ptr@U?$_Task_impl@PE$AAVGattWriteRequest@GenericAttributeProfile@Bluetooth@Devices@Windows@@@details@Concurrency@@@0@AEAPEAV_CancellationTokenState@details@Concurrency@@AEAUscheduler_ptr@4@@Z 0000000180027310 f i _nodert_generated.obj
 0001:00026440       ??$make_shared@U?$_Task_impl@PE$AAVGattWriteResult@GenericAttributeProfile@Bluetooth@Devices@Windows@@@details@Concurrency@@AEAPEAV_CancellationTokenState@23@AEAUscheduler_ptr@3@@std@@YA?AV?$shared_ptr@U?$_Task_impl@PE$AAVGattWriteResult@GenericAttributeProfile@Bluetooth@Devices@Windows@@@details@Concurrency@@@0@AEAPEAV_CancellationTokenState@details@Concurrency@@AEAUscheduler_ptr@4@@Z 0000000180027440 f i _nodert_generated.obj
 0001:00026570       ??$make_shared@U?$_Task_impl@W4DeviceAccessStatus@Enumeration@Devices@Windows@@@details@Concurrency@@AEAPEAV_CancellationTokenState@23@AEAUscheduler_ptr@3@@std@@YA?AV?$shared_ptr@U?$_Task_impl@W4DeviceAccessStatus@Enumeration@Devices@Windows@@@details@Concurrency@@@0@AEAPEAV_CancellationTokenState@details@Concurrency@@AEAUscheduler_ptr@4@@Z 0000000180027570 f i _nodert_generated.obj
 0001:000266a0       ??$make_shared@U?$_Task_impl@W4GattCommunicationStatus@GenericAttributeProfile@Bluetooth@Devices@Windows@@@details@Concurrency@@AEAPEAV_CancellationTokenState@23@AEAUscheduler_ptr@3@@std@@YA?AV?$shared_ptr@U?$_Task_impl@W4GattCommunicationStatus@GenericAttributeProfile@Bluetooth@Devices@Windows@@@details@Concurrency@@@0@AEAPEAV_CancellationTokenState@details@Concurrency@@AEAUscheduler_ptr@4@@Z 00000001800276a0 f i _nodert_generated.obj
 0001:000267d0       ??$make_shared@U?$_Task_impl@W4GattOpenStatus@GenericAttributeProfile@Bluetooth@Devices@Windows@@@details@Concurrency@@AEAPEAV_CancellationTokenState@23@AEAUscheduler_ptr@3@@std@@YA?AV?$shared_ptr@U?$_Task_impl@W4GattOpenStatus@GenericAttributeProfile@Bluetooth@Devices@Windows@@@details@Concurrency@@@0@AEAPEAV_CancellationTokenState@details@Concurrency@@AEAUscheduler_ptr@4@@Z 00000001800277d0 f i _nodert_generated.obj
 0001:00026900       ??$make_shared@U_ExceptionHolder@details@Concurrency@@AEBVexception_ptr@std@@V_TaskCreationCallstack@23@@std@@YA?AV?$shared_ptr@U_ExceptionHolder@details@Concurrency@@@0@AEBVexception_ptr@0@$$QEAV_TaskCreationCallstack@details@Concurrency@@@Z 0000000180027900 f i _nodert_generated.obj
 0001:00026a10       ??$swap@PE$AAU?$IVectorView@PE$AAVGattClientNotificationResult@GenericAttributeProfile@Bluetooth@Devices@Windows@@@Collections@Foundation@Windows@@X@std@@YAXAEAPE$AAU?$IVectorView@PE$AAVGattClientNotificationResult@GenericAttributeProfile@Bluetooth@Devices@Windows@@@Collections@Foundation@Windows@@0@Z 0000000180027a10 f i _nodert_generated.obj
 0001:00026af0       ??$then@V<lambda_0be73f7db6bd861afda913c472d8365d>@@@?$task@PE$AAVGattWriteResult@GenericAttributeProfile@Bluetooth@Devices@Windows@@@Concurrency@@QEBA?AV?$task@X@1@AEBV<lambda_0be73f7db6bd861afda913c472d8365d>@@@Z 0000000180027af0 f i _nodert_generated.obj
 0001:00026df0       ??$then@V<lambda_0e12fb580fae19350cd6e151f8bc69eb>@@@?$task@PE$AAVGattServiceProviderResult@GenericAttributeProfile@Bluetooth@Devices@Windows@@@Concurrency@@QEBA?AV?$task@X@1@AEBV<lambda_0e12fb580fae19350cd6e151f8bc69eb>@@@Z 0000000180027df0 f i _nodert_generated.obj
 0001:000270f0       ??$then@V<lambda_0f421712cfeecb163ea61e4da995c933>@@@?$task@PE$AAVGattDescriptorsResult@GenericAttributeProfile@Bluetooth@Devices@Windows@@@Concurrency@@QEBA?AV?$task@X@1@AEBV<lambda_0f421712cfeecb163ea61e4da995c933>@@@Z 00000001800280f0 f i _nodert_generated.obj
 0001:000273f0       ??$then@V<lambda_21e97cada9ad0a1c4eedf5043a998345>@@@?$task@W4GattCommunicationStatus@GenericAttributeProfile@Bluetooth@Devices@Windows@@@Concurrency@@QEBA?AV?$task@X@1@AEBV<lambda_21e97cada9ad0a1c4eedf5043a998345>@@@Z 00000001800283f0 f i _nodert_generated.obj
 0001:000276f0       ??$then@V<lambda_2b2a42faa48361277d4f4de82829427c>@@@?$task@PE$AAVGattDeviceServicesResult@GenericAttributeProfile@Bluetooth@Devices@Windows@@@Concurrency@@QEBA?AV?$task@X@1@AEBV<lambda_2b2a42faa48361277d4f4de82829427c>@@@Z 00000001800286f0 f i _nodert_generated.obj
 0001:000279f0       ??$then@V<lambda_463a0d31da5a118860b1cef5b00c8627>@@@?$task@W4DeviceAccessStatus@Enumeration@Devices@Windows@@@Concurrency@@QEBA?AV?$task@X@1@AEBV<lambda_463a0d31da5a118860b1cef5b00c8627>@@@Z 00000001800289f0 f i _nodert_generated.obj
 0001:00027cf0       ??$then@V<lambda_4a7d4863264cf2995b746391e9e74ba5>@@@?$task@PE$AAU?$IVectorView@PE$AAVGattClientNotificationResult@GenericAttributeProfile@Bluetooth@Devices@Windows@@@Collections@Foundation@Windows@@@Concurrency@@QEBA?AV?$task@X@1@AEBV<lambda_4a7d4863264cf2995b746391e9e74ba5>@@@Z 0000000180028cf0 f i _nodert_generated.obj
 0001:00027ff0       ??$then@V<lambda_53df21345f772f8c256458071518fd54>@@@?$task@PE$AAVGattWriteResult@GenericAttributeProfile@Bluetooth@Devices@Windows@@@Concurrency@@QEBA?AV?$task@X@1@AEBV<lambda_53df21345f772f8c256458071518fd54>@@@Z 0000000180028ff0 f i _nodert_generated.obj
 0001:000282f0       ??$then@V<lambda_54a7e2f7b88eb7f6d6be5c567728a02d>@@@?$task@PE$AAVGattReadResult@GenericAttributeProfile@Bluetooth@Devices@Windows@@@Concurrency@@QEBA?AV?$task@X@1@AEBV<lambda_54a7e2f7b88eb7f6d6be5c567728a02d>@@@Z 00000001800292f0 f i _nodert_generated.obj
 0001:000285f0       ??$then@V<lambda_5fc441d3cd2ac582902bbd0ffecdaa3a>@@@?$task@W4GattCommunicationStatus@GenericAttributeProfile@Bluetooth@Devices@Windows@@@Concurrency@@QEBA?AV?$task@X@1@AEBV<lambda_5fc441d3cd2ac582902bbd0ffecdaa3a>@@@Z 00000001800295f0 f i _nodert_generated.obj
 0001:000288f0       ??$then@V<lambda_6305912324f43f2c7fc8ad41b00c3929>@@@?$task@PE$AAVGattReadResult@GenericAttributeProfile@Bluetooth@Devices@Windows@@@Concurrency@@QEBA?AV?$task@X@1@AEBV<lambda_6305912324f43f2c7fc8ad41b00c3929>@@@Z 00000001800298f0 f i _nodert_generated.obj
 0001:00028bf0       ??$then@V<lambda_646334b367069b2e947a18335ebebc21>@@@?$task@PE$AAVGattReadRequest@GenericAttributeProfile@Bluetooth@Devices@Windows@@@Concurrency@@QEBA?AV?$task@X@1@AEBV<lambda_646334b367069b2e947a18335ebebc21>@@@Z 0000000180029bf0 f i _nodert_generated.obj
 0001:00028ef0       ??$then@V<lambda_69627b7ad0edd63e046b8f9a413f6e8b>@@@?$task@PE$AAVGattWriteRequest@GenericAttributeProfile@Bluetooth@Devices@Windows@@@Concurrency@@QEBA?AV?$task@X@1@AEBV<lambda_69627b7ad0edd63e046b8f9a413f6e8b>@@@Z 0000000180029ef0 f i _nodert_generated.obj
 0001:000291f0       ??$then@V<lambda_6a808a3d8fcd40796c6e8fd4b7ea670a>@@@?$task@PE$AAVGattDeviceService@GenericAttributeProfile@Bluetooth@Devices@Windows@@@Concurrency@@QEBA?AV?$task@X@1@AEBV<lambda_6a808a3d8fcd40796c6e8fd4b7ea670a>@@@Z 000000018002a1f0 f i _nodert_generated.obj
 0001:000294f0       ??$then@V<lambda_729083c70ba0e0c14800e93252398282>@@@?$task@PE$AAVGattReadClientCharacteristicConfigurationDescriptorResult@GenericAttributeProfile@Bluetooth@Devices@Windows@@@Concurrency@@QEBA?AV?$task@X@1@AEBV<lambda_729083c70ba0e0c14800e93252398282>@@@Z 000000018002a4f0 f i _nodert_generated.obj
 0001:000297f0       ??$then@V<lambda_7566cd5a8f77986db487d64268e9e9c2>@@@?$task@PE$AAVGattClientNotificationResult@GenericAttributeProfile@Bluetooth@Devices@Windows@@@Concurrency@@QEBA?AV?$task@X@1@AEBV<lambda_7566cd5a8f77986db487d64268e9e9c2>@@@Z 000000018002a7f0 f i _nodert_generated.obj
 0001:00029af0       ??$then@V<lambda_7ab67c2a4f007f272e3b437d94041f31>@@@?$task@PE$AAVGattDescriptorsResult@GenericAttributeProfile@Bluetooth@Devices@Windows@@@Concurrency@@QEBA?AV?$task@X@1@AEBV<lambda_7ab67c2a4f007f272e3b437d94041f31>@@@Z 000000018002aaf0 f i _nodert_generated.obj
 0001:00029df0       ??$then@V<lambda_8fc6b66fe49f3b82aab4c1f791eccdaa>@@@?$task@PE$AAVGattWriteResult@GenericAttributeProfile@Bluetooth@Devices@Windows@@@Concurrency@@QEBA?AV?$task@X@1@AEBV<lambda_8fc6b66fe49f3b82aab4c1f791eccdaa>@@@Z 000000018002adf0 f i _nodert_generated.obj
 0001:0002a0f0       ??$then@V<lambda_97a211a524e34186dd50e1656005ae13>@@@?$task@W4GattCommunicationStatus@GenericAttributeProfile@Bluetooth@Devices@Windows@@@Concurrency@@QEBA?AV?$task@X@1@AEBV<lambda_97a211a524e34186dd50e1656005ae13>@@@Z 000000018002b0f0 f i _nodert_generated.obj
 0001:0002a3f0       ??$then@V<lambda_af225d964c09e3f1190f087a59031218>@@@?$task@PE$AAVGattDeviceServicesResult@GenericAttributeProfile@Bluetooth@Devices@Windows@@@Concurrency@@QEBA?AV?$task@X@1@AEBV<lambda_af225d964c09e3f1190f087a59031218>@@@Z 000000018002b3f0 f i _nodert_generated.obj
 0001:0002a6f0       ??$then@V<lambda_cf18658416114e89f250a67b892a8036>@@@?$task@PE$AAVGattLocalCharacteristicResult@GenericAttributeProfile@Bluetooth@Devices@Windows@@@Concurrency@@QEBA?AV?$task@X@1@AEBV<lambda_cf18658416114e89f250a67b892a8036>@@@Z 000000018002b6f0 f i _nodert_generated.obj
 0001:0002a9f0       ??$then@V<lambda_cf4b6821273cb47c63c9c28887600b78>@@@?$task@PE$AAVGattSession@GenericAttributeProfile@Bluetooth@Devices@Windows@@@Concurrency@@QEBA?AV?$task@X@1@AEBV<lambda_cf4b6821273cb47c63c9c28887600b78>@@@Z 000000018002b9f0 f i _nodert_generated.obj
 0001:0002acf0       ??$then@V<lambda_d461d97fde1d8ea8b2b9772d5b86034d>@@@?$task@W4GattOpenStatus@GenericAttributeProfile@Bluetooth@Devices@Windows@@@Concurrency@@QEBA?AV?$task@X@1@AEBV<lambda_d461d97fde1d8ea8b2b9772d5b86034d>@@@Z 000000018002bcf0 f i _nodert_generated.obj
 0001:0002aff0       ??$then@V<lambda_e50f2f485fdd3e3f4b4b7287b9a366a3>@@@?$task@PE$AAVGattCharacteristicsResult@GenericAttributeProfile@Bluetooth@Devices@Windows@@@Concurrency@@QEBA?AV?$task@X@1@AEBV<lambda_e50f2f485fdd3e3f4b4b7287b9a366a3>@@@Z 000000018002bff0 f i _nodert_generated.obj
 0001:0002b2f0       ??$then@V<lambda_ec5503f8c540f5d1e118aed7a470b460>@@@?$task@PE$AAVGattLocalDescriptorResult@GenericAttributeProfile@Bluetooth@Devices@Windows@@@Concurrency@@QEBA?AV?$task@X@1@AEBV<lambda_ec5503f8c540f5d1e118aed7a470b460>@@@Z 000000018002c2f0 f i _nodert_generated.obj
 0001:0002b5f0       ??$then@V<lambda_eee8315a52d4188c27d4d001a538384c>@@@?$task@PE$AAVGattCharacteristicsResult@GenericAttributeProfile@Bluetooth@Devices@Windows@@@Concurrency@@QEBA?AV?$task@X@1@AEBV<lambda_eee8315a52d4188c27d4d001a538384c>@@@Z 000000018002c5f0 f i _nodert_generated.obj
 0001:0002b8f0       ??$then@V<lambda_f7fb8d2653aeacb8e075f57e5f187cb0>@@@?$task@PE$AAVGattWriteResult@GenericAttributeProfile@Bluetooth@Devices@Windows@@@Concurrency@@QEBA?AV?$task@X@1@AEBV<lambda_f7fb8d2653aeacb8e075f57e5f187cb0>@@@Z 000000018002c8f0 f i _nodert_generated.obj
 0001:0002bbf0       ??$then@V<lambda_fc95918480ab94216c30f28013ff8e68>@@@?$task@W4GattCommunicationStatus@GenericAttributeProfile@Bluetooth@Devices@Windows@@@Concurrency@@QEBA?AV?$task@X@1@AEBV<lambda_fc95918480ab94216c30f28013ff8e68>@@@Z 000000018002cbf0 f i _nodert_generated.obj
 0001:0002ce90       ??0?$Array@PE$AAVGattPresentationFormat@GenericAttributeProfile@Bluetooth@Devices@Windows@@$00@Platform@@QE$AAA@PEAPE$AAVGattPresentationFormat@GenericAttributeProfile@Bluetooth@Devices@Windows@@I@Z 000000018002de90 f i _nodert_generated.obj
 0001:0002cf80       ??0?$IteratorWrapper@PE$AAVGattCharacteristic@GenericAttributeProfile@Bluetooth@Devices@Windows@@@Collections@NodeRT@@AEAA@PE$AAU?$IIterator@PE$AAVGattCharacteristic@GenericAttributeProfile@Bluetooth@Devices@Windows@@@1Foundation@Windows@@AEBV?$function@$$A6A?AV?$Local@VValue@v8@@@v8@@PE$AAVGattCharacteristic@GenericAttributeProfile@Bluetooth@Devices@Windows@@@Z@std@@@Z 000000018002df80 f i _nodert_generated.obj
 0001:0002d030       ??0?$IteratorWrapper@PE$AAVGattClientNotificationResult@GenericAttributeProfile@Bluetooth@Devices@Windows@@@Collections@NodeRT@@AEAA@PE$AAU?$IIterator@PE$AAVGattClientNotificationResult@GenericAttributeProfile@Bluetooth@Devices@Windows@@@1Foundation@Windows@@AEBV?$function@$$A6A?AV?$Local@VValue@v8@@@v8@@PE$AAVGattClientNotificationResult@GenericAttributeProfile@Bluetooth@Devices@Windows@@@Z@std@@@Z 000000018002e030 f i _nodert_generated.obj
 0001:0002d0e0       ??0?$IteratorWrapper@PE$AAVGattDescriptor@GenericAttributeProfile@Bluetooth@Devices@Windows@@@Collections@NodeRT@@AEAA@PE$AAU?$IIterator@PE$AAVGattDescriptor@GenericAttributeProfile@Bluetooth@Devices@Windows@@@1Foundation@Windows@@AEBV?$function@$$A6A?AV?$Local@VValue@v8@@@v8@@PE$AAVGattDescriptor@GenericAttributeProfile@Bluetooth@Devices@Windows@@@Z@std@@@Z 000000018002e0e0 f i _nodert_generated.obj
 0001:0002d190       ??0?$IteratorWrapper@PE$AAVGattDeviceService@GenericAttributeProfile@Bluetooth@Devices@Windows@@@Collections@NodeRT@@AEAA@PE$AAU?$IIterator@PE$AAVGattDeviceService@GenericAttributeProfile@Bluetooth@Devices@Windows@@@1Foundation@Windows@@AEBV?$function@$$A6A?AV?$Local@VValue@v8@@@v8@@PE$AAVGattDeviceService@GenericAttributeProfile@Bluetooth@Devices@Windows@@@Z@std@@@Z 000000018002e190 f i _nodert_generated.obj
 0001:0002d240       ??0?$IteratorWrapper@PE$AAVGattLocalCharacteristic@GenericAttributeProfile@Bluetooth@Devices@Windows@@@Collections@NodeRT@@AEAA@PE$AAU?$IIterator@PE$AAVGattLocalCharacteristic@GenericAttributeProfile@Bluetooth@Devices@Windows@@@1Foundation@Windows@@AEBV?$function@$$A6A?AV?$Local@VValue@v8@@@v8@@PE$AAVGattLocalCharacteristic@GenericAttributeProfile@Bluetooth@Devices@Windows@@@Z@std@@@Z 000000018002e240 f i _nodert_generated.obj
 0001:0002d2f0       ??0?$IteratorWrapper@PE$AAVGattLocalDescriptor@GenericAttributeProfile@Bluetooth@Devices@Windows@@@Collections@NodeRT@@AEAA@PE$AAU?$IIterator@PE$AAVGattLocalDescriptor@GenericAttributeProfile@Bluetooth@Devices@Windows@@@1Foundation@Windows@@AEBV?$function@$$A6A?AV?$Local@VValue@v8@@@v8@@PE$AAVGattLocalDescriptor@GenericAttributeProfile@Bluetooth@Devices@Windows@@@Z@std@@@Z 000000018002e2f0 f i _nodert_generated.obj
 0001:0002d3a0       ??0?$IteratorWrapper@PE$AAVGattPresentationFormat@GenericAttributeProfile@Bluetooth@Devices@Windows@@@Collections@NodeRT@@AEAA@PE$AAU?$IIterator@PE$AAVGattPresentationFormat@GenericAttributeProfile@Bluetooth@Devices@Windows@@@1Foundation@Windows@@AEBV?$function@$$A6A?AV?$Local@VValue@v8@@@v8@@PE$AAVGattPresentationFormat@GenericAttributeProfile@Bluetooth@Devices@Windows@@@Z@std@@@Z 000000018002e3a0 f i _nodert_generated.obj
 0001:0002d450       ??0?$IteratorWrapper@PE$AAVGattSubscribedClient@GenericAttributeProfile@Bluetooth@Devices@Windows@@@Collections@NodeRT@@AEAA@PE$AAU?$IIterator@PE$AAVGattSubscribedClient@GenericAttributeProfile@Bluetooth@Devices@Windows@@@1Foundation@Windows@@AEBV?$function@$$A6A?AV?$Local@VValue@v8@@@v8@@PE$AAVGattSubscribedClient@GenericAttributeProfile@Bluetooth@Devices@Windows@@@Z@std@@@Z 000000018002e450 f i _nodert_generated.obj
 0001:0002d500       ??0?$Local@VValue@v8@@@v8@@QEAA@XZ 000000018002e500 f i _nodert_generated.obj
 0001:0002d510       ??0?$VectorViewWrapper@PE$AAVGattCharacteristic@GenericAttributeProfile@Bluetooth@Devices@Windows@@@Collections@NodeRT@@AEAA@PE$AAU?$IVectorView@PE$AAVGattCharacteristic@GenericAttributeProfile@Bluetooth@Devices@Windows@@@1Foundation@Windows@@AEBV?$function@$$A6A?AV?$Local@VValue@v8@@@v8@@PE$AAVGattCharacteristic@GenericAttributeProfile@Bluetooth@Devices@Windows@@@Z@std@@AEBV?$function@$$A6A_NV?$Local@VValue@v8@@@v8@@@Z@7@AEBV?$function@$$A6APE$AAVGattCharacteristic@GenericAttributeProfile@Bluetooth@Devices@Windows@@V?$Local@VValue@v8@@@v8@@@Z@7@@Z 000000018002e510 f i _nodert_generated.obj
 0001:0002d620       ??0?$VectorViewWrapper@PE$AAVGattClientNotificationResult@GenericAttributeProfile@Bluetooth@Devices@Windows@@@Collections@NodeRT@@AEAA@PE$AAU?$IVectorView@PE$AAVGattClientNotificationResult@GenericAttributeProfile@Bluetooth@Devices@Windows@@@1Foundation@Windows@@AEBV?$function@$$A6A?AV?$Local@VValue@v8@@@v8@@PE$AAVGattClientNotificationResult@GenericAttributeProfile@Bluetooth@Devices@Windows@@@Z@std@@AEBV?$function@$$A6A_NV?$Local@VValue@v8@@@v8@@@Z@7@AEBV?$function@$$A6APE$AAVGattClientNotificationResult@GenericAttributeProfile@Bluetooth@Devices@Windows@@V?$Local@VValue@v8@@@v8@@@Z@7@@Z 000000018002e620 f i _nodert_generated.obj
 0001:0002d730       ??0?$VectorViewWrapper@PE$AAVGattDescriptor@GenericAttributeProfile@Bluetooth@Devices@Windows@@@Collections@NodeRT@@AEAA@PE$AAU?$IVectorView@PE$AAVGattDescriptor@GenericAttributeProfile@Bluetooth@Devices@Windows@@@1Foundation@Windows@@AEBV?$function@$$A6A?AV?$Local@VValue@v8@@@v8@@PE$AAVGattDescriptor@GenericAttributeProfile@Bluetooth@Devices@Windows@@@Z@std@@AEBV?$function@$$A6A_NV?$Local@VValue@v8@@@v8@@@Z@7@AEBV?$function@$$A6APE$AAVGattDescriptor@GenericAttributeProfile@Bluetooth@Devices@Windows@@V?$Local@VValue@v8@@@v8@@@Z@7@@Z 000000018002e730 f i _nodert_generated.obj
 0001:0002d840       ??0?$VectorViewWrapper@PE$AAVGattDeviceService@GenericAttributeProfile@Bluetooth@Devices@Windows@@@Collections@NodeRT@@AEAA@PE$AAU?$IVectorView@PE$AAVGattDeviceService@GenericAttributeProfile@Bluetooth@Devices@Windows@@@1Foundation@Windows@@AEBV?$function@$$A6A?AV?$Local@VValue@v8@@@v8@@PE$AAVGattDeviceService@GenericAttributeProfile@Bluetooth@Devices@Windows@@@Z@std@@AEBV?$function@$$A6A_NV?$Local@VValue@v8@@@v8@@@Z@7@AEBV?$function@$$A6APE$AAVGattDeviceService@GenericAttributeProfile@Bluetooth@Devices@Windows@@V?$Local@VValue@v8@@@v8@@@Z@7@@Z 000000018002e840 f i _nodert_generated.obj
 0001:0002d950       ??0?$VectorViewWrapper@PE$AAVGattLocalCharacteristic@GenericAttributeProfile@Bluetooth@Devices@Windows@@@Collections@NodeRT@@AEAA@PE$AAU?$IVectorView@PE$AAVGattLocalCharacteristic@GenericAttributeProfile@Bluetooth@Devices@Windows@@@1Foundation@Windows@@AEBV?$function@$$A6A?AV?$Local@VValue@v8@@@v8@@PE$AAVGattLocalCharacteristic@GenericAttributeProfile@Bluetooth@Devices@Windows@@@Z@std@@AEBV?$function@$$A6A_NV?$Local@VValue@v8@@@v8@@@Z@7@AEBV?$function@$$A6APE$AAVGattLocalCharacteristic@GenericAttributeProfile@Bluetooth@Devices@Windows@@V?$Local@VValue@v8@@@v8@@@Z@7@@Z 000000018002e950 f i _nodert_generated.obj
 0001:0002da60       ??0?$VectorViewWrapper@PE$AAVGattLocalDescriptor@GenericAttributeProfile@Bluetooth@Devices@Windows@@@Collections@NodeRT@@AEAA@PE$AAU?$IVectorView@PE$AAVGattLocalDescriptor@GenericAttributeProfile@Bluetooth@Devices@Windows@@@1Foundation@Windows@@AEBV?$function@$$A6A?AV?$Local@VValue@v8@@@v8@@PE$AAVGattLocalDescriptor@GenericAttributeProfile@Bluetooth@Devices@Windows@@@Z@std@@AEBV?$function@$$A6A_NV?$Local@VValue@v8@@@v8@@@Z@7@AEBV?$function@$$A6APE$AAVGattLocalDescriptor@GenericAttributeProfile@Bluetooth@Devices@Windows@@V?$Local@VValue@v8@@@v8@@@Z@7@@Z 000000018002ea60 f i _nodert_generated.obj
 0001:0002db70       ??0?$VectorViewWrapper@PE$AAVGattPresentationFormat@GenericAttributeProfile@Bluetooth@Devices@Windows@@@Collections@NodeRT@@AEAA@PE$AAU?$IVectorView@PE$AAVGattPresentationFormat@GenericAttributeProfile@Bluetooth@Devices@Windows@@@1Foundation@Windows@@AEBV?$function@$$A6A?AV?$Local@VValue@v8@@@v8@@PE$AAVGattPresentationFormat@GenericAttributeProfile@Bluetooth@Devices@Windows@@@Z@std@@AEBV?$function@$$A6A_NV?$Local@VValue@v8@@@v8@@@Z@7@AEBV?$function@$$A6APE$AAVGattPresentationFormat@GenericAttributeProfile@Bluetooth@Devices@Windows@@V?$Local@VValue@v8@@@v8@@@Z@7@@Z 000000018002eb70 f i _nodert_generated.obj
 0001:0002dc80       ??0?$VectorViewWrapper@PE$AAVGattSubscribedClient@GenericAttributeProfile@Bluetooth@Devices@Windows@@@Collections@NodeRT@@AEAA@PE$AAU?$IVectorView@PE$AAVGattSubscribedClient@GenericAttributeProfile@Bluetooth@Devices@Windows@@@1Foundation@Windows@@AEBV?$function@$$A6A?AV?$Local@VValue@v8@@@v8@@PE$AAVGattSubscribedClient@GenericAttributeProfile@Bluetooth@Devices@Windows@@@Z@std@@AEBV?$function@$$A6A_NV?$Local@VValue@v8@@@v8@@@Z@7@AEBV?$function@$$A6APE$AAVGattSubscribedClient@GenericAttributeProfile@Bluetooth@Devices@Windows@@V?$Local@VValue@v8@@@v8@@@Z@7@@Z 000000018002ec80 f i _nodert_generated.obj
 0001:0002dd90       ??0?$VectorWrapper@PE$AAVGattPresentationFormat@GenericAttributeProfile@Bluetooth@Devices@Windows@@@Collections@NodeRT@@AEAA@PE$AAU?$IVector@PE$AAVGattPresentationFormat@GenericAttributeProfile@Bluetooth@Devices@Windows@@@1Foundation@Windows@@AEBV?$function@$$A6A?AV?$Local@VValue@v8@@@v8@@PE$AAVGattPresentationFormat@GenericAttributeProfile@Bluetooth@Devices@Windows@@@Z@std@@AEBV?$function@$$A6A_NV?$Local@VValue@v8@@@v8@@@Z@7@AEBV?$function@$$A6APE$AAVGattPresentationFormat@GenericAttributeProfile@Bluetooth@Devices@Windows@@V?$Local@VValue@v8@@@v8@@@Z@7@@Z 000000018002ed90 f i _nodert_generated.obj
 0001:0002dea0       ??0?$WriteOnlyArray@PE$AAVGattPresentationFormat@GenericAttributeProfile@Bluetooth@Devices@Windows@@$00@Platform@@IE$AAA@PEAPE$AAVGattPresentationFormat@GenericAttributeProfile@Bluetooth@Devices@Windows@@I@Z 000000018002eea0 f i _nodert_generated.obj
 0001:0002df90       ??0?$_CancellationTokenCallback@V<lambda_be3e5d9dce35d2c8dbfa8485373731d5>@@@details@Concurrency@@QEAA@AEBV<lambda_be3e5d9dce35d2c8dbfa8485373731d5>@@@Z 000000018002ef90 f i _nodert_generated.obj
 0001:0002e090       ??0?$_ContinuationTaskHandle@PE$AAU?$IVectorView@PE$AAVGattClientNotificationResult@GenericAttributeProfile@Bluetooth@Devices@Windows@@@Collections@Foundation@Windows@@XV?$function@$$A6AXV?$task@PE$AAU?$IVectorView@PE$AAVGattClientNotificationResult@GenericAttributeProfile@Bluetooth@Devices@Windows@@@Collections@Foundation@Windows@@@Concurrency@@@Z@std@@U?$integral_constant@_N$00@6@U_TypeSelectorNoAsync@details@Concurrency@@@?$task@PE$AAU?$IVectorView@PE$AAVGattClientNotificationResult@GenericAttributeProfile@Bluetooth@Devices@Windows@@@Collections@Foundation@Windows@@@Concurrency@@QEAA@AEBV?$shared_ptr@U?$_Task_impl@PE$AAU?$IVectorView@PE$AAVGattClientNotificationResult@GenericAttributeProfile@Bluetooth@Devices@Windows@@@Collections@Foundation@Windows@@@details@Concurrency@@@std@@AEBV?$shared_ptr@U?$_Task_impl@E@details@Concurrency@@@4@AEBV?$function@$$A6AXV?$task@PE$AAU?$IVectorView@PE$AAVGattClientNotificationResult@GenericAttributeProfile@Bluetooth@Devices@Windows@@@Collections@Foundation@Windows@@@Concurrency@@@Z@4@AEBVtask_continuation_context@2@W4_TaskInliningMode@details@2@@Z 000000018002f090 f i _nodert_generated.obj
 0001:0002e1d0       ??0?$_ContinuationTaskHandle@PE$AAVGattCharacteristicsResult@GenericAttributeProfile@Bluetooth@Devices@Windows@@XV?$function@$$A6AXV?$task@PE$AAVGattCharacteristicsResult@GenericAttributeProfile@Bluetooth@Devices@Windows@@@Concurrency@@@Z@std@@U?$integral_constant@_N$00@7@U_TypeSelectorNoAsync@details@Concurrency@@@?$task@PE$AAVGattCharacteristicsResult@GenericAttributeProfile@Bluetooth@Devices@Windows@@@Concurrency@@QEAA@AEBV?$shared_ptr@U?$_Task_impl@PE$AAVGattCharacteristicsResult@GenericAttributeProfile@Bluetooth@Devices@Windows@@@details@Concurrency@@@std@@AEBV?$shared_ptr@U?$_Task_impl@E@details@Concurrency@@@4@AEBV?$function@$$A6AXV?$task@PE$AAVGattCharacteristicsResult@GenericAttributeProfile@Bluetooth@Devices@Windows@@@Concurrency@@@Z@4@AEBVtask_continuation_context@2@W4_TaskInliningMode@details@2@@Z 000000018002f1d0 f i _nodert_generated.obj
 0001:0002e310       ??0?$_ContinuationTaskHandle@PE$AAVGattClientNotificationResult@GenericAttributeProfile@Bluetooth@Devices@Windows@@XV?$function@$$A6AXV?$task@PE$AAVGattClientNotificationResult@GenericAttributeProfile@Bluetooth@Devices@Windows@@@Concurrency@@@Z@std@@U?$integral_constant@_N$00@7@U_TypeSelectorNoAsync@details@Concurrency@@@?$task@PE$AAVGattClientNotificationResult@GenericAttributeProfile@Bluetooth@Devices@Windows@@@Concurrency@@QEAA@AEBV?$shared_ptr@U?$_Task_impl@PE$AAVGattClientNotificationResult@GenericAttributeProfile@Bluetooth@Devices@Windows@@@details@Concurrency@@@std@@AEBV?$shared_ptr@U?$_Task_impl@E@details@Concurrency@@@4@AEBV?$function@$$A6AXV?$task@PE$AAVGattClientNotificationResult@GenericAttributeProfile@Bluetooth@Devices@Windows@@@Concurrency@@@Z@4@AEBVtask_continuation_context@2@W4_TaskInliningMode@details@2@@Z 000000018002f310 f i _nodert_generated.obj
 0001:0002e450       ??0?$_ContinuationTaskHandle@PE$AAVGattDescriptorsResult@GenericAttributeProfile@Bluetooth@Devices@Windows@@XV?$function@$$A6AXV?$task@PE$AAVGattDescriptorsResult@GenericAttributeProfile@Bluetooth@Devices@Windows@@@Concurrency@@@Z@std@@U?$integral_constant@_N$00@7@U_TypeSelectorNoAsync@details@Concurrency@@@?$task@PE$AAVGattDescriptorsResult@GenericAttributeProfile@Bluetooth@Devices@Windows@@@Concurrency@@QEAA@AEBV?$shared_ptr@U?$_Task_impl@PE$AAVGattDescriptorsResult@GenericAttributeProfile@Bluetooth@Devices@Windows@@@details@Concurrency@@@std@@AEBV?$shared_ptr@U?$_Task_impl@E@details@Concurrency@@@4@AEBV?$function@$$A6AXV?$task@PE$AAVGattDescriptorsResult@GenericAttributeProfile@Bluetooth@Devices@Windows@@@Concurrency@@@Z@4@AEBVtask_continuation_context@2@W4_TaskInliningMode@details@2@@Z 000000018002f450 f i _nodert_generated.obj
 0001:0002e590       ??0?$_ContinuationTaskHandle@PE$AAVGattDeviceService@GenericAttributeProfile@Bluetooth@Devices@Windows@@XV?$function@$$A6AXV?$task@PE$AAVGattDeviceService@GenericAttributeProfile@Bluetooth@Devices@Windows@@@Concurrency@@@Z@std@@U?$integral_constant@_N$00@7@U_TypeSelectorNoAsync@details@Concurrency@@@?$task@PE$AAVGattDeviceService@GenericAttributeProfile@Bluetooth@Devices@Windows@@@Concurrency@@QEAA@AEBV?$shared_ptr@U?$_Task_impl@PE$AAVGattDeviceService@GenericAttributeProfile@Bluetooth@Devices@Windows@@@details@Concurrency@@@std@@AEBV?$shared_ptr@U?$_Task_impl@E@details@Concurrency@@@4@AEBV?$function@$$A6AXV?$task@PE$AAVGattDeviceService@GenericAttributeProfile@Bluetooth@Devices@Windows@@@Concurrency@@@Z@4@AEBVtask_continuation_context@2@W4_TaskInliningMode@details@2@@Z 000000018002f590 f i _nodert_generated.obj
 0001:0002e6d0       ??0?$_ContinuationTaskHandle@PE$AAVGattDeviceServicesResult@GenericAttributeProfile@Bluetooth@Devices@Windows@@XV?$function@$$A6AXV?$task@PE$AAVGattDeviceServicesResult@GenericAttributeProfile@Bluetooth@Devices@Windows@@@Concurrency@@@Z@std@@U?$integral_constant@_N$00@7@U_TypeSelectorNoAsync@details@Concurrency@@@?$task@PE$AAVGattDeviceServicesResult@GenericAttributeProfile@Bluetooth@Devices@Windows@@@Concurrency@@QEAA@AEBV?$shared_ptr@U?$_Task_impl@PE$AAVGattDeviceServicesResult@GenericAttributeProfile@Bluetooth@Devices@Windows@@@details@Concurrency@@@std@@AEBV?$shared_ptr@U?$_Task_impl@E@details@Concurrency@@@4@AEBV?$function@$$A6AXV?$task@PE$AAVGattDeviceServicesResult@GenericAttributeProfile@Bluetooth@Devices@Windows@@@Concurrency@@@Z@4@AEBVtask_continuation_context@2@W4_TaskInliningMode@details@2@@Z 000000018002f6d0 f i _nodert_generated.obj
 0001:0002e810       ??0?$_ContinuationTaskHandle@PE$AAVGattLocalCharacteristicResult@GenericAttributeProfile@Bluetooth@Devices@Windows@@XV?$function@$$A6AXV?$task@PE$AAVGattLocalCharacteristicResult@GenericAttributeProfile@Bluetooth@Devices@Windows@@@Concurrency@@@Z@std@@U?$integral_constant@_N$00@7@U_TypeSelectorNoAsync@details@Concurrency@@@?$task@PE$AAVGattLocalCharacteristicResult@GenericAttributeProfile@Bluetooth@Devices@Windows@@@Concurrency@@QEAA@AEBV?$shared_ptr@U?$_Task_impl@PE$AAVGattLocalCharacteristicResult@GenericAttributeProfile@Bluetooth@Devices@Windows@@@details@Concurrency@@@std@@AEBV?$shared_ptr@U?$_Task_impl@E@details@Concurrency@@@4@AEBV?$function@$$A6AXV?$task@PE$AAVGattLocalCharacteristicResult@GenericAttributeProfile@Bluetooth@Devices@Windows@@@Concurrency@@@Z@4@AEBVtask_continuation_context@2@W4_TaskInliningMode@details@2@@Z 000000018002f810 f i _nodert_generated.obj
 0001:0002e950       ??0?$_ContinuationTaskHandle@PE$AAVGattLocalDescriptorResult@GenericAttributeProfile@Bluetooth@Devices@Windows@@XV?$function@$$A6AXV?$task@PE$AAVGattLocalDescriptorResult@GenericAttributeProfile@Bluetooth@Devices@Windows@@@Concurrency@@@Z@std@@U?$integral_constant@_N$00@7@U_TypeSelectorNoAsync@details@Concurrency@@@?$task@PE$AAVGattLocalDescriptorResult@GenericAttributeProfile@Bluetooth@Devices@Windows@@@Concurrency@@QEAA@AEBV?$shared_ptr@U?$_Task_impl@PE$AAVGattLocalDescriptorResult@GenericAttributeProfile@Bluetooth@Devices@Windows@@@details@Concurrency@@@std@@AEBV?$shared_ptr@U?$_Task_impl@E@details@Concurrency@@@4@AEBV?$function@$$A6AXV?$task@PE$AAVGattLocalDescriptorResult@GenericAttributeProfile@Bluetooth@Devices@Windows@@@Concurrency@@@Z@4@AEBVtask_continuation_context@2@W4_TaskInliningMode@details@2@@Z 000000018002f950 f i _nodert_generated.obj
 0001:0002ea90       ??0?$_ContinuationTaskHandle@PE$AAVGattReadClientCharacteristicConfigurationDescriptorResult@GenericAttributeProfile@Bluetooth@Devices@Windows@@XV?$function@$$A6AXV?$task@PE$AAVGattReadClientCharacteristicConfigurationDescriptorResult@GenericAttributeProfile@Bluetooth@Devices@Windows@@@Concurrency@@@Z@std@@U?$integral_constant@_N$00@7@U_TypeSelectorNoAsync@details@Concurrency@@@?$task@PE$AAVGattReadClientCharacteristicConfigurationDescriptorResult@GenericAttributeProfile@Bluetooth@Devices@Windows@@@Concurrency@@QEAA@AEBV?$shared_ptr@U?$_Task_impl@PE$AAVGattReadClientCharacteristicConfigurationDescriptorResult@GenericAttributeProfile@Bluetooth@Devices@Windows@@@details@Concurrency@@@std@@AEBV?$shared_ptr@U?$_Task_impl@E@details@Concurrency@@@4@AEBV?$function@$$A6AXV?$task@PE$AAVGattReadClientCharacteristicConfigurationDescriptorResult@GenericAttributeProfile@Bluetooth@Devices@Windows@@@Concurrency@@@Z@4@AEBVtask_continuation_context@2@W4_TaskInliningMode@details@2@@Z 000000018002fa90 f i _nodert_generated.obj
 0001:0002ebd0       ??0?$_ContinuationTaskHandle@PE$AAVGattReadRequest@GenericAttributeProfile@Bluetooth@Devices@Windows@@XV?$function@$$A6AXV?$task@PE$AAVGattReadRequest@GenericAttributeProfile@Bluetooth@Devices@Windows@@@Concurrency@@@Z@std@@U?$integral_constant@_N$00@7@U_TypeSelectorNoAsync@details@Concurrency@@@?$task@PE$AAVGattReadRequest@GenericAttributeProfile@Bluetooth@Devices@Windows@@@Concurrency@@QEAA@AEBV?$shared_ptr@U?$_Task_impl@PE$AAVGattReadRequest@GenericAttributeProfile@Bluetooth@Devices@Windows@@@details@Concurrency@@@std@@AEBV?$shared_ptr@U?$_Task_impl@E@details@Concurrency@@@4@AEBV?$function@$$A6AXV?$task@PE$AAVGattReadRequest@GenericAttributeProfile@Bluetooth@Devices@Windows@@@Concurrency@@@Z@4@AEBVtask_continuation_context@2@W4_TaskInliningMode@details@2@@Z 000000018002fbd0 f i _nodert_generated.obj
 0001:0002ed10       ??0?$_ContinuationTaskHandle@PE$AAVGattReadResult@GenericAttributeProfile@Bluetooth@Devices@Windows@@XV?$function@$$A6AXV?$task@PE$AAVGattReadResult@GenericAttributeProfile@Bluetooth@Devices@Windows@@@Concurrency@@@Z@std@@U?$integral_constant@_N$00@7@U_TypeSelectorNoAsync@details@Concurrency@@@?$task@PE$AAVGattReadResult@GenericAttributeProfile@Bluetooth@Devices@Windows@@@Concurrency@@QEAA@AEBV?$shared_ptr@U?$_Task_impl@PE$AAVGattReadResult@GenericAttributeProfile@Bluetooth@Devices@Windows@@@details@Concurrency@@@std@@AEBV?$shared_ptr@U?$_Task_impl@E@details@Concurrency@@@4@AEBV?$function@$$A6AXV?$task@PE$AAVGattReadResult@GenericAttributeProfile@Bluetooth@Devices@Windows@@@Concurrency@@@Z@4@AEBVtask_continuation_context@2@W4_TaskInliningMode@details@2@@Z 000000018002fd10 f i _nodert_generated.obj
 0001:0002ee50       ??0?$_ContinuationTaskHandle@PE$AAVGattServiceProviderResult@GenericAttributeProfile@Bluetooth@Devices@Windows@@XV?$function@$$A6AXV?$task@PE$AAVGattServiceProviderResult@GenericAttributeProfile@Bluetooth@Devices@Windows@@@Concurrency@@@Z@std@@U?$integral_constant@_N$00@7@U_TypeSelectorNoAsync@details@Concurrency@@@?$task@PE$AAVGattServiceProviderResult@GenericAttributeProfile@Bluetooth@Devices@Windows@@@Concurrency@@QEAA@AEBV?$shared_ptr@U?$_Task_impl@PE$AAVGattServiceProviderResult@GenericAttributeProfile@Bluetooth@Devices@Windows@@@details@Concurrency@@@std@@AEBV?$shared_ptr@U?$_Task_impl@E@details@Concurrency@@@4@AEBV?$function@$$A6AXV?$task@PE$AAVGattServiceProviderResult@GenericAttributeProfile@Bluetooth@Devices@Windows@@@Concurrency@@@Z@4@AEBVtask_continuation_context@2@W4_TaskInliningMode@details@2@@Z 000000018002fe50 f i _nodert_generated.obj
 0001:0002ef90       ??0?$_ContinuationTaskHandle@PE$AAVGattSession@GenericAttributeProfile@Bluetooth@Devices@Windows@@XV?$function@$$A6AXV?$task@PE$AAVGattSession@GenericAttributeProfile@Bluetooth@Devices@Windows@@@Concurrency@@@Z@std@@U?$integral_constant@_N$00@7@U_TypeSelectorNoAsync@details@Concurrency@@@?$task@PE$AAVGattSession@GenericAttributeProfile@Bluetooth@Devices@Windows@@@Concurrency@@QEAA@AEBV?$shared_ptr@U?$_Task_impl@PE$AAVGattSession@GenericAttributeProfile@Bluetooth@Devices@Windows@@@details@Concurrency@@@std@@AEBV?$shared_ptr@U?$_Task_impl@E@details@Concurrency@@@4@AEBV?$function@$$A6AXV?$task@PE$AAVGattSession@GenericAttributeProfile@Bluetooth@Devices@Windows@@@Concurrency@@@Z@4@AEBVtask_continuation_context@2@W4_TaskInliningMode@details@2@@Z 000000018002ff90 f i _nodert_generated.obj
 0001:0002f0d0       ??0?$_ContinuationTaskHandle@PE$AAVGattWriteRequest@GenericAttributeProfile@Bluetooth@Devices@Windows@@XV?$function@$$A6AXV?$task@PE$AAVGattWriteRequest@GenericAttributeProfile@Bluetooth@Devices@Windows@@@Concurrency@@@Z@std@@U?$integral_constant@_N$00@7@U_TypeSelectorNoAsync@details@Concurrency@@@?$task@PE$AAVGattWriteRequest@GenericAttributeProfile@Bluetooth@Devices@Windows@@@Concurrency@@QEAA@AEBV?$shared_ptr@U?$_Task_impl@PE$AAVGattWriteRequest@GenericAttributeProfile@Bluetooth@Devices@Windows@@@details@Concurrency@@@std@@AEBV?$shared_ptr@U?$_Task_impl@E@details@Concurrency@@@4@AEBV?$function@$$A6AXV?$task@PE$AAVGattWriteRequest@GenericAttributeProfile@Bluetooth@Devices@Windows@@@Concurrency@@@Z@4@AEBVtask_continuation_context@2@W4_TaskInliningMode@details@2@@Z 00000001800300d0 f i _nodert_generated.obj
 0001:0002f210       ??0?$_ContinuationTaskHandle@PE$AAVGattWriteResult@GenericAttributeProfile@Bluetooth@Devices@Windows@@XV?$function@$$A6AXV?$task@PE$AAVGattWriteResult@GenericAttributeProfile@Bluetooth@Devices@Windows@@@Concurrency@@@Z@std@@U?$integral_constant@_N$00@7@U_TypeSelectorNoAsync@details@Concurrency@@@?$task@PE$AAVGattWriteResult@GenericAttributeProfile@Bluetooth@Devices@Windows@@@Concurrency@@QEAA@AEBV?$shared_ptr@U?$_Task_impl@PE$AAVGattWriteResult@GenericAttributeProfile@Bluetooth@Devices@Windows@@@details@Concurrency@@@std@@AEBV?$shared_ptr@U?$_Task_impl@E@details@Concurrency@@@4@AEBV?$function@$$A6AXV?$task@PE$AAVGattWriteResult@GenericAttributeProfile@Bluetooth@Devices@Windows@@@Concurrency@@@Z@4@AEBVtask_continuation_context@2@W4_TaskInliningMode@details@2@@Z 0000000180030210 f i _nodert_generated.obj
 0001:0002f350       ??0?$_ContinuationTaskHandle@W4DeviceAccessStatus@Enumeration@Devices@Windows@@XV?$function@$$A6AXV?$task@W4DeviceAccessStatus@Enumeration@Devices@Windows@@@Concurrency@@@Z@std@@U?$integral_constant@_N$00@6@U_TypeSelectorNoAsync@details@Concurrency@@@?$task@W4DeviceAccessStatus@Enumeration@Devices@Windows@@@Concurrency@@QEAA@AEBV?$shared_ptr@U?$_Task_impl@W4DeviceAccessStatus@Enumeration@Devices@Windows@@@details@Concurrency@@@std@@AEBV?$shared_ptr@U?$_Task_impl@E@details@Concurrency@@@4@AEBV?$function@$$A6AXV?$task@W4DeviceAccessStatus@Enumeration@Devices@Windows@@@Concurrency@@@Z@4@AEBVtask_continuation_context@2@W4_TaskInliningMode@details@2@@Z 0000000180030350 f i _nodert_generated.obj
 0001:0002f490       ??0?$_ContinuationTaskHandle@W4GattCommunicationStatus@GenericAttributeProfile@Bluetooth@Devices@Windows@@XV?$function@$$A6AXV?$task@W4GattCommunicationStatus@GenericAttributeProfile@Bluetooth@Devices@Windows@@@Concurrency@@@Z@std@@U?$integral_constant@_N$00@7@U_TypeSelectorNoAsync@details@Concurrency@@@?$task@W4GattCommunicationStatus@GenericAttributeProfile@Bluetooth@Devices@Windows@@@Concurrency@@QEAA@AEBV?$shared_ptr@U?$_Task_impl@W4GattCommunicationStatus@GenericAttributeProfile@Bluetooth@Devices@Windows@@@details@Concurrency@@@std@@AEBV?$shared_ptr@U?$_Task_impl@E@details@Concurrency@@@4@AEBV?$function@$$A6AXV?$task@W4GattCommunicationStatus@GenericAttributeProfile@Bluetooth@Devices@Windows@@@Concurrency@@@Z@4@AEBVtask_continuation_context@2@W4_TaskInliningMode@details@2@@Z 0000000180030490 f i _nodert_generated.obj
 0001:0002f5d0       ??0?$_ContinuationTaskHandle@W4GattOpenStatus@GenericAttributeProfile@Bluetooth@Devices@Windows@@XV?$function@$$A6AXV?$task@W4GattOpenStatus@GenericAttributeProfile@Bluetooth@Devices@Windows@@@Concurrency@@@Z@std@@U?$integral_constant@_N$00@7@U_TypeSelectorNoAsync@details@Concurrency@@@?$task@W4GattOpenStatus@GenericAttributeProfile@Bluetooth@Devices@Windows@@@Concurrency@@QEAA@AEBV?$shared_ptr@U?$_Task_impl@W4GattOpenStatus@GenericAttributeProfile@Bluetooth@Devices@Windows@@@details@Concurrency@@@std@@AEBV?$shared_ptr@U?$_Task_impl@E@details@Concurrency@@@4@AEBV?$function@$$A6AXV?$task@W4GattOpenStatus@GenericAttributeProfile@Bluetooth@Devices@Windows@@@Concurrency@@@Z@4@AEBVtask_continuation_context@2@W4_TaskInliningMode@details@2@@Z 00000001800305d0 f i _nodert_generated.obj
 0001:0002f710       ??0?$_PPLTaskHandle@EU?$_ContinuationTaskHandle@PE$AAU?$IVectorView@PE$AAVGattClientNotificationResult@GenericAttributeProfile@Bluetooth@Devices@Windows@@@Collections@Foundation@Windows@@XV?$function@$$A6AXV?$task@PE$AAU?$IVectorView@PE$AAVGattClientNotificationResult@GenericAttributeProfile@Bluetooth@Devices@Windows@@@Collections@Foundation@Windows@@@Concurrency@@@Z@std@@U?$integral_constant@_N$00@6@U_TypeSelectorNoAsync@details@Concurrency@@@?$task@PE$AAU?$IVectorView@PE$AAVGattClientNotificationResult@GenericAttributeProfile@Bluetooth@Devices@Windows@@@Collections@Foundation@Windows@@@Concurrency@@U_ContinuationTaskHandleBase@details@3@@details@Concurrency@@QEAA@AEBV?$shared_ptr@U?$_Task_impl@E@details@Concurrency@@@std@@@Z 0000000180030710 f i _nodert_generated.obj
 0001:0002f7c0       ??0?$_PPLTaskHandle@EU?$_ContinuationTaskHandle@PE$AAVGattCharacteristicsResult@GenericAttributeProfile@Bluetooth@Devices@Windows@@XV?$function@$$A6AXV?$task@PE$AAVGattCharacteristicsResult@GenericAttributeProfile@Bluetooth@Devices@Windows@@@Concurrency@@@Z@std@@U?$integral_constant@_N$00@7@U_TypeSelectorNoAsync@details@Concurrency@@@?$task@PE$AAVGattCharacteristicsResult@GenericAttributeProfile@Bluetooth@Devices@Windows@@@Concurrency@@U_ContinuationTaskHandleBase@details@3@@details@Concurrency@@QEAA@AEBV?$shared_ptr@U?$_Task_impl@E@details@Concurrency@@@std@@@Z 00000001800307c0 f i _nodert_generated.obj
 0001:0002f870       ??0?$_PPLTaskHandle@EU?$_ContinuationTaskHandle@PE$AAVGattClientNotificationResult@GenericAttributeProfile@Bluetooth@Devices@Windows@@XV?$function@$$A6AXV?$task@PE$AAVGattClientNotificationResult@GenericAttributeProfile@Bluetooth@Devices@Windows@@@Concurrency@@@Z@std@@U?$integral_constant@_N$00@7@U_TypeSelectorNoAsync@details@Concurrency@@@?$task@PE$AAVGattClientNotificationResult@GenericAttributeProfile@Bluetooth@Devices@Windows@@@Concurrency@@U_ContinuationTaskHandleBase@details@3@@details@Concurrency@@QEAA@AEBV?$shared_ptr@U?$_Task_impl@E@details@Concurrency@@@std@@@Z 0000000180030870 f i _nodert_generated.obj
 0001:0002f920       ??0?$_PPLTaskHandle@EU?$_ContinuationTaskHandle@PE$AAVGattDescriptorsResult@GenericAttributeProfile@Bluetooth@Devices@Windows@@XV?$function@$$A6AXV?$task@PE$AAVGattDescriptorsResult@GenericAttributeProfile@Bluetooth@Devices@Windows@@@Concurrency@@@Z@std@@U?$integral_constant@_N$00@7@U_TypeSelectorNoAsync@details@Concurrency@@@?$task@PE$AAVGattDescriptorsResult@GenericAttributeProfile@Bluetooth@Devices@Windows@@@Concurrency@@U_ContinuationTaskHandleBase@details@3@@details@Concurrency@@QEAA@AEBV?$shared_ptr@U?$_Task_impl@E@details@Concurrency@@@std@@@Z 0000000180030920 f i _nodert_generated.obj
 0001:0002f9d0       ??0?$_PPLTaskHandle@EU?$_ContinuationTaskHandle@PE$AAVGattDeviceService@GenericAttributeProfile@Bluetooth@Devices@Windows@@XV?$function@$$A6AXV?$task@PE$AAVGattDeviceService@GenericAttributeProfile@Bluetooth@Devices@Windows@@@Concurrency@@@Z@std@@U?$integral_constant@_N$00@7@U_TypeSelectorNoAsync@details@Concurrency@@@?$task@PE$AAVGattDeviceService@GenericAttributeProfile@Bluetooth@Devices@Windows@@@Concurrency@@U_ContinuationTaskHandleBase@details@3@@details@Concurrency@@QEAA@AEBV?$shared_ptr@U?$_Task_impl@E@details@Concurrency@@@std@@@Z 00000001800309d0 f i _nodert_generated.obj
 0001:0002fa80       ??0?$_PPLTaskHandle@EU?$_ContinuationTaskHandle@PE$AAVGattDeviceServicesResult@GenericAttributeProfile@Bluetooth@Devices@Windows@@XV?$function@$$A6AXV?$task@PE$AAVGattDeviceServicesResult@GenericAttributeProfile@Bluetooth@Devices@Windows@@@Concurrency@@@Z@std@@U?$integral_constant@_N$00@7@U_TypeSelectorNoAsync@details@Concurrency@@@?$task@PE$AAVGattDeviceServicesResult@GenericAttributeProfile@Bluetooth@Devices@Windows@@@Concurrency@@U_ContinuationTaskHandleBase@details@3@@details@Concurrency@@QEAA@AEBV?$shared_ptr@U?$_Task_impl@E@details@Concurrency@@@std@@@Z 0000000180030a80 f i _nodert_generated.obj
 0001:0002fb30       ??0?$_PPLTaskHandle@EU?$_ContinuationTaskHandle@PE$AAVGattLocalCharacteristicResult@GenericAttributeProfile@Bluetooth@Devices@Windows@@XV?$function@$$A6AXV?$task@PE$AAVGattLocalCharacteristicResult@GenericAttributeProfile@Bluetooth@Devices@Windows@@@Concurrency@@@Z@std@@U?$integral_constant@_N$00@7@U_TypeSelectorNoAsync@details@Concurrency@@@?$task@PE$AAVGattLocalCharacteristicResult@GenericAttributeProfile@Bluetooth@Devices@Windows@@@Concurrency@@U_ContinuationTaskHandleBase@details@3@@details@Concurrency@@QEAA@AEBV?$shared_ptr@U?$_Task_impl@E@details@Concurrency@@@std@@@Z 0000000180030b30 f i _nodert_generated.obj
 0001:0002fbe0       ??0?$_PPLTaskHandle@EU?$_ContinuationTaskHandle@PE$AAVGattLocalDescriptorResult@GenericAttributeProfile@Bluetooth@Devices@Windows@@XV?$function@$$A6AXV?$task@PE$AAVGattLocalDescriptorResult@GenericAttributeProfile@Bluetooth@Devices@Windows@@@Concurrency@@@Z@std@@U?$integral_constant@_N$00@7@U_TypeSelectorNoAsync@details@Concurrency@@@?$task@PE$AAVGattLocalDescriptorResult@GenericAttributeProfile@Bluetooth@Devices@Windows@@@Concurrency@@U_ContinuationTaskHandleBase@details@3@@details@Concurrency@@QEAA@AEBV?$shared_ptr@U?$_Task_impl@E@details@Concurrency@@@std@@@Z 0000000180030be0 f i _nodert_generated.obj
 0001:0002fc90       ??0?$_PPLTaskHandle@EU?$_ContinuationTaskHandle@PE$AAVGattReadClientCharacteristicConfigurationDescriptorResult@GenericAttributeProfile@Bluetooth@Devices@Windows@@XV?$function@$$A6AXV?$task@PE$AAVGattReadClientCharacteristicConfigurationDescriptorResult@GenericAttributeProfile@Bluetooth@Devices@Windows@@@Concurrency@@@Z@std@@U?$integral_constant@_N$00@7@U_TypeSelectorNoAsync@details@Concurrency@@@?$task@PE$AAVGattReadClientCharacteristicConfigurationDescriptorResult@GenericAttributeProfile@Bluetooth@Devices@Windows@@@Concurrency@@U_ContinuationTaskHandleBase@details@3@@details@Concurrency@@QEAA@AEBV?$shared_ptr@U?$_Task_impl@E@details@Concurrency@@@std@@@Z 0000000180030c90 f i _nodert_generated.obj
 0001:0002fd40       ??0?$_PPLTaskHandle@EU?$_ContinuationTaskHandle@PE$AAVGattReadRequest@GenericAttributeProfile@Bluetooth@Devices@Windows@@XV?$function@$$A6AXV?$task@PE$AAVGattReadRequest@GenericAttributeProfile@Bluetooth@Devices@Windows@@@Concurrency@@@Z@std@@U?$integral_constant@_N$00@7@U_TypeSelectorNoAsync@details@Concurrency@@@?$task@PE$AAVGattReadRequest@GenericAttributeProfile@Bluetooth@Devices@Windows@@@Concurrency@@U_ContinuationTaskHandleBase@details@3@@details@Concurrency@@QEAA@AEBV?$shared_ptr@U?$_Task_impl@E@details@Concurrency@@@std@@@Z 0000000180030d40 f i _nodert_generated.obj
 0001:0002fdf0       ??0?$_PPLTaskHandle@EU?$_ContinuationTaskHandle@PE$AAVGattReadResult@GenericAttributeProfile@Bluetooth@Devices@Windows@@XV?$function@$$A6AXV?$task@PE$AAVGattReadResult@GenericAttributeProfile@Bluetooth@Devices@Windows@@@Concurrency@@@Z@std@@U?$integral_constant@_N$00@7@U_TypeSelectorNoAsync@details@Concurrency@@@?$task@PE$AAVGattReadResult@GenericAttributeProfile@Bluetooth@Devices@Windows@@@Concurrency@@U_ContinuationTaskHandleBase@details@3@@details@Concurrency@@QEAA@AEBV?$shared_ptr@U?$_Task_impl@E@details@Concurrency@@@std@@@Z 0000000180030df0 f i _nodert_generated.obj
 0001:0002fea0       ??0?$_PPLTaskHandle@EU?$_ContinuationTaskHandle@PE$AAVGattServiceProviderResult@GenericAttributeProfile@Bluetooth@Devices@Windows@@XV?$function@$$A6AXV?$task@PE$AAVGattServiceProviderResult@GenericAttributeProfile@Bluetooth@Devices@Windows@@@Concurrency@@@Z@std@@U?$integral_constant@_N$00@7@U_TypeSelectorNoAsync@details@Concurrency@@@?$task@PE$AAVGattServiceProviderResult@GenericAttributeProfile@Bluetooth@Devices@Windows@@@Concurrency@@U_ContinuationTaskHandleBase@details@3@@details@Concurrency@@QEAA@AEBV?$shared_ptr@U?$_Task_impl@E@details@Concurrency@@@std@@@Z 0000000180030ea0 f i _nodert_generated.obj
 0001:0002ff50       ??0?$_PPLTaskHandle@EU?$_ContinuationTaskHandle@PE$AAVGattSession@GenericAttributeProfile@Bluetooth@Devices@Windows@@XV?$function@$$A6AXV?$task@PE$AAVGattSession@GenericAttributeProfile@Bluetooth@Devices@Windows@@@Concurrency@@@Z@std@@U?$integral_constant@_N$00@7@U_TypeSelectorNoAsync@details@Concurrency@@@?$task@PE$AAVGattSession@GenericAttributeProfile@Bluetooth@Devices@Windows@@@Concurrency@@U_ContinuationTaskHandleBase@details@3@@details@Concurrency@@QEAA@AEBV?$shared_ptr@U?$_Task_impl@E@details@Concurrency@@@std@@@Z 0000000180030f50 f i _nodert_generated.obj
 0001:00030000       ??0?$_PPLTaskHandle@EU?$_ContinuationTaskHandle@PE$AAVGattWriteRequest@GenericAttributeProfile@Bluetooth@Devices@Windows@@XV?$function@$$A6AXV?$task@PE$AAVGattWriteRequest@GenericAttributeProfile@Bluetooth@Devices@Windows@@@Concurrency@@@Z@std@@U?$integral_constant@_N$00@7@U_TypeSelectorNoAsync@details@Concurrency@@@?$task@PE$AAVGattWriteRequest@GenericAttributeProfile@Bluetooth@Devices@Windows@@@Concurrency@@U_ContinuationTaskHandleBase@details@3@@details@Concurrency@@QEAA@AEBV?$shared_ptr@U?$_Task_impl@E@details@Concurrency@@@std@@@Z 0000000180031000 f i _nodert_generated.obj
 0001:000300b0       ??0?$_PPLTaskHandle@EU?$_ContinuationTaskHandle@PE$AAVGattWriteResult@GenericAttributeProfile@Bluetooth@Devices@Windows@@XV?$function@$$A6AXV?$task@PE$AAVGattWriteResult@GenericAttributeProfile@Bluetooth@Devices@Windows@@@Concurrency@@@Z@std@@U?$integral_constant@_N$00@7@U_TypeSelectorNoAsync@details@Concurrency@@@?$task@PE$AAVGattWriteResult@GenericAttributeProfile@Bluetooth@Devices@Windows@@@Concurrency@@U_ContinuationTaskHandleBase@details@3@@details@Concurrency@@QEAA@AEBV?$shared_ptr@U?$_Task_impl@E@details@Concurrency@@@std@@@Z 00000001800310b0 f i _nodert_generated.obj
 0001:00030160       ??0?$_PPLTaskHandle@EU?$_ContinuationTaskHandle@W4DeviceAccessStatus@Enumeration@Devices@Windows@@XV?$function@$$A6AXV?$task@W4DeviceAccessStatus@Enumeration@Devices@Windows@@@Concurrency@@@Z@std@@U?$integral_constant@_N$00@6@U_TypeSelectorNoAsync@details@Concurrency@@@?$task@W4DeviceAccessStatus@Enumeration@Devices@Windows@@@Concurrency@@U_ContinuationTaskHandleBase@details@3@@details@Concurrency@@QEAA@AEBV?$shared_ptr@U?$_Task_impl@E@details@Concurrency@@@std@@@Z 0000000180031160 f i _nodert_generated.obj
 0001:00030210       ??0?$_PPLTaskHandle@EU?$_ContinuationTaskHandle@W4GattCommunicationStatus@GenericAttributeProfile@Bluetooth@Devices@Windows@@XV?$function@$$A6AXV?$task@W4GattCommunicationStatus@GenericAttributeProfile@Bluetooth@Devices@Windows@@@Concurrency@@@Z@std@@U?$integral_constant@_N$00@7@U_TypeSelectorNoAsync@details@Concurrency@@@?$task@W4GattCommunicationStatus@GenericAttributeProfile@Bluetooth@Devices@Windows@@@Concurrency@@U_ContinuationTaskHandleBase@details@3@@details@Concurrency@@QEAA@AEBV?$shared_ptr@U?$_Task_impl@E@details@Concurrency@@@std@@@Z 0000000180031210 f i _nodert_generated.obj
 0001:000302c0       ??0?$_PPLTaskHandle@EU?$_ContinuationTaskHandle@W4GattOpenStatus@GenericAttributeProfile@Bluetooth@Devices@Windows@@XV?$function@$$A6AXV?$task@W4GattOpenStatus@GenericAttributeProfile@Bluetooth@Devices@Windows@@@Concurrency@@@Z@std@@U?$integral_constant@_N$00@7@U_TypeSelectorNoAsync@details@Concurrency@@@?$task@W4GattOpenStatus@GenericAttributeProfile@Bluetooth@Devices@Windows@@@Concurrency@@U_ContinuationTaskHandleBase@details@3@@details@Concurrency@@QEAA@AEBV?$shared_ptr@U?$_Task_impl@E@details@Concurrency@@@std@@@Z 00000001800312c0 f i _nodert_generated.obj
 0001:00030370       ??0?$_Task_impl@E@details@Concurrency@@QEAA@PEAV_CancellationTokenState@12@Uscheduler_ptr@2@@Z 0000000180031370 f i _nodert_generated.obj
 0001:00030460       ??0?$_Task_impl@PE$AAU?$IVectorView@PE$AAVGattClientNotificationResult@GenericAttributeProfile@Bluetooth@Devices@Windows@@@Collections@Foundation@Windows@@@details@Concurrency@@QEAA@PEAV_CancellationTokenState@12@Uscheduler_ptr@2@@Z 0000000180031460 f i _nodert_generated.obj
 0001:00030580       ??0?$_Task_impl@PE$AAVGattCharacteristicsResult@GenericAttributeProfile@Bluetooth@Devices@Windows@@@details@Concurrency@@QEAA@PEAV_CancellationTokenState@12@Uscheduler_ptr@2@@Z 0000000180031580 f i _nodert_generated.obj
 0001:00030680       ??0?$_Task_impl@PE$AAVGattClientNotificationResult@GenericAttributeProfile@Bluetooth@Devices@Windows@@@details@Concurrency@@QEAA@PEAV_CancellationTokenState@12@Uscheduler_ptr@2@@Z 0000000180031680 f i _nodert_generated.obj
 0001:00030780       ??0?$_Task_impl@PE$AAVGattDescriptorsResult@GenericAttributeProfile@Bluetooth@Devices@Windows@@@details@Concurrency@@QEAA@PEAV_CancellationTokenState@12@Uscheduler_ptr@2@@Z 0000000180031780 f i _nodert_generated.obj
 0001:00030880       ??0?$_Task_impl@PE$AAVGattDeviceService@GenericAttributeProfile@Bluetooth@Devices@Windows@@@details@Concurrency@@QEAA@PEAV_CancellationTokenState@12@Uscheduler_ptr@2@@Z 0000000180031880 f i _nodert_generated.obj
 0001:00030980       ??0?$_Task_impl@PE$AAVGattDeviceServicesResult@GenericAttributeProfile@Bluetooth@Devices@Windows@@@details@Concurrency@@QEAA@PEAV_CancellationTokenState@12@Uscheduler_ptr@2@@Z 0000000180031980 f i _nodert_generated.obj
 0001:00030a80       ??0?$_Task_impl@PE$AAVGattLocalCharacteristicResult@GenericAttributeProfile@Bluetooth@Devices@Windows@@@details@Concurrency@@QEAA@PEAV_CancellationTokenState@12@Uscheduler_ptr@2@@Z 0000000180031a80 f i _nodert_generated.obj
 0001:00030b80       ??0?$_Task_impl@PE$AAVGattLocalDescriptorResult@GenericAttributeProfile@Bluetooth@Devices@Windows@@@details@Concurrency@@QEAA@PEAV_CancellationTokenState@12@Uscheduler_ptr@2@@Z 0000000180031b80 f i _nodert_generated.obj
 0001:00030c80       ??0?$_Task_impl@PE$AAVGattReadClientCharacteristicConfigurationDescriptorResult@GenericAttributeProfile@Bluetooth@Devices@Windows@@@details@Concurrency@@QEAA@PEAV_CancellationTokenState@12@Uscheduler_ptr@2@@Z 0000000180031c80 f i _nodert_generated.obj
 0001:00030d80       ??0?$_Task_impl@PE$AAVGattReadRequest@GenericAttributeProfile@Bluetooth@Devices@Windows@@@details@Concurrency@@QEAA@PEAV_CancellationTokenState@12@Uscheduler_ptr@2@@Z 0000000180031d80 f i _nodert_generated.obj
 0001:00030e80       ??0?$_Task_impl@PE$AAVGattReadResult@GenericAttributeProfile@Bluetooth@Devices@Windows@@@details@Concurrency@@QEAA@PEAV_CancellationTokenState@12@Uscheduler_ptr@2@@Z 0000000180031e80 f i _nodert_generated.obj
 0001:00030f80       ??0?$_Task_impl@PE$AAVGattServiceProviderResult@GenericAttributeProfile@Bluetooth@Devices@Windows@@@details@Concurrency@@QEAA@PEAV_CancellationTokenState@12@Uscheduler_ptr@2@@Z 0000000180031f80 f i _nodert_generated.obj
 0001:00031080       ??0?$_Task_impl@PE$AAVGattSession@GenericAttributeProfile@Bluetooth@Devices@Windows@@@details@Concurrency@@QEAA@PEAV_CancellationTokenState@12@Uscheduler_ptr@2@@Z 0000000180032080 f i _nodert_generated.obj
 0001:00031180       ??0?$_Task_impl@PE$AAVGattWriteRequest@GenericAttributeProfile@Bluetooth@Devices@Windows@@@details@Concurrency@@QEAA@PEAV_CancellationTokenState@12@Uscheduler_ptr@2@@Z 0000000180032180 f i _nodert_generated.obj
 0001:00031280       ??0?$_Task_impl@PE$AAVGattWriteResult@GenericAttributeProfile@Bluetooth@Devices@Windows@@@details@Concurrency@@QEAA@PEAV_CancellationTokenState@12@Uscheduler_ptr@2@@Z 0000000180032280 f i _nodert_generated.obj
 0001:00031380       ??0?$_Task_impl@W4DeviceAccessStatus@Enumeration@Devices@Windows@@@details@Concurrency@@QEAA@PEAV_CancellationTokenState@12@Uscheduler_ptr@2@@Z 0000000180032380 f i _nodert_generated.obj
 0001:00031470       ??0?$_Task_impl@W4GattCommunicationStatus@GenericAttributeProfile@Bluetooth@Devices@Windows@@@details@Concurrency@@QEAA@PEAV_CancellationTokenState@12@Uscheduler_ptr@2@@Z 0000000180032470 f i _nodert_generated.obj
 0001:00031560       ??0?$_Task_impl@W4GattOpenStatus@GenericAttributeProfile@Bluetooth@Devices@Windows@@@details@Concurrency@@QEAA@PEAV_CancellationTokenState@12@Uscheduler_ptr@2@@Z 0000000180032560 f i _nodert_generated.obj
 0001:00031650       ??0?$__abi_FunctorCapture@V<lambda_012d1b0716f3329ce77b4dc59e2ea2c4>@@XPE$AAU?$IAsyncOperation@PE$AAVGattReadResult@GenericAttributeProfile@Bluetooth@Devices@Windows@@@Foundation@Windows@@W4AsyncStatus@34@@Details@Platform@@QEAA@V<lambda_012d1b0716f3329ce77b4dc59e2ea2c4>@@@Z 0000000180032650 f i _nodert_generated.obj
 0001:00031710       ??0?$__abi_FunctorCapture@V<lambda_090bdc159f06daf1ad7df2aa3c78a4be>@@XPE$AAVGattReadRequest@GenericAttributeProfile@Bluetooth@Devices@Windows@@PE$AAVGattRequestStateChangedEventArgs@3456@@Details@Platform@@QEAA@V<lambda_090bdc159f06daf1ad7df2aa3c78a4be>@@@Z 0000000180032710 f i _nodert_generated.obj
 0001:000317d0       ??0?$__abi_FunctorCapture@V<lambda_0a9020982a14342fb1e918139af240e1>@@XPE$AAU?$IAsyncOperation@PE$AAVGattReadRequest@GenericAttributeProfile@Bluetooth@Devices@Windows@@@Foundation@Windows@@W4AsyncStatus@34@@Details@Platform@@QEAA@V<lambda_0a9020982a14342fb1e918139af240e1>@@@Z 00000001800327d0 f i _nodert_generated.obj
 0001:00031890       ??0?$__abi_FunctorCapture@V<lambda_1e7c9a6d2940facc4be4f3701614cac2>@@XPE$AAVGattCharacteristic@GenericAttributeProfile@Bluetooth@Devices@Windows@@PE$AAVGattValueChangedEventArgs@3456@@Details@Platform@@QEAA@V<lambda_1e7c9a6d2940facc4be4f3701614cac2>@@@Z 0000000180032890 f i _nodert_generated.obj
 0001:00031950       ??0?$__abi_FunctorCapture@V<lambda_27c3f1d4b0a81c9410ff8960a453e918>@@XPE$AAU?$IAsyncOperation@PE$AAVGattServiceProviderResult@GenericAttributeProfile@Bluetooth@Devices@Windows@@@Foundation@Windows@@W4AsyncStatus@34@@Details@Platform@@QEAA@V<lambda_27c3f1d4b0a81c9410ff8960a453e918>@@@Z 0000000180032950 f i _nodert_generated.obj
 0001:00031a10       ??0?$__abi_FunctorCapture@V<lambda_2c0a6636ae14641389e798624ba358eb>@@XPE$AAU?$IAsyncOperation@W4GattOpenStatus@GenericAttributeProfile@Bluetooth@Devices@Windows@@@Foundation@Windows@@W4AsyncStatus@34@@Details@Platform@@QEAA@V<lambda_2c0a6636ae14641389e798624ba358eb>@@@Z 0000000180032a10 f i _nodert_generated.obj
 0001:00031ad0       ??0?$__abi_FunctorCapture@V<lambda_399b06989cb7af58905804fceeab192c>@@XPE$AAU?$IAsyncOperation@PE$AAVGattLocalCharacteristicResult@GenericAttributeProfile@Bluetooth@Devices@Windows@@@Foundation@Windows@@W4AsyncStatus@34@@Details@Platform@@QEAA@V<lambda_399b06989cb7af58905804fceeab192c>@@@Z 0000000180032ad0 f i _nodert_generated.obj
 0001:00031b90       ??0?$__abi_FunctorCapture@V<lambda_3f385f7136180657b99a85d2aef88f1a>@@XPE$AAU?$IAsyncOperation@PE$AAVGattClientNotificationResult@GenericAttributeProfile@Bluetooth@Devices@Windows@@@Foundation@Windows@@W4AsyncStatus@34@@Details@Platform@@QEAA@V<lambda_3f385f7136180657b99a85d2aef88f1a>@@@Z 0000000180032b90 f i _nodert_generated.obj
 0001:00031c50       ??0?$__abi_FunctorCapture@V<lambda_4888d9310bec5452d0bb8f7f1b36752b>@@XPE$AAU?$IAsyncOperation@W4DeviceAccessStatus@Enumeration@Devices@Windows@@@Foundation@Windows@@W4AsyncStatus@34@@Details@Platform@@QEAA@V<lambda_4888d9310bec5452d0bb8f7f1b36752b>@@@Z 0000000180032c50 f i _nodert_generated.obj
 0001:00031d10       ??0?$__abi_FunctorCapture@V<lambda_59deb91dcb35d7ef053ea0a6eba68806>@@XPE$AAU?$IAsyncOperation@PE$AAVGattWriteRequest@GenericAttributeProfile@Bluetooth@Devices@Windows@@@Foundation@Windows@@W4AsyncStatus@34@@Details@Platform@@QEAA@V<lambda_59deb91dcb35d7ef053ea0a6eba68806>@@@Z 0000000180032d10 f i _nodert_generated.obj
 0001:00031dd0       ??0?$__abi_FunctorCapture@V<lambda_5b5d6f33d7c1af9e4714bef40fb1bdd8>@@XPE$AAU?$IAsyncOperation@PE$AAVGattDeviceService@GenericAttributeProfile@Bluetooth@Devices@Windows@@@Foundation@Windows@@W4AsyncStatus@34@@Details@Platform@@QEAA@V<lambda_5b5d6f33d7c1af9e4714bef40fb1bdd8>@@@Z 0000000180032dd0 f i _nodert_generated.obj
 0001:00031e90       ??0?$__abi_FunctorCapture@V<lambda_67d43b9443a249c9bdd0ddd65a0a7143>@@XPE$AAVGattSession@GenericAttributeProfile@Bluetooth@Devices@Windows@@PE$AAVObject@Platform@@@Details@Platform@@QEAA@V<lambda_67d43b9443a249c9bdd0ddd65a0a7143>@@@Z 0000000180032e90 f i _nodert_generated.obj
 0001:00031f50       ??0?$__abi_FunctorCapture@V<lambda_6a95c42219ea05b374040d54ed0dcf40>@@XPE$AAVGattLocalDescriptor@GenericAttributeProfile@Bluetooth@Devices@Windows@@PE$AAVGattReadRequestedEventArgs@3456@@Details@Platform@@QEAA@V<lambda_6a95c42219ea05b374040d54ed0dcf40>@@@Z 0000000180032f50 f i _nodert_generated.obj
 0001:00032010       ??0?$__abi_FunctorCapture@V<lambda_74845d04b0ded4417a55353b3d1ccc92>@@XPE$AAU?$IAsyncOperation@PE$AAVGattSession@GenericAttributeProfile@Bluetooth@Devices@Windows@@@Foundation@Windows@@W4AsyncStatus@34@@Details@Platform@@QEAA@V<lambda_74845d04b0ded4417a55353b3d1ccc92>@@@Z 0000000180033010 f i _nodert_generated.obj
 0001:000320d0       ??0?$__abi_FunctorCapture@V<lambda_78435badbdad8286054cccdf55e74883>@@XPE$AAU?$IAsyncOperation@PE$AAVGattDescriptorsResult@GenericAttributeProfile@Bluetooth@Devices@Windows@@@Foundation@Windows@@W4AsyncStatus@34@@Details@Platform@@QEAA@V<lambda_78435badbdad8286054cccdf55e74883>@@@Z 00000001800330d0 f i _nodert_generated.obj
 0001:00032190       ??0?$__abi_FunctorCapture@V<lambda_7a59f362d5d7e53ea2283eda76e9d412>@@XPE$AAVGattSession@GenericAttributeProfile@Bluetooth@Devices@Windows@@PE$AAVGattSessionStatusChangedEventArgs@3456@@Details@Platform@@QEAA@V<lambda_7a59f362d5d7e53ea2283eda76e9d412>@@@Z 0000000180033190 f i _nodert_generated.obj
 0001:00032250       ??0?$__abi_FunctorCapture@V<lambda_7f5659bcea5d2531b7562165d7c1ccb3>@@XPE$AAVGattSubscribedClient@GenericAttributeProfile@Bluetooth@Devices@Windows@@PE$AAVObject@Platform@@@Details@Platform@@QEAA@V<lambda_7f5659bcea5d2531b7562165d7c1ccb3>@@@Z 0000000180033250 f i _nodert_generated.obj
 0001:00032310       ??0?$__abi_FunctorCapture@V<lambda_8a184a7b15054694030a78acb2100e45>@@XPE$AAVGattWriteRequest@GenericAttributeProfile@Bluetooth@Devices@Windows@@PE$AAVGattRequestStateChangedEventArgs@3456@@Details@Platform@@QEAA@V<lambda_8a184a7b15054694030a78acb2100e45>@@@Z 0000000180033310 f i _nodert_generated.obj
 0001:000323d0       ??0?$__abi_FunctorCapture@V<lambda_98d579945f4c83d34f8a428098012be1>@@XPE$AAVGattServiceProvider@GenericAttributeProfile@Bluetooth@Devices@Windows@@PE$AAVGattServiceProviderAdvertisementStatusChangedEventArgs@3456@@Details@Platform@@QEAA@V<lambda_98d579945f4c83d34f8a428098012be1>@@@Z 00000001800333d0 f i _nodert_generated.obj
 0001:00032490       ??0?$__abi_FunctorCapture@V<lambda_a0302cf3a5e5ab57348d3ae6e320902d>@@XPE$AAU?$IAsyncOperation@PE$AAVGattReadClientCharacteristicConfigurationDescriptorResult@GenericAttributeProfile@Bluetooth@Devices@Windows@@@Foundation@Windows@@W4AsyncStatus@34@@Details@Platform@@QEAA@V<lambda_a0302cf3a5e5ab57348d3ae6e320902d>@@@Z 0000000180033490 f i _nodert_generated.obj
 0001:00032550       ??0?$__abi_FunctorCapture@V<lambda_a72d7d755ea2b68030b9db336f3a6993>@@XPE$AAVGattLocalCharacteristic@GenericAttributeProfile@Bluetooth@Devices@Windows@@PE$AAVGattWriteRequestedEventArgs@3456@@Details@Platform@@QEAA@V<lambda_a72d7d755ea2b68030b9db336f3a6993>@@@Z 0000000180033550 f i _nodert_generated.obj
 0001:00032610       ??0?$__abi_FunctorCapture@V<lambda_a8834aaf222d29bff47139cb548fc10f>@@XPE$AAVGattLocalCharacteristic@GenericAttributeProfile@Bluetooth@Devices@Windows@@PE$AAVObject@Platform@@@Details@Platform@@QEAA@V<lambda_a8834aaf222d29bff47139cb548fc10f>@@@Z 0000000180033610 f i _nodert_generated.obj
 0001:000326d0       ??0?$__abi_FunctorCapture@V<lambda_abc89208398fe61ed8a5e99711cb35c7>@@XPE$AAU?$IAsyncOperation@PE$AAVGattCharacteristicsResult@GenericAttributeProfile@Bluetooth@Devices@Windows@@@Foundation@Windows@@W4AsyncStatus@34@@Details@Platform@@QEAA@V<lambda_abc89208398fe61ed8a5e99711cb35c7>@@@Z 00000001800336d0 f i _nodert_generated.obj
 0001:00032790       ??0?$__abi_FunctorCapture@V<lambda_bfddb030084298f4346709237491b2f5>@@XPE$AAU?$IAsyncOperation@PE$AAVGattWriteResult@GenericAttributeProfile@Bluetooth@Devices@Windows@@@Foundation@Windows@@W4AsyncStatus@34@@Details@Platform@@QEAA@V<lambda_bfddb030084298f4346709237491b2f5>@@@Z 0000000180033790 f i _nodert_generated.obj
 0001:00032850       ??0?$__abi_FunctorCapture@V<lambda_cd1e0c671fdfa373cd4c83898506f7ac>@@XPE$AAU?$IAsyncOperation@PE$AAVGattDeviceServicesResult@GenericAttributeProfile@Bluetooth@Devices@Windows@@@Foundation@Windows@@W4AsyncStatus@34@@Details@Platform@@QEAA@V<lambda_cd1e0c671fdfa373cd4c83898506f7ac>@@@Z 0000000180033850 f i _nodert_generated.obj
 0001:00032910       ??0?$__abi_FunctorCapture@V<lambda_d198f58cb38642f4ce4504b7023daa7d>@@XPE$AAU?$IAsyncOperation@W4GattCommunicationStatus@GenericAttributeProfile@Bluetooth@Devices@Windows@@@Foundation@Windows@@W4AsyncStatus@34@@Details@Platform@@QEAA@V<lambda_d198f58cb38642f4ce4504b7023daa7d>@@@Z 0000000180033910 f i _nodert_generated.obj
 0001:000329d0       ??0?$__abi_FunctorCapture@V<lambda_d364069c78f44ced2d04e6f16c14fb6e>@@XPE$AAU?$IAsyncOperation@PE$AAU?$IVectorView@PE$AAVGattClientNotificationResult@GenericAttributeProfile@Bluetooth@Devices@Windows@@@Collections@Foundation@Windows@@@Foundation@Windows@@W4AsyncStatus@34@@Details@Platform@@QEAA@V<lambda_d364069c78f44ced2d04e6f16c14fb6e>@@@Z 00000001800339d0 f i _nodert_generated.obj
 0001:00032a90       ??0?$__abi_FunctorCapture@V<lambda_f2c183ffcc3e535ab19cd5a930224e71>@@XPE$AAVGattLocalCharacteristic@GenericAttributeProfile@Bluetooth@Devices@Windows@@PE$AAVGattReadRequestedEventArgs@3456@@Details@Platform@@QEAA@V<lambda_f2c183ffcc3e535ab19cd5a930224e71>@@@Z 0000000180033a90 f i _nodert_generated.obj
 0001:00032b50       ??0?$__abi_FunctorCapture@V<lambda_fd38ceb54481fc5685093e4ce388a0db>@@XPE$AAU?$IAsyncOperation@PE$AAVGattLocalDescriptorResult@GenericAttributeProfile@Bluetooth@Devices@Windows@@@Foundation@Windows@@W4AsyncStatus@34@@Details@Platform@@QEAA@V<lambda_fd38ceb54481fc5685093e4ce388a0db>@@@Z 0000000180033b50 f i _nodert_generated.obj
 0001:00032c10       ??0?$__abi_FunctorCapture@V<lambda_ff76360401e4d6f85634a86ab84aed97>@@XPE$AAVGattLocalDescriptor@GenericAttributeProfile@Bluetooth@Devices@Windows@@PE$AAVGattWriteRequestedEventArgs@3456@@Details@Platform@@QEAA@V<lambda_ff76360401e4d6f85634a86ab84aed97>@@@Z 0000000180033c10 f i _nodert_generated.obj
 0001:00032cd0       ??0?$function@$$A6AXHPEAV?$Local@VValue@v8@@@v8@@@Z@std@@QEAA@$$QEAV01@@Z 0000000180033cd0 f i _nodert_generated.obj
 0001:00032d70       ??0?$function@$$A6AXV?$function@$$A6AXHPEAV?$Local@VValue@v8@@@v8@@@Z@std@@@Z@std@@QEAA@$$QEAV01@@Z 0000000180033d70 f i _nodert_generated.obj
 0001:00032e10       ??0?$vector@PEAXV?$allocator@PEAX@std@@@std@@QEAA@AEBV01@@Z 0000000180033e10 f i _nodert_generated.obj
 0001:00032ef0       ??0GattCharacteristic@GenericAttributeProfile@Bluetooth@Devices@Windows@NodeRT@@AEAA@PE$AAV01234@@Z 0000000180033ef0 f i _nodert_generated.obj
 0001:00032f80       ??0GattCharacteristicUuids@GenericAttributeProfile@Bluetooth@Devices@Windows@NodeRT@@AEAA@PE$AAV01234@@Z 0000000180033f80 f i _nodert_generated.obj
 0001:00033010       ??0GattCharacteristicsResult@GenericAttributeProfile@Bluetooth@Devices@Windows@NodeRT@@AEAA@PE$AAV01234@@Z 0000000180034010 f i _nodert_generated.obj
 0001:000330a0       ??0GattClientNotificationResult@GenericAttributeProfile@Bluetooth@Devices@Windows@NodeRT@@AEAA@PE$AAV01234@@Z 00000001800340a0 f i _nodert_generated.obj
 0001:00033130       ??0GattDescriptor@GenericAttributeProfile@Bluetooth@Devices@Windows@NodeRT@@AEAA@PE$AAV01234@@Z 0000000180034130 f i _nodert_generated.obj
 0001:000331c0       ??0GattDescriptorUuids@GenericAttributeProfile@Bluetooth@Devices@Windows@NodeRT@@AEAA@PE$AAV01234@@Z 00000001800341c0 f i _nodert_generated.obj
 0001:00033250       ??0GattDescriptorsResult@GenericAttributeProfile@Bluetooth@Devices@Windows@NodeRT@@AEAA@PE$AAV01234@@Z 0000000180034250 f i _nodert_generated.obj
 0001:000332e0       ??0GattDeviceService@GenericAttributeProfile@Bluetooth@Devices@Windows@NodeRT@@AEAA@PE$AAV01234@@Z 00000001800342e0 f i _nodert_generated.obj
 0001:00033370       ??0GattDeviceServicesResult@GenericAttributeProfile@Bluetooth@Devices@Windows@NodeRT@@AEAA@PE$AAV01234@@Z 0000000180034370 f i _nodert_generated.obj
 0001:00033400       ??0GattLocalCharacteristic@GenericAttributeProfile@Bluetooth@Devices@Windows@NodeRT@@AEAA@PE$AAV01234@@Z 0000000180034400 f i _nodert_generated.obj
 0001:00033490       ??0GattLocalCharacteristicParameters@GenericAttributeProfile@Bluetooth@Devices@Windows@@QE$AAA@XZ 0000000180034490 f i _nodert_generated.obj
 0001:00033600       ??0GattLocalCharacteristicParameters@GenericAttributeProfile@Bluetooth@Devices@Windows@NodeRT@@AEAA@PE$AAV01234@@Z 0000000180034600 f i _nodert_generated.obj
 0001:00033690       ??0GattLocalCharacteristicResult@GenericAttributeProfile@Bluetooth@Devices@Windows@NodeRT@@AEAA@PE$AAV01234@@Z 0000000180034690 f i _nodert_generated.obj
 0001:00033720       ??0GattLocalDescriptor@GenericAttributeProfile@Bluetooth@Devices@Windows@NodeRT@@AEAA@PE$AAV01234@@Z 0000000180034720 f i _nodert_generated.obj
 0001:000337b0       ??0GattLocalDescriptorParameters@GenericAttributeProfile@Bluetooth@Devices@Windows@@QE$AAA@XZ 00000001800347b0 f i _nodert_generated.obj
 0001:00033920       ??0GattLocalDescriptorParameters@GenericAttributeProfile@Bluetooth@Devices@Windows@NodeRT@@AEAA@PE$AAV01234@@Z 0000000180034920 f i _nodert_generated.obj
 0001:000339b0       ??0GattLocalDescriptorResult@GenericAttributeProfile@Bluetooth@Devices@Windows@NodeRT@@AEAA@PE$AAV01234@@Z 00000001800349b0 f i _nodert_generated.obj
 0001:00033a40       ??0GattLocalService@GenericAttributeProfile@Bluetooth@Devices@Windows@NodeRT@@AEAA@PE$AAV01234@@Z 0000000180034a40 f i _nodert_generated.obj
 0001:00033ad0       ??0GattPresentationFormat@GenericAttributeProfile@Bluetooth@Devices@Windows@NodeRT@@AEAA@PE$AAV01234@@Z 0000000180034ad0 f i _nodert_generated.obj
 0001:00033b60       ??0GattPresentationFormatTypes@GenericAttributeProfile@Bluetooth@Devices@Windows@NodeRT@@AEAA@PE$AAV01234@@Z 0000000180034b60 f i _nodert_generated.obj
 0001:00033bf0       ??0GattProtocolError@GenericAttributeProfile@Bluetooth@Devices@Windows@NodeRT@@AEAA@PE$AAV01234@@Z 0000000180034bf0 f i _nodert_generated.obj
 0001:00033c80       ??0GattReadClientCharacteristicConfigurationDescriptorResult@GenericAttributeProfile@Bluetooth@Devices@Windows@NodeRT@@AEAA@PE$AAV01234@@Z 0000000180034c80 f i _nodert_generated.obj
 0001:00033d10       ??0GattReadRequest@GenericAttributeProfile@Bluetooth@Devices@Windows@NodeRT@@AEAA@PE$AAV01234@@Z 0000000180034d10 f i _nodert_generated.obj
 0001:00033da0       ??0GattReadRequestedEventArgs@GenericAttributeProfile@Bluetooth@Devices@Windows@NodeRT@@AEAA@PE$AAV01234@@Z 0000000180034da0 f i _nodert_generated.obj
 0001:00033e30       ??0GattReadResult@GenericAttributeProfile@Bluetooth@Devices@Windows@NodeRT@@AEAA@PE$AAV01234@@Z 0000000180034e30 f i _nodert_generated.obj
 0001:00033ec0       ??0GattReliableWriteTransaction@GenericAttributeProfile@Bluetooth@Devices@Windows@@QE$AAA@XZ 0000000180034ec0 f i _nodert_generated.obj
 0001:00034030       ??0GattReliableWriteTransaction@GenericAttributeProfile@Bluetooth@Devices@Windows@NodeRT@@AEAA@PE$AAV01234@@Z 0000000180035030 f i _nodert_generated.obj
 0001:000340c0       ??0GattRequestStateChangedEventArgs@GenericAttributeProfile@Bluetooth@Devices@Windows@NodeRT@@AEAA@PE$AAV01234@@Z 00000001800350c0 f i _nodert_generated.obj
 0001:00034150       ??0GattServiceProvider@GenericAttributeProfile@Bluetooth@Devices@Windows@NodeRT@@AEAA@PE$AAV01234@@Z 0000000180035150 f i _nodert_generated.obj
 0001:000341e0       ??0GattServiceProviderAdvertisementStatusChangedEventArgs@GenericAttributeProfile@Bluetooth@Devices@Windows@NodeRT@@AEAA@PE$AAV01234@@Z 00000001800351e0 f i _nodert_generated.obj
 0001:00034270       ??0GattServiceProviderAdvertisingParameters@GenericAttributeProfile@Bluetooth@Devices@Windows@@QE$AAA@XZ 0000000180035270 f i _nodert_generated.obj
 0001:000343e0       ??0GattServiceProviderAdvertisingParameters@GenericAttributeProfile@Bluetooth@Devices@Windows@NodeRT@@AEAA@PE$AAV01234@@Z 00000001800353e0 f i _nodert_generated.obj
 0001:00034470       ??0GattServiceProviderResult@GenericAttributeProfile@Bluetooth@Devices@Windows@NodeRT@@AEAA@PE$AAV01234@@Z 0000000180035470 f i _nodert_generated.obj
 0001:00034500       ??0GattServiceUuids@GenericAttributeProfile@Bluetooth@Devices@Windows@NodeRT@@AEAA@PE$AAV01234@@Z 0000000180035500 f i _nodert_generated.obj
 0001:00034590       ??0GattSession@GenericAttributeProfile@Bluetooth@Devices@Windows@NodeRT@@AEAA@PE$AAV01234@@Z 0000000180035590 f i _nodert_generated.obj
 0001:00034620       ??0GattSessionStatusChangedEventArgs@GenericAttributeProfile@Bluetooth@Devices@Windows@NodeRT@@AEAA@PE$AAV01234@@Z 0000000180035620 f i _nodert_generated.obj
 0001:000346b0       ??0GattSubscribedClient@GenericAttributeProfile@Bluetooth@Devices@Windows@NodeRT@@AEAA@PE$AAV01234@@Z 00000001800356b0 f i _nodert_generated.obj
 0001:00034740       ??0GattValueChangedEventArgs@GenericAttributeProfile@Bluetooth@Devices@Windows@NodeRT@@AEAA@PE$AAV01234@@Z 0000000180035740 f i _nodert_generated.obj
 0001:000347d0       ??0GattWriteRequest@GenericAttributeProfile@Bluetooth@Devices@Windows@NodeRT@@AEAA@PE$AAV01234@@Z 00000001800357d0 f i _nodert_generated.obj
 0001:00034860       ??0GattWriteRequestedEventArgs@GenericAttributeProfile@Bluetooth@Devices@Windows@NodeRT@@AEAA@PE$AAV01234@@Z 0000000180035860 f i _nodert_generated.obj
 0001:000348f0       ??0GattWriteResult@GenericAttributeProfile@Bluetooth@Devices@Windows@NodeRT@@AEAA@PE$AAV01234@@Z 00000001800358f0 f i _nodert_generated.obj
 0001:00034980       ??0String@Platform@@QE$AAA@PEB_W@Z 0000000180035980 f i _nodert_generated.obj
 0001:000349e0       ??0_TaskCollectionBaseImpl@details@Concurrency@@QEAA@Uscheduler_ptr@2@@Z 00000001800359e0 f i _nodert_generated.obj
 0001:00034ad0       ??0_Task_impl_base@details@Concurrency@@QEAA@PEAV_CancellationTokenState@12@Uscheduler_ptr@2@@Z 0000000180035ad0 f i _nodert_generated.obj
 0001:00034c30       ??0_ThenImplOptions@details@Concurrency@@QEAA@PEAV_CancellationTokenState@12@PEBVtask_continuation_context@2@Uscheduler_ptr@2@V_TaskCreationCallstack@12@W4_TaskInliningMode@12@@Z 0000000180035c30 f i _nodert_generated.obj
 0001:00034d70       ??0scheduler_ptr@Concurrency@@QEAA@V?$shared_ptr@Uscheduler_interface@Concurrency@@@std@@@Z 0000000180035d70 f i _nodert_generated.obj
 0001:00034e20       ??0task_options@Concurrency@@QEAA@XZ 0000000180035e20 f i _nodert_generated.obj
 0001:00036d30       ??1?$Array@PE$AAVGattPresentationFormat@GenericAttributeProfile@Bluetooth@Devices@Windows@@$00@Platform@@QE$AAA@XZ 0000000180037d30 f i _nodert_generated.obj
 0001:00036d50       ??1?$ComPtr@UIAgileObject@@@WRL@Microsoft@@QEAA@XZ 0000000180037d50 f i _nodert_generated.obj
 0001:00036d70       ??1?$VectorViewWrapper@PE$AAVGattCharacteristic@GenericAttributeProfile@Bluetooth@Devices@Windows@@@Collections@NodeRT@@UEAA@XZ 0000000180037d70 f i _nodert_generated.obj
 0001:00036e40       ??1?$VectorViewWrapper@PE$AAVGattClientNotificationResult@GenericAttributeProfile@Bluetooth@Devices@Windows@@@Collections@NodeRT@@UEAA@XZ 0000000180037e40 f i _nodert_generated.obj
 0001:00036f10       ??1?$VectorViewWrapper@PE$AAVGattDescriptor@GenericAttributeProfile@Bluetooth@Devices@Windows@@@Collections@NodeRT@@UEAA@XZ 0000000180037f10 f i _nodert_generated.obj
 0001:00036fe0       ??1?$VectorViewWrapper@PE$AAVGattDeviceService@GenericAttributeProfile@Bluetooth@Devices@Windows@@@Collections@NodeRT@@UEAA@XZ 0000000180037fe0 f i _nodert_generated.obj
 0001:000370b0       ??1?$VectorViewWrapper@PE$AAVGattLocalCharacteristic@GenericAttributeProfile@Bluetooth@Devices@Windows@@@Collections@NodeRT@@UEAA@XZ 00000001800380b0 f i _nodert_generated.obj
 0001:00037180       ??1?$VectorViewWrapper@PE$AAVGattLocalDescriptor@GenericAttributeProfile@Bluetooth@Devices@Windows@@@Collections@NodeRT@@UEAA@XZ 0000000180038180 f i _nodert_generated.obj
 0001:00037250       ??1?$VectorViewWrapper@PE$AAVGattPresentationFormat@GenericAttributeProfile@Bluetooth@Devices@Windows@@@Collections@NodeRT@@UEAA@XZ 0000000180038250 f i _nodert_generated.obj
 0001:00037320       ??1?$VectorViewWrapper@PE$AAVGattSubscribedClient@GenericAttributeProfile@Bluetooth@Devices@Windows@@@Collections@NodeRT@@UEAA@XZ 0000000180038320 f i _nodert_generated.obj
 0001:000373f0       ??1?$VectorWrapper@PE$AAVGattPresentationFormat@GenericAttributeProfile@Bluetooth@Devices@Windows@@@Collections@NodeRT@@UEAA@XZ 00000001800383f0 f i _nodert_generated.obj
 0001:000374c0       ??1?$WriteOnlyArray@PE$AAVGattPresentationFormat@GenericAttributeProfile@Bluetooth@Devices@Windows@@$00@Platform@@QE$AAA@XZ 00000001800384c0 f i _nodert_generated.obj
 0001:00037560       ??1?$_ContinuationTaskHandle@PE$AAU?$IVectorView@PE$AAVGattClientNotificationResult@GenericAttributeProfile@Bluetooth@Devices@Windows@@@Collections@Foundation@Windows@@XV?$function@$$A6AXV?$task@PE$AAU?$IVectorView@PE$AAVGattClientNotificationResult@GenericAttributeProfile@Bluetooth@Devices@Windows@@@Collections@Foundation@Windows@@@Concurrency@@@Z@std@@U?$integral_constant@_N$00@6@U_TypeSelectorNoAsync@details@Concurrency@@@?$task@PE$AAU?$IVectorView@PE$AAVGattClientNotificationResult@GenericAttributeProfile@Bluetooth@Devices@Windows@@@Collections@Foundation@Windows@@@Concurrency@@UEAA@XZ 0000000180038560 f i _nodert_generated.obj
 0001:00037620       ??1?$_ContinuationTaskHandle@PE$AAVGattCharacteristicsResult@GenericAttributeProfile@Bluetooth@Devices@Windows@@XV?$function@$$A6AXV?$task@PE$AAVGattCharacteristicsResult@GenericAttributeProfile@Bluetooth@Devices@Windows@@@Concurrency@@@Z@std@@U?$integral_constant@_N$00@7@U_TypeSelectorNoAsync@details@Concurrency@@@?$task@PE$AAVGattCharacteristicsResult@GenericAttributeProfile@Bluetooth@Devices@Windows@@@Concurrency@@UEAA@XZ 0000000180038620 f i _nodert_generated.obj
 0001:000376e0       ??1?$_ContinuationTaskHandle@PE$AAVGattClientNotificationResult@GenericAttributeProfile@Bluetooth@Devices@Windows@@XV?$function@$$A6AXV?$task@PE$AAVGattClientNotificationResult@GenericAttributeProfile@Bluetooth@Devices@Windows@@@Concurrency@@@Z@std@@U?$integral_constant@_N$00@7@U_TypeSelectorNoAsync@details@Concurrency@@@?$task@PE$AAVGattClientNotificationResult@GenericAttributeProfile@Bluetooth@Devices@Windows@@@Concurrency@@UEAA@XZ 00000001800386e0 f i _nodert_generated.obj
 0001:000377a0       ??1?$_ContinuationTaskHandle@PE$AAVGattDescriptorsResult@GenericAttributeProfile@Bluetooth@Devices@Windows@@XV?$function@$$A6AXV?$task@PE$AAVGattDescriptorsResult@GenericAttributeProfile@Bluetooth@Devices@Windows@@@Concurrency@@@Z@std@@U?$integral_constant@_N$00@7@U_TypeSelectorNoAsync@details@Concurrency@@@?$task@PE$AAVGattDescriptorsResult@GenericAttributeProfile@Bluetooth@Devices@Windows@@@Concurrency@@UEAA@XZ 00000001800387a0 f i _nodert_generated.obj
 0001:00037860       ??1?$_ContinuationTaskHandle@PE$AAVGattDeviceService@GenericAttributeProfile@Bluetooth@Devices@Windows@@XV?$function@$$A6AXV?$task@PE$AAVGattDeviceService@GenericAttributeProfile@Bluetooth@Devices@Windows@@@Concurrency@@@Z@std@@U?$integral_constant@_N$00@7@U_TypeSelectorNoAsync@details@Concurrency@@@?$task@PE$AAVGattDeviceService@GenericAttributeProfile@Bluetooth@Devices@Windows@@@Concurrency@@UEAA@XZ 0000000180038860 f i _nodert_generated.obj
 0001:00037920       ??1?$_ContinuationTaskHandle@PE$AAVGattDeviceServicesResult@GenericAttributeProfile@Bluetooth@Devices@Windows@@XV?$function@$$A6AXV?$task@PE$AAVGattDeviceServicesResult@GenericAttributeProfile@Bluetooth@Devices@Windows@@@Concurrency@@@Z@std@@U?$integral_constant@_N$00@7@U_TypeSelectorNoAsync@details@Concurrency@@@?$task@PE$AAVGattDeviceServicesResult@GenericAttributeProfile@Bluetooth@Devices@Windows@@@Concurrency@@UEAA@XZ 0000000180038920 f i _nodert_generated.obj
 0001:000379e0       ??1?$_ContinuationTaskHandle@PE$AAVGattLocalCharacteristicResult@GenericAttributeProfile@Bluetooth@Devices@Windows@@XV?$function@$$A6AXV?$task@PE$AAVGattLocalCharacteristicResult@GenericAttributeProfile@Bluetooth@Devices@Windows@@@Concurrency@@@Z@std@@U?$integral_constant@_N$00@7@U_TypeSelectorNoAsync@details@Concurrency@@@?$task@PE$AAVGattLocalCharacteristicResult@GenericAttributeProfile@Bluetooth@Devices@Windows@@@Concurrency@@UEAA@XZ 00000001800389e0 f i _nodert_generated.obj
 0001:00037aa0       ??1?$_ContinuationTaskHandle@PE$AAVGattLocalDescriptorResult@GenericAttributeProfile@Bluetooth@Devices@Windows@@XV?$function@$$A6AXV?$task@PE$AAVGattLocalDescriptorResult@GenericAttributeProfile@Bluetooth@Devices@Windows@@@Concurrency@@@Z@std@@U?$integral_constant@_N$00@7@U_TypeSelectorNoAsync@details@Concurrency@@@?$task@PE$AAVGattLocalDescriptorResult@GenericAttributeProfile@Bluetooth@Devices@Windows@@@Concurrency@@UEAA@XZ 0000000180038aa0 f i _nodert_generated.obj
 0001:00037b60       ??1?$_ContinuationTaskHandle@PE$AAVGattReadClientCharacteristicConfigurationDescriptorResult@GenericAttributeProfile@Bluetooth@Devices@Windows@@XV?$function@$$A6AXV?$task@PE$AAVGattReadClientCharacteristicConfigurationDescriptorResult@GenericAttributeProfile@Bluetooth@Devices@Windows@@@Concurrency@@@Z@std@@U?$integral_constant@_N$00@7@U_TypeSelectorNoAsync@details@Concurrency@@@?$task@PE$AAVGattReadClientCharacteristicConfigurationDescriptorResult@GenericAttributeProfile@Bluetooth@Devices@Windows@@@Concurrency@@UEAA@XZ 0000000180038b60 f i _nodert_generated.obj
 0001:00037c20       ??1?$_ContinuationTaskHandle@PE$AAVGattReadRequest@GenericAttributeProfile@Bluetooth@Devices@Windows@@XV?$function@$$A6AXV?$task@PE$AAVGattReadRequest@GenericAttributeProfile@Bluetooth@Devices@Windows@@@Concurrency@@@Z@std@@U?$integral_constant@_N$00@7@U_TypeSelectorNoAsync@details@Concurrency@@@?$task@PE$AAVGattReadRequest@GenericAttributeProfile@Bluetooth@Devices@Windows@@@Concurrency@@UEAA@XZ 0000000180038c20 f i _nodert_generated.obj
 0001:00037ce0       ??1?$_ContinuationTaskHandle@PE$AAVGattReadResult@GenericAttributeProfile@Bluetooth@Devices@Windows@@XV?$function@$$A6AXV?$task@PE$AAVGattReadResult@GenericAttributeProfile@Bluetooth@Devices@Windows@@@Concurrency@@@Z@std@@U?$integral_constant@_N$00@7@U_TypeSelectorNoAsync@details@Concurrency@@@?$task@PE$AAVGattReadResult@GenericAttributeProfile@Bluetooth@Devices@Windows@@@Concurrency@@UEAA@XZ 0000000180038ce0 f i _nodert_generated.obj
 0001:00037da0       ??1?$_ContinuationTaskHandle@PE$AAVGattServiceProviderResult@GenericAttributeProfile@Bluetooth@Devices@Windows@@XV?$function@$$A6AXV?$task@PE$AAVGattServiceProviderResult@GenericAttributeProfile@Bluetooth@Devices@Windows@@@Concurrency@@@Z@std@@U?$integral_constant@_N$00@7@U_TypeSelectorNoAsync@details@Concurrency@@@?$task@PE$AAVGattServiceProviderResult@GenericAttributeProfile@Bluetooth@Devices@Windows@@@Concurrency@@UEAA@XZ 0000000180038da0 f i _nodert_generated.obj
 0001:00037e60       ??1?$_ContinuationTaskHandle@PE$AAVGattSession@GenericAttributeProfile@Bluetooth@Devices@Windows@@XV?$function@$$A6AXV?$task@PE$AAVGattSession@GenericAttributeProfile@Bluetooth@Devices@Windows@@@Concurrency@@@Z@std@@U?$integral_constant@_N$00@7@U_TypeSelectorNoAsync@details@Concurrency@@@?$task@PE$AAVGattSession@GenericAttributeProfile@Bluetooth@Devices@Windows@@@Concurrency@@UEAA@XZ 0000000180038e60 f i _nodert_generated.obj
 0001:00037f20       ??1?$_ContinuationTaskHandle@PE$AAVGattWriteRequest@GenericAttributeProfile@Bluetooth@Devices@Windows@@XV?$function@$$A6AXV?$task@PE$AAVGattWriteRequest@GenericAttributeProfile@Bluetooth@Devices@Windows@@@Concurrency@@@Z@std@@U?$integral_constant@_N$00@7@U_TypeSelectorNoAsync@details@Concurrency@@@?$task@PE$AAVGattWriteRequest@GenericAttributeProfile@Bluetooth@Devices@Windows@@@Concurrency@@UEAA@XZ 0000000180038f20 f i _nodert_generated.obj
 0001:00037fe0       ??1?$_ContinuationTaskHandle@PE$AAVGattWriteResult@GenericAttributeProfile@Bluetooth@Devices@Windows@@XV?$function@$$A6AXV?$task@PE$AAVGattWriteResult@GenericAttributeProfile@Bluetooth@Devices@Windows@@@Concurrency@@@Z@std@@U?$integral_constant@_N$00@7@U_TypeSelectorNoAsync@details@Concurrency@@@?$task@PE$AAVGattWriteResult@GenericAttributeProfile@Bluetooth@Devices@Windows@@@Concurrency@@UEAA@XZ 0000000180038fe0 f i _nodert_generated.obj
 0001:000380a0       ??1?$_ContinuationTaskHandle@W4DeviceAccessStatus@Enumeration@Devices@Windows@@XV?$function@$$A6AXV?$task@W4DeviceAccessStatus@Enumeration@Devices@Windows@@@Concurrency@@@Z@std@@U?$integral_constant@_N$00@6@U_TypeSelectorNoAsync@details@Concurrency@@@?$task@W4DeviceAccessStatus@Enumeration@Devices@Windows@@@Concurrency@@UEAA@XZ 00000001800390a0 f i _nodert_generated.obj
 0001:00038160       ??1?$_ContinuationTaskHandle@W4GattCommunicationStatus@GenericAttributeProfile@Bluetooth@Devices@Windows@@XV?$function@$$A6AXV?$task@W4GattCommunicationStatus@GenericAttributeProfile@Bluetooth@Devices@Windows@@@Concurrency@@@Z@std@@U?$integral_constant@_N$00@7@U_TypeSelectorNoAsync@details@Concurrency@@@?$task@W4GattCommunicationStatus@GenericAttributeProfile@Bluetooth@Devices@Windows@@@Concurrency@@UEAA@XZ 0000000180039160 f i _nodert_generated.obj
 0001:00038220       ??1?$_ContinuationTaskHandle@W4GattOpenStatus@GenericAttributeProfile@Bluetooth@Devices@Windows@@XV?$function@$$A6AXV?$task@W4GattOpenStatus@GenericAttributeProfile@Bluetooth@Devices@Windows@@@Concurrency@@@Z@std@@U?$integral_constant@_N$00@7@U_TypeSelectorNoAsync@details@Concurrency@@@?$task@W4GattOpenStatus@GenericAttributeProfile@Bluetooth@Devices@Windows@@@Concurrency@@UEAA@XZ 0000000180039220 f i _nodert_generated.obj
 0001:000382e0       ??1?$_Func_base@EV?$task@PE$AAU?$IVectorView@PE$AAVGattClientNotificationResult@GenericAttributeProfile@Bluetooth@Devices@Windows@@@Collections@Foundation@Windows@@@Concurrency@@@std@@QEAA@XZ 00000001800392e0 f i _nodert_generated.obj
 0001:000382f0       ??1?$_Func_base@EV?$task@PE$AAVGattCharacteristicsResult@GenericAttributeProfile@Bluetooth@Devices@Windows@@@Concurrency@@@std@@QEAA@XZ 00000001800392f0 f i _nodert_generated.obj
 0001:00038300       ??1?$_Func_base@EV?$task@PE$AAVGattClientNotificationResult@GenericAttributeProfile@Bluetooth@Devices@Windows@@@Concurrency@@@std@@QEAA@XZ 0000000180039300 f i _nodert_generated.obj
 0001:00038310       ??1?$_Func_base@EV?$task@PE$AAVGattDescriptorsResult@GenericAttributeProfile@Bluetooth@Devices@Windows@@@Concurrency@@@std@@QEAA@XZ 0000000180039310 f i _nodert_generated.obj
 0001:00038320       ??1?$_Func_base@EV?$task@PE$AAVGattDeviceService@GenericAttributeProfile@Bluetooth@Devices@Windows@@@Concurrency@@@std@@QEAA@XZ 0000000180039320 f i _nodert_generated.obj
 0001:00038330       ??1?$_Func_base@EV?$task@PE$AAVGattDeviceServicesResult@GenericAttributeProfile@Bluetooth@Devices@Windows@@@Concurrency@@@std@@QEAA@XZ 0000000180039330 f i _nodert_generated.obj
 0001:00038340       ??1?$_Func_base@EV?$task@PE$AAVGattLocalCharacteristicResult@GenericAttributeProfile@Bluetooth@Devices@Windows@@@Concurrency@@@std@@QEAA@XZ 0000000180039340 f i _nodert_generated.obj
 0001:00038350       ??1?$_Func_base@EV?$task@PE$AAVGattLocalDescriptorResult@GenericAttributeProfile@Bluetooth@Devices@Windows@@@Concurrency@@@std@@QEAA@XZ 0000000180039350 f i _nodert_generated.obj
 0001:00038360       ??1?$_Func_base@EV?$task@PE$AAVGattReadClientCharacteristicConfigurationDescriptorResult@GenericAttributeProfile@Bluetooth@Devices@Windows@@@Concurrency@@@std@@QEAA@XZ 0000000180039360 f i _nodert_generated.obj
 0001:00038370       ??1?$_Func_base@EV?$task@PE$AAVGattReadRequest@GenericAttributeProfile@Bluetooth@Devices@Windows@@@Concurrency@@@std@@QEAA@XZ 0000000180039370 f i _nodert_generated.obj
 0001:00038380       ??1?$_Func_base@EV?$task@PE$AAVGattReadResult@GenericAttributeProfile@Bluetooth@Devices@Windows@@@Concurrency@@@std@@QEAA@XZ 0000000180039380 f i _nodert_generated.obj
 0001:00038390       ??1?$_Func_base@EV?$task@PE$AAVGattServiceProviderResult@GenericAttributeProfile@Bluetooth@Devices@Windows@@@Concurrency@@@std@@QEAA@XZ 0000000180039390 f i _nodert_generated.obj
 0001:000383a0       ??1?$_Func_base@EV?$task@PE$AAVGattSession@GenericAttributeProfile@Bluetooth@Devices@Windows@@@Concurrency@@@std@@QEAA@XZ 00000001800393a0 f i _nodert_generated.obj
 0001:000383b0       ??1?$_Func_base@EV?$task@PE$AAVGattWriteRequest@GenericAttributeProfile@Bluetooth@Devices@Windows@@@Concurrency@@@std@@QEAA@XZ 00000001800393b0 f i _nodert_generated.obj
 0001:000383c0       ??1?$_Func_base@EV?$task@PE$AAVGattWriteResult@GenericAttributeProfile@Bluetooth@Devices@Windows@@@Concurrency@@@std@@QEAA@XZ 00000001800393c0 f i _nodert_generated.obj
 0001:000383d0       ??1?$_Func_base@EV?$task@W4DeviceAccessStatus@Enumeration@Devices@Windows@@@Concurrency@@@std@@QEAA@XZ 00000001800393d0 f i _nodert_generated.obj
 0001:000383e0       ??1?$_Func_base@EV?$task@W4GattCommunicationStatus@GenericAttributeProfile@Bluetooth@Devices@Windows@@@Concurrency@@@std@@QEAA@XZ 00000001800393e0 f i _nodert_generated.obj
 0001:000383f0       ??1?$_Func_base@EV?$task@W4GattOpenStatus@GenericAttributeProfile@Bluetooth@Devices@Windows@@@Concurrency@@@std@@QEAA@XZ 00000001800393f0 f i _nodert_generated.obj
 0001:00038400       ??1?$_Func_base@X$$V@std@@QEAA@XZ 0000000180039400 f i _nodert_generated.obj
 0001:00038410       ??1?$_Func_class@EV?$task@PE$AAU?$IVectorView@PE$AAVGattClientNotificationResult@GenericAttributeProfile@Bluetooth@Devices@Windows@@@Collections@Foundation@Windows@@@Concurrency@@@std@@QEAA@XZ 0000000180039410 f i _nodert_generated.obj
 0001:00038450       ??1?$_Func_class@EV?$task@PE$AAVGattCharacteristicsResult@GenericAttributeProfile@Bluetooth@Devices@Windows@@@Concurrency@@@std@@QEAA@XZ 0000000180039450 f i _nodert_generated.obj
 0001:00038490       ??1?$_Func_class@EV?$task@PE$AAVGattClientNotificationResult@GenericAttributeProfile@Bluetooth@Devices@Windows@@@Concurrency@@@std@@QEAA@XZ 0000000180039490 f i _nodert_generated.obj
 0001:000384d0       ??1?$_Func_class@EV?$task@PE$AAVGattDescriptorsResult@GenericAttributeProfile@Bluetooth@Devices@Windows@@@Concurrency@@@std@@QEAA@XZ 00000001800394d0 f i _nodert_generated.obj
 0001:00038510       ??1?$_Func_class@EV?$task@PE$AAVGattDeviceService@GenericAttributeProfile@Bluetooth@Devices@Windows@@@Concurrency@@@std@@QEAA@XZ 0000000180039510 f i _nodert_generated.obj
 0001:00038550       ??1?$_Func_class@EV?$task@PE$AAVGattDeviceServicesResult@GenericAttributeProfile@Bluetooth@Devices@Windows@@@Concurrency@@@std@@QEAA@XZ 0000000180039550 f i _nodert_generated.obj
 0001:00038590       ??1?$_Func_class@EV?$task@PE$AAVGattLocalCharacteristicResult@GenericAttributeProfile@Bluetooth@Devices@Windows@@@Concurrency@@@std@@QEAA@XZ 0000000180039590 f i _nodert_generated.obj
 0001:000385d0       ??1?$_Func_class@EV?$task@PE$AAVGattLocalDescriptorResult@GenericAttributeProfile@Bluetooth@Devices@Windows@@@Concurrency@@@std@@QEAA@XZ 00000001800395d0 f i _nodert_generated.obj
 0001:00038610       ??1?$_Func_class@EV?$task@PE$AAVGattReadClientCharacteristicConfigurationDescriptorResult@GenericAttributeProfile@Bluetooth@Devices@Windows@@@Concurrency@@@std@@QEAA@XZ 0000000180039610 f i _nodert_generated.obj
 0001:00038650       ??1?$_Func_class@EV?$task@PE$AAVGattReadRequest@GenericAttributeProfile@Bluetooth@Devices@Windows@@@Concurrency@@@std@@QEAA@XZ 0000000180039650 f i _nodert_generated.obj
 0001:00038690       ??1?$_Func_class@EV?$task@PE$AAVGattReadResult@GenericAttributeProfile@Bluetooth@Devices@Windows@@@Concurrency@@@std@@QEAA@XZ 0000000180039690 f i _nodert_generated.obj
 0001:000386d0       ??1?$_Func_class@EV?$task@PE$AAVGattServiceProviderResult@GenericAttributeProfile@Bluetooth@Devices@Windows@@@Concurrency@@@std@@QEAA@XZ 00000001800396d0 f i _nodert_generated.obj
 0001:00038710       ??1?$_Func_class@EV?$task@PE$AAVGattSession@GenericAttributeProfile@Bluetooth@Devices@Windows@@@Concurrency@@@std@@QEAA@XZ 0000000180039710 f i _nodert_generated.obj
 0001:00038750       ??1?$_Func_class@EV?$task@PE$AAVGattWriteRequest@GenericAttributeProfile@Bluetooth@Devices@Windows@@@Concurrency@@@std@@QEAA@XZ 0000000180039750 f i _nodert_generated.obj
 0001:00038790       ??1?$_Func_class@EV?$task@PE$AAVGattWriteResult@GenericAttributeProfile@Bluetooth@Devices@Windows@@@Concurrency@@@std@@QEAA@XZ 0000000180039790 f i _nodert_generated.obj
 0001:000387d0       ??1?$_Func_class@EV?$task@W4DeviceAccessStatus@Enumeration@Devices@Windows@@@Concurrency@@@std@@QEAA@XZ 00000001800397d0 f i _nodert_generated.obj
 0001:00038810       ??1?$_Func_class@EV?$task@W4GattCommunicationStatus@GenericAttributeProfile@Bluetooth@Devices@Windows@@@Concurrency@@@std@@QEAA@XZ 0000000180039810 f i _nodert_generated.obj
 0001:00038850       ??1?$_Func_class@EV?$task@W4GattOpenStatus@GenericAttributeProfile@Bluetooth@Devices@Windows@@@Concurrency@@@std@@QEAA@XZ 0000000180039850 f i _nodert_generated.obj
 0001:00038890       ??1?$_Func_class@PE$AAVGattCharacteristic@GenericAttributeProfile@Bluetooth@Devices@Windows@@V?$Local@VValue@v8@@@v8@@@std@@QEAA@XZ 0000000180039890 f i _nodert_generated.obj
 0001:000388d0       ??1?$_Func_class@PE$AAVGattClientNotificationResult@GenericAttributeProfile@Bluetooth@Devices@Windows@@V?$Local@VValue@v8@@@v8@@@std@@QEAA@XZ 00000001800398d0 f i _nodert_generated.obj
 0001:00038910       ??1?$_Func_class@PE$AAVGattDescriptor@GenericAttributeProfile@Bluetooth@Devices@Windows@@V?$Local@VValue@v8@@@v8@@@std@@QEAA@XZ 0000000180039910 f i _nodert_generated.obj
 0001:00038950       ??1?$_Func_class@PE$AAVGattDeviceService@GenericAttributeProfile@Bluetooth@Devices@Windows@@V?$Local@VValue@v8@@@v8@@@std@@QEAA@XZ 0000000180039950 f i _nodert_generated.obj
 0001:00038990       ??1?$_Func_class@PE$AAVGattLocalCharacteristic@GenericAttributeProfile@Bluetooth@Devices@Windows@@V?$Local@VValue@v8@@@v8@@@std@@QEAA@XZ 0000000180039990 f i _nodert_generated.obj
 0001:000389d0       ??1?$_Func_class@PE$AAVGattLocalDescriptor@GenericAttributeProfile@Bluetooth@Devices@Windows@@V?$Local@VValue@v8@@@v8@@@std@@QEAA@XZ 00000001800399d0 f i _nodert_generated.obj
 0001:00038a10       ??1?$_Func_class@PE$AAVGattPresentationFormat@GenericAttributeProfile@Bluetooth@Devices@Windows@@V?$Local@VValue@v8@@@v8@@@std@@QEAA@XZ 0000000180039a10 f i _nodert_generated.obj
 0001:00038a50       ??1?$_Func_class@PE$AAVGattSubscribedClient@GenericAttributeProfile@Bluetooth@Devices@Windows@@V?$Local@VValue@v8@@@v8@@@std@@QEAA@XZ 0000000180039a50 f i _nodert_generated.obj
 0001:00038a90       ??1?$_Func_class@V?$Local@VValue@v8@@@v8@@PE$AAVGattCharacteristic@GenericAttributeProfile@Bluetooth@Devices@Windows@@@std@@QEAA@XZ 0000000180039a90 f i _nodert_generated.obj
 0001:00038ad0       ??1?$_Func_class@V?$Local@VValue@v8@@@v8@@PE$AAVGattClientNotificationResult@GenericAttributeProfile@Bluetooth@Devices@Windows@@@std@@QEAA@XZ 0000000180039ad0 f i _nodert_generated.obj
 0001:00038b10       ??1?$_Func_class@V?$Local@VValue@v8@@@v8@@PE$AAVGattDescriptor@GenericAttributeProfile@Bluetooth@Devices@Windows@@@std@@QEAA@XZ 0000000180039b10 f i _nodert_generated.obj
 0001:00038b50       ??1?$_Func_class@V?$Local@VValue@v8@@@v8@@PE$AAVGattDeviceService@GenericAttributeProfile@Bluetooth@Devices@Windows@@@std@@QEAA@XZ 0000000180039b50 f i _nodert_generated.obj
 0001:00038b90       ??1?$_Func_class@V?$Local@VValue@v8@@@v8@@PE$AAVGattLocalCharacteristic@GenericAttributeProfile@Bluetooth@Devices@Windows@@@std@@QEAA@XZ 0000000180039b90 f i _nodert_generated.obj
 0001:00038bd0       ??1?$_Func_class@V?$Local@VValue@v8@@@v8@@PE$AAVGattLocalDescriptor@GenericAttributeProfile@Bluetooth@Devices@Windows@@@std@@QEAA@XZ 0000000180039bd0 f i _nodert_generated.obj
 0001:00038c10       ??1?$_Func_class@V?$Local@VValue@v8@@@v8@@PE$AAVGattPresentationFormat@GenericAttributeProfile@Bluetooth@Devices@Windows@@@std@@QEAA@XZ 0000000180039c10 f i _nodert_generated.obj
 0001:00038c50       ??1?$_Func_class@V?$Local@VValue@v8@@@v8@@PE$AAVGattSubscribedClient@GenericAttributeProfile@Bluetooth@Devices@Windows@@@std@@QEAA@XZ 0000000180039c50 f i _nodert_generated.obj
 0001:00038c90       ??1?$_Func_class@X$$V@std@@QEAA@XZ 0000000180039c90 f i _nodert_generated.obj
 0001:00038cd0       ??1?$_Func_class@XHPEAV?$Local@VValue@v8@@@v8@@@std@@QEAA@XZ 0000000180039cd0 f i _nodert_generated.obj
 0001:00038d10       ??1?$_Func_class@XV?$function@$$A6AXHPEAV?$Local@VValue@v8@@@v8@@@Z@std@@@std@@QEAA@XZ 0000000180039d10 f i _nodert_generated.obj
 0001:00038d50       ??1?$_Func_class@XV?$task@PE$AAU?$IVectorView@PE$AAVGattClientNotificationResult@GenericAttributeProfile@Bluetooth@Devices@Windows@@@Collections@Foundation@Windows@@@Concurrency@@@std@@QEAA@XZ 0000000180039d50 f i _nodert_generated.obj
 0001:00038d90       ??1?$_Func_class@XV?$task@PE$AAVGattCharacteristicsResult@GenericAttributeProfile@Bluetooth@Devices@Windows@@@Concurrency@@@std@@QEAA@XZ 0000000180039d90 f i _nodert_generated.obj
 0001:00038dd0       ??1?$_Func_class@XV?$task@PE$AAVGattClientNotificationResult@GenericAttributeProfile@Bluetooth@Devices@Windows@@@Concurrency@@@std@@QEAA@XZ 0000000180039dd0 f i _nodert_generated.obj
 0001:00038e10       ??1?$_Func_class@XV?$task@PE$AAVGattDescriptorsResult@GenericAttributeProfile@Bluetooth@Devices@Windows@@@Concurrency@@@std@@QEAA@XZ 0000000180039e10 f i _nodert_generated.obj
 0001:00038e50       ??1?$_Func_class@XV?$task@PE$AAVGattDeviceService@GenericAttributeProfile@Bluetooth@Devices@Windows@@@Concurrency@@@std@@QEAA@XZ 0000000180039e50 f i _nodert_generated.obj
 0001:00038e90       ??1?$_Func_class@XV?$task@PE$AAVGattDeviceServicesResult@GenericAttributeProfile@Bluetooth@Devices@Windows@@@Concurrency@@@std@@QEAA@XZ 0000000180039e90 f i _nodert_generated.obj
 0001:00038ed0       ??1?$_Func_class@XV?$task@PE$AAVGattLocalCharacteristicResult@GenericAttributeProfile@Bluetooth@Devices@Windows@@@Concurrency@@@std@@QEAA@XZ 0000000180039ed0 f i _nodert_generated.obj
 0001:00038f10       ??1?$_Func_class@XV?$task@PE$AAVGattLocalDescriptorResult@GenericAttributeProfile@Bluetooth@Devices@Windows@@@Concurrency@@@std@@QEAA@XZ 0000000180039f10 f i _nodert_generated.obj
 0001:00038f50       ??1?$_Func_class@XV?$task@PE$AAVGattReadClientCharacteristicConfigurationDescriptorResult@GenericAttributeProfile@Bluetooth@Devices@Windows@@@Concurrency@@@std@@QEAA@XZ 0000000180039f50 f i _nodert_generated.obj
 0001:00038f90       ??1?$_Func_class@XV?$task@PE$AAVGattReadRequest@GenericAttributeProfile@Bluetooth@Devices@Windows@@@Concurrency@@@std@@QEAA@XZ 0000000180039f90 f i _nodert_generated.obj
 0001:00038fd0       ??1?$_Func_class@XV?$task@PE$AAVGattReadResult@GenericAttributeProfile@Bluetooth@Devices@Windows@@@Concurrency@@@std@@QEAA@XZ 0000000180039fd0 f i _nodert_generated.obj
 0001:00039010       ??1?$_Func_class@XV?$task@PE$AAVGattServiceProviderResult@GenericAttributeProfile@Bluetooth@Devices@Windows@@@Concurrency@@@std@@QEAA@XZ 000000018003a010 f i _nodert_generated.obj
 0001:00039050       ??1?$_Func_class@XV?$task@PE$AAVGattSession@GenericAttributeProfile@Bluetooth@Devices@Windows@@@Concurrency@@@std@@QEAA@XZ 000000018003a050 f i _nodert_generated.obj
 0001:00039090       ??1?$_Func_class@XV?$task@PE$AAVGattWriteRequest@GenericAttributeProfile@Bluetooth@Devices@Windows@@@Concurrency@@@std@@QEAA@XZ 000000018003a090 f i _nodert_generated.obj
 0001:000390d0       ??1?$_Func_class@XV?$task@PE$AAVGattWriteResult@GenericAttributeProfile@Bluetooth@Devices@Windows@@@Concurrency@@@std@@QEAA@XZ 000000018003a0d0 f i _nodert_generated.obj
 0001:00039110       ??1?$_Func_class@XV?$task@W4DeviceAccessStatus@Enumeration@Devices@Windows@@@Concurrency@@@std@@QEAA@XZ 000000018003a110 f i _nodert_generated.obj
 0001:00039150       ??1?$_Func_class@XV?$task@W4GattCommunicationStatus@GenericAttributeProfile@Bluetooth@Devices@Windows@@@Concurrency@@@std@@QEAA@XZ 000000018003a150 f i _nodert_generated.obj
 0001:00039190       ??1?$_Func_class@XV?$task@W4GattOpenStatus@GenericAttributeProfile@Bluetooth@Devices@Windows@@@Concurrency@@@std@@QEAA@XZ 000000018003a190 f i _nodert_generated.obj
 0001:000391d0       ??1?$_Func_class@_NV?$Local@VValue@v8@@@v8@@@std@@QEAA@XZ 000000018003a1d0 f i _nodert_generated.obj
 0001:00039210       ??1?$_Func_impl@V<lambda_f25c37099038263181b5186a3fa41b37>@@V?$allocator@H@std@@X$$V@std@@QEAA@XZ 000000018003a210 f i _nodert_generated.obj
 0001:000392d0       ??1?$_Func_impl@V<lambda_fc55a96778b695da9907353a9fdacbca>@@V?$allocator@H@std@@X$$V@std@@QEAA@XZ 000000018003a2d0 f i _nodert_generated.obj
 0001:00039370       ??1?$_PPLTaskHandle@EU?$_ContinuationTaskHandle@PE$AAU?$IVectorView@PE$AAVGattClientNotificationResult@GenericAttributeProfile@Bluetooth@Devices@Windows@@@Collections@Foundation@Windows@@XV?$function@$$A6AXV?$task@PE$AAU?$IVectorView@PE$AAVGattClientNotificationResult@GenericAttributeProfile@Bluetooth@Devices@Windows@@@Collections@Foundation@Windows@@@Concurrency@@@Z@std@@U?$integral_constant@_N$00@6@U_TypeSelectorNoAsync@details@Concurrency@@@?$task@PE$AAU?$IVectorView@PE$AAVGattClientNotificationResult@GenericAttributeProfile@Bluetooth@Devices@Windows@@@Collections@Foundation@Windows@@@Concurrency@@U_ContinuationTaskHandleBase@details@3@@details@Concurrency@@UEAA@XZ 000000018003a370 f i _nodert_generated.obj
 0001:00039440       ??1?$_PPLTaskHandle@EU?$_ContinuationTaskHandle@PE$AAVGattCharacteristicsResult@GenericAttributeProfile@Bluetooth@Devices@Windows@@XV?$function@$$A6AXV?$task@PE$AAVGattCharacteristicsResult@GenericAttributeProfile@Bluetooth@Devices@Windows@@@Concurrency@@@Z@std@@U?$integral_constant@_N$00@7@U_TypeSelectorNoAsync@details@Concurrency@@@?$task@PE$AAVGattCharacteristicsResult@GenericAttributeProfile@Bluetooth@Devices@Windows@@@Concurrency@@U_ContinuationTaskHandleBase@details@3@@details@Concurrency@@UEAA@XZ 000000018003a440 f i _nodert_generated.obj
 0001:00039510       ??1?$_PPLTaskHandle@EU?$_ContinuationTaskHandle@PE$AAVGattClientNotificationResult@GenericAttributeProfile@Bluetooth@Devices@Windows@@XV?$function@$$A6AXV?$task@PE$AAVGattClientNotificationResult@GenericAttributeProfile@Bluetooth@Devices@Windows@@@Concurrency@@@Z@std@@U?$integral_constant@_N$00@7@U_TypeSelectorNoAsync@details@Concurrency@@@?$task@PE$AAVGattClientNotificationResult@GenericAttributeProfile@Bluetooth@Devices@Windows@@@Concurrency@@U_ContinuationTaskHandleBase@details@3@@details@Concurrency@@UEAA@XZ 000000018003a510 f i _nodert_generated.obj
 0001:000395e0       ??1?$_PPLTaskHandle@EU?$_ContinuationTaskHandle@PE$AAVGattDescriptorsResult@GenericAttributeProfile@Bluetooth@Devices@Windows@@XV?$function@$$A6AXV?$task@PE$AAVGattDescriptorsResult@GenericAttributeProfile@Bluetooth@Devices@Windows@@@Concurrency@@@Z@std@@U?$integral_constant@_N$00@7@U_TypeSelectorNoAsync@details@Concurrency@@@?$task@PE$AAVGattDescriptorsResult@GenericAttributeProfile@Bluetooth@Devices@Windows@@@Concurrency@@U_ContinuationTaskHandleBase@details@3@@details@Concurrency@@UEAA@XZ 000000018003a5e0 f i _nodert_generated.obj
 0001:000396b0       ??1?$_PPLTaskHandle@EU?$_ContinuationTaskHandle@PE$AAVGattDeviceService@GenericAttributeProfile@Bluetooth@Devices@Windows@@XV?$function@$$A6AXV?$task@PE$AAVGattDeviceService@GenericAttributeProfile@Bluetooth@Devices@Windows@@@Concurrency@@@Z@std@@U?$integral_constant@_N$00@7@U_TypeSelectorNoAsync@details@Concurrency@@@?$task@PE$AAVGattDeviceService@GenericAttributeProfile@Bluetooth@Devices@Windows@@@Concurrency@@U_ContinuationTaskHandleBase@details@3@@details@Concurrency@@UEAA@XZ 000000018003a6b0 f i _nodert_generated.obj
 0001:00039780       ??1?$_PPLTaskHandle@EU?$_ContinuationTaskHandle@PE$AAVGattDeviceServicesResult@GenericAttributeProfile@Bluetooth@Devices@Windows@@XV?$function@$$A6AXV?$task@PE$AAVGattDeviceServicesResult@GenericAttributeProfile@Bluetooth@Devices@Windows@@@Concurrency@@@Z@std@@U?$integral_constant@_N$00@7@U_TypeSelectorNoAsync@details@Concurrency@@@?$task@PE$AAVGattDeviceServicesResult@GenericAttributeProfile@Bluetooth@Devices@Windows@@@Concurrency@@U_ContinuationTaskHandleBase@details@3@@details@Concurrency@@UEAA@XZ 000000018003a780 f i _nodert_generated.obj
 0001:00039850       ??1?$_PPLTaskHandle@EU?$_ContinuationTaskHandle@PE$AAVGattLocalCharacteristicResult@GenericAttributeProfile@Bluetooth@Devices@Windows@@XV?$function@$$A6AXV?$task@PE$AAVGattLocalCharacteristicResult@GenericAttributeProfile@Bluetooth@Devices@Windows@@@Concurrency@@@Z@std@@U?$integral_constant@_N$00@7@U_TypeSelectorNoAsync@details@Concurrency@@@?$task@PE$AAVGattLocalCharacteristicResult@GenericAttributeProfile@Bluetooth@Devices@Windows@@@Concurrency@@U_ContinuationTaskHandleBase@details@3@@details@Concurrency@@UEAA@XZ 000000018003a850 f i _nodert_generated.obj
 0001:00039920       ??1?$_PPLTaskHandle@EU?$_ContinuationTaskHandle@PE$AAVGattLocalDescriptorResult@GenericAttributeProfile@Bluetooth@Devices@Windows@@XV?$function@$$A6AXV?$task@PE$AAVGattLocalDescriptorResult@GenericAttributeProfile@Bluetooth@Devices@Windows@@@Concurrency@@@Z@std@@U?$integral_constant@_N$00@7@U_TypeSelectorNoAsync@details@Concurrency@@@?$task@PE$AAVGattLocalDescriptorResult@GenericAttributeProfile@Bluetooth@Devices@Windows@@@Concurrency@@U_ContinuationTaskHandleBase@details@3@@details@Concurrency@@UEAA@XZ 000000018003a920 f i _nodert_generated.obj
 0001:000399f0       ??1?$_PPLTaskHandle@EU?$_ContinuationTaskHandle@PE$AAVGattReadClientCharacteristicConfigurationDescriptorResult@GenericAttributeProfile@Bluetooth@Devices@Windows@@XV?$function@$$A6AXV?$task@PE$AAVGattReadClientCharacteristicConfigurationDescriptorResult@GenericAttributeProfile@Bluetooth@Devices@Windows@@@Concurrency@@@Z@std@@U?$integral_constant@_N$00@7@U_TypeSelectorNoAsync@details@Concurrency@@@?$task@PE$AAVGattReadClientCharacteristicConfigurationDescriptorResult@GenericAttributeProfile@Bluetooth@Devices@Windows@@@Concurrency@@U_ContinuationTaskHandleBase@details@3@@details@Concurrency@@UEAA@XZ 000000018003a9f0 f i _nodert_generated.obj
 0001:00039ac0       ??1?$_PPLTaskHandle@EU?$_ContinuationTaskHandle@PE$AAVGattReadRequest@GenericAttributeProfile@Bluetooth@Devices@Windows@@XV?$function@$$A6AXV?$task@PE$AAVGattReadRequest@GenericAttributeProfile@Bluetooth@Devices@Windows@@@Concurrency@@@Z@std@@U?$integral_constant@_N$00@7@U_TypeSelectorNoAsync@details@Concurrency@@@?$task@PE$AAVGattReadRequest@GenericAttributeProfile@Bluetooth@Devices@Windows@@@Concurrency@@U_ContinuationTaskHandleBase@details@3@@details@Concurrency@@UEAA@XZ 000000018003aac0 f i _nodert_generated.obj
 0001:00039b90       ??1?$_PPLTaskHandle@EU?$_ContinuationTaskHandle@PE$AAVGattReadResult@GenericAttributeProfile@Bluetooth@Devices@Windows@@XV?$function@$$A6AXV?$task@PE$AAVGattReadResult@GenericAttributeProfile@Bluetooth@Devices@Windows@@@Concurrency@@@Z@std@@U?$integral_constant@_N$00@7@U_TypeSelectorNoAsync@details@Concurrency@@@?$task@PE$AAVGattReadResult@GenericAttributeProfile@Bluetooth@Devices@Windows@@@Concurrency@@U_ContinuationTaskHandleBase@details@3@@details@Concurrency@@UEAA@XZ 000000018003ab90 f i _nodert_generated.obj
 0001:00039c60       ??1?$_PPLTaskHandle@EU?$_ContinuationTaskHandle@PE$AAVGattServiceProviderResult@GenericAttributeProfile@Bluetooth@Devices@Windows@@XV?$function@$$A6AXV?$task@PE$AAVGattServiceProviderResult@GenericAttributeProfile@Bluetooth@Devices@Windows@@@Concurrency@@@Z@std@@U?$integral_constant@_N$00@7@U_TypeSelectorNoAsync@details@Concurrency@@@?$task@PE$AAVGattServiceProviderResult@GenericAttributeProfile@Bluetooth@Devices@Windows@@@Concurrency@@U_ContinuationTaskHandleBase@details@3@@details@Concurrency@@UEAA@XZ 000000018003ac60 f i _nodert_generated.obj
 0001:00039d30       ??1?$_PPLTaskHandle@EU?$_ContinuationTaskHandle@PE$AAVGattSession@GenericAttributeProfile@Bluetooth@Devices@Windows@@XV?$function@$$A6AXV?$task@PE$AAVGattSession@GenericAttributeProfile@Bluetooth@Devices@Windows@@@Concurrency@@@Z@std@@U?$integral_constant@_N$00@7@U_TypeSelectorNoAsync@details@Concurrency@@@?$task@PE$AAVGattSession@GenericAttributeProfile@Bluetooth@Devices@Windows@@@Concurrency@@U_ContinuationTaskHandleBase@details@3@@details@Concurrency@@UEAA@XZ 000000018003ad30 f i _nodert_generated.obj
 0001:00039e00       ??1?$_PPLTaskHandle@EU?$_ContinuationTaskHandle@PE$AAVGattWriteRequest@GenericAttributeProfile@Bluetooth@Devices@Windows@@XV?$function@$$A6AXV?$task@PE$AAVGattWriteRequest@GenericAttributeProfile@Bluetooth@Devices@Windows@@@Concurrency@@@Z@std@@U?$integral_constant@_N$00@7@U_TypeSelectorNoAsync@details@Concurrency@@@?$task@PE$AAVGattWriteRequest@GenericAttributeProfile@Bluetooth@Devices@Windows@@@Concurrency@@U_ContinuationTaskHandleBase@details@3@@details@Concurrency@@UEAA@XZ 000000018003ae00 f i _nodert_generated.obj
 0001:00039ed0       ??1?$_PPLTaskHandle@EU?$_ContinuationTaskHandle@PE$AAVGattWriteResult@GenericAttributeProfile@Bluetooth@Devices@Windows@@XV?$function@$$A6AXV?$task@PE$AAVGattWriteResult@GenericAttributeProfile@Bluetooth@Devices@Windows@@@Concurrency@@@Z@std@@U?$integral_constant@_N$00@7@U_TypeSelectorNoAsync@details@Concurrency@@@?$task@PE$AAVGattWriteResult@GenericAttributeProfile@Bluetooth@Devices@Windows@@@Concurrency@@U_ContinuationTaskHandleBase@details@3@@details@Concurrency@@UEAA@XZ 000000018003aed0 f i _nodert_generated.obj
 0001:00039fa0       ??1?$_PPLTaskHandle@EU?$_ContinuationTaskHandle@W4DeviceAccessStatus@Enumeration@Devices@Windows@@XV?$function@$$A6AXV?$task@W4DeviceAccessStatus@Enumeration@Devices@Windows@@@Concurrency@@@Z@std@@U?$integral_constant@_N$00@6@U_TypeSelectorNoAsync@details@Concurrency@@@?$task@W4DeviceAccessStatus@Enumeration@Devices@Windows@@@Concurrency@@U_ContinuationTaskHandleBase@details@3@@details@Concurrency@@UEAA@XZ 000000018003afa0 f i _nodert_generated.obj
 0001:0003a070       ??1?$_PPLTaskHandle@EU?$_ContinuationTaskHandle@W4GattCommunicationStatus@GenericAttributeProfile@Bluetooth@Devices@Windows@@XV?$function@$$A6AXV?$task@W4GattCommunicationStatus@GenericAttributeProfile@Bluetooth@Devices@Windows@@@Concurrency@@@Z@std@@U?$integral_constant@_N$00@7@U_TypeSelectorNoAsync@details@Concurrency@@@?$task@W4GattCommunicationStatus@GenericAttributeProfile@Bluetooth@Devices@Windows@@@Concurrency@@U_ContinuationTaskHandleBase@details@3@@details@Concurrency@@UEAA@XZ 000000018003b070 f i _nodert_generated.obj
 0001:0003a140       ??1?$_PPLTaskHandle@EU?$_ContinuationTaskHandle@W4GattOpenStatus@GenericAttributeProfile@Bluetooth@Devices@Windows@@XV?$function@$$A6AXV?$task@W4GattOpenStatus@GenericAttributeProfile@Bluetooth@Devices@Windows@@@Concurrency@@@Z@std@@U?$integral_constant@_N$00@7@U_TypeSelectorNoAsync@details@Concurrency@@@?$task@W4GattOpenStatus@GenericAttributeProfile@Bluetooth@Devices@Windows@@@Concurrency@@U_ContinuationTaskHandleBase@details@3@@details@Concurrency@@UEAA@XZ 000000018003b140 f i _nodert_generated.obj
 0001:0003a210       ??1?$_Task_impl@E@details@Concurrency@@UEAA@XZ 000000018003b210 f i _nodert_generated.obj
 0001:0003a2d0       ??1?$_Task_impl@PE$AAU?$IVectorView@PE$AAVGattClientNotificationResult@GenericAttributeProfile@Bluetooth@Devices@Windows@@@Collections@Foundation@Windows@@@details@Concurrency@@UEAA@XZ 000000018003b2d0 f i _nodert_generated.obj
 0001:0003a3e0       ??1?$_Task_impl@PE$AAVGattCharacteristicsResult@GenericAttributeProfile@Bluetooth@Devices@Windows@@@details@Concurrency@@UEAA@XZ 000000018003b3e0 f i _nodert_generated.obj
 0001:0003a4e0       ??1?$_Task_impl@PE$AAVGattClientNotificationResult@GenericAttributeProfile@Bluetooth@Devices@Windows@@@details@Concurrency@@UEAA@XZ 000000018003b4e0 f i _nodert_generated.obj
 0001:0003a5e0       ??1?$_Task_impl@PE$AAVGattDescriptorsResult@GenericAttributeProfile@Bluetooth@Devices@Windows@@@details@Concurrency@@UEAA@XZ 000000018003b5e0 f i _nodert_generated.obj
 0001:0003a6e0       ??1?$_Task_impl@PE$AAVGattDeviceService@GenericAttributeProfile@Bluetooth@Devices@Windows@@@details@Concurrency@@UEAA@XZ 000000018003b6e0 f i _nodert_generated.obj
 0001:0003a7e0       ??1?$_Task_impl@PE$AAVGattDeviceServicesResult@GenericAttributeProfile@Bluetooth@Devices@Windows@@@details@Concurrency@@UEAA@XZ 000000018003b7e0 f i _nodert_generated.obj
 0001:0003a8e0       ??1?$_Task_impl@PE$AAVGattLocalCharacteristicResult@GenericAttributeProfile@Bluetooth@Devices@Windows@@@details@Concurrency@@UEAA@XZ 000000018003b8e0 f i _nodert_generated.obj
 0001:0003a9e0       ??1?$_Task_impl@PE$AAVGattLocalDescriptorResult@GenericAttributeProfile@Bluetooth@Devices@Windows@@@details@Concurrency@@UEAA@XZ 000000018003b9e0 f i _nodert_generated.obj
 0001:0003aae0       ??1?$_Task_impl@PE$AAVGattReadClientCharacteristicConfigurationDescriptorResult@GenericAttributeProfile@Bluetooth@Devices@Windows@@@details@Concurrency@@UEAA@XZ 000000018003bae0 f i _nodert_generated.obj
 0001:0003abe0       ??1?$_Task_impl@PE$AAVGattReadRequest@GenericAttributeProfile@Bluetooth@Devices@Windows@@@details@Concurrency@@UEAA@XZ 000000018003bbe0 f i _nodert_generated.obj
 0001:0003ace0       ??1?$_Task_impl@PE$AAVGattReadResult@GenericAttributeProfile@Bluetooth@Devices@Windows@@@details@Concurrency@@UEAA@XZ 000000018003bce0 f i _nodert_generated.obj
 0001:0003ade0       ??1?$_Task_impl@PE$AAVGattServiceProviderResult@GenericAttributeProfile@Bluetooth@Devices@Windows@@@details@Concurrency@@UEAA@XZ 000000018003bde0 f i _nodert_generated.obj
 0001:0003aee0       ??1?$_Task_impl@PE$AAVGattSession@GenericAttributeProfile@Bluetooth@Devices@Windows@@@details@Concurrency@@UEAA@XZ 000000018003bee0 f i _nodert_generated.obj
 0001:0003afe0       ??1?$_Task_impl@PE$AAVGattWriteRequest@GenericAttributeProfile@Bluetooth@Devices@Windows@@@details@Concurrency@@UEAA@XZ 000000018003bfe0 f i _nodert_generated.obj
 0001:0003b0e0       ??1?$_Task_impl@PE$AAVGattWriteResult@GenericAttributeProfile@Bluetooth@Devices@Windows@@@details@Concurrency@@UEAA@XZ 000000018003c0e0 f i _nodert_generated.obj
 0001:0003b1e0       ??1?$_Task_impl@W4DeviceAccessStatus@Enumeration@Devices@Windows@@@details@Concurrency@@UEAA@XZ 000000018003c1e0 f i _nodert_generated.obj
 0001:0003b2a0       ??1?$_Task_impl@W4GattCommunicationStatus@GenericAttributeProfile@Bluetooth@Devices@Windows@@@details@Concurrency@@UEAA@XZ 000000018003c2a0 f i _nodert_generated.obj
 0001:0003b360       ??1?$_Task_impl@W4GattOpenStatus@GenericAttributeProfile@Bluetooth@Devices@Windows@@@details@Concurrency@@UEAA@XZ 000000018003c360 f i _nodert_generated.obj
 0001:0003b420       ??1?$__abi_FunctorCapture@V<lambda_012d1b0716f3329ce77b4dc59e2ea2c4>@@XPE$AAU?$IAsyncOperation@PE$AAVGattReadResult@GenericAttributeProfile@Bluetooth@Devices@Windows@@@Foundation@Windows@@W4AsyncStatus@34@@Details@Platform@@UEAA@XZ 000000018003c420 f i _nodert_generated.obj
 0001:0003b4c0       ??1?$__abi_FunctorCapture@V<lambda_090bdc159f06daf1ad7df2aa3c78a4be>@@XPE$AAVGattReadRequest@GenericAttributeProfile@Bluetooth@Devices@Windows@@PE$AAVGattRequestStateChangedEventArgs@3456@@Details@Platform@@UEAA@XZ 000000018003c4c0 f i _nodert_generated.obj
 0001:0003b560       ??1?$__abi_FunctorCapture@V<lambda_0a9020982a14342fb1e918139af240e1>@@XPE$AAU?$IAsyncOperation@PE$AAVGattReadRequest@GenericAttributeProfile@Bluetooth@Devices@Windows@@@Foundation@Windows@@W4AsyncStatus@34@@Details@Platform@@UEAA@XZ 000000018003c560 f i _nodert_generated.obj
 0001:0003b600       ??1?$__abi_FunctorCapture@V<lambda_1e7c9a6d2940facc4be4f3701614cac2>@@XPE$AAVGattCharacteristic@GenericAttributeProfile@Bluetooth@Devices@Windows@@PE$AAVGattValueChangedEventArgs@3456@@Details@Platform@@UEAA@XZ 000000018003c600 f i _nodert_generated.obj
 0001:0003b6a0       ??1?$__abi_FunctorCapture@V<lambda_27c3f1d4b0a81c9410ff8960a453e918>@@XPE$AAU?$IAsyncOperation@PE$AAVGattServiceProviderResult@GenericAttributeProfile@Bluetooth@Devices@Windows@@@Foundation@Windows@@W4AsyncStatus@34@@Details@Platform@@UEAA@XZ 000000018003c6a0 f i _nodert_generated.obj
 0001:0003b740       ??1?$__abi_FunctorCapture@V<lambda_2c0a6636ae14641389e798624ba358eb>@@XPE$AAU?$IAsyncOperation@W4GattOpenStatus@GenericAttributeProfile@Bluetooth@Devices@Windows@@@Foundation@Windows@@W4AsyncStatus@34@@Details@Platform@@UEAA@XZ 000000018003c740 f i _nodert_generated.obj
 0001:0003b7e0       ??1?$__abi_FunctorCapture@V<lambda_399b06989cb7af58905804fceeab192c>@@XPE$AAU?$IAsyncOperation@PE$AAVGattLocalCharacteristicResult@GenericAttributeProfile@Bluetooth@Devices@Windows@@@Foundation@Windows@@W4AsyncStatus@34@@Details@Platform@@UEAA@XZ 000000018003c7e0 f i _nodert_generated.obj
 0001:0003b880       ??1?$__abi_FunctorCapture@V<lambda_3f385f7136180657b99a85d2aef88f1a>@@XPE$AAU?$IAsyncOperation@PE$AAVGattClientNotificationResult@GenericAttributeProfile@Bluetooth@Devices@Windows@@@Foundation@Windows@@W4AsyncStatus@34@@Details@Platform@@UEAA@XZ 000000018003c880 f i _nodert_generated.obj
 0001:0003b920       ??1?$__abi_FunctorCapture@V<lambda_4888d9310bec5452d0bb8f7f1b36752b>@@XPE$AAU?$IAsyncOperation@W4DeviceAccessStatus@Enumeration@Devices@Windows@@@Foundation@Windows@@W4AsyncStatus@34@@Details@Platform@@UEAA@XZ 000000018003c920 f i _nodert_generated.obj
 0001:0003b9c0       ??1?$__abi_FunctorCapture@V<lambda_59deb91dcb35d7ef053ea0a6eba68806>@@XPE$AAU?$IAsyncOperation@PE$AAVGattWriteRequest@GenericAttributeProfile@Bluetooth@Devices@Windows@@@Foundation@Windows@@W4AsyncStatus@34@@Details@Platform@@UEAA@XZ 000000018003c9c0 f i _nodert_generated.obj
 0001:0003ba60       ??1?$__abi_FunctorCapture@V<lambda_5b5d6f33d7c1af9e4714bef40fb1bdd8>@@XPE$AAU?$IAsyncOperation@PE$AAVGattDeviceService@GenericAttributeProfile@Bluetooth@Devices@Windows@@@Foundation@Windows@@W4AsyncStatus@34@@Details@Platform@@UEAA@XZ 000000018003ca60 f i _nodert_generated.obj
 0001:0003bb00       ??1?$__abi_FunctorCapture@V<lambda_67d43b9443a249c9bdd0ddd65a0a7143>@@XPE$AAVGattSession@GenericAttributeProfile@Bluetooth@Devices@Windows@@PE$AAVObject@Platform@@@Details@Platform@@UEAA@XZ 000000018003cb00 f i _nodert_generated.obj
 0001:0003bba0       ??1?$__abi_FunctorCapture@V<lambda_6a95c42219ea05b374040d54ed0dcf40>@@XPE$AAVGattLocalDescriptor@GenericAttributeProfile@Bluetooth@Devices@Windows@@PE$AAVGattReadRequestedEventArgs@3456@@Details@Platform@@UEAA@XZ 000000018003cba0 f i _nodert_generated.obj
 0001:0003bc40       ??1?$__abi_FunctorCapture@V<lambda_74845d04b0ded4417a55353b3d1ccc92>@@XPE$AAU?$IAsyncOperation@PE$AAVGattSession@GenericAttributeProfile@Bluetooth@Devices@Windows@@@Foundation@Windows@@W4AsyncStatus@34@@Details@Platform@@UEAA@XZ 000000018003cc40 f i _nodert_generated.obj
 0001:0003bce0       ??1?$__abi_FunctorCapture@V<lambda_78435badbdad8286054cccdf55e74883>@@XPE$AAU?$IAsyncOperation@PE$AAVGattDescriptorsResult@GenericAttributeProfile@Bluetooth@Devices@Windows@@@Foundation@Windows@@W4AsyncStatus@34@@Details@Platform@@UEAA@XZ 000000018003cce0 f i _nodert_generated.obj
 0001:0003bd80       ??1?$__abi_FunctorCapture@V<lambda_7a59f362d5d7e53ea2283eda76e9d412>@@XPE$AAVGattSession@GenericAttributeProfile@Bluetooth@Devices@Windows@@PE$AAVGattSessionStatusChangedEventArgs@3456@@Details@Platform@@UEAA@XZ 000000018003cd80 f i _nodert_generated.obj
 0001:0003be20       ??1?$__abi_FunctorCapture@V<lambda_7f5659bcea5d2531b7562165d7c1ccb3>@@XPE$AAVGattSubscribedClient@GenericAttributeProfile@Bluetooth@Devices@Windows@@PE$AAVObject@Platform@@@Details@Platform@@UEAA@XZ 000000018003ce20 f i _nodert_generated.obj
 0001:0003bec0       ??1?$__abi_FunctorCapture@V<lambda_8a184a7b15054694030a78acb2100e45>@@XPE$AAVGattWriteRequest@GenericAttributeProfile@Bluetooth@Devices@Windows@@PE$AAVGattRequestStateChangedEventArgs@3456@@Details@Platform@@UEAA@XZ 000000018003cec0 f i _nodert_generated.obj
 0001:0003bf60       ??1?$__abi_FunctorCapture@V<lambda_98d579945f4c83d34f8a428098012be1>@@XPE$AAVGattServiceProvider@GenericAttributeProfile@Bluetooth@Devices@Windows@@PE$AAVGattServiceProviderAdvertisementStatusChangedEventArgs@3456@@Details@Platform@@UEAA@XZ 000000018003cf60 f i _nodert_generated.obj
 0001:0003c000       ??1?$__abi_FunctorCapture@V<lambda_a0302cf3a5e5ab57348d3ae6e320902d>@@XPE$AAU?$IAsyncOperation@PE$AAVGattReadClientCharacteristicConfigurationDescriptorResult@GenericAttributeProfile@Bluetooth@Devices@Windows@@@Foundation@Windows@@W4AsyncStatus@34@@Details@Platform@@UEAA@XZ 000000018003d000 f i _nodert_generated.obj
 0001:0003c0a0       ??1?$__abi_FunctorCapture@V<lambda_a72d7d755ea2b68030b9db336f3a6993>@@XPE$AAVGattLocalCharacteristic@GenericAttributeProfile@Bluetooth@Devices@Windows@@PE$AAVGattWriteRequestedEventArgs@3456@@Details@Platform@@UEAA@XZ 000000018003d0a0 f i _nodert_generated.obj
 0001:0003c140       ??1?$__abi_FunctorCapture@V<lambda_a8834aaf222d29bff47139cb548fc10f>@@XPE$AAVGattLocalCharacteristic@GenericAttributeProfile@Bluetooth@Devices@Windows@@PE$AAVObject@Platform@@@Details@Platform@@UEAA@XZ 000000018003d140 f i _nodert_generated.obj
 0001:0003c1e0       ??1?$__abi_FunctorCapture@V<lambda_abc89208398fe61ed8a5e99711cb35c7>@@XPE$AAU?$IAsyncOperation@PE$AAVGattCharacteristicsResult@GenericAttributeProfile@Bluetooth@Devices@Windows@@@Foundation@Windows@@W4AsyncStatus@34@@Details@Platform@@UEAA@XZ 000000018003d1e0 f i _nodert_generated.obj
 0001:0003c280       ??1?$__abi_FunctorCapture@V<lambda_bfddb030084298f4346709237491b2f5>@@XPE$AAU?$IAsyncOperation@PE$AAVGattWriteResult@GenericAttributeProfile@Bluetooth@Devices@Windows@@@Foundation@Windows@@W4AsyncStatus@34@@Details@Platform@@UEAA@XZ 000000018003d280 f i _nodert_generated.obj
 0001:0003c320       ??1?$__abi_FunctorCapture@V<lambda_cd1e0c671fdfa373cd4c83898506f7ac>@@XPE$AAU?$IAsyncOperation@PE$AAVGattDeviceServicesResult@GenericAttributeProfile@Bluetooth@Devices@Windows@@@Foundation@Windows@@W4AsyncStatus@34@@Details@Platform@@UEAA@XZ 000000018003d320 f i _nodert_generated.obj
 0001:0003c3c0       ??1?$__abi_FunctorCapture@V<lambda_d198f58cb38642f4ce4504b7023daa7d>@@XPE$AAU?$IAsyncOperation@W4GattCommunicationStatus@GenericAttributeProfile@Bluetooth@Devices@Windows@@@Foundation@Windows@@W4AsyncStatus@34@@Details@Platform@@UEAA@XZ 000000018003d3c0 f i _nodert_generated.obj
 0001:0003c460       ??1?$__abi_FunctorCapture@V<lambda_d364069c78f44ced2d04e6f16c14fb6e>@@XPE$AAU?$IAsyncOperation@PE$AAU?$IVectorView@PE$AAVGattClientNotificationResult@GenericAttributeProfile@Bluetooth@Devices@Windows@@@Collections@Foundation@Windows@@@Foundation@Windows@@W4AsyncStatus@34@@Details@Platform@@UEAA@XZ 000000018003d460 f i _nodert_generated.obj
 0001:0003c500       ??1?$__abi_FunctorCapture@V<lambda_f2c183ffcc3e535ab19cd5a930224e71>@@XPE$AAVGattLocalCharacteristic@GenericAttributeProfile@Bluetooth@Devices@Windows@@PE$AAVGattReadRequestedEventArgs@3456@@Details@Platform@@UEAA@XZ 000000018003d500 f i _nodert_generated.obj
 0001:0003c5a0       ??1?$__abi_FunctorCapture@V<lambda_fd38ceb54481fc5685093e4ce388a0db>@@XPE$AAU?$IAsyncOperation@PE$AAVGattLocalDescriptorResult@GenericAttributeProfile@Bluetooth@Devices@Windows@@@Foundation@Windows@@W4AsyncStatus@34@@Details@Platform@@UEAA@XZ 000000018003d5a0 f i _nodert_generated.obj
 0001:0003c640       ??1?$__abi_FunctorCapture@V<lambda_ff76360401e4d6f85634a86ab84aed97>@@XPE$AAVGattLocalDescriptor@GenericAttributeProfile@Bluetooth@Devices@Windows@@PE$AAVGattWriteRequestedEventArgs@3456@@Details@Platform@@UEAA@XZ 000000018003d640 f i _nodert_generated.obj
 0001:0003c6e0       ??1?$function@$$A6A?AV?$Local@VValue@v8@@@v8@@PE$AAVGattCharacteristic@GenericAttributeProfile@Bluetooth@Devices@Windows@@@Z@std@@QEAA@XZ 000000018003d6e0 f i _nodert_generated.obj
 0001:0003c720       ??1?$function@$$A6A?AV?$Local@VValue@v8@@@v8@@PE$AAVGattClientNotificationResult@GenericAttributeProfile@Bluetooth@Devices@Windows@@@Z@std@@QEAA@XZ 000000018003d720 f i _nodert_generated.obj
 0001:0003c760       ??1?$function@$$A6A?AV?$Local@VValue@v8@@@v8@@PE$AAVGattDescriptor@GenericAttributeProfile@Bluetooth@Devices@Windows@@@Z@std@@QEAA@XZ 000000018003d760 f i _nodert_generated.obj
 0001:0003c7a0       ??1?$function@$$A6A?AV?$Local@VValue@v8@@@v8@@PE$AAVGattDeviceService@GenericAttributeProfile@Bluetooth@Devices@Windows@@@Z@std@@QEAA@XZ 000000018003d7a0 f i _nodert_generated.obj
 0001:0003c7e0       ??1?$function@$$A6A?AV?$Local@VValue@v8@@@v8@@PE$AAVGattLocalCharacteristic@GenericAttributeProfile@Bluetooth@Devices@Windows@@@Z@std@@QEAA@XZ 000000018003d7e0 f i _nodert_generated.obj
 0001:0003c820       ??1?$function@$$A6A?AV?$Local@VValue@v8@@@v8@@PE$AAVGattLocalDescriptor@GenericAttributeProfile@Bluetooth@Devices@Windows@@@Z@std@@QEAA@XZ 000000018003d820 f i _nodert_generated.obj
 0001:0003c860       ??1?$function@$$A6A?AV?$Local@VValue@v8@@@v8@@PE$AAVGattPresentationFormat@GenericAttributeProfile@Bluetooth@Devices@Windows@@@Z@std@@QEAA@XZ 000000018003d860 f i _nodert_generated.obj
 0001:0003c8a0       ??1?$function@$$A6A?AV?$Local@VValue@v8@@@v8@@PE$AAVGattSubscribedClient@GenericAttributeProfile@Bluetooth@Devices@Windows@@@Z@std@@QEAA@XZ 000000018003d8a0 f i _nodert_generated.obj
 0001:0003c8e0       ??1?$function@$$A6AEV?$task@PE$AAU?$IVectorView@PE$AAVGattClientNotificationResult@GenericAttributeProfile@Bluetooth@Devices@Windows@@@Collections@Foundation@Windows@@@Concurrency@@@Z@std@@QEAA@XZ 000000018003d8e0 f i _nodert_generated.obj
 0001:0003c920       ??1?$function@$$A6AEV?$task@PE$AAVGattCharacteristicsResult@GenericAttributeProfile@Bluetooth@Devices@Windows@@@Concurrency@@@Z@std@@QEAA@XZ 000000018003d920 f i _nodert_generated.obj
 0001:0003c960       ??1?$function@$$A6AEV?$task@PE$AAVGattClientNotificationResult@GenericAttributeProfile@Bluetooth@Devices@Windows@@@Concurrency@@@Z@std@@QEAA@XZ 000000018003d960 f i _nodert_generated.obj
 0001:0003c9a0       ??1?$function@$$A6AEV?$task@PE$AAVGattDescriptorsResult@GenericAttributeProfile@Bluetooth@Devices@Windows@@@Concurrency@@@Z@std@@QEAA@XZ 000000018003d9a0 f i _nodert_generated.obj
 0001:0003c9e0       ??1?$function@$$A6AEV?$task@PE$AAVGattDeviceService@GenericAttributeProfile@Bluetooth@Devices@Windows@@@Concurrency@@@Z@std@@QEAA@XZ 000000018003d9e0 f i _nodert_generated.obj
 0001:0003ca20       ??1?$function@$$A6AEV?$task@PE$AAVGattDeviceServicesResult@GenericAttributeProfile@Bluetooth@Devices@Windows@@@Concurrency@@@Z@std@@QEAA@XZ 000000018003da20 f i _nodert_generated.obj
 0001:0003ca60       ??1?$function@$$A6AEV?$task@PE$AAVGattLocalCharacteristicResult@GenericAttributeProfile@Bluetooth@Devices@Windows@@@Concurrency@@@Z@std@@QEAA@XZ 000000018003da60 f i _nodert_generated.obj
 0001:0003caa0       ??1?$function@$$A6AEV?$task@PE$AAVGattLocalDescriptorResult@GenericAttributeProfile@Bluetooth@Devices@Windows@@@Concurrency@@@Z@std@@QEAA@XZ 000000018003daa0 f i _nodert_generated.obj
 0001:0003cae0       ??1?$function@$$A6AEV?$task@PE$AAVGattReadClientCharacteristicConfigurationDescriptorResult@GenericAttributeProfile@Bluetooth@Devices@Windows@@@Concurrency@@@Z@std@@QEAA@XZ 000000018003dae0 f i _nodert_generated.obj
 0001:0003cb20       ??1?$function@$$A6AEV?$task@PE$AAVGattReadRequest@GenericAttributeProfile@Bluetooth@Devices@Windows@@@Concurrency@@@Z@std@@QEAA@XZ 000000018003db20 f i _nodert_generated.obj
 0001:0003cb60       ??1?$function@$$A6AEV?$task@PE$AAVGattReadResult@GenericAttributeProfile@Bluetooth@Devices@Windows@@@Concurrency@@@Z@std@@QEAA@XZ 000000018003db60 f i _nodert_generated.obj
 0001:0003cba0       ??1?$function@$$A6AEV?$task@PE$AAVGattServiceProviderResult@GenericAttributeProfile@Bluetooth@Devices@Windows@@@Concurrency@@@Z@std@@QEAA@XZ 000000018003dba0 f i _nodert_generated.obj
 0001:0003cbe0       ??1?$function@$$A6AEV?$task@PE$AAVGattSession@GenericAttributeProfile@Bluetooth@Devices@Windows@@@Concurrency@@@Z@std@@QEAA@XZ 000000018003dbe0 f i _nodert_generated.obj
 0001:0003cc20       ??1?$function@$$A6AEV?$task@PE$AAVGattWriteRequest@GenericAttributeProfile@Bluetooth@Devices@Windows@@@Concurrency@@@Z@std@@QEAA@XZ 000000018003dc20 f i _nodert_generated.obj
 0001:0003cc60       ??1?$function@$$A6AEV?$task@PE$AAVGattWriteResult@GenericAttributeProfile@Bluetooth@Devices@Windows@@@Concurrency@@@Z@std@@QEAA@XZ 000000018003dc60 f i _nodert_generated.obj
 0001:0003cca0       ??1?$function@$$A6AEV?$task@W4DeviceAccessStatus@Enumeration@Devices@Windows@@@Concurrency@@@Z@std@@QEAA@XZ 000000018003dca0 f i _nodert_generated.obj
 0001:0003cce0       ??1?$function@$$A6AEV?$task@W4GattCommunicationStatus@GenericAttributeProfile@Bluetooth@Devices@Windows@@@Concurrency@@@Z@std@@QEAA@XZ 000000018003dce0 f i _nodert_generated.obj
 0001:0003cd20       ??1?$function@$$A6AEV?$task@W4GattOpenStatus@GenericAttributeProfile@Bluetooth@Devices@Windows@@@Concurrency@@@Z@std@@QEAA@XZ 000000018003dd20 f i _nodert_generated.obj
 0001:0003cd60       ??1?$function@$$A6APE$AAVGattCharacteristic@GenericAttributeProfile@Bluetooth@Devices@Windows@@V?$Local@VValue@v8@@@v8@@@Z@std@@QEAA@XZ 000000018003dd60 f i _nodert_generated.obj
 0001:0003cda0       ??1?$function@$$A6APE$AAVGattClientNotificationResult@GenericAttributeProfile@Bluetooth@Devices@Windows@@V?$Local@VValue@v8@@@v8@@@Z@std@@QEAA@XZ 000000018003dda0 f i _nodert_generated.obj
 0001:0003cde0       ??1?$function@$$A6APE$AAVGattDescriptor@GenericAttributeProfile@Bluetooth@Devices@Windows@@V?$Local@VValue@v8@@@v8@@@Z@std@@QEAA@XZ 000000018003dde0 f i _nodert_generated.obj
 0001:0003ce20       ??1?$function@$$A6APE$AAVGattDeviceService@GenericAttributeProfile@Bluetooth@Devices@Windows@@V?$Local@VValue@v8@@@v8@@@Z@std@@QEAA@XZ 000000018003de20 f i _nodert_generated.obj
 0001:0003ce60       ??1?$function@$$A6APE$AAVGattLocalCharacteristic@GenericAttributeProfile@Bluetooth@Devices@Windows@@V?$Local@VValue@v8@@@v8@@@Z@std@@QEAA@XZ 000000018003de60 f i _nodert_generated.obj
 0001:0003cea0       ??1?$function@$$A6APE$AAVGattLocalDescriptor@GenericAttributeProfile@Bluetooth@Devices@Windows@@V?$Local@VValue@v8@@@v8@@@Z@std@@QEAA@XZ 000000018003dea0 f i _nodert_generated.obj
 0001:0003cee0       ??1?$function@$$A6APE$AAVGattPresentationFormat@GenericAttributeProfile@Bluetooth@Devices@Windows@@V?$Local@VValue@v8@@@v8@@@Z@std@@QEAA@XZ 000000018003dee0 f i _nodert_generated.obj
 0001:0003cf20       ??1?$function@$$A6APE$AAVGattSubscribedClient@GenericAttributeProfile@Bluetooth@Devices@Windows@@V?$Local@VValue@v8@@@v8@@@Z@std@@QEAA@XZ 000000018003df20 f i _nodert_generated.obj
 0001:0003cf60       ??1?$function@$$A6AXHPEAV?$Local@VValue@v8@@@v8@@@Z@std@@QEAA@XZ 000000018003df60 f i _nodert_generated.obj
 0001:0003cfa0       ??1?$function@$$A6AXV?$function@$$A6AXHPEAV?$Local@VValue@v8@@@v8@@@Z@std@@@Z@std@@QEAA@XZ 000000018003dfa0 f i _nodert_generated.obj
 0001:0003cfe0       ??1?$function@$$A6AXV?$task@PE$AAU?$IVectorView@PE$AAVGattClientNotificationResult@GenericAttributeProfile@Bluetooth@Devices@Windows@@@Collections@Foundation@Windows@@@Concurrency@@@Z@std@@QEAA@XZ 000000018003dfe0 f i _nodert_generated.obj
 0001:0003d020       ??1?$function@$$A6AXV?$task@PE$AAVGattCharacteristicsResult@GenericAttributeProfile@Bluetooth@Devices@Windows@@@Concurrency@@@Z@std@@QEAA@XZ 000000018003e020 f i _nodert_generated.obj
 0001:0003d060       ??1?$function@$$A6AXV?$task@PE$AAVGattClientNotificationResult@GenericAttributeProfile@Bluetooth@Devices@Windows@@@Concurrency@@@Z@std@@QEAA@XZ 000000018003e060 f i _nodert_generated.obj
 0001:0003d0a0       ??1?$function@$$A6AXV?$task@PE$AAVGattDescriptorsResult@GenericAttributeProfile@Bluetooth@Devices@Windows@@@Concurrency@@@Z@std@@QEAA@XZ 000000018003e0a0 f i _nodert_generated.obj
 0001:0003d0e0       ??1?$function@$$A6AXV?$task@PE$AAVGattDeviceService@GenericAttributeProfile@Bluetooth@Devices@Windows@@@Concurrency@@@Z@std@@QEAA@XZ 000000018003e0e0 f i _nodert_generated.obj
 0001:0003d120       ??1?$function@$$A6AXV?$task@PE$AAVGattDeviceServicesResult@GenericAttributeProfile@Bluetooth@Devices@Windows@@@Concurrency@@@Z@std@@QEAA@XZ 000000018003e120 f i _nodert_generated.obj
 0001:0003d160       ??1?$function@$$A6AXV?$task@PE$AAVGattLocalCharacteristicResult@GenericAttributeProfile@Bluetooth@Devices@Windows@@@Concurrency@@@Z@std@@QEAA@XZ 000000018003e160 f i _nodert_generated.obj
 0001:0003d1a0       ??1?$function@$$A6AXV?$task@PE$AAVGattLocalDescriptorResult@GenericAttributeProfile@Bluetooth@Devices@Windows@@@Concurrency@@@Z@std@@QEAA@XZ 000000018003e1a0 f i _nodert_generated.obj
 0001:0003d1e0       ??1?$function@$$A6AXV?$task@PE$AAVGattReadClientCharacteristicConfigurationDescriptorResult@GenericAttributeProfile@Bluetooth@Devices@Windows@@@Concurrency@@@Z@std@@QEAA@XZ 000000018003e1e0 f i _nodert_generated.obj
 0001:0003d220       ??1?$function@$$A6AXV?$task@PE$AAVGattReadRequest@GenericAttributeProfile@Bluetooth@Devices@Windows@@@Concurrency@@@Z@std@@QEAA@XZ 000000018003e220 f i _nodert_generated.obj
 0001:0003d260       ??1?$function@$$A6AXV?$task@PE$AAVGattReadResult@GenericAttributeProfile@Bluetooth@Devices@Windows@@@Concurrency@@@Z@std@@QEAA@XZ 000000018003e260 f i _nodert_generated.obj
 0001:0003d2a0       ??1?$function@$$A6AXV?$task@PE$AAVGattServiceProviderResult@GenericAttributeProfile@Bluetooth@Devices@Windows@@@Concurrency@@@Z@std@@QEAA@XZ 000000018003e2a0 f i _nodert_generated.obj
 0001:0003d2e0       ??1?$function@$$A6AXV?$task@PE$AAVGattSession@GenericAttributeProfile@Bluetooth@Devices@Windows@@@Concurrency@@@Z@std@@QEAA@XZ 000000018003e2e0 f i _nodert_generated.obj
 0001:0003d320       ??1?$function@$$A6AXV?$task@PE$AAVGattWriteRequest@GenericAttributeProfile@Bluetooth@Devices@Windows@@@Concurrency@@@Z@std@@QEAA@XZ 000000018003e320 f i _nodert_generated.obj
 0001:0003d360       ??1?$function@$$A6AXV?$task@PE$AAVGattWriteResult@GenericAttributeProfile@Bluetooth@Devices@Windows@@@Concurrency@@@Z@std@@QEAA@XZ 000000018003e360 f i _nodert_generated.obj
 0001:0003d3a0       ??1?$function@$$A6AXV?$task@W4DeviceAccessStatus@Enumeration@Devices@Windows@@@Concurrency@@@Z@std@@QEAA@XZ 000000018003e3a0 f i _nodert_generated.obj
 0001:0003d3e0       ??1?$function@$$A6AXV?$task@W4GattCommunicationStatus@GenericAttributeProfile@Bluetooth@Devices@Windows@@@Concurrency@@@Z@std@@QEAA@XZ 000000018003e3e0 f i _nodert_generated.obj
 0001:0003d420       ??1?$function@$$A6AXV?$task@W4GattOpenStatus@GenericAttributeProfile@Bluetooth@Devices@Windows@@@Concurrency@@@Z@std@@QEAA@XZ 000000018003e420 f i _nodert_generated.obj
 0001:0003d460       ??1?$function@$$A6AXXZ@std@@QEAA@XZ 000000018003e460 f i _nodert_generated.obj
 0001:0003d4a0       ??1?$function@$$A6A_NV?$Local@VValue@v8@@@v8@@@Z@std@@QEAA@XZ 000000018003e4a0 f i _nodert_generated.obj
 0001:0003d4e0       ??1?$lock_guard@Vmutex@std@@@std@@QEAA@XZ 000000018003e4e0 f i _nodert_generated.obj
 0001:0003d510       ??1?$shared_ptr@U?$_Task_impl@E@details@Concurrency@@@std@@QEAA@XZ 000000018003e510 f i _nodert_generated.obj
 0001:0003d570       ??1?$shared_ptr@U?$_Task_impl@PE$AAU?$IVectorView@PE$AAVGattClientNotificationResult@GenericAttributeProfile@Bluetooth@Devices@Windows@@@Collections@Foundation@Windows@@@details@Concurrency@@@std@@QEAA@XZ 000000018003e570 f i _nodert_generated.obj
 0001:0003d5d0       ??1?$shared_ptr@U?$_Task_impl@PE$AAVGattCharacteristicsResult@GenericAttributeProfile@Bluetooth@Devices@Windows@@@details@Concurrency@@@std@@QEAA@XZ 000000018003e5d0 f i _nodert_generated.obj
 0001:0003d630       ??1?$shared_ptr@U?$_Task_impl@PE$AAVGattClientNotificationResult@GenericAttributeProfile@Bluetooth@Devices@Windows@@@details@Concurrency@@@std@@QEAA@XZ 000000018003e630 f i _nodert_generated.obj
 0001:0003d690       ??1?$shared_ptr@U?$_Task_impl@PE$AAVGattDescriptorsResult@GenericAttributeProfile@Bluetooth@Devices@Windows@@@details@Concurrency@@@std@@QEAA@XZ 000000018003e690 f i _nodert_generated.obj
 0001:0003d6f0       ??1?$shared_ptr@U?$_Task_impl@PE$AAVGattDeviceService@GenericAttributeProfile@Bluetooth@Devices@Windows@@@details@Concurrency@@@std@@QEAA@XZ 000000018003e6f0 f i _nodert_generated.obj
 0001:0003d750       ??1?$shared_ptr@U?$_Task_impl@PE$AAVGattDeviceServicesResult@GenericAttributeProfile@Bluetooth@Devices@Windows@@@details@Concurrency@@@std@@QEAA@XZ 000000018003e750 f i _nodert_generated.obj
 0001:0003d7b0       ??1?$shared_ptr@U?$_Task_impl@PE$AAVGattLocalCharacteristicResult@GenericAttributeProfile@Bluetooth@Devices@Windows@@@details@Concurrency@@@std@@QEAA@XZ 000000018003e7b0 f i _nodert_generated.obj
 0001:0003d810       ??1?$shared_ptr@U?$_Task_impl@PE$AAVGattLocalDescriptorResult@GenericAttributeProfile@Bluetooth@Devices@Windows@@@details@Concurrency@@@std@@QEAA@XZ 000000018003e810 f i _nodert_generated.obj
 0001:0003d870       ??1?$shared_ptr@U?$_Task_impl@PE$AAVGattReadClientCharacteristicConfigurationDescriptorResult@GenericAttributeProfile@Bluetooth@Devices@Windows@@@details@Concurrency@@@std@@QEAA@XZ 000000018003e870 f i _nodert_generated.obj
 0001:0003d8d0       ??1?$shared_ptr@U?$_Task_impl@PE$AAVGattReadRequest@GenericAttributeProfile@Bluetooth@Devices@Windows@@@details@Concurrency@@@std@@QEAA@XZ 000000018003e8d0 f i _nodert_generated.obj
 0001:0003d930       ??1?$shared_ptr@U?$_Task_impl@PE$AAVGattReadResult@GenericAttributeProfile@Bluetooth@Devices@Windows@@@details@Concurrency@@@std@@QEAA@XZ 000000018003e930 f i _nodert_generated.obj
 0001:0003d990       ??1?$shared_ptr@U?$_Task_impl@PE$AAVGattServiceProviderResult@GenericAttributeProfile@Bluetooth@Devices@Windows@@@details@Concurrency@@@std@@QEAA@XZ 000000018003e990 f i _nodert_generated.obj
 0001:0003d9f0       ??1?$shared_ptr@U?$_Task_impl@PE$AAVGattSession@GenericAttributeProfile@Bluetooth@Devices@Windows@@@details@Concurrency@@@std@@QEAA@XZ 000000018003e9f0 f i _nodert_generated.obj
 0001:0003da50       ??1?$shared_ptr@U?$_Task_impl@PE$AAVGattWriteRequest@GenericAttributeProfile@Bluetooth@Devices@Windows@@@details@Concurrency@@@std@@QEAA@XZ 000000018003ea50 f i _nodert_generated.obj
 0001:0003dab0       ??1?$shared_ptr@U?$_Task_impl@PE$AAVGattWriteResult@GenericAttributeProfile@Bluetooth@Devices@Windows@@@details@Concurrency@@@std@@QEAA@XZ 000000018003eab0 f i _nodert_generated.obj
 0001:0003db10       ??1?$shared_ptr@U?$_Task_impl@W4DeviceAccessStatus@Enumeration@Devices@Windows@@@details@Concurrency@@@std@@QEAA@XZ 000000018003eb10 f i _nodert_generated.obj
 0001:0003db70       ??1?$shared_ptr@U?$_Task_impl@W4GattCommunicationStatus@GenericAttributeProfile@Bluetooth@Devices@Windows@@@details@Concurrency@@@std@@QEAA@XZ 000000018003eb70 f i _nodert_generated.obj
 0001:0003dbd0       ??1?$shared_ptr@U?$_Task_impl@W4GattOpenStatus@GenericAttributeProfile@Bluetooth@Devices@Windows@@@details@Concurrency@@@std@@QEAA@XZ 000000018003ebd0 f i _nodert_generated.obj
 0001:0003dc30       ??1?$shared_ptr@U_ExceptionHolder@details@Concurrency@@@std@@QEAA@XZ 000000018003ec30 f i _nodert_generated.obj
 0001:0003dc90       ??1?$shared_ptr@U_Task_impl_base@details@Concurrency@@@std@@QEAA@XZ 000000018003ec90 f i _nodert_generated.obj
 0001:0003dcf0       ??1?$shared_ptr@Uscheduler_interface@Concurrency@@@std@@QEAA@XZ 000000018003ecf0 f i _nodert_generated.obj
 0001:0003dd50       ??1?$shared_ptr@V?$Persistent@VObject@v8@@V?$NonCopyablePersistentTraits@VObject@v8@@@2@@Nan@@@std@@QEAA@XZ 000000018003ed50 f i _nodert_generated.obj
 0001:0003ddb0       ??1?$task@PE$AAU?$IVectorView@PE$AAVGattClientNotificationResult@GenericAttributeProfile@Bluetooth@Devices@Windows@@@Collections@Foundation@Windows@@@Concurrency@@QEAA@XZ 000000018003edb0 f i _nodert_generated.obj
 0001:0003de20       ??1?$task@PE$AAVGattCharacteristicsResult@GenericAttributeProfile@Bluetooth@Devices@Windows@@@Concurrency@@QEAA@XZ 000000018003ee20 f i _nodert_generated.obj
 0001:0003de90       ??1?$task@PE$AAVGattClientNotificationResult@GenericAttributeProfile@Bluetooth@Devices@Windows@@@Concurrency@@QEAA@XZ 000000018003ee90 f i _nodert_generated.obj
 0001:0003df00       ??1?$task@PE$AAVGattDescriptorsResult@GenericAttributeProfile@Bluetooth@Devices@Windows@@@Concurrency@@QEAA@XZ 000000018003ef00 f i _nodert_generated.obj
 0001:0003df70       ??1?$task@PE$AAVGattDeviceService@GenericAttributeProfile@Bluetooth@Devices@Windows@@@Concurrency@@QEAA@XZ 000000018003ef70 f i _nodert_generated.obj
 0001:0003dfe0       ??1?$task@PE$AAVGattDeviceServicesResult@GenericAttributeProfile@Bluetooth@Devices@Windows@@@Concurrency@@QEAA@XZ 000000018003efe0 f i _nodert_generated.obj
 0001:0003e050       ??1?$task@PE$AAVGattLocalCharacteristicResult@GenericAttributeProfile@Bluetooth@Devices@Windows@@@Concurrency@@QEAA@XZ 000000018003f050 f i _nodert_generated.obj
 0001:0003e0c0       ??1?$task@PE$AAVGattLocalDescriptorResult@GenericAttributeProfile@Bluetooth@Devices@Windows@@@Concurrency@@QEAA@XZ 000000018003f0c0 f i _nodert_generated.obj
 0001:0003e130       ??1?$task@PE$AAVGattReadClientCharacteristicConfigurationDescriptorResult@GenericAttributeProfile@Bluetooth@Devices@Windows@@@Concurrency@@QEAA@XZ 000000018003f130 f i _nodert_generated.obj
 0001:0003e1a0       ??1?$task@PE$AAVGattReadRequest@GenericAttributeProfile@Bluetooth@Devices@Windows@@@Concurrency@@QEAA@XZ 000000018003f1a0 f i _nodert_generated.obj
 0001:0003e210       ??1?$task@PE$AAVGattReadResult@GenericAttributeProfile@Bluetooth@Devices@Windows@@@Concurrency@@QEAA@XZ 000000018003f210 f i _nodert_generated.obj
 0001:0003e280       ??1?$task@PE$AAVGattServiceProviderResult@GenericAttributeProfile@Bluetooth@Devices@Windows@@@Concurrency@@QEAA@XZ 000000018003f280 f i _nodert_generated.obj
 0001:0003e2f0       ??1?$task@PE$AAVGattSession@GenericAttributeProfile@Bluetooth@Devices@Windows@@@Concurrency@@QEAA@XZ 000000018003f2f0 f i _nodert_generated.obj
 0001:0003e360       ??1?$task@PE$AAVGattWriteRequest@GenericAttributeProfile@Bluetooth@Devices@Windows@@@Concurrency@@QEAA@XZ 000000018003f360 f i _nodert_generated.obj
 0001:0003e3d0       ??1?$task@PE$AAVGattWriteResult@GenericAttributeProfile@Bluetooth@Devices@Windows@@@Concurrency@@QEAA@XZ 000000018003f3d0 f i _nodert_generated.obj
 0001:0003e440       ??1?$task@W4DeviceAccessStatus@Enumeration@Devices@Windows@@@Concurrency@@QEAA@XZ 000000018003f440 f i _nodert_generated.obj
 0001:0003e4b0       ??1?$task@W4GattCommunicationStatus@GenericAttributeProfile@Bluetooth@Devices@Windows@@@Concurrency@@QEAA@XZ 000000018003f4b0 f i _nodert_generated.obj
 0001:0003e520       ??1?$task@W4GattOpenStatus@GenericAttributeProfile@Bluetooth@Devices@Windows@@@Concurrency@@QEAA@XZ 000000018003f520 f i _nodert_generated.obj
 0001:0003e590       ??1?$task@X@Concurrency@@QEAA@XZ 000000018003f590 f i _nodert_generated.obj
 0001:0003e600       ??1?$unique_lock@Vmutex@std@@@std@@QEAA@XZ 000000018003f600 f i _nodert_generated.obj
 0001:0003e640       ??1?$unique_ptr@$$BY0A@V?$Local@VValue@v8@@@v8@@U?$default_delete@$$BY0A@V?$Local@VValue@v8@@@v8@@@std@@@std@@QEAA@XZ 000000018003f640 f i _nodert_generated.obj
 0001:0003e650       ??1?$unique_ptr@U_TaskProcHandle@details@Concurrency@@U?$default_delete@U_TaskProcHandle@details@Concurrency@@@std@@@std@@QEAA@XZ 000000018003f650 f i _nodert_generated.obj
 0001:0003e670       ??1?$unique_ptr@V_PPLTaskChore@_DefaultPPLTaskScheduler@details@Concurrency@@U?$default_delete@V_PPLTaskChore@_DefaultPPLTaskScheduler@details@Concurrency@@@std@@@std@@QEAA@XZ 000000018003f670 f i _nodert_generated.obj
 0001:0003e6c0       ??1?$weak_ptr@U_Task_impl_base@details@Concurrency@@@std@@QEAA@XZ 000000018003f6c0 f i _nodert_generated.obj
 0001:0003e6f0       ??1AsyncResource@Nan@@QEAA@XZ 000000018003f6f0 f i _nodert_generated.obj
 0001:0003e740       ??1EscapableHandleScope@Nan@@QEAA@XZ 000000018003f740 f i _nodert_generated.obj
 0001:0003e750       ??1HandleScope@Nan@@QEAA@XZ 000000018003f750 f i _nodert_generated.obj
 0001:0003e760       ??1ObjectWrap@Nan@@UEAA@XZ 000000018003f760 f i _nodert_generated.obj
 0001:0003e800       ??1TokenData@Async@NodeUtils@@UEAA@XZ 000000018003f800 f i _nodert_generated.obj
 0001:0003e880       ??1TryCatch@Nan@@QEAA@XZ   000000018003f880 f i _nodert_generated.obj
 0001:0003e890       ??1WrapperBase@NodeRT@@UEAA@XZ 000000018003f890 f i _nodert_generated.obj
 0001:0003e8a0       ??1_CancellationTokenRegistration@details@Concurrency@@MEAA@XZ 000000018003f8a0 f i _nodert_generated.obj
 0001:0003e8f0       ??1_ContextCallback@details@Concurrency@@QEAA@XZ 000000018003f8f0 f i _nodert_generated.obj
 0001:0003e910       ??1_ContinuationTaskHandleBase@details@Concurrency@@UEAA@XZ 000000018003f910 f i _nodert_generated.obj
 0001:0003e960       ??1_ExceptionHolder@details@Concurrency@@QEAA@XZ 000000018003f960 f i _nodert_generated.obj
 0001:0003e9f0       ??1_Holder@_TaskProcThunk@details@Concurrency@@QEAA@XZ 000000018003f9f0 f i _nodert_generated.obj
 0001:0003ea50       ??1_Internal_task_options@details@Concurrency@@QEAA@XZ 000000018003fa50 f i _nodert_generated.obj
 0001:0003eaa0       ??1_RefCounter@details@Concurrency@@UEAA@XZ 000000018003faa0 f i _nodert_generated.obj
 0001:0003eab0       ??1_Ref_count_base@std@@UEAA@XZ 000000018003fab0 f i _nodert_generated.obj
 0001:0003eac0       ??1_TaskCollectionBaseImpl@details@Concurrency@@QEAA@XZ 000000018003fac0 f i _nodert_generated.obj
 0001:0003eb60       ??1_TaskCreationCallstack@details@Concurrency@@QEAA@XZ 000000018003fb60 f i _nodert_generated.obj
 0001:0003ebb0       ??1_TaskProcHandle@details@Concurrency@@UEAA@XZ 000000018003fbb0 f i _nodert_generated.obj
 0001:0003ebc0       ??1_TaskWorkItemRAIILogger@details@Concurrency@@QEAA@XZ 000000018003fbc0 f i _nodert_generated.obj
 0001:0003ebf0       ??1_Task_impl_base@details@Concurrency@@UEAA@XZ 000000018003fbf0 f i _nodert_generated.obj
 0001:0003ed00       ??1_ThenImplOptions@details@Concurrency@@QEAA@XZ 000000018003fd00 f i _nodert_generated.obj
 0001:0003edb0       ??1__abi_CaptureBase@Details@Platform@@MEAA@XZ 000000018003fdb0 f i _nodert_generated.obj
 0001:0003edc0       ??1__abi_CapturePtr@Details@Platform@@QEAA@XZ 000000018003fdc0 f i _nodert_generated.obj
 0001:0003ee20       ??1cancellation_token@Concurrency@@QEAA@XZ 000000018003fe20 f i _nodert_generated.obj
 0001:0003ee70       ??1exception@stdext@@UEAA@XZ 000000018003fe70 f i _nodert_generated.obj
 0001:0003ee80       ??1exception_ptr@std@@QEAA@XZ 000000018003fe80 f i _nodert_generated.obj
 0001:0003ee90       ??1invalid_operation@Concurrency@@UEAA@XZ 000000018003fe90 f i _nodert_generated.obj
 0001:0003eea0       ??1mutex@std@@QEAA@XZ      000000018003fea0 f i _nodert_generated.obj
 0001:0003eeb0       ??1runtime_error@std@@UEAA@XZ 000000018003feb0 f i _nodert_generated.obj
 0001:0003eec0       ??1scheduler_ptr@Concurrency@@QEAA@XZ 000000018003fec0 f i _nodert_generated.obj
 0001:0003ef30       ??1task_canceled@Concurrency@@UEAA@XZ 000000018003ff30 f i _nodert_generated.obj
 0001:0003ef40       ??1task_continuation_context@Concurrency@@QEAA@XZ 000000018003ff40 f i _nodert_generated.obj
 0001:0003ef60       ??1task_options@Concurrency@@QEAA@XZ 000000018003ff60 f i _nodert_generated.obj
 0001:0003f050       ??3@YAXPEAX0@Z             0000000180040050 f i _nodert_generated.obj
 0001:0003f060       ??3__abi_CaptureBase@Details@Platform@@SAXPEAX0@Z 0000000180040060 f i _nodert_generated.obj
 0001:0003f0b0       ??4?$Agile@PE$AAU?$IVectorView@PE$AAVGattClientNotificationResult@GenericAttributeProfile@Bluetooth@Devices@Windows@@@Collections@Foundation@Windows@@$00@Platform@@QEAAAEAV01@PE$AAU?$IVectorView@PE$AAVGattClientNotificationResult@GenericAttributeProfile@Bluetooth@Devices@Windows@@@Collections@Foundation@Windows@@@Z 00000001800400b0 f i _nodert_generated.obj
 0001:0003f330       ??4?$shared_ptr@U?$_Task_impl@E@details@Concurrency@@@std@@QEAAAEAV01@$$QEAV01@@Z 0000000180040330 f i _nodert_generated.obj
 0001:0003f3e0       ??4?$shared_ptr@U?$_Task_impl@PE$AAU?$IVectorView@PE$AAVGattClientNotificationResult@GenericAttributeProfile@Bluetooth@Devices@Windows@@@Collections@Foundation@Windows@@@details@Concurrency@@@std@@QEAAAEAV01@$$QEAV01@@Z 00000001800403e0 f i _nodert_generated.obj
 0001:0003f490       ??4?$shared_ptr@U?$_Task_impl@PE$AAU?$IVectorView@PE$AAVGattClientNotificationResult@GenericAttributeProfile@Bluetooth@Devices@Windows@@@Collections@Foundation@Windows@@@details@Concurrency@@@std@@QEAAAEAV01@AEBV01@@Z 0000000180040490 f i _nodert_generated.obj
 0001:0003f540       ??4?$shared_ptr@U?$_Task_impl@PE$AAVGattCharacteristicsResult@GenericAttributeProfile@Bluetooth@Devices@Windows@@@details@Concurrency@@@std@@QEAAAEAV01@$$QEAV01@@Z 0000000180040540 f i _nodert_generated.obj
 0001:0003f5f0       ??4?$shared_ptr@U?$_Task_impl@PE$AAVGattCharacteristicsResult@GenericAttributeProfile@Bluetooth@Devices@Windows@@@details@Concurrency@@@std@@QEAAAEAV01@AEBV01@@Z 00000001800405f0 f i _nodert_generated.obj
 0001:0003f6a0       ??4?$shared_ptr@U?$_Task_impl@PE$AAVGattClientNotificationResult@GenericAttributeProfile@Bluetooth@Devices@Windows@@@details@Concurrency@@@std@@QEAAAEAV01@$$QEAV01@@Z 00000001800406a0 f i _nodert_generated.obj
 0001:0003f750       ??4?$shared_ptr@U?$_Task_impl@PE$AAVGattClientNotificationResult@GenericAttributeProfile@Bluetooth@Devices@Windows@@@details@Concurrency@@@std@@QEAAAEAV01@AEBV01@@Z 0000000180040750 f i _nodert_generated.obj
 0001:0003f800       ??4?$shared_ptr@U?$_Task_impl@PE$AAVGattDescriptorsResult@GenericAttributeProfile@Bluetooth@Devices@Windows@@@details@Concurrency@@@std@@QEAAAEAV01@$$QEAV01@@Z 0000000180040800 f i _nodert_generated.obj
 0001:0003f8b0       ??4?$shared_ptr@U?$_Task_impl@PE$AAVGattDescriptorsResult@GenericAttributeProfile@Bluetooth@Devices@Windows@@@details@Concurrency@@@std@@QEAAAEAV01@AEBV01@@Z 00000001800408b0 f i _nodert_generated.obj
 0001:0003f960       ??4?$shared_ptr@U?$_Task_impl@PE$AAVGattDeviceService@GenericAttributeProfile@Bluetooth@Devices@Windows@@@details@Concurrency@@@std@@QEAAAEAV01@$$QEAV01@@Z 0000000180040960 f i _nodert_generated.obj
 0001:0003fa10       ??4?$shared_ptr@U?$_Task_impl@PE$AAVGattDeviceService@GenericAttributeProfile@Bluetooth@Devices@Windows@@@details@Concurrency@@@std@@QEAAAEAV01@AEBV01@@Z 0000000180040a10 f i _nodert_generated.obj
 0001:0003fac0       ??4?$shared_ptr@U?$_Task_impl@PE$AAVGattDeviceServicesResult@GenericAttributeProfile@Bluetooth@Devices@Windows@@@details@Concurrency@@@std@@QEAAAEAV01@$$QEAV01@@Z 0000000180040ac0 f i _nodert_generated.obj
 0001:0003fb70       ??4?$shared_ptr@U?$_Task_impl@PE$AAVGattDeviceServicesResult@GenericAttributeProfile@Bluetooth@Devices@Windows@@@details@Concurrency@@@std@@QEAAAEAV01@AEBV01@@Z 0000000180040b70 f i _nodert_generated.obj
 0001:0003fc20       ??4?$shared_ptr@U?$_Task_impl@PE$AAVGattLocalCharacteristicResult@GenericAttributeProfile@Bluetooth@Devices@Windows@@@details@Concurrency@@@std@@QEAAAEAV01@$$QEAV01@@Z 0000000180040c20 f i _nodert_generated.obj
 0001:0003fcd0       ??4?$shared_ptr@U?$_Task_impl@PE$AAVGattLocalCharacteristicResult@GenericAttributeProfile@Bluetooth@Devices@Windows@@@details@Concurrency@@@std@@QEAAAEAV01@AEBV01@@Z 0000000180040cd0 f i _nodert_generated.obj
 0001:0003fd80       ??4?$shared_ptr@U?$_Task_impl@PE$AAVGattLocalDescriptorResult@GenericAttributeProfile@Bluetooth@Devices@Windows@@@details@Concurrency@@@std@@QEAAAEAV01@$$QEAV01@@Z 0000000180040d80 f i _nodert_generated.obj
 0001:0003fe30       ??4?$shared_ptr@U?$_Task_impl@PE$AAVGattLocalDescriptorResult@GenericAttributeProfile@Bluetooth@Devices@Windows@@@details@Concurrency@@@std@@QEAAAEAV01@AEBV01@@Z 0000000180040e30 f i _nodert_generated.obj
 0001:0003fee0       ??4?$shared_ptr@U?$_Task_impl@PE$AAVGattReadClientCharacteristicConfigurationDescriptorResult@GenericAttributeProfile@Bluetooth@Devices@Windows@@@details@Concurrency@@@std@@QEAAAEAV01@$$QEAV01@@Z 0000000180040ee0 f i _nodert_generated.obj
 0001:0003ff90       ??4?$shared_ptr@U?$_Task_impl@PE$AAVGattReadClientCharacteristicConfigurationDescriptorResult@GenericAttributeProfile@Bluetooth@Devices@Windows@@@details@Concurrency@@@std@@QEAAAEAV01@AEBV01@@Z 0000000180040f90 f i _nodert_generated.obj
 0001:00040040       ??4?$shared_ptr@U?$_Task_impl@PE$AAVGattReadRequest@GenericAttributeProfile@Bluetooth@Devices@Windows@@@details@Concurrency@@@std@@QEAAAEAV01@$$QEAV01@@Z 0000000180041040 f i _nodert_generated.obj
 0001:000400f0       ??4?$shared_ptr@U?$_Task_impl@PE$AAVGattReadRequest@GenericAttributeProfile@Bluetooth@Devices@Windows@@@details@Concurrency@@@std@@QEAAAEAV01@AEBV01@@Z 00000001800410f0 f i _nodert_generated.obj
 0001:000401a0       ??4?$shared_ptr@U?$_Task_impl@PE$AAVGattReadResult@GenericAttributeProfile@Bluetooth@Devices@Windows@@@details@Concurrency@@@std@@QEAAAEAV01@$$QEAV01@@Z 00000001800411a0 f i _nodert_generated.obj
 0001:00040250       ??4?$shared_ptr@U?$_Task_impl@PE$AAVGattReadResult@GenericAttributeProfile@Bluetooth@Devices@Windows@@@details@Concurrency@@@std@@QEAAAEAV01@AEBV01@@Z 0000000180041250 f i _nodert_generated.obj
 0001:00040300       ??4?$shared_ptr@U?$_Task_impl@PE$AAVGattServiceProviderResult@GenericAttributeProfile@Bluetooth@Devices@Windows@@@details@Concurrency@@@std@@QEAAAEAV01@$$QEAV01@@Z 0000000180041300 f i _nodert_generated.obj
 0001:000403b0       ??4?$shared_ptr@U?$_Task_impl@PE$AAVGattServiceProviderResult@GenericAttributeProfile@Bluetooth@Devices@Windows@@@details@Concurrency@@@std@@QEAAAEAV01@AEBV01@@Z 00000001800413b0 f i _nodert_generated.obj
 0001:00040460       ??4?$shared_ptr@U?$_Task_impl@PE$AAVGattSession@GenericAttributeProfile@Bluetooth@Devices@Windows@@@details@Concurrency@@@std@@QEAAAEAV01@$$QEAV01@@Z 0000000180041460 f i _nodert_generated.obj
 0001:00040510       ??4?$shared_ptr@U?$_Task_impl@PE$AAVGattSession@GenericAttributeProfile@Bluetooth@Devices@Windows@@@details@Concurrency@@@std@@QEAAAEAV01@AEBV01@@Z 0000000180041510 f i _nodert_generated.obj
 0001:000405c0       ??4?$shared_ptr@U?$_Task_impl@PE$AAVGattWriteRequest@GenericAttributeProfile@Bluetooth@Devices@Windows@@@details@Concurrency@@@std@@QEAAAEAV01@$$QEAV01@@Z 00000001800415c0 f i _nodert_generated.obj
 0001:00040670       ??4?$shared_ptr@U?$_Task_impl@PE$AAVGattWriteRequest@GenericAttributeProfile@Bluetooth@Devices@Windows@@@details@Concurrency@@@std@@QEAAAEAV01@AEBV01@@Z 0000000180041670 f i _nodert_generated.obj
 0001:00040720       ??4?$shared_ptr@U?$_Task_impl@PE$AAVGattWriteResult@GenericAttributeProfile@Bluetooth@Devices@Windows@@@details@Concurrency@@@std@@QEAAAEAV01@$$QEAV01@@Z 0000000180041720 f i _nodert_generated.obj
 0001:000407d0       ??4?$shared_ptr@U?$_Task_impl@PE$AAVGattWriteResult@GenericAttributeProfile@Bluetooth@Devices@Windows@@@details@Concurrency@@@std@@QEAAAEAV01@AEBV01@@Z 00000001800417d0 f i _nodert_generated.obj
 0001:00040880       ??4?$shared_ptr@U?$_Task_impl@W4DeviceAccessStatus@Enumeration@Devices@Windows@@@details@Concurrency@@@std@@QEAAAEAV01@$$QEAV01@@Z 0000000180041880 f i _nodert_generated.obj
 0001:00040930       ??4?$shared_ptr@U?$_Task_impl@W4DeviceAccessStatus@Enumeration@Devices@Windows@@@details@Concurrency@@@std@@QEAAAEAV01@AEBV01@@Z 0000000180041930 f i _nodert_generated.obj
 0001:000409e0       ??4?$shared_ptr@U?$_Task_impl@W4GattCommunicationStatus@GenericAttributeProfile@Bluetooth@Devices@Windows@@@details@Concurrency@@@std@@QEAAAEAV01@$$QEAV01@@Z 00000001800419e0 f i _nodert_generated.obj
 0001:00040a90       ??4?$shared_ptr@U?$_Task_impl@W4GattCommunicationStatus@GenericAttributeProfile@Bluetooth@Devices@Windows@@@details@Concurrency@@@std@@QEAAAEAV01@AEBV01@@Z 0000000180041a90 f i _nodert_generated.obj
 0001:00040b40       ??4?$shared_ptr@U?$_Task_impl@W4GattOpenStatus@GenericAttributeProfile@Bluetooth@Devices@Windows@@@details@Concurrency@@@std@@QEAAAEAV01@$$QEAV01@@Z 0000000180041b40 f i _nodert_generated.obj
 0001:00040bf0       ??4?$shared_ptr@U?$_Task_impl@W4GattOpenStatus@GenericAttributeProfile@Bluetooth@Devices@Windows@@@details@Concurrency@@@std@@QEAAAEAV01@AEBV01@@Z 0000000180041bf0 f i _nodert_generated.obj
 0001:00040ca0       ??4?$shared_ptr@U_ExceptionHolder@details@Concurrency@@@std@@QEAAAEAV01@AEBV01@@Z 0000000180041ca0 f i _nodert_generated.obj
 0001:00040d50       ??4?$vector@PEAXV?$allocator@PEAX@std@@@std@@QEAAAEAV01@AEBV01@@Z 0000000180041d50 f i _nodert_generated.obj
 0001:00040ee0       ??B?$Box@_J@Platform@@QE$AAA_JXZ 0000000180041ee0 f i _nodert_generated.obj
 0001:0004bb90       ??R?$_Func_class@EV?$task@PE$AAU?$IVectorView@PE$AAVGattClientNotificationResult@GenericAttributeProfile@Bluetooth@Devices@Windows@@@Collections@Foundation@Windows@@@Concurrency@@@std@@QEBAEV?$task@PE$AAU?$IVectorView@PE$AAVGattClientNotificationResult@GenericAttributeProfile@Bluetooth@Devices@Windows@@@Collections@Foundation@Windows@@@Concurrency@@@Z 000000018004cb90 f i _nodert_generated.obj
 0001:0004bc30       ??R?$_Func_class@EV?$task@PE$AAVGattCharacteristicsResult@GenericAttributeProfile@Bluetooth@Devices@Windows@@@Concurrency@@@std@@QEBAEV?$task@PE$AAVGattCharacteristicsResult@GenericAttributeProfile@Bluetooth@Devices@Windows@@@Concurrency@@@Z 000000018004cc30 f i _nodert_generated.obj
 0001:0004bcd0       ??R?$_Func_class@EV?$task@PE$AAVGattClientNotificationResult@GenericAttributeProfile@Bluetooth@Devices@Windows@@@Concurrency@@@std@@QEBAEV?$task@PE$AAVGattClientNotificationResult@GenericAttributeProfile@Bluetooth@Devices@Windows@@@Concurrency@@@Z 000000018004ccd0 f i _nodert_generated.obj
 0001:0004bd70       ??R?$_Func_class@EV?$task@PE$AAVGattDescriptorsResult@GenericAttributeProfile@Bluetooth@Devices@Windows@@@Concurrency@@@std@@QEBAEV?$task@PE$AAVGattDescriptorsResult@GenericAttributeProfile@Bluetooth@Devices@Windows@@@Concurrency@@@Z 000000018004cd70 f i _nodert_generated.obj
 0001:0004be10       ??R?$_Func_class@EV?$task@PE$AAVGattDeviceService@GenericAttributeProfile@Bluetooth@Devices@Windows@@@Concurrency@@@std@@QEBAEV?$task@PE$AAVGattDeviceService@GenericAttributeProfile@Bluetooth@Devices@Windows@@@Concurrency@@@Z 000000018004ce10 f i _nodert_generated.obj
 0001:0004beb0       ??R?$_Func_class@EV?$task@PE$AAVGattDeviceServicesResult@GenericAttributeProfile@Bluetooth@Devices@Windows@@@Concurrency@@@std@@QEBAEV?$task@PE$AAVGattDeviceServicesResult@GenericAttributeProfile@Bluetooth@Devices@Windows@@@Concurrency@@@Z 000000018004ceb0 f i _nodert_generated.obj
 0001:0004bf50       ??R?$_Func_class@EV?$task@PE$AAVGattLocalCharacteristicResult@GenericAttributeProfile@Bluetooth@Devices@Windows@@@Concurrency@@@std@@QEBAEV?$task@PE$AAVGattLocalCharacteristicResult@GenericAttributeProfile@Bluetooth@Devices@Windows@@@Concurrency@@@Z 000000018004cf50 f i _nodert_generated.obj
 0001:0004bff0       ??R?$_Func_class@EV?$task@PE$AAVGattLocalDescriptorResult@GenericAttributeProfile@Bluetooth@Devices@Windows@@@Concurrency@@@std@@QEBAEV?$task@PE$AAVGattLocalDescriptorResult@GenericAttributeProfile@Bluetooth@Devices@Windows@@@Concurrency@@@Z 000000018004cff0 f i _nodert_generated.obj
 0001:0004c090       ??R?$_Func_class@EV?$task@PE$AAVGattReadClientCharacteristicConfigurationDescriptorResult@GenericAttributeProfile@Bluetooth@Devices@Windows@@@Concurrency@@@std@@QEBAEV?$task@PE$AAVGattReadClientCharacteristicConfigurationDescriptorResult@GenericAttributeProfile@Bluetooth@Devices@Windows@@@Concurrency@@@Z 000000018004d090 f i _nodert_generated.obj
 0001:0004c130       ??R?$_Func_class@EV?$task@PE$AAVGattReadRequest@GenericAttributeProfile@Bluetooth@Devices@Windows@@@Concurrency@@@std@@QEBAEV?$task@PE$AAVGattReadRequest@GenericAttributeProfile@Bluetooth@Devices@Windows@@@Concurrency@@@Z 000000018004d130 f i _nodert_generated.obj
 0001:0004c1d0       ??R?$_Func_class@EV?$task@PE$AAVGattReadResult@GenericAttributeProfile@Bluetooth@Devices@Windows@@@Concurrency@@@std@@QEBAEV?$task@PE$AAVGattReadResult@GenericAttributeProfile@Bluetooth@Devices@Windows@@@Concurrency@@@Z 000000018004d1d0 f i _nodert_generated.obj
 0001:0004c270       ??R?$_Func_class@EV?$task@PE$AAVGattServiceProviderResult@GenericAttributeProfile@Bluetooth@Devices@Windows@@@Concurrency@@@std@@QEBAEV?$task@PE$AAVGattServiceProviderResult@GenericAttributeProfile@Bluetooth@Devices@Windows@@@Concurrency@@@Z 000000018004d270 f i _nodert_generated.obj
 0001:0004c310       ??R?$_Func_class@EV?$task@PE$AAVGattSession@GenericAttributeProfile@Bluetooth@Devices@Windows@@@Concurrency@@@std@@QEBAEV?$task@PE$AAVGattSession@GenericAttributeProfile@Bluetooth@Devices@Windows@@@Concurrency@@@Z 000000018004d310 f i _nodert_generated.obj
 0001:0004c3b0       ??R?$_Func_class@EV?$task@PE$AAVGattWriteRequest@GenericAttributeProfile@Bluetooth@Devices@Windows@@@Concurrency@@@std@@QEBAEV?$task@PE$AAVGattWriteRequest@GenericAttributeProfile@Bluetooth@Devices@Windows@@@Concurrency@@@Z 000000018004d3b0 f i _nodert_generated.obj
 0001:0004c450       ??R?$_Func_class@EV?$task@PE$AAVGattWriteResult@GenericAttributeProfile@Bluetooth@Devices@Windows@@@Concurrency@@@std@@QEBAEV?$task@PE$AAVGattWriteResult@GenericAttributeProfile@Bluetooth@Devices@Windows@@@Concurrency@@@Z 000000018004d450 f i _nodert_generated.obj
 0001:0004c4f0       ??R?$_Func_class@EV?$task@W4DeviceAccessStatus@Enumeration@Devices@Windows@@@Concurrency@@@std@@QEBAEV?$task@W4DeviceAccessStatus@Enumeration@Devices@Windows@@@Concurrency@@@Z 000000018004d4f0 f i _nodert_generated.obj
 0001:0004c590       ??R?$_Func_class@EV?$task@W4GattCommunicationStatus@GenericAttributeProfile@Bluetooth@Devices@Windows@@@Concurrency@@@std@@QEBAEV?$task@W4GattCommunicationStatus@GenericAttributeProfile@Bluetooth@Devices@Windows@@@Concurrency@@@Z 000000018004d590 f i _nodert_generated.obj
 0001:0004c630       ??R?$_Func_class@EV?$task@W4GattOpenStatus@GenericAttributeProfile@Bluetooth@Devices@Windows@@@Concurrency@@@std@@QEBAEV?$task@W4GattOpenStatus@GenericAttributeProfile@Bluetooth@Devices@Windows@@@Concurrency@@@Z 000000018004d630 f i _nodert_generated.obj
 0001:0004c6d0       ??R?$_Func_class@PE$AAVGattCharacteristic@GenericAttributeProfile@Bluetooth@Devices@Windows@@V?$Local@VValue@v8@@@v8@@@std@@QEBAPE$AAVGattCharacteristic@GenericAttributeProfile@Bluetooth@Devices@Windows@@V?$Local@VValue@v8@@@v8@@@Z 000000018004d6d0 f i _nodert_generated.obj
 0001:0004c720       ??R?$_Func_class@PE$AAVGattClientNotificationResult@GenericAttributeProfile@Bluetooth@Devices@Windows@@V?$Local@VValue@v8@@@v8@@@std@@QEBAPE$AAVGattClientNotificationResult@GenericAttributeProfile@Bluetooth@Devices@Windows@@V?$Local@VValue@v8@@@v8@@@Z 000000018004d720 f i _nodert_generated.obj
 0001:0004c770       ??R?$_Func_class@PE$AAVGattDescriptor@GenericAttributeProfile@Bluetooth@Devices@Windows@@V?$Local@VValue@v8@@@v8@@@std@@QEBAPE$AAVGattDescriptor@GenericAttributeProfile@Bluetooth@Devices@Windows@@V?$Local@VValue@v8@@@v8@@@Z 000000018004d770 f i _nodert_generated.obj
 0001:0004c7c0       ??R?$_Func_class@PE$AAVGattDeviceService@GenericAttributeProfile@Bluetooth@Devices@Windows@@V?$Local@VValue@v8@@@v8@@@std@@QEBAPE$AAVGattDeviceService@GenericAttributeProfile@Bluetooth@Devices@Windows@@V?$Local@VValue@v8@@@v8@@@Z 000000018004d7c0 f i _nodert_generated.obj
 0001:0004c810       ??R?$_Func_class@PE$AAVGattLocalCharacteristic@GenericAttributeProfile@Bluetooth@Devices@Windows@@V?$Local@VValue@v8@@@v8@@@std@@QEBAPE$AAVGattLocalCharacteristic@GenericAttributeProfile@Bluetooth@Devices@Windows@@V?$Local@VValue@v8@@@v8@@@Z 000000018004d810 f i _nodert_generated.obj
 0001:0004c860       ??R?$_Func_class@PE$AAVGattLocalDescriptor@GenericAttributeProfile@Bluetooth@Devices@Windows@@V?$Local@VValue@v8@@@v8@@@std@@QEBAPE$AAVGattLocalDescriptor@GenericAttributeProfile@Bluetooth@Devices@Windows@@V?$Local@VValue@v8@@@v8@@@Z 000000018004d860 f i _nodert_generated.obj
 0001:0004c8b0       ??R?$_Func_class@PE$AAVGattPresentationFormat@GenericAttributeProfile@Bluetooth@Devices@Windows@@V?$Local@VValue@v8@@@v8@@@std@@QEBAPE$AAVGattPresentationFormat@GenericAttributeProfile@Bluetooth@Devices@Windows@@V?$Local@VValue@v8@@@v8@@@Z 000000018004d8b0 f i _nodert_generated.obj
 0001:0004c900       ??R?$_Func_class@PE$AAVGattSubscribedClient@GenericAttributeProfile@Bluetooth@Devices@Windows@@V?$Local@VValue@v8@@@v8@@@std@@QEBAPE$AAVGattSubscribedClient@GenericAttributeProfile@Bluetooth@Devices@Windows@@V?$Local@VValue@v8@@@v8@@@Z 000000018004d900 f i _nodert_generated.obj
 0001:0004c950       ??R?$_Func_class@V?$Local@VValue@v8@@@v8@@PE$AAVGattCharacteristic@GenericAttributeProfile@Bluetooth@Devices@Windows@@@std@@QEBA?AV?$Local@VValue@v8@@@v8@@PE$AAVGattCharacteristic@GenericAttributeProfile@Bluetooth@Devices@Windows@@@Z 000000018004d950 f i _nodert_generated.obj
 0001:0004c9f0       ??R?$_Func_class@V?$Local@VValue@v8@@@v8@@PE$AAVGattClientNotificationResult@GenericAttributeProfile@Bluetooth@Devices@Windows@@@std@@QEBA?AV?$Local@VValue@v8@@@v8@@PE$AAVGattClientNotificationResult@GenericAttributeProfile@Bluetooth@Devices@Windows@@@Z 000000018004d9f0 f i _nodert_generated.obj
 0001:0004ca90       ??R?$_Func_class@V?$Local@VValue@v8@@@v8@@PE$AAVGattDescriptor@GenericAttributeProfile@Bluetooth@Devices@Windows@@@std@@QEBA?AV?$Local@VValue@v8@@@v8@@PE$AAVGattDescriptor@GenericAttributeProfile@Bluetooth@Devices@Windows@@@Z 000000018004da90 f i _nodert_generated.obj
 0001:0004cb30       ??R?$_Func_class@V?$Local@VValue@v8@@@v8@@PE$AAVGattDeviceService@GenericAttributeProfile@Bluetooth@Devices@Windows@@@std@@QEBA?AV?$Local@VValue@v8@@@v8@@PE$AAVGattDeviceService@GenericAttributeProfile@Bluetooth@Devices@Windows@@@Z 000000018004db30 f i _nodert_generated.obj
 0001:0004cbd0       ??R?$_Func_class@V?$Local@VValue@v8@@@v8@@PE$AAVGattLocalCharacteristic@GenericAttributeProfile@Bluetooth@Devices@Windows@@@std@@QEBA?AV?$Local@VValue@v8@@@v8@@PE$AAVGattLocalCharacteristic@GenericAttributeProfile@Bluetooth@Devices@Windows@@@Z 000000018004dbd0 f i _nodert_generated.obj
 0001:0004cc70       ??R?$_Func_class@V?$Local@VValue@v8@@@v8@@PE$AAVGattLocalDescriptor@GenericAttributeProfile@Bluetooth@Devices@Windows@@@std@@QEBA?AV?$Local@VValue@v8@@@v8@@PE$AAVGattLocalDescriptor@GenericAttributeProfile@Bluetooth@Devices@Windows@@@Z 000000018004dc70 f i _nodert_generated.obj
 0001:0004cd10       ??R?$_Func_class@V?$Local@VValue@v8@@@v8@@PE$AAVGattPresentationFormat@GenericAttributeProfile@Bluetooth@Devices@Windows@@@std@@QEBA?AV?$Local@VValue@v8@@@v8@@PE$AAVGattPresentationFormat@GenericAttributeProfile@Bluetooth@Devices@Windows@@@Z 000000018004dd10 f i _nodert_generated.obj
 0001:0004cdb0       ??R?$_Func_class@V?$Local@VValue@v8@@@v8@@PE$AAVGattSubscribedClient@GenericAttributeProfile@Bluetooth@Devices@Windows@@@std@@QEBA?AV?$Local@VValue@v8@@@v8@@PE$AAVGattSubscribedClient@GenericAttributeProfile@Bluetooth@Devices@Windows@@@Z 000000018004ddb0 f i _nodert_generated.obj
 0001:0004ce50       ??R?$_Func_class@XV?$function@$$A6AXHPEAV?$Local@VValue@v8@@@v8@@@Z@std@@@std@@QEBAXV?$function@$$A6AXHPEAV?$Local@VValue@v8@@@v8@@@Z@1@@Z 000000018004de50 f i _nodert_generated.obj
 0001:0004cee0       ??R?$_Func_class@XV?$task@PE$AAU?$IVectorView@PE$AAVGattClientNotificationResult@GenericAttributeProfile@Bluetooth@Devices@Windows@@@Collections@Foundation@Windows@@@Concurrency@@@std@@QEBAXV?$task@PE$AAU?$IVectorView@PE$AAVGattClientNotificationResult@GenericAttributeProfile@Bluetooth@Devices@Windows@@@Collections@Foundation@Windows@@@Concurrency@@@Z 000000018004dee0 f i _nodert_generated.obj
 0001:0004cf70       ??R?$_Func_class@XV?$task@PE$AAVGattCharacteristicsResult@GenericAttributeProfile@Bluetooth@Devices@Windows@@@Concurrency@@@std@@QEBAXV?$task@PE$AAVGattCharacteristicsResult@GenericAttributeProfile@Bluetooth@Devices@Windows@@@Concurrency@@@Z 000000018004df70 f i _nodert_generated.obj
 0001:0004d000       ??R?$_Func_class@XV?$task@PE$AAVGattClientNotificationResult@GenericAttributeProfile@Bluetooth@Devices@Windows@@@Concurrency@@@std@@QEBAXV?$task@PE$AAVGattClientNotificationResult@GenericAttributeProfile@Bluetooth@Devices@Windows@@@Concurrency@@@Z 000000018004e000 f i _nodert_generated.obj
 0001:0004d090       ??R?$_Func_class@XV?$task@PE$AAVGattDescriptorsResult@GenericAttributeProfile@Bluetooth@Devices@Windows@@@Concurrency@@@std@@QEBAXV?$task@PE$AAVGattDescriptorsResult@GenericAttributeProfile@Bluetooth@Devices@Windows@@@Concurrency@@@Z 000000018004e090 f i _nodert_generated.obj
 0001:0004d120       ??R?$_Func_class@XV?$task@PE$AAVGattDeviceService@GenericAttributeProfile@Bluetooth@Devices@Windows@@@Concurrency@@@std@@QEBAXV?$task@PE$AAVGattDeviceService@GenericAttributeProfile@Bluetooth@Devices@Windows@@@Concurrency@@@Z 000000018004e120 f i _nodert_generated.obj
 0001:0004d1b0       ??R?$_Func_class@XV?$task@PE$AAVGattDeviceServicesResult@GenericAttributeProfile@Bluetooth@Devices@Windows@@@Concurrency@@@std@@QEBAXV?$task@PE$AAVGattDeviceServicesResult@GenericAttributeProfile@Bluetooth@Devices@Windows@@@Concurrency@@@Z 000000018004e1b0 f i _nodert_generated.obj
 0001:0004d240       ??R?$_Func_class@XV?$task@PE$AAVGattLocalCharacteristicResult@GenericAttributeProfile@Bluetooth@Devices@Windows@@@Concurrency@@@std@@QEBAXV?$task@PE$AAVGattLocalCharacteristicResult@GenericAttributeProfile@Bluetooth@Devices@Windows@@@Concurrency@@@Z 000000018004e240 f i _nodert_generated.obj
 0001:0004d2d0       ??R?$_Func_class@XV?$task@PE$AAVGattLocalDescriptorResult@GenericAttributeProfile@Bluetooth@Devices@Windows@@@Concurrency@@@std@@QEBAXV?$task@PE$AAVGattLocalDescriptorResult@GenericAttributeProfile@Bluetooth@Devices@Windows@@@Concurrency@@@Z 000000018004e2d0 f i _nodert_generated.obj
 0001:0004d360       ??R?$_Func_class@XV?$task@PE$AAVGattReadClientCharacteristicConfigurationDescriptorResult@GenericAttributeProfile@Bluetooth@Devices@Windows@@@Concurrency@@@std@@QEBAXV?$task@PE$AAVGattReadClientCharacteristicConfigurationDescriptorResult@GenericAttributeProfile@Bluetooth@Devices@Windows@@@Concurrency@@@Z 000000018004e360 f i _nodert_generated.obj
 0001:0004d3f0       ??R?$_Func_class@XV?$task@PE$AAVGattReadRequest@GenericAttributeProfile@Bluetooth@Devices@Windows@@@Concurrency@@@std@@QEBAXV?$task@PE$AAVGattReadRequest@GenericAttributeProfile@Bluetooth@Devices@Windows@@@Concurrency@@@Z 000000018004e3f0 f i _nodert_generated.obj
 0001:0004d480       ??R?$_Func_class@XV?$task@PE$AAVGattReadResult@GenericAttributeProfile@Bluetooth@Devices@Windows@@@Concurrency@@@std@@QEBAXV?$task@PE$AAVGattReadResult@GenericAttributeProfile@Bluetooth@Devices@Windows@@@Concurrency@@@Z 000000018004e480 f i _nodert_generated.obj
 0001:0004d510       ??R?$_Func_class@XV?$task@PE$AAVGattServiceProviderResult@GenericAttributeProfile@Bluetooth@Devices@Windows@@@Concurrency@@@std@@QEBAXV?$task@PE$AAVGattServiceProviderResult@GenericAttributeProfile@Bluetooth@Devices@Windows@@@Concurrency@@@Z 000000018004e510 f i _nodert_generated.obj
 0001:0004d5a0       ??R?$_Func_class@XV?$task@PE$AAVGattSession@GenericAttributeProfile@Bluetooth@Devices@Windows@@@Concurrency@@@std@@QEBAXV?$task@PE$AAVGattSession@GenericAttributeProfile@Bluetooth@Devices@Windows@@@Concurrency@@@Z 000000018004e5a0 f i _nodert_generated.obj
 0001:0004d630       ??R?$_Func_class@XV?$task@PE$AAVGattWriteRequest@GenericAttributeProfile@Bluetooth@Devices@Windows@@@Concurrency@@@std@@QEBAXV?$task@PE$AAVGattWriteRequest@GenericAttributeProfile@Bluetooth@Devices@Windows@@@Concurrency@@@Z 000000018004e630 f i _nodert_generated.obj
 0001:0004d6c0       ??R?$_Func_class@XV?$task@PE$AAVGattWriteResult@GenericAttributeProfile@Bluetooth@Devices@Windows@@@Concurrency@@@std@@QEBAXV?$task@PE$AAVGattWriteResult@GenericAttributeProfile@Bluetooth@Devices@Windows@@@Concurrency@@@Z 000000018004e6c0 f i _nodert_generated.obj
 0001:0004d750       ??R?$_Func_class@XV?$task@W4DeviceAccessStatus@Enumeration@Devices@Windows@@@Concurrency@@@std@@QEBAXV?$task@W4DeviceAccessStatus@Enumeration@Devices@Windows@@@Concurrency@@@Z 000000018004e750 f i _nodert_generated.obj
 0001:0004d7e0       ??R?$_Func_class@XV?$task@W4GattCommunicationStatus@GenericAttributeProfile@Bluetooth@Devices@Windows@@@Concurrency@@@std@@QEBAXV?$task@W4GattCommunicationStatus@GenericAttributeProfile@Bluetooth@Devices@Windows@@@Concurrency@@@Z 000000018004e7e0 f i _nodert_generated.obj
 0001:0004d870       ??R?$_Func_class@XV?$task@W4GattOpenStatus@GenericAttributeProfile@Bluetooth@Devices@Windows@@@Concurrency@@@std@@QEBAXV?$task@W4GattOpenStatus@GenericAttributeProfile@Bluetooth@Devices@Windows@@@Concurrency@@@Z 000000018004e870 f i _nodert_generated.obj
 0001:0004d900       ??_G?$IteratorWrapper@PE$AAVGattCharacteristic@GenericAttributeProfile@Bluetooth@Devices@Windows@@@Collections@NodeRT@@UEAAPEAXI@Z 000000018004e900 f i _nodert_generated.obj
 0001:0004d900       ??_E?$IteratorWrapper@PE$AAVGattCharacteristic@GenericAttributeProfile@Bluetooth@Devices@Windows@@@Collections@NodeRT@@UEAAPEAXI@Z 000000018004e900 f i _nodert_generated.obj
 0001:0004d9a0       ??_E?$IteratorWrapper@PE$AAVGattClientNotificationResult@GenericAttributeProfile@Bluetooth@Devices@Windows@@@Collections@NodeRT@@UEAAPEAXI@Z 000000018004e9a0 f i _nodert_generated.obj
 0001:0004d9a0       ??_G?$IteratorWrapper@PE$AAVGattClientNotificationResult@GenericAttributeProfile@Bluetooth@Devices@Windows@@@Collections@NodeRT@@UEAAPEAXI@Z 000000018004e9a0 f i _nodert_generated.obj
 0001:0004da40       ??_G?$IteratorWrapper@PE$AAVGattDescriptor@GenericAttributeProfile@Bluetooth@Devices@Windows@@@Collections@NodeRT@@UEAAPEAXI@Z 000000018004ea40 f i _nodert_generated.obj
 0001:0004da40       ??_E?$IteratorWrapper@PE$AAVGattDescriptor@GenericAttributeProfile@Bluetooth@Devices@Windows@@@Collections@NodeRT@@UEAAPEAXI@Z 000000018004ea40 f i _nodert_generated.obj
 0001:0004dae0       ??_G?$IteratorWrapper@PE$AAVGattDeviceService@GenericAttributeProfile@Bluetooth@Devices@Windows@@@Collections@NodeRT@@UEAAPEAXI@Z 000000018004eae0 f i _nodert_generated.obj
 0001:0004dae0       ??_E?$IteratorWrapper@PE$AAVGattDeviceService@GenericAttributeProfile@Bluetooth@Devices@Windows@@@Collections@NodeRT@@UEAAPEAXI@Z 000000018004eae0 f i _nodert_generated.obj
 0001:0004db80       ??_E?$IteratorWrapper@PE$AAVGattLocalCharacteristic@GenericAttributeProfile@Bluetooth@Devices@Windows@@@Collections@NodeRT@@UEAAPEAXI@Z 000000018004eb80 f i _nodert_generated.obj
 0001:0004db80       ??_G?$IteratorWrapper@PE$AAVGattLocalCharacteristic@GenericAttributeProfile@Bluetooth@Devices@Windows@@@Collections@NodeRT@@UEAAPEAXI@Z 000000018004eb80 f i _nodert_generated.obj
 0001:0004dc20       ??_G?$IteratorWrapper@PE$AAVGattLocalDescriptor@GenericAttributeProfile@Bluetooth@Devices@Windows@@@Collections@NodeRT@@UEAAPEAXI@Z 000000018004ec20 f i _nodert_generated.obj
 0001:0004dc20       ??_E?$IteratorWrapper@PE$AAVGattLocalDescriptor@GenericAttributeProfile@Bluetooth@Devices@Windows@@@Collections@NodeRT@@UEAAPEAXI@Z 000000018004ec20 f i _nodert_generated.obj
 0001:0004dcc0       ??_G?$IteratorWrapper@PE$AAVGattPresentationFormat@GenericAttributeProfile@Bluetooth@Devices@Windows@@@Collections@NodeRT@@UEAAPEAXI@Z 000000018004ecc0 f i _nodert_generated.obj
 0001:0004dcc0       ??_E?$IteratorWrapper@PE$AAVGattPresentationFormat@GenericAttributeProfile@Bluetooth@Devices@Windows@@@Collections@NodeRT@@UEAAPEAXI@Z 000000018004ecc0 f i _nodert_generated.obj
 0001:0004dd60       ??_E?$IteratorWrapper@PE$AAVGattSubscribedClient@GenericAttributeProfile@Bluetooth@Devices@Windows@@@Collections@NodeRT@@UEAAPEAXI@Z 000000018004ed60 f i _nodert_generated.obj
 0001:0004dd60       ??_G?$IteratorWrapper@PE$AAVGattSubscribedClient@GenericAttributeProfile@Bluetooth@Devices@Windows@@@Collections@NodeRT@@UEAAPEAXI@Z 000000018004ed60 f i _nodert_generated.obj
 0001:0004de00       ??_E?$VectorViewWrapper@PE$AAVGattCharacteristic@GenericAttributeProfile@Bluetooth@Devices@Windows@@@Collections@NodeRT@@UEAAPEAXI@Z 000000018004ee00 f i _nodert_generated.obj
 0001:0004de00       ??_G?$VectorViewWrapper@PE$AAVGattCharacteristic@GenericAttributeProfile@Bluetooth@Devices@Windows@@@Collections@NodeRT@@UEAAPEAXI@Z 000000018004ee00 f i _nodert_generated.obj
 0001:0004de50       ??_G?$VectorViewWrapper@PE$AAVGattClientNotificationResult@GenericAttributeProfile@Bluetooth@Devices@Windows@@@Collections@NodeRT@@UEAAPEAXI@Z 000000018004ee50 f i _nodert_generated.obj
 0001:0004de50       ??_E?$VectorViewWrapper@PE$AAVGattClientNotificationResult@GenericAttributeProfile@Bluetooth@Devices@Windows@@@Collections@NodeRT@@UEAAPEAXI@Z 000000018004ee50 f i _nodert_generated.obj
 0001:0004dea0       ??_G?$VectorViewWrapper@PE$AAVGattDescriptor@GenericAttributeProfile@Bluetooth@Devices@Windows@@@Collections@NodeRT@@UEAAPEAXI@Z 000000018004eea0 f i _nodert_generated.obj
 0001:0004dea0       ??_E?$VectorViewWrapper@PE$AAVGattDescriptor@GenericAttributeProfile@Bluetooth@Devices@Windows@@@Collections@NodeRT@@UEAAPEAXI@Z 000000018004eea0 f i _nodert_generated.obj
 0001:0004def0       ??_G?$VectorViewWrapper@PE$AAVGattDeviceService@GenericAttributeProfile@Bluetooth@Devices@Windows@@@Collections@NodeRT@@UEAAPEAXI@Z 000000018004eef0 f i _nodert_generated.obj
 0001:0004def0       ??_E?$VectorViewWrapper@PE$AAVGattDeviceService@GenericAttributeProfile@Bluetooth@Devices@Windows@@@Collections@NodeRT@@UEAAPEAXI@Z 000000018004eef0 f i _nodert_generated.obj
 0001:0004df40       ??_E?$VectorViewWrapper@PE$AAVGattLocalCharacteristic@GenericAttributeProfile@Bluetooth@Devices@Windows@@@Collections@NodeRT@@UEAAPEAXI@Z 000000018004ef40 f i _nodert_generated.obj
 0001:0004df40       ??_G?$VectorViewWrapper@PE$AAVGattLocalCharacteristic@GenericAttributeProfile@Bluetooth@Devices@Windows@@@Collections@NodeRT@@UEAAPEAXI@Z 000000018004ef40 f i _nodert_generated.obj
 0001:0004df90       ??_E?$VectorViewWrapper@PE$AAVGattLocalDescriptor@GenericAttributeProfile@Bluetooth@Devices@Windows@@@Collections@NodeRT@@UEAAPEAXI@Z 000000018004ef90 f i _nodert_generated.obj
 0001:0004df90       ??_G?$VectorViewWrapper@PE$AAVGattLocalDescriptor@GenericAttributeProfile@Bluetooth@Devices@Windows@@@Collections@NodeRT@@UEAAPEAXI@Z 000000018004ef90 f i _nodert_generated.obj
 0001:0004dfe0       ??_E?$VectorViewWrapper@PE$AAVGattPresentationFormat@GenericAttributeProfile@Bluetooth@Devices@Windows@@@Collections@NodeRT@@UEAAPEAXI@Z 000000018004efe0 f i _nodert_generated.obj
 0001:0004dfe0       ??_G?$VectorViewWrapper@PE$AAVGattPresentationFormat@GenericAttributeProfile@Bluetooth@Devices@Windows@@@Collections@NodeRT@@UEAAPEAXI@Z 000000018004efe0 f i _nodert_generated.obj
 0001:0004e030       ??_G?$VectorViewWrapper@PE$AAVGattSubscribedClient@GenericAttributeProfile@Bluetooth@Devices@Windows@@@Collections@NodeRT@@UEAAPEAXI@Z 000000018004f030 f i _nodert_generated.obj
 0001:0004e030       ??_E?$VectorViewWrapper@PE$AAVGattSubscribedClient@GenericAttributeProfile@Bluetooth@Devices@Windows@@@Collections@NodeRT@@UEAAPEAXI@Z 000000018004f030 f i _nodert_generated.obj
 0001:0004e080       ??_G?$VectorWrapper@PE$AAVGattPresentationFormat@GenericAttributeProfile@Bluetooth@Devices@Windows@@@Collections@NodeRT@@UEAAPEAXI@Z 000000018004f080 f i _nodert_generated.obj
 0001:0004e080       ??_E?$VectorWrapper@PE$AAVGattPresentationFormat@GenericAttributeProfile@Bluetooth@Devices@Windows@@@Collections@NodeRT@@UEAAPEAXI@Z 000000018004f080 f i _nodert_generated.obj
 0001:0004e0d0       ??_E?$_CancellationTokenCallback@V<lambda_be3e5d9dce35d2c8dbfa8485373731d5>@@@details@Concurrency@@UEAAPEAXI@Z 000000018004f0d0 f i _nodert_generated.obj
 0001:0004e0d0       ??_G?$_CancellationTokenCallback@V<lambda_be3e5d9dce35d2c8dbfa8485373731d5>@@@details@Concurrency@@UEAAPEAXI@Z 000000018004f0d0 f i _nodert_generated.obj
 0001:0004e180       ??_G?$_ContinuationTaskHandle@PE$AAU?$IVectorView@PE$AAVGattClientNotificationResult@GenericAttributeProfile@Bluetooth@Devices@Windows@@@Collections@Foundation@Windows@@XV?$function@$$A6AXV?$task@PE$AAU?$IVectorView@PE$AAVGattClientNotificationResult@GenericAttributeProfile@Bluetooth@Devices@Windows@@@Collections@Foundation@Windows@@@Concurrency@@@Z@std@@U?$integral_constant@_N$00@6@U_TypeSelectorNoAsync@details@Concurrency@@@?$task@PE$AAU?$IVectorView@PE$AAVGattClientNotificationResult@GenericAttributeProfile@Bluetooth@Devices@Windows@@@Collections@Foundation@Windows@@@Concurrency@@UEAAPEAXI@Z 000000018004f180 f i _nodert_generated.obj
 0001:0004e180       ??_E?$_ContinuationTaskHandle@PE$AAU?$IVectorView@PE$AAVGattClientNotificationResult@GenericAttributeProfile@Bluetooth@Devices@Windows@@@Collections@Foundation@Windows@@XV?$function@$$A6AXV?$task@PE$AAU?$IVectorView@PE$AAVGattClientNotificationResult@GenericAttributeProfile@Bluetooth@Devices@Windows@@@Collections@Foundation@Windows@@@Concurrency@@@Z@std@@U?$integral_constant@_N$00@6@U_TypeSelectorNoAsync@details@Concurrency@@@?$task@PE$AAU?$IVectorView@PE$AAVGattClientNotificationResult@GenericAttributeProfile@Bluetooth@Devices@Windows@@@Collections@Foundation@Windows@@@Concurrency@@UEAAPEAXI@Z 000000018004f180 f i _nodert_generated.obj
 0001:0004e1d0       ??_G?$_ContinuationTaskHandle@PE$AAVGattCharacteristicsResult@GenericAttributeProfile@Bluetooth@Devices@Windows@@XV?$function@$$A6AXV?$task@PE$AAVGattCharacteristicsResult@GenericAttributeProfile@Bluetooth@Devices@Windows@@@Concurrency@@@Z@std@@U?$integral_constant@_N$00@7@U_TypeSelectorNoAsync@details@Concurrency@@@?$task@PE$AAVGattCharacteristicsResult@GenericAttributeProfile@Bluetooth@Devices@Windows@@@Concurrency@@UEAAPEAXI@Z 000000018004f1d0 f i _nodert_generated.obj
 0001:0004e1d0       ??_E?$_ContinuationTaskHandle@PE$AAVGattCharacteristicsResult@GenericAttributeProfile@Bluetooth@Devices@Windows@@XV?$function@$$A6AXV?$task@PE$AAVGattCharacteristicsResult@GenericAttributeProfile@Bluetooth@Devices@Windows@@@Concurrency@@@Z@std@@U?$integral_constant@_N$00@7@U_TypeSelectorNoAsync@details@Concurrency@@@?$task@PE$AAVGattCharacteristicsResult@GenericAttributeProfile@Bluetooth@Devices@Windows@@@Concurrency@@UEAAPEAXI@Z 000000018004f1d0 f i _nodert_generated.obj
 0001:0004e220       ??_G?$_ContinuationTaskHandle@PE$AAVGattClientNotificationResult@GenericAttributeProfile@Bluetooth@Devices@Windows@@XV?$function@$$A6AXV?$task@PE$AAVGattClientNotificationResult@GenericAttributeProfile@Bluetooth@Devices@Windows@@@Concurrency@@@Z@std@@U?$integral_constant@_N$00@7@U_TypeSelectorNoAsync@details@Concurrency@@@?$task@PE$AAVGattClientNotificationResult@GenericAttributeProfile@Bluetooth@Devices@Windows@@@Concurrency@@UEAAPEAXI@Z 000000018004f220 f i _nodert_generated.obj
 0001:0004e220       ??_E?$_ContinuationTaskHandle@PE$AAVGattClientNotificationResult@GenericAttributeProfile@Bluetooth@Devices@Windows@@XV?$function@$$A6AXV?$task@PE$AAVGattClientNotificationResult@GenericAttributeProfile@Bluetooth@Devices@Windows@@@Concurrency@@@Z@std@@U?$integral_constant@_N$00@7@U_TypeSelectorNoAsync@details@Concurrency@@@?$task@PE$AAVGattClientNotificationResult@GenericAttributeProfile@Bluetooth@Devices@Windows@@@Concurrency@@UEAAPEAXI@Z 000000018004f220 f i _nodert_generated.obj
 0001:0004e270       ??_G?$_ContinuationTaskHandle@PE$AAVGattDescriptorsResult@GenericAttributeProfile@Bluetooth@Devices@Windows@@XV?$function@$$A6AXV?$task@PE$AAVGattDescriptorsResult@GenericAttributeProfile@Bluetooth@Devices@Windows@@@Concurrency@@@Z@std@@U?$integral_constant@_N$00@7@U_TypeSelectorNoAsync@details@Concurrency@@@?$task@PE$AAVGattDescriptorsResult@GenericAttributeProfile@Bluetooth@Devices@Windows@@@Concurrency@@UEAAPEAXI@Z 000000018004f270 f i _nodert_generated.obj
 0001:0004e270       ??_E?$_ContinuationTaskHandle@PE$AAVGattDescriptorsResult@GenericAttributeProfile@Bluetooth@Devices@Windows@@XV?$function@$$A6AXV?$task@PE$AAVGattDescriptorsResult@GenericAttributeProfile@Bluetooth@Devices@Windows@@@Concurrency@@@Z@std@@U?$integral_constant@_N$00@7@U_TypeSelectorNoAsync@details@Concurrency@@@?$task@PE$AAVGattDescriptorsResult@GenericAttributeProfile@Bluetooth@Devices@Windows@@@Concurrency@@UEAAPEAXI@Z 000000018004f270 f i _nodert_generated.obj
 0001:0004e2c0       ??_E?$_ContinuationTaskHandle@PE$AAVGattDeviceService@GenericAttributeProfile@Bluetooth@Devices@Windows@@XV?$function@$$A6AXV?$task@PE$AAVGattDeviceService@GenericAttributeProfile@Bluetooth@Devices@Windows@@@Concurrency@@@Z@std@@U?$integral_constant@_N$00@7@U_TypeSelectorNoAsync@details@Concurrency@@@?$task@PE$AAVGattDeviceService@GenericAttributeProfile@Bluetooth@Devices@Windows@@@Concurrency@@UEAAPEAXI@Z 000000018004f2c0 f i _nodert_generated.obj
 0001:0004e2c0       ??_G?$_ContinuationTaskHandle@PE$AAVGattDeviceService@GenericAttributeProfile@Bluetooth@Devices@Windows@@XV?$function@$$A6AXV?$task@PE$AAVGattDeviceService@GenericAttributeProfile@Bluetooth@Devices@Windows@@@Concurrency@@@Z@std@@U?$integral_constant@_N$00@7@U_TypeSelectorNoAsync@details@Concurrency@@@?$task@PE$AAVGattDeviceService@GenericAttributeProfile@Bluetooth@Devices@Windows@@@Concurrency@@UEAAPEAXI@Z 000000018004f2c0 f i _nodert_generated.obj
 0001:0004e310       ??_G?$_ContinuationTaskHandle@PE$AAVGattDeviceServicesResult@GenericAttributeProfile@Bluetooth@Devices@Windows@@XV?$function@$$A6AXV?$task@PE$AAVGattDeviceServicesResult@GenericAttributeProfile@Bluetooth@Devices@Windows@@@Concurrency@@@Z@std@@U?$integral_constant@_N$00@7@U_TypeSelectorNoAsync@details@Concurrency@@@?$task@PE$AAVGattDeviceServicesResult@GenericAttributeProfile@Bluetooth@Devices@Windows@@@Concurrency@@UEAAPEAXI@Z 000000018004f310 f i _nodert_generated.obj
 0001:0004e310       ??_E?$_ContinuationTaskHandle@PE$AAVGattDeviceServicesResult@GenericAttributeProfile@Bluetooth@Devices@Windows@@XV?$function@$$A6AXV?$task@PE$AAVGattDeviceServicesResult@GenericAttributeProfile@Bluetooth@Devices@Windows@@@Concurrency@@@Z@std@@U?$integral_constant@_N$00@7@U_TypeSelectorNoAsync@details@Concurrency@@@?$task@PE$AAVGattDeviceServicesResult@GenericAttributeProfile@Bluetooth@Devices@Windows@@@Concurrency@@UEAAPEAXI@Z 000000018004f310 f i _nodert_generated.obj
 0001:0004e360       ??_G?$_ContinuationTaskHandle@PE$AAVGattLocalCharacteristicResult@GenericAttributeProfile@Bluetooth@Devices@Windows@@XV?$function@$$A6AXV?$task@PE$AAVGattLocalCharacteristicResult@GenericAttributeProfile@Bluetooth@Devices@Windows@@@Concurrency@@@Z@std@@U?$integral_constant@_N$00@7@U_TypeSelectorNoAsync@details@Concurrency@@@?$task@PE$AAVGattLocalCharacteristicResult@GenericAttributeProfile@Bluetooth@Devices@Windows@@@Concurrency@@UEAAPEAXI@Z 000000018004f360 f i _nodert_generated.obj
 0001:0004e360       ??_E?$_ContinuationTaskHandle@PE$AAVGattLocalCharacteristicResult@GenericAttributeProfile@Bluetooth@Devices@Windows@@XV?$function@$$A6AXV?$task@PE$AAVGattLocalCharacteristicResult@GenericAttributeProfile@Bluetooth@Devices@Windows@@@Concurrency@@@Z@std@@U?$integral_constant@_N$00@7@U_TypeSelectorNoAsync@details@Concurrency@@@?$task@PE$AAVGattLocalCharacteristicResult@GenericAttributeProfile@Bluetooth@Devices@Windows@@@Concurrency@@UEAAPEAXI@Z 000000018004f360 f i _nodert_generated.obj
 0001:0004e3b0       ??_G?$_ContinuationTaskHandle@PE$AAVGattLocalDescriptorResult@GenericAttributeProfile@Bluetooth@Devices@Windows@@XV?$function@$$A6AXV?$task@PE$AAVGattLocalDescriptorResult@GenericAttributeProfile@Bluetooth@Devices@Windows@@@Concurrency@@@Z@std@@U?$integral_constant@_N$00@7@U_TypeSelectorNoAsync@details@Concurrency@@@?$task@PE$AAVGattLocalDescriptorResult@GenericAttributeProfile@Bluetooth@Devices@Windows@@@Concurrency@@UEAAPEAXI@Z 000000018004f3b0 f i _nodert_generated.obj
 0001:0004e3b0       ??_E?$_ContinuationTaskHandle@PE$AAVGattLocalDescriptorResult@GenericAttributeProfile@Bluetooth@Devices@Windows@@XV?$function@$$A6AXV?$task@PE$AAVGattLocalDescriptorResult@GenericAttributeProfile@Bluetooth@Devices@Windows@@@Concurrency@@@Z@std@@U?$integral_constant@_N$00@7@U_TypeSelectorNoAsync@details@Concurrency@@@?$task@PE$AAVGattLocalDescriptorResult@GenericAttributeProfile@Bluetooth@Devices@Windows@@@Concurrency@@UEAAPEAXI@Z 000000018004f3b0 f i _nodert_generated.obj
 0001:0004e400       ??_E?$_ContinuationTaskHandle@PE$AAVGattReadClientCharacteristicConfigurationDescriptorResult@GenericAttributeProfile@Bluetooth@Devices@Windows@@XV?$function@$$A6AXV?$task@PE$AAVGattReadClientCharacteristicConfigurationDescriptorResult@GenericAttributeProfile@Bluetooth@Devices@Windows@@@Concurrency@@@Z@std@@U?$integral_constant@_N$00@7@U_TypeSelectorNoAsync@details@Concurrency@@@?$task@PE$AAVGattReadClientCharacteristicConfigurationDescriptorResult@GenericAttributeProfile@Bluetooth@Devices@Windows@@@Concurrency@@UEAAPEAXI@Z 000000018004f400 f i _nodert_generated.obj
 0001:0004e400       ??_G?$_ContinuationTaskHandle@PE$AAVGattReadClientCharacteristicConfigurationDescriptorResult@GenericAttributeProfile@Bluetooth@Devices@Windows@@XV?$function@$$A6AXV?$task@PE$AAVGattReadClientCharacteristicConfigurationDescriptorResult@GenericAttributeProfile@Bluetooth@Devices@Windows@@@Concurrency@@@Z@std@@U?$integral_constant@_N$00@7@U_TypeSelectorNoAsync@details@Concurrency@@@?$task@PE$AAVGattReadClientCharacteristicConfigurationDescriptorResult@GenericAttributeProfile@Bluetooth@Devices@Windows@@@Concurrency@@UEAAPEAXI@Z 000000018004f400 f i _nodert_generated.obj
 0001:0004e450       ??_G?$_ContinuationTaskHandle@PE$AAVGattReadRequest@GenericAttributeProfile@Bluetooth@Devices@Windows@@XV?$function@$$A6AXV?$task@PE$AAVGattReadRequest@GenericAttributeProfile@Bluetooth@Devices@Windows@@@Concurrency@@@Z@std@@U?$integral_constant@_N$00@7@U_TypeSelectorNoAsync@details@Concurrency@@@?$task@PE$AAVGattReadRequest@GenericAttributeProfile@Bluetooth@Devices@Windows@@@Concurrency@@UEAAPEAXI@Z 000000018004f450 f i _nodert_generated.obj
 0001:0004e450       ??_E?$_ContinuationTaskHandle@PE$AAVGattReadRequest@GenericAttributeProfile@Bluetooth@Devices@Windows@@XV?$function@$$A6AXV?$task@PE$AAVGattReadRequest@GenericAttributeProfile@Bluetooth@Devices@Windows@@@Concurrency@@@Z@std@@U?$integral_constant@_N$00@7@U_TypeSelectorNoAsync@details@Concurrency@@@?$task@PE$AAVGattReadRequest@GenericAttributeProfile@Bluetooth@Devices@Windows@@@Concurrency@@UEAAPEAXI@Z 000000018004f450 f i _nodert_generated.obj
 0001:0004e4a0       ??_G?$_ContinuationTaskHandle@PE$AAVGattReadResult@GenericAttributeProfile@Bluetooth@Devices@Windows@@XV?$function@$$A6AXV?$task@PE$AAVGattReadResult@GenericAttributeProfile@Bluetooth@Devices@Windows@@@Concurrency@@@Z@std@@U?$integral_constant@_N$00@7@U_TypeSelectorNoAsync@details@Concurrency@@@?$task@PE$AAVGattReadResult@GenericAttributeProfile@Bluetooth@Devices@Windows@@@Concurrency@@UEAAPEAXI@Z 000000018004f4a0 f i _nodert_generated.obj
 0001:0004e4a0       ??_E?$_ContinuationTaskHandle@PE$AAVGattReadResult@GenericAttributeProfile@Bluetooth@Devices@Windows@@XV?$function@$$A6AXV?$task@PE$AAVGattReadResult@GenericAttributeProfile@Bluetooth@Devices@Windows@@@Concurrency@@@Z@std@@U?$integral_constant@_N$00@7@U_TypeSelectorNoAsync@details@Concurrency@@@?$task@PE$AAVGattReadResult@GenericAttributeProfile@Bluetooth@Devices@Windows@@@Concurrency@@UEAAPEAXI@Z 000000018004f4a0 f i _nodert_generated.obj
 0001:0004e4f0       ??_E?$_ContinuationTaskHandle@PE$AAVGattServiceProviderResult@GenericAttributeProfile@Bluetooth@Devices@Windows@@XV?$function@$$A6AXV?$task@PE$AAVGattServiceProviderResult@GenericAttributeProfile@Bluetooth@Devices@Windows@@@Concurrency@@@Z@std@@U?$integral_constant@_N$00@7@U_TypeSelectorNoAsync@details@Concurrency@@@?$task@PE$AAVGattServiceProviderResult@GenericAttributeProfile@Bluetooth@Devices@Windows@@@Concurrency@@UEAAPEAXI@Z 000000018004f4f0 f i _nodert_generated.obj
 0001:0004e4f0       ??_G?$_ContinuationTaskHandle@PE$AAVGattServiceProviderResult@GenericAttributeProfile@Bluetooth@Devices@Windows@@XV?$function@$$A6AXV?$task@PE$AAVGattServiceProviderResult@GenericAttributeProfile@Bluetooth@Devices@Windows@@@Concurrency@@@Z@std@@U?$integral_constant@_N$00@7@U_TypeSelectorNoAsync@details@Concurrency@@@?$task@PE$AAVGattServiceProviderResult@GenericAttributeProfile@Bluetooth@Devices@Windows@@@Concurrency@@UEAAPEAXI@Z 000000018004f4f0 f i _nodert_generated.obj
 0001:0004e540       ??_G?$_ContinuationTaskHandle@PE$AAVGattSession@GenericAttributeProfile@Bluetooth@Devices@Windows@@XV?$function@$$A6AXV?$task@PE$AAVGattSession@GenericAttributeProfile@Bluetooth@Devices@Windows@@@Concurrency@@@Z@std@@U?$integral_constant@_N$00@7@U_TypeSelectorNoAsync@details@Concurrency@@@?$task@PE$AAVGattSession@GenericAttributeProfile@Bluetooth@Devices@Windows@@@Concurrency@@UEAAPEAXI@Z 000000018004f540 f i _nodert_generated.obj
 0001:0004e540       ??_E?$_ContinuationTaskHandle@PE$AAVGattSession@GenericAttributeProfile@Bluetooth@Devices@Windows@@XV?$function@$$A6AXV?$task@PE$AAVGattSession@GenericAttributeProfile@Bluetooth@Devices@Windows@@@Concurrency@@@Z@std@@U?$integral_constant@_N$00@7@U_TypeSelectorNoAsync@details@Concurrency@@@?$task@PE$AAVGattSession@GenericAttributeProfile@Bluetooth@Devices@Windows@@@Concurrency@@UEAAPEAXI@Z 000000018004f540 f i _nodert_generated.obj
 0001:0004e590       ??_E?$_ContinuationTaskHandle@PE$AAVGattWriteRequest@GenericAttributeProfile@Bluetooth@Devices@Windows@@XV?$function@$$A6AXV?$task@PE$AAVGattWriteRequest@GenericAttributeProfile@Bluetooth@Devices@Windows@@@Concurrency@@@Z@std@@U?$integral_constant@_N$00@7@U_TypeSelectorNoAsync@details@Concurrency@@@?$task@PE$AAVGattWriteRequest@GenericAttributeProfile@Bluetooth@Devices@Windows@@@Concurrency@@UEAAPEAXI@Z 000000018004f590 f i _nodert_generated.obj
 0001:0004e590       ??_G?$_ContinuationTaskHandle@PE$AAVGattWriteRequest@GenericAttributeProfile@Bluetooth@Devices@Windows@@XV?$function@$$A6AXV?$task@PE$AAVGattWriteRequest@GenericAttributeProfile@Bluetooth@Devices@Windows@@@Concurrency@@@Z@std@@U?$integral_constant@_N$00@7@U_TypeSelectorNoAsync@details@Concurrency@@@?$task@PE$AAVGattWriteRequest@GenericAttributeProfile@Bluetooth@Devices@Windows@@@Concurrency@@UEAAPEAXI@Z 000000018004f590 f i _nodert_generated.obj
 0001:0004e5e0       ??_E?$_ContinuationTaskHandle@PE$AAVGattWriteResult@GenericAttributeProfile@Bluetooth@Devices@Windows@@XV?$function@$$A6AXV?$task@PE$AAVGattWriteResult@GenericAttributeProfile@Bluetooth@Devices@Windows@@@Concurrency@@@Z@std@@U?$integral_constant@_N$00@7@U_TypeSelectorNoAsync@details@Concurrency@@@?$task@PE$AAVGattWriteResult@GenericAttributeProfile@Bluetooth@Devices@Windows@@@Concurrency@@UEAAPEAXI@Z 000000018004f5e0 f i _nodert_generated.obj
 0001:0004e5e0       ??_G?$_ContinuationTaskHandle@PE$AAVGattWriteResult@GenericAttributeProfile@Bluetooth@Devices@Windows@@XV?$function@$$A6AXV?$task@PE$AAVGattWriteResult@GenericAttributeProfile@Bluetooth@Devices@Windows@@@Concurrency@@@Z@std@@U?$integral_constant@_N$00@7@U_TypeSelectorNoAsync@details@Concurrency@@@?$task@PE$AAVGattWriteResult@GenericAttributeProfile@Bluetooth@Devices@Windows@@@Concurrency@@UEAAPEAXI@Z 000000018004f5e0 f i _nodert_generated.obj
 0001:0004e630       ??_E?$_ContinuationTaskHandle@W4DeviceAccessStatus@Enumeration@Devices@Windows@@XV?$function@$$A6AXV?$task@W4DeviceAccessStatus@Enumeration@Devices@Windows@@@Concurrency@@@Z@std@@U?$integral_constant@_N$00@6@U_TypeSelectorNoAsync@details@Concurrency@@@?$task@W4DeviceAccessStatus@Enumeration@Devices@Windows@@@Concurrency@@UEAAPEAXI@Z 000000018004f630 f i _nodert_generated.obj
 0001:0004e630       ??_G?$_ContinuationTaskHandle@W4DeviceAccessStatus@Enumeration@Devices@Windows@@XV?$function@$$A6AXV?$task@W4DeviceAccessStatus@Enumeration@Devices@Windows@@@Concurrency@@@Z@std@@U?$integral_constant@_N$00@6@U_TypeSelectorNoAsync@details@Concurrency@@@?$task@W4DeviceAccessStatus@Enumeration@Devices@Windows@@@Concurrency@@UEAAPEAXI@Z 000000018004f630 f i _nodert_generated.obj
 0001:0004e680       ??_E?$_ContinuationTaskHandle@W4GattCommunicationStatus@GenericAttributeProfile@Bluetooth@Devices@Windows@@XV?$function@$$A6AXV?$task@W4GattCommunicationStatus@GenericAttributeProfile@Bluetooth@Devices@Windows@@@Concurrency@@@Z@std@@U?$integral_constant@_N$00@7@U_TypeSelectorNoAsync@details@Concurrency@@@?$task@W4GattCommunicationStatus@GenericAttributeProfile@Bluetooth@Devices@Windows@@@Concurrency@@UEAAPEAXI@Z 000000018004f680 f i _nodert_generated.obj
 0001:0004e680       ??_G?$_ContinuationTaskHandle@W4GattCommunicationStatus@GenericAttributeProfile@Bluetooth@Devices@Windows@@XV?$function@$$A6AXV?$task@W4GattCommunicationStatus@GenericAttributeProfile@Bluetooth@Devices@Windows@@@Concurrency@@@Z@std@@U?$integral_constant@_N$00@7@U_TypeSelectorNoAsync@details@Concurrency@@@?$task@W4GattCommunicationStatus@GenericAttributeProfile@Bluetooth@Devices@Windows@@@Concurrency@@UEAAPEAXI@Z 000000018004f680 f i _nodert_generated.obj
 0001:0004e6d0       ??_G?$_ContinuationTaskHandle@W4GattOpenStatus@GenericAttributeProfile@Bluetooth@Devices@Windows@@XV?$function@$$A6AXV?$task@W4GattOpenStatus@GenericAttributeProfile@Bluetooth@Devices@Windows@@@Concurrency@@@Z@std@@U?$integral_constant@_N$00@7@U_TypeSelectorNoAsync@details@Concurrency@@@?$task@W4GattOpenStatus@GenericAttributeProfile@Bluetooth@Devices@Windows@@@Concurrency@@UEAAPEAXI@Z 000000018004f6d0 f i _nodert_generated.obj
 0001:0004e6d0       ??_E?$_ContinuationTaskHandle@W4GattOpenStatus@GenericAttributeProfile@Bluetooth@Devices@Windows@@XV?$function@$$A6AXV?$task@W4GattOpenStatus@GenericAttributeProfile@Bluetooth@Devices@Windows@@@Concurrency@@@Z@std@@U?$integral_constant@_N$00@7@U_TypeSelectorNoAsync@details@Concurrency@@@?$task@W4GattOpenStatus@GenericAttributeProfile@Bluetooth@Devices@Windows@@@Concurrency@@UEAAPEAXI@Z 000000018004f6d0 f i _nodert_generated.obj
 0001:0004e720       ??_E?$_PPLTaskHandle@EU?$_ContinuationTaskHandle@PE$AAU?$IVectorView@PE$AAVGattClientNotificationResult@GenericAttributeProfile@Bluetooth@Devices@Windows@@@Collections@Foundation@Windows@@XV?$function@$$A6AXV?$task@PE$AAU?$IVectorView@PE$AAVGattClientNotificationResult@GenericAttributeProfile@Bluetooth@Devices@Windows@@@Collections@Foundation@Windows@@@Concurrency@@@Z@std@@U?$integral_constant@_N$00@6@U_TypeSelectorNoAsync@details@Concurrency@@@?$task@PE$AAU?$IVectorView@PE$AAVGattClientNotificationResult@GenericAttributeProfile@Bluetooth@Devices@Windows@@@Collections@Foundation@Windows@@@Concurrency@@U_ContinuationTaskHandleBase@details@3@@details@Concurrency@@UEAAPEAXI@Z 000000018004f720 f i _nodert_generated.obj
 0001:0004e720       ??_G?$_PPLTaskHandle@EU?$_ContinuationTaskHandle@PE$AAU?$IVectorView@PE$AAVGattClientNotificationResult@GenericAttributeProfile@Bluetooth@Devices@Windows@@@Collections@Foundation@Windows@@XV?$function@$$A6AXV?$task@PE$AAU?$IVectorView@PE$AAVGattClientNotificationResult@GenericAttributeProfile@Bluetooth@Devices@Windows@@@Collections@Foundation@Windows@@@Concurrency@@@Z@std@@U?$integral_constant@_N$00@6@U_TypeSelectorNoAsync@details@Concurrency@@@?$task@PE$AAU?$IVectorView@PE$AAVGattClientNotificationResult@GenericAttributeProfile@Bluetooth@Devices@Windows@@@Collections@Foundation@Windows@@@Concurrency@@U_ContinuationTaskHandleBase@details@3@@details@Concurrency@@UEAAPEAXI@Z 000000018004f720 f i _nodert_generated.obj
 0001:0004e770       ??_E?$_PPLTaskHandle@EU?$_ContinuationTaskHandle@PE$AAVGattCharacteristicsResult@GenericAttributeProfile@Bluetooth@Devices@Windows@@XV?$function@$$A6AXV?$task@PE$AAVGattCharacteristicsResult@GenericAttributeProfile@Bluetooth@Devices@Windows@@@Concurrency@@@Z@std@@U?$integral_constant@_N$00@7@U_TypeSelectorNoAsync@details@Concurrency@@@?$task@PE$AAVGattCharacteristicsResult@GenericAttributeProfile@Bluetooth@Devices@Windows@@@Concurrency@@U_ContinuationTaskHandleBase@details@3@@details@Concurrency@@UEAAPEAXI@Z 000000018004f770 f i _nodert_generated.obj
 0001:0004e770       ??_G?$_PPLTaskHandle@EU?$_ContinuationTaskHandle@PE$AAVGattCharacteristicsResult@GenericAttributeProfile@Bluetooth@Devices@Windows@@XV?$function@$$A6AXV?$task@PE$AAVGattCharacteristicsResult@GenericAttributeProfile@Bluetooth@Devices@Windows@@@Concurrency@@@Z@std@@U?$integral_constant@_N$00@7@U_TypeSelectorNoAsync@details@Concurrency@@@?$task@PE$AAVGattCharacteristicsResult@GenericAttributeProfile@Bluetooth@Devices@Windows@@@Concurrency@@U_ContinuationTaskHandleBase@details@3@@details@Concurrency@@UEAAPEAXI@Z 000000018004f770 f i _nodert_generated.obj
 0001:0004e7c0       ??_G?$_PPLTaskHandle@EU?$_ContinuationTaskHandle@PE$AAVGattClientNotificationResult@GenericAttributeProfile@Bluetooth@Devices@Windows@@XV?$function@$$A6AXV?$task@PE$AAVGattClientNotificationResult@GenericAttributeProfile@Bluetooth@Devices@Windows@@@Concurrency@@@Z@std@@U?$integral_constant@_N$00@7@U_TypeSelectorNoAsync@details@Concurrency@@@?$task@PE$AAVGattClientNotificationResult@GenericAttributeProfile@Bluetooth@Devices@Windows@@@Concurrency@@U_ContinuationTaskHandleBase@details@3@@details@Concurrency@@UEAAPEAXI@Z 000000018004f7c0 f i _nodert_generated.obj
 0001:0004e7c0       ??_E?$_PPLTaskHandle@EU?$_ContinuationTaskHandle@PE$AAVGattClientNotificationResult@GenericAttributeProfile@Bluetooth@Devices@Windows@@XV?$function@$$A6AXV?$task@PE$AAVGattClientNotificationResult@GenericAttributeProfile@Bluetooth@Devices@Windows@@@Concurrency@@@Z@std@@U?$integral_constant@_N$00@7@U_TypeSelectorNoAsync@details@Concurrency@@@?$task@PE$AAVGattClientNotificationResult@GenericAttributeProfile@Bluetooth@Devices@Windows@@@Concurrency@@U_ContinuationTaskHandleBase@details@3@@details@Concurrency@@UEAAPEAXI@Z 000000018004f7c0 f i _nodert_generated.obj
 0001:0004e810       ??_G?$_PPLTaskHandle@EU?$_ContinuationTaskHandle@PE$AAVGattDescriptorsResult@GenericAttributeProfile@Bluetooth@Devices@Windows@@XV?$function@$$A6AXV?$task@PE$AAVGattDescriptorsResult@GenericAttributeProfile@Bluetooth@Devices@Windows@@@Concurrency@@@Z@std@@U?$integral_constant@_N$00@7@U_TypeSelectorNoAsync@details@Concurrency@@@?$task@PE$AAVGattDescriptorsResult@GenericAttributeProfile@Bluetooth@Devices@Windows@@@Concurrency@@U_ContinuationTaskHandleBase@details@3@@details@Concurrency@@UEAAPEAXI@Z 000000018004f810 f i _nodert_generated.obj
 0001:0004e810       ??_E?$_PPLTaskHandle@EU?$_ContinuationTaskHandle@PE$AAVGattDescriptorsResult@GenericAttributeProfile@Bluetooth@Devices@Windows@@XV?$function@$$A6AXV?$task@PE$AAVGattDescriptorsResult@GenericAttributeProfile@Bluetooth@Devices@Windows@@@Concurrency@@@Z@std@@U?$integral_constant@_N$00@7@U_TypeSelectorNoAsync@details@Concurrency@@@?$task@PE$AAVGattDescriptorsResult@GenericAttributeProfile@Bluetooth@Devices@Windows@@@Concurrency@@U_ContinuationTaskHandleBase@details@3@@details@Concurrency@@UEAAPEAXI@Z 000000018004f810 f i _nodert_generated.obj
 0001:0004e860       ??_G?$_PPLTaskHandle@EU?$_ContinuationTaskHandle@PE$AAVGattDeviceService@GenericAttributeProfile@Bluetooth@Devices@Windows@@XV?$function@$$A6AXV?$task@PE$AAVGattDeviceService@GenericAttributeProfile@Bluetooth@Devices@Windows@@@Concurrency@@@Z@std@@U?$integral_constant@_N$00@7@U_TypeSelectorNoAsync@details@Concurrency@@@?$task@PE$AAVGattDeviceService@GenericAttributeProfile@Bluetooth@Devices@Windows@@@Concurrency@@U_ContinuationTaskHandleBase@details@3@@details@Concurrency@@UEAAPEAXI@Z 000000018004f860 f i _nodert_generated.obj
 0001:0004e860       ??_E?$_PPLTaskHandle@EU?$_ContinuationTaskHandle@PE$AAVGattDeviceService@GenericAttributeProfile@Bluetooth@Devices@Windows@@XV?$function@$$A6AXV?$task@PE$AAVGattDeviceService@GenericAttributeProfile@Bluetooth@Devices@Windows@@@Concurrency@@@Z@std@@U?$integral_constant@_N$00@7@U_TypeSelectorNoAsync@details@Concurrency@@@?$task@PE$AAVGattDeviceService@GenericAttributeProfile@Bluetooth@Devices@Windows@@@Concurrency@@U_ContinuationTaskHandleBase@details@3@@details@Concurrency@@UEAAPEAXI@Z 000000018004f860 f i _nodert_generated.obj
 0001:0004e8b0       ??_E?$_PPLTaskHandle@EU?$_ContinuationTaskHandle@PE$AAVGattDeviceServicesResult@GenericAttributeProfile@Bluetooth@Devices@Windows@@XV?$function@$$A6AXV?$task@PE$AAVGattDeviceServicesResult@GenericAttributeProfile@Bluetooth@Devices@Windows@@@Concurrency@@@Z@std@@U?$integral_constant@_N$00@7@U_TypeSelectorNoAsync@details@Concurrency@@@?$task@PE$AAVGattDeviceServicesResult@GenericAttributeProfile@Bluetooth@Devices@Windows@@@Concurrency@@U_ContinuationTaskHandleBase@details@3@@details@Concurrency@@UEAAPEAXI@Z 000000018004f8b0 f i _nodert_generated.obj
 0001:0004e8b0       ??_G?$_PPLTaskHandle@EU?$_ContinuationTaskHandle@PE$AAVGattDeviceServicesResult@GenericAttributeProfile@Bluetooth@Devices@Windows@@XV?$function@$$A6AXV?$task@PE$AAVGattDeviceServicesResult@GenericAttributeProfile@Bluetooth@Devices@Windows@@@Concurrency@@@Z@std@@U?$integral_constant@_N$00@7@U_TypeSelectorNoAsync@details@Concurrency@@@?$task@PE$AAVGattDeviceServicesResult@GenericAttributeProfile@Bluetooth@Devices@Windows@@@Concurrency@@U_ContinuationTaskHandleBase@details@3@@details@Concurrency@@UEAAPEAXI@Z 000000018004f8b0 f i _nodert_generated.obj
 0001:0004e900       ??_E?$_PPLTaskHandle@EU?$_ContinuationTaskHandle@PE$AAVGattLocalCharacteristicResult@GenericAttributeProfile@Bluetooth@Devices@Windows@@XV?$function@$$A6AXV?$task@PE$AAVGattLocalCharacteristicResult@GenericAttributeProfile@Bluetooth@Devices@Windows@@@Concurrency@@@Z@std@@U?$integral_constant@_N$00@7@U_TypeSelectorNoAsync@details@Concurrency@@@?$task@PE$AAVGattLocalCharacteristicResult@GenericAttributeProfile@Bluetooth@Devices@Windows@@@Concurrency@@U_ContinuationTaskHandleBase@details@3@@details@Concurrency@@UEAAPEAXI@Z 000000018004f900 f i _nodert_generated.obj
 0001:0004e900       ??_G?$_PPLTaskHandle@EU?$_ContinuationTaskHandle@PE$AAVGattLocalCharacteristicResult@GenericAttributeProfile@Bluetooth@Devices@Windows@@XV?$function@$$A6AXV?$task@PE$AAVGattLocalCharacteristicResult@GenericAttributeProfile@Bluetooth@Devices@Windows@@@Concurrency@@@Z@std@@U?$integral_constant@_N$00@7@U_TypeSelectorNoAsync@details@Concurrency@@@?$task@PE$AAVGattLocalCharacteristicResult@GenericAttributeProfile@Bluetooth@Devices@Windows@@@Concurrency@@U_ContinuationTaskHandleBase@details@3@@details@Concurrency@@UEAAPEAXI@Z 000000018004f900 f i _nodert_generated.obj
 0001:0004e950       ??_E?$_PPLTaskHandle@EU?$_ContinuationTaskHandle@PE$AAVGattLocalDescriptorResult@GenericAttributeProfile@Bluetooth@Devices@Windows@@XV?$function@$$A6AXV?$task@PE$AAVGattLocalDescriptorResult@GenericAttributeProfile@Bluetooth@Devices@Windows@@@Concurrency@@@Z@std@@U?$integral_constant@_N$00@7@U_TypeSelectorNoAsync@details@Concurrency@@@?$task@PE$AAVGattLocalDescriptorResult@GenericAttributeProfile@Bluetooth@Devices@Windows@@@Concurrency@@U_ContinuationTaskHandleBase@details@3@@details@Concurrency@@UEAAPEAXI@Z 000000018004f950 f i _nodert_generated.obj
 0001:0004e950       ??_G?$_PPLTaskHandle@EU?$_ContinuationTaskHandle@PE$AAVGattLocalDescriptorResult@GenericAttributeProfile@Bluetooth@Devices@Windows@@XV?$function@$$A6AXV?$task@PE$AAVGattLocalDescriptorResult@GenericAttributeProfile@Bluetooth@Devices@Windows@@@Concurrency@@@Z@std@@U?$integral_constant@_N$00@7@U_TypeSelectorNoAsync@details@Concurrency@@@?$task@PE$AAVGattLocalDescriptorResult@GenericAttributeProfile@Bluetooth@Devices@Windows@@@Concurrency@@U_ContinuationTaskHandleBase@details@3@@details@Concurrency@@UEAAPEAXI@Z 000000018004f950 f i _nodert_generated.obj
 0001:0004e9a0       ??_G?$_PPLTaskHandle@EU?$_ContinuationTaskHandle@PE$AAVGattReadClientCharacteristicConfigurationDescriptorResult@GenericAttributeProfile@Bluetooth@Devices@Windows@@XV?$function@$$A6AXV?$task@PE$AAVGattReadClientCharacteristicConfigurationDescriptorResult@GenericAttributeProfile@Bluetooth@Devices@Windows@@@Concurrency@@@Z@std@@U?$integral_constant@_N$00@7@U_TypeSelectorNoAsync@details@Concurrency@@@?$task@PE$AAVGattReadClientCharacteristicConfigurationDescriptorResult@GenericAttributeProfile@Bluetooth@Devices@Windows@@@Concurrency@@U_ContinuationTaskHandleBase@details@3@@details@Concurrency@@UEAAPEAXI@Z 000000018004f9a0 f i _nodert_generated.obj
 0001:0004e9a0       ??_E?$_PPLTaskHandle@EU?$_ContinuationTaskHandle@PE$AAVGattReadClientCharacteristicConfigurationDescriptorResult@GenericAttributeProfile@Bluetooth@Devices@Windows@@XV?$function@$$A6AXV?$task@PE$AAVGattReadClientCharacteristicConfigurationDescriptorResult@GenericAttributeProfile@Bluetooth@Devices@Windows@@@Concurrency@@@Z@std@@U?$integral_constant@_N$00@7@U_TypeSelectorNoAsync@details@Concurrency@@@?$task@PE$AAVGattReadClientCharacteristicConfigurationDescriptorResult@GenericAttributeProfile@Bluetooth@Devices@Windows@@@Concurrency@@U_ContinuationTaskHandleBase@details@3@@details@Concurrency@@UEAAPEAXI@Z 000000018004f9a0 f i _nodert_generated.obj
 0001:0004e9f0       ??_E?$_PPLTaskHandle@EU?$_ContinuationTaskHandle@PE$AAVGattReadRequest@GenericAttributeProfile@Bluetooth@Devices@Windows@@XV?$function@$$A6AXV?$task@PE$AAVGattReadRequest@GenericAttributeProfile@Bluetooth@Devices@Windows@@@Concurrency@@@Z@std@@U?$integral_constant@_N$00@7@U_TypeSelectorNoAsync@details@Concurrency@@@?$task@PE$AAVGattReadRequest@GenericAttributeProfile@Bluetooth@Devices@Windows@@@Concurrency@@U_ContinuationTaskHandleBase@details@3@@details@Concurrency@@UEAAPEAXI@Z 000000018004f9f0 f i _nodert_generated.obj
 0001:0004e9f0       ??_G?$_PPLTaskHandle@EU?$_ContinuationTaskHandle@PE$AAVGattReadRequest@GenericAttributeProfile@Bluetooth@Devices@Windows@@XV?$function@$$A6AXV?$task@PE$AAVGattReadRequest@GenericAttributeProfile@Bluetooth@Devices@Windows@@@Concurrency@@@Z@std@@U?$integral_constant@_N$00@7@U_TypeSelectorNoAsync@details@Concurrency@@@?$task@PE$AAVGattReadRequest@GenericAttributeProfile@Bluetooth@Devices@Windows@@@Concurrency@@U_ContinuationTaskHandleBase@details@3@@details@Concurrency@@UEAAPEAXI@Z 000000018004f9f0 f i _nodert_generated.obj
 0001:0004ea40       ??_E?$_PPLTaskHandle@EU?$_ContinuationTaskHandle@PE$AAVGattReadResult@GenericAttributeProfile@Bluetooth@Devices@Windows@@XV?$function@$$A6AXV?$task@PE$AAVGattReadResult@GenericAttributeProfile@Bluetooth@Devices@Windows@@@Concurrency@@@Z@std@@U?$integral_constant@_N$00@7@U_TypeSelectorNoAsync@details@Concurrency@@@?$task@PE$AAVGattReadResult@GenericAttributeProfile@Bluetooth@Devices@Windows@@@Concurrency@@U_ContinuationTaskHandleBase@details@3@@details@Concurrency@@UEAAPEAXI@Z 000000018004fa40 f i _nodert_generated.obj
 0001:0004ea40       ??_G?$_PPLTaskHandle@EU?$_ContinuationTaskHandle@PE$AAVGattReadResult@GenericAttributeProfile@Bluetooth@Devices@Windows@@XV?$function@$$A6AXV?$task@PE$AAVGattReadResult@GenericAttributeProfile@Bluetooth@Devices@Windows@@@Concurrency@@@Z@std@@U?$integral_constant@_N$00@7@U_TypeSelectorNoAsync@details@Concurrency@@@?$task@PE$AAVGattReadResult@GenericAttributeProfile@Bluetooth@Devices@Windows@@@Concurrency@@U_ContinuationTaskHandleBase@details@3@@details@Concurrency@@UEAAPEAXI@Z 000000018004fa40 f i _nodert_generated.obj
 0001:0004ea90       ??_E?$_PPLTaskHandle@EU?$_ContinuationTaskHandle@PE$AAVGattServiceProviderResult@GenericAttributeProfile@Bluetooth@Devices@Windows@@XV?$function@$$A6AXV?$task@PE$AAVGattServiceProviderResult@GenericAttributeProfile@Bluetooth@Devices@Windows@@@Concurrency@@@Z@std@@U?$integral_constant@_N$00@7@U_TypeSelectorNoAsync@details@Concurrency@@@?$task@PE$AAVGattServiceProviderResult@GenericAttributeProfile@Bluetooth@Devices@Windows@@@Concurrency@@U_ContinuationTaskHandleBase@details@3@@details@Concurrency@@UEAAPEAXI@Z 000000018004fa90 f i _nodert_generated.obj
 0001:0004ea90       ??_G?$_PPLTaskHandle@EU?$_ContinuationTaskHandle@PE$AAVGattServiceProviderResult@GenericAttributeProfile@Bluetooth@Devices@Windows@@XV?$function@$$A6AXV?$task@PE$AAVGattServiceProviderResult@GenericAttributeProfile@Bluetooth@Devices@Windows@@@Concurrency@@@Z@std@@U?$integral_constant@_N$00@7@U_TypeSelectorNoAsync@details@Concurrency@@@?$task@PE$AAVGattServiceProviderResult@GenericAttributeProfile@Bluetooth@Devices@Windows@@@Concurrency@@U_ContinuationTaskHandleBase@details@3@@details@Concurrency@@UEAAPEAXI@Z 000000018004fa90 f i _nodert_generated.obj
 0001:0004eae0       ??_E?$_PPLTaskHandle@EU?$_ContinuationTaskHandle@PE$AAVGattSession@GenericAttributeProfile@Bluetooth@Devices@Windows@@XV?$function@$$A6AXV?$task@PE$AAVGattSession@GenericAttributeProfile@Bluetooth@Devices@Windows@@@Concurrency@@@Z@std@@U?$integral_constant@_N$00@7@U_TypeSelectorNoAsync@details@Concurrency@@@?$task@PE$AAVGattSession@GenericAttributeProfile@Bluetooth@Devices@Windows@@@Concurrency@@U_ContinuationTaskHandleBase@details@3@@details@Concurrency@@UEAAPEAXI@Z 000000018004fae0 f i _nodert_generated.obj
 0001:0004eae0       ??_G?$_PPLTaskHandle@EU?$_ContinuationTaskHandle@PE$AAVGattSession@GenericAttributeProfile@Bluetooth@Devices@Windows@@XV?$function@$$A6AXV?$task@PE$AAVGattSession@GenericAttributeProfile@Bluetooth@Devices@Windows@@@Concurrency@@@Z@std@@U?$integral_constant@_N$00@7@U_TypeSelectorNoAsync@details@Concurrency@@@?$task@PE$AAVGattSession@GenericAttributeProfile@Bluetooth@Devices@Windows@@@Concurrency@@U_ContinuationTaskHandleBase@details@3@@details@Concurrency@@UEAAPEAXI@Z 000000018004fae0 f i _nodert_generated.obj
 0001:0004eb30       ??_G?$_PPLTaskHandle@EU?$_ContinuationTaskHandle@PE$AAVGattWriteRequest@GenericAttributeProfile@Bluetooth@Devices@Windows@@XV?$function@$$A6AXV?$task@PE$AAVGattWriteRequest@GenericAttributeProfile@Bluetooth@Devices@Windows@@@Concurrency@@@Z@std@@U?$integral_constant@_N$00@7@U_TypeSelectorNoAsync@details@Concurrency@@@?$task@PE$AAVGattWriteRequest@GenericAttributeProfile@Bluetooth@Devices@Windows@@@Concurrency@@U_ContinuationTaskHandleBase@details@3@@details@Concurrency@@UEAAPEAXI@Z 000000018004fb30 f i _nodert_generated.obj
 0001:0004eb30       ??_E?$_PPLTaskHandle@EU?$_ContinuationTaskHandle@PE$AAVGattWriteRequest@GenericAttributeProfile@Bluetooth@Devices@Windows@@XV?$function@$$A6AXV?$task@PE$AAVGattWriteRequest@GenericAttributeProfile@Bluetooth@Devices@Windows@@@Concurrency@@@Z@std@@U?$integral_constant@_N$00@7@U_TypeSelectorNoAsync@details@Concurrency@@@?$task@PE$AAVGattWriteRequest@GenericAttributeProfile@Bluetooth@Devices@Windows@@@Concurrency@@U_ContinuationTaskHandleBase@details@3@@details@Concurrency@@UEAAPEAXI@Z 000000018004fb30 f i _nodert_generated.obj
 0001:0004eb80       ??_E?$_PPLTaskHandle@EU?$_ContinuationTaskHandle@PE$AAVGattWriteResult@GenericAttributeProfile@Bluetooth@Devices@Windows@@XV?$function@$$A6AXV?$task@PE$AAVGattWriteResult@GenericAttributeProfile@Bluetooth@Devices@Windows@@@Concurrency@@@Z@std@@U?$integral_constant@_N$00@7@U_TypeSelectorNoAsync@details@Concurrency@@@?$task@PE$AAVGattWriteResult@GenericAttributeProfile@Bluetooth@Devices@Windows@@@Concurrency@@U_ContinuationTaskHandleBase@details@3@@details@Concurrency@@UEAAPEAXI@Z 000000018004fb80 f i _nodert_generated.obj
 0001:0004eb80       ??_G?$_PPLTaskHandle@EU?$_ContinuationTaskHandle@PE$AAVGattWriteResult@GenericAttributeProfile@Bluetooth@Devices@Windows@@XV?$function@$$A6AXV?$task@PE$AAVGattWriteResult@GenericAttributeProfile@Bluetooth@Devices@Windows@@@Concurrency@@@Z@std@@U?$integral_constant@_N$00@7@U_TypeSelectorNoAsync@details@Concurrency@@@?$task@PE$AAVGattWriteResult@GenericAttributeProfile@Bluetooth@Devices@Windows@@@Concurrency@@U_ContinuationTaskHandleBase@details@3@@details@Concurrency@@UEAAPEAXI@Z 000000018004fb80 f i _nodert_generated.obj
 0001:0004ebd0       ??_E?$_PPLTaskHandle@EU?$_ContinuationTaskHandle@W4DeviceAccessStatus@Enumeration@Devices@Windows@@XV?$function@$$A6AXV?$task@W4DeviceAccessStatus@Enumeration@Devices@Windows@@@Concurrency@@@Z@std@@U?$integral_constant@_N$00@6@U_TypeSelectorNoAsync@details@Concurrency@@@?$task@W4DeviceAccessStatus@Enumeration@Devices@Windows@@@Concurrency@@U_ContinuationTaskHandleBase@details@3@@details@Concurrency@@UEAAPEAXI@Z 000000018004fbd0 f i _nodert_generated.obj
 0001:0004ebd0       ??_G?$_PPLTaskHandle@EU?$_ContinuationTaskHandle@W4DeviceAccessStatus@Enumeration@Devices@Windows@@XV?$function@$$A6AXV?$task@W4DeviceAccessStatus@Enumeration@Devices@Windows@@@Concurrency@@@Z@std@@U?$integral_constant@_N$00@6@U_TypeSelectorNoAsync@details@Concurrency@@@?$task@W4DeviceAccessStatus@Enumeration@Devices@Windows@@@Concurrency@@U_ContinuationTaskHandleBase@details@3@@details@Concurrency@@UEAAPEAXI@Z 000000018004fbd0 f i _nodert_generated.obj
 0001:0004ec20       ??_G?$_PPLTaskHandle@EU?$_ContinuationTaskHandle@W4GattCommunicationStatus@GenericAttributeProfile@Bluetooth@Devices@Windows@@XV?$function@$$A6AXV?$task@W4GattCommunicationStatus@GenericAttributeProfile@Bluetooth@Devices@Windows@@@Concurrency@@@Z@std@@U?$integral_constant@_N$00@7@U_TypeSelectorNoAsync@details@Concurrency@@@?$task@W4GattCommunicationStatus@GenericAttributeProfile@Bluetooth@Devices@Windows@@@Concurrency@@U_ContinuationTaskHandleBase@details@3@@details@Concurrency@@UEAAPEAXI@Z 000000018004fc20 f i _nodert_generated.obj
 0001:0004ec20       ??_E?$_PPLTaskHandle@EU?$_ContinuationTaskHandle@W4GattCommunicationStatus@GenericAttributeProfile@Bluetooth@Devices@Windows@@XV?$function@$$A6AXV?$task@W4GattCommunicationStatus@GenericAttributeProfile@Bluetooth@Devices@Windows@@@Concurrency@@@Z@std@@U?$integral_constant@_N$00@7@U_TypeSelectorNoAsync@details@Concurrency@@@?$task@W4GattCommunicationStatus@GenericAttributeProfile@Bluetooth@Devices@Windows@@@Concurrency@@U_ContinuationTaskHandleBase@details@3@@details@Concurrency@@UEAAPEAXI@Z 000000018004fc20 f i _nodert_generated.obj
 0001:0004ec70       ??_G?$_PPLTaskHandle@EU?$_ContinuationTaskHandle@W4GattOpenStatus@GenericAttributeProfile@Bluetooth@Devices@Windows@@XV?$function@$$A6AXV?$task@W4GattOpenStatus@GenericAttributeProfile@Bluetooth@Devices@Windows@@@Concurrency@@@Z@std@@U?$integral_constant@_N$00@7@U_TypeSelectorNoAsync@details@Concurrency@@@?$task@W4GattOpenStatus@GenericAttributeProfile@Bluetooth@Devices@Windows@@@Concurrency@@U_ContinuationTaskHandleBase@details@3@@details@Concurrency@@UEAAPEAXI@Z 000000018004fc70 f i _nodert_generated.obj
 0001:0004ec70       ??_E?$_PPLTaskHandle@EU?$_ContinuationTaskHandle@W4GattOpenStatus@GenericAttributeProfile@Bluetooth@Devices@Windows@@XV?$function@$$A6AXV?$task@W4GattOpenStatus@GenericAttributeProfile@Bluetooth@Devices@Windows@@@Concurrency@@@Z@std@@U?$integral_constant@_N$00@7@U_TypeSelectorNoAsync@details@Concurrency@@@?$task@W4GattOpenStatus@GenericAttributeProfile@Bluetooth@Devices@Windows@@@Concurrency@@U_ContinuationTaskHandleBase@details@3@@details@Concurrency@@UEAAPEAXI@Z 000000018004fc70 f i _nodert_generated.obj
 0001:0004ecc0       ??_E?$_Ref_count_del@V?$Persistent@VObject@v8@@V?$NonCopyablePersistentTraits@VObject@v8@@@2@@Nan@@V<lambda_10780ba71c1f39bad2f5acb8096e667c>@@@std@@UEAAPEAXI@Z 000000018004fcc0 f i _nodert_generated.obj
 0001:0004ecc0       ??_G?$_Ref_count_del@V?$Persistent@VObject@v8@@V?$NonCopyablePersistentTraits@VObject@v8@@@2@@Nan@@V<lambda_10780ba71c1f39bad2f5acb8096e667c>@@@std@@UEAAPEAXI@Z 000000018004fcc0 f i _nodert_generated.obj
 0001:0004ed00       ??_G?$_Ref_count_del@V?$Persistent@VObject@v8@@V?$NonCopyablePersistentTraits@VObject@v8@@@2@@Nan@@V<lambda_3171a7897c6e9dc9064f9ffde01889cf>@@@std@@UEAAPEAXI@Z 000000018004fd00 f i _nodert_generated.obj
 0001:0004ed00       ??_E?$_Ref_count_del@V?$Persistent@VObject@v8@@V?$NonCopyablePersistentTraits@VObject@v8@@@2@@Nan@@V<lambda_3171a7897c6e9dc9064f9ffde01889cf>@@@std@@UEAAPEAXI@Z 000000018004fd00 f i _nodert_generated.obj
 0001:0004ed40       ??_G?$_Ref_count_del@V?$Persistent@VObject@v8@@V?$NonCopyablePersistentTraits@VObject@v8@@@2@@Nan@@V<lambda_3e5da39530266ec56c52650e54b81c35>@@@std@@UEAAPEAXI@Z 000000018004fd40 f i _nodert_generated.obj
 0001:0004ed40       ??_E?$_Ref_count_del@V?$Persistent@VObject@v8@@V?$NonCopyablePersistentTraits@VObject@v8@@@2@@Nan@@V<lambda_3e5da39530266ec56c52650e54b81c35>@@@std@@UEAAPEAXI@Z 000000018004fd40 f i _nodert_generated.obj
 0001:0004ed80       ??_G?$_Ref_count_del@V?$Persistent@VObject@v8@@V?$NonCopyablePersistentTraits@VObject@v8@@@2@@Nan@@V<lambda_692f8077e965bb9c8bbf242166c91e6f>@@@std@@UEAAPEAXI@Z 000000018004fd80 f i _nodert_generated.obj
 0001:0004ed80       ??_E?$_Ref_count_del@V?$Persistent@VObject@v8@@V?$NonCopyablePersistentTraits@VObject@v8@@@2@@Nan@@V<lambda_692f8077e965bb9c8bbf242166c91e6f>@@@std@@UEAAPEAXI@Z 000000018004fd80 f i _nodert_generated.obj
 0001:0004edc0       ??_E?$_Ref_count_del@V?$Persistent@VObject@v8@@V?$NonCopyablePersistentTraits@VObject@v8@@@2@@Nan@@V<lambda_6965ed0679abc66842a8f3af55363f26>@@@std@@UEAAPEAXI@Z 000000018004fdc0 f i _nodert_generated.obj
 0001:0004edc0       ??_G?$_Ref_count_del@V?$Persistent@VObject@v8@@V?$NonCopyablePersistentTraits@VObject@v8@@@2@@Nan@@V<lambda_6965ed0679abc66842a8f3af55363f26>@@@std@@UEAAPEAXI@Z 000000018004fdc0 f i _nodert_generated.obj
 0001:0004ee00       ??_E?$_Ref_count_del@V?$Persistent@VObject@v8@@V?$NonCopyablePersistentTraits@VObject@v8@@@2@@Nan@@V<lambda_6a93a0e11d305499d94b78a1b685e61f>@@@std@@UEAAPEAXI@Z 000000018004fe00 f i _nodert_generated.obj
 0001:0004ee00       ??_G?$_Ref_count_del@V?$Persistent@VObject@v8@@V?$NonCopyablePersistentTraits@VObject@v8@@@2@@Nan@@V<lambda_6a93a0e11d305499d94b78a1b685e61f>@@@std@@UEAAPEAXI@Z 000000018004fe00 f i _nodert_generated.obj
 0001:0004ee40       ??_E?$_Ref_count_del@V?$Persistent@VObject@v8@@V?$NonCopyablePersistentTraits@VObject@v8@@@2@@Nan@@V<lambda_6b24754f7bf2801b77d89c51ef32d0cb>@@@std@@UEAAPEAXI@Z 000000018004fe40 f i _nodert_generated.obj
 0001:0004ee40       ??_G?$_Ref_count_del@V?$Persistent@VObject@v8@@V?$NonCopyablePersistentTraits@VObject@v8@@@2@@Nan@@V<lambda_6b24754f7bf2801b77d89c51ef32d0cb>@@@std@@UEAAPEAXI@Z 000000018004fe40 f i _nodert_generated.obj
 0001:0004ee80       ??_G?$_Ref_count_del@V?$Persistent@VObject@v8@@V?$NonCopyablePersistentTraits@VObject@v8@@@2@@Nan@@V<lambda_6ec304f060573cddc60a6fa9b36bc3b8>@@@std@@UEAAPEAXI@Z 000000018004fe80 f i _nodert_generated.obj
 0001:0004ee80       ??_E?$_Ref_count_del@V?$Persistent@VObject@v8@@V?$NonCopyablePersistentTraits@VObject@v8@@@2@@Nan@@V<lambda_6ec304f060573cddc60a6fa9b36bc3b8>@@@std@@UEAAPEAXI@Z 000000018004fe80 f i _nodert_generated.obj
 0001:0004eec0       ??_G?$_Ref_count_del@V?$Persistent@VObject@v8@@V?$NonCopyablePersistentTraits@VObject@v8@@@2@@Nan@@V<lambda_75c235dd893f5adb48eef7bca53c5552>@@@std@@UEAAPEAXI@Z 000000018004fec0 f i _nodert_generated.obj
 0001:0004eec0       ??_E?$_Ref_count_del@V?$Persistent@VObject@v8@@V?$NonCopyablePersistentTraits@VObject@v8@@@2@@Nan@@V<lambda_75c235dd893f5adb48eef7bca53c5552>@@@std@@UEAAPEAXI@Z 000000018004fec0 f i _nodert_generated.obj
 0001:0004ef00       ??_G?$_Ref_count_del@V?$Persistent@VObject@v8@@V?$NonCopyablePersistentTraits@VObject@v8@@@2@@Nan@@V<lambda_a7d0c8152709aca21d70b674e0948214>@@@std@@UEAAPEAXI@Z 000000018004ff00 f i _nodert_generated.obj
 0001:0004ef00       ??_E?$_Ref_count_del@V?$Persistent@VObject@v8@@V?$NonCopyablePersistentTraits@VObject@v8@@@2@@Nan@@V<lambda_a7d0c8152709aca21d70b674e0948214>@@@std@@UEAAPEAXI@Z 000000018004ff00 f i _nodert_generated.obj
 0001:0004ef40       ??_G?$_Ref_count_del@V?$Persistent@VObject@v8@@V?$NonCopyablePersistentTraits@VObject@v8@@@2@@Nan@@V<lambda_da38337a4b2458cdb41bf95ffdd84364>@@@std@@UEAAPEAXI@Z 000000018004ff40 f i _nodert_generated.obj
 0001:0004ef40       ??_E?$_Ref_count_del@V?$Persistent@VObject@v8@@V?$NonCopyablePersistentTraits@VObject@v8@@@2@@Nan@@V<lambda_da38337a4b2458cdb41bf95ffdd84364>@@@std@@UEAAPEAXI@Z 000000018004ff40 f i _nodert_generated.obj
 0001:0004ef80       ??_G?$_Ref_count_del@V?$Persistent@VObject@v8@@V?$NonCopyablePersistentTraits@VObject@v8@@@2@@Nan@@V<lambda_f452d64633a74b457bc00db6e564ac5d>@@@std@@UEAAPEAXI@Z 000000018004ff80 f i _nodert_generated.obj
 0001:0004ef80       ??_E?$_Ref_count_del@V?$Persistent@VObject@v8@@V?$NonCopyablePersistentTraits@VObject@v8@@@2@@Nan@@V<lambda_f452d64633a74b457bc00db6e564ac5d>@@@std@@UEAAPEAXI@Z 000000018004ff80 f i _nodert_generated.obj
 0001:0004efc0       ??_E?$_Ref_count_obj@U?$_Task_impl@E@details@Concurrency@@@std@@UEAAPEAXI@Z 000000018004ffc0 f i _nodert_generated.obj
 0001:0004efc0       ??_G?$_Ref_count_obj@U?$_Task_impl@E@details@Concurrency@@@std@@UEAAPEAXI@Z 000000018004ffc0 f i _nodert_generated.obj
 0001:0004f000       ??_G?$_Ref_count_obj@U?$_Task_impl@PE$AAU?$IVectorView@PE$AAVGattClientNotificationResult@GenericAttributeProfile@Bluetooth@Devices@Windows@@@Collections@Foundation@Windows@@@details@Concurrency@@@std@@UEAAPEAXI@Z 0000000180050000 f i _nodert_generated.obj
 0001:0004f000       ??_E?$_Ref_count_obj@U?$_Task_impl@PE$AAU?$IVectorView@PE$AAVGattClientNotificationResult@GenericAttributeProfile@Bluetooth@Devices@Windows@@@Collections@Foundation@Windows@@@details@Concurrency@@@std@@UEAAPEAXI@Z 0000000180050000 f i _nodert_generated.obj
 0001:0004f040       ??_G?$_Ref_count_obj@U?$_Task_impl@PE$AAVGattCharacteristicsResult@GenericAttributeProfile@Bluetooth@Devices@Windows@@@details@Concurrency@@@std@@UEAAPEAXI@Z 0000000180050040 f i _nodert_generated.obj
 0001:0004f040       ??_E?$_Ref_count_obj@U?$_Task_impl@PE$AAVGattCharacteristicsResult@GenericAttributeProfile@Bluetooth@Devices@Windows@@@details@Concurrency@@@std@@UEAAPEAXI@Z 0000000180050040 f i _nodert_generated.obj
 0001:0004f080       ??_E?$_Ref_count_obj@U?$_Task_impl@PE$AAVGattClientNotificationResult@GenericAttributeProfile@Bluetooth@Devices@Windows@@@details@Concurrency@@@std@@UEAAPEAXI@Z 0000000180050080 f i _nodert_generated.obj
 0001:0004f080       ??_G?$_Ref_count_obj@U?$_Task_impl@PE$AAVGattClientNotificationResult@GenericAttributeProfile@Bluetooth@Devices@Windows@@@details@Concurrency@@@std@@UEAAPEAXI@Z 0000000180050080 f i _nodert_generated.obj
 0001:0004f0c0       ??_G?$_Ref_count_obj@U?$_Task_impl@PE$AAVGattDescriptorsResult@GenericAttributeProfile@Bluetooth@Devices@Windows@@@details@Concurrency@@@std@@UEAAPEAXI@Z 00000001800500c0 f i _nodert_generated.obj
 0001:0004f0c0       ??_E?$_Ref_count_obj@U?$_Task_impl@PE$AAVGattDescriptorsResult@GenericAttributeProfile@Bluetooth@Devices@Windows@@@details@Concurrency@@@std@@UEAAPEAXI@Z 00000001800500c0 f i _nodert_generated.obj
 0001:0004f100       ??_E?$_Ref_count_obj@U?$_Task_impl@PE$AAVGattDeviceService@GenericAttributeProfile@Bluetooth@Devices@Windows@@@details@Concurrency@@@std@@UEAAPEAXI@Z 0000000180050100 f i _nodert_generated.obj
 0001:0004f100       ??_G?$_Ref_count_obj@U?$_Task_impl@PE$AAVGattDeviceService@GenericAttributeProfile@Bluetooth@Devices@Windows@@@details@Concurrency@@@std@@UEAAPEAXI@Z 0000000180050100 f i _nodert_generated.obj
 0001:0004f140       ??_G?$_Ref_count_obj@U?$_Task_impl@PE$AAVGattDeviceServicesResult@GenericAttributeProfile@Bluetooth@Devices@Windows@@@details@Concurrency@@@std@@UEAAPEAXI@Z 0000000180050140 f i _nodert_generated.obj
 0001:0004f140       ??_E?$_Ref_count_obj@U?$_Task_impl@PE$AAVGattDeviceServicesResult@GenericAttributeProfile@Bluetooth@Devices@Windows@@@details@Concurrency@@@std@@UEAAPEAXI@Z 0000000180050140 f i _nodert_generated.obj
 0001:0004f180       ??_G?$_Ref_count_obj@U?$_Task_impl@PE$AAVGattLocalCharacteristicResult@GenericAttributeProfile@Bluetooth@Devices@Windows@@@details@Concurrency@@@std@@UEAAPEAXI@Z 0000000180050180 f i _nodert_generated.obj
 0001:0004f180       ??_E?$_Ref_count_obj@U?$_Task_impl@PE$AAVGattLocalCharacteristicResult@GenericAttributeProfile@Bluetooth@Devices@Windows@@@details@Concurrency@@@std@@UEAAPEAXI@Z 0000000180050180 f i _nodert_generated.obj
 0001:0004f1c0       ??_E?$_Ref_count_obj@U?$_Task_impl@PE$AAVGattLocalDescriptorResult@GenericAttributeProfile@Bluetooth@Devices@Windows@@@details@Concurrency@@@std@@UEAAPEAXI@Z 00000001800501c0 f i _nodert_generated.obj
 0001:0004f1c0       ??_G?$_Ref_count_obj@U?$_Task_impl@PE$AAVGattLocalDescriptorResult@GenericAttributeProfile@Bluetooth@Devices@Windows@@@details@Concurrency@@@std@@UEAAPEAXI@Z 00000001800501c0 f i _nodert_generated.obj
 0001:0004f200       ??_E?$_Ref_count_obj@U?$_Task_impl@PE$AAVGattReadClientCharacteristicConfigurationDescriptorResult@GenericAttributeProfile@Bluetooth@Devices@Windows@@@details@Concurrency@@@std@@UEAAPEAXI@Z 0000000180050200 f i _nodert_generated.obj
 0001:0004f200       ??_G?$_Ref_count_obj@U?$_Task_impl@PE$AAVGattReadClientCharacteristicConfigurationDescriptorResult@GenericAttributeProfile@Bluetooth@Devices@Windows@@@details@Concurrency@@@std@@UEAAPEAXI@Z 0000000180050200 f i _nodert_generated.obj
 0001:0004f240       ??_E?$_Ref_count_obj@U?$_Task_impl@PE$AAVGattReadRequest@GenericAttributeProfile@Bluetooth@Devices@Windows@@@details@Concurrency@@@std@@UEAAPEAXI@Z 0000000180050240 f i _nodert_generated.obj
 0001:0004f240       ??_G?$_Ref_count_obj@U?$_Task_impl@PE$AAVGattReadRequest@GenericAttributeProfile@Bluetooth@Devices@Windows@@@details@Concurrency@@@std@@UEAAPEAXI@Z 0000000180050240 f i _nodert_generated.obj
 0001:0004f280       ??_E?$_Ref_count_obj@U?$_Task_impl@PE$AAVGattReadResult@GenericAttributeProfile@Bluetooth@Devices@Windows@@@details@Concurrency@@@std@@UEAAPEAXI@Z 0000000180050280 f i _nodert_generated.obj
 0001:0004f280       ??_G?$_Ref_count_obj@U?$_Task_impl@PE$AAVGattReadResult@GenericAttributeProfile@Bluetooth@Devices@Windows@@@details@Concurrency@@@std@@UEAAPEAXI@Z 0000000180050280 f i _nodert_generated.obj
 0001:0004f2c0       ??_E?$_Ref_count_obj@U?$_Task_impl@PE$AAVGattServiceProviderResult@GenericAttributeProfile@Bluetooth@Devices@Windows@@@details@Concurrency@@@std@@UEAAPEAXI@Z 00000001800502c0 f i _nodert_generated.obj
 0001:0004f2c0       ??_G?$_Ref_count_obj@U?$_Task_impl@PE$AAVGattServiceProviderResult@GenericAttributeProfile@Bluetooth@Devices@Windows@@@details@Concurrency@@@std@@UEAAPEAXI@Z 00000001800502c0 f i _nodert_generated.obj
 0001:0004f300       ??_G?$_Ref_count_obj@U?$_Task_impl@PE$AAVGattSession@GenericAttributeProfile@Bluetooth@Devices@Windows@@@details@Concurrency@@@std@@UEAAPEAXI@Z 0000000180050300 f i _nodert_generated.obj
 0001:0004f300       ??_E?$_Ref_count_obj@U?$_Task_impl@PE$AAVGattSession@GenericAttributeProfile@Bluetooth@Devices@Windows@@@details@Concurrency@@@std@@UEAAPEAXI@Z 0000000180050300 f i _nodert_generated.obj
 0001:0004f340       ??_G?$_Ref_count_obj@U?$_Task_impl@PE$AAVGattWriteRequest@GenericAttributeProfile@Bluetooth@Devices@Windows@@@details@Concurrency@@@std@@UEAAPEAXI@Z 0000000180050340 f i _nodert_generated.obj
 0001:0004f340       ??_E?$_Ref_count_obj@U?$_Task_impl@PE$AAVGattWriteRequest@GenericAttributeProfile@Bluetooth@Devices@Windows@@@details@Concurrency@@@std@@UEAAPEAXI@Z 0000000180050340 f i _nodert_generated.obj
 0001:0004f380       ??_G?$_Ref_count_obj@U?$_Task_impl@PE$AAVGattWriteResult@GenericAttributeProfile@Bluetooth@Devices@Windows@@@details@Concurrency@@@std@@UEAAPEAXI@Z 0000000180050380 f i _nodert_generated.obj
 0001:0004f380       ??_E?$_Ref_count_obj@U?$_Task_impl@PE$AAVGattWriteResult@GenericAttributeProfile@Bluetooth@Devices@Windows@@@details@Concurrency@@@std@@UEAAPEAXI@Z 0000000180050380 f i _nodert_generated.obj
 0001:0004f3c0       ??_G?$_Ref_count_obj@U?$_Task_impl@W4DeviceAccessStatus@Enumeration@Devices@Windows@@@details@Concurrency@@@std@@UEAAPEAXI@Z 00000001800503c0 f i _nodert_generated.obj
 0001:0004f3c0       ??_E?$_Ref_count_obj@U?$_Task_impl@W4DeviceAccessStatus@Enumeration@Devices@Windows@@@details@Concurrency@@@std@@UEAAPEAXI@Z 00000001800503c0 f i _nodert_generated.obj
 0001:0004f400       ??_E?$_Ref_count_obj@U?$_Task_impl@W4GattCommunicationStatus@GenericAttributeProfile@Bluetooth@Devices@Windows@@@details@Concurrency@@@std@@UEAAPEAXI@Z 0000000180050400 f i _nodert_generated.obj
 0001:0004f400       ??_G?$_Ref_count_obj@U?$_Task_impl@W4GattCommunicationStatus@GenericAttributeProfile@Bluetooth@Devices@Windows@@@details@Concurrency@@@std@@UEAAPEAXI@Z 0000000180050400 f i _nodert_generated.obj
 0001:0004f440       ??_G?$_Ref_count_obj@U?$_Task_impl@W4GattOpenStatus@GenericAttributeProfile@Bluetooth@Devices@Windows@@@details@Concurrency@@@std@@UEAAPEAXI@Z 0000000180050440 f i _nodert_generated.obj
 0001:0004f440       ??_E?$_Ref_count_obj@U?$_Task_impl@W4GattOpenStatus@GenericAttributeProfile@Bluetooth@Devices@Windows@@@details@Concurrency@@@std@@UEAAPEAXI@Z 0000000180050440 f i _nodert_generated.obj
 0001:0004f480       ??_G?$_Ref_count_obj@U_ExceptionHolder@details@Concurrency@@@std@@UEAAPEAXI@Z 0000000180050480 f i _nodert_generated.obj
 0001:0004f480       ??_E?$_Ref_count_obj@U_ExceptionHolder@details@Concurrency@@@std@@UEAAPEAXI@Z 0000000180050480 f i _nodert_generated.obj
 0001:0004f4c0       ??_G?$_Task_impl@E@details@Concurrency@@UEAAPEAXI@Z 00000001800504c0 f i _nodert_generated.obj
 0001:0004f4c0       ??_E?$_Task_impl@E@details@Concurrency@@UEAAPEAXI@Z 00000001800504c0 f i _nodert_generated.obj
 0001:0004f510       ??_G?$_Task_impl@PE$AAU?$IVectorView@PE$AAVGattClientNotificationResult@GenericAttributeProfile@Bluetooth@Devices@Windows@@@Collections@Foundation@Windows@@@details@Concurrency@@UEAAPEAXI@Z 0000000180050510 f i _nodert_generated.obj
 0001:0004f510       ??_E?$_Task_impl@PE$AAU?$IVectorView@PE$AAVGattClientNotificationResult@GenericAttributeProfile@Bluetooth@Devices@Windows@@@Collections@Foundation@Windows@@@details@Concurrency@@UEAAPEAXI@Z 0000000180050510 f i _nodert_generated.obj
 0001:0004f560       ??_E?$_Task_impl@PE$AAVGattCharacteristicsResult@GenericAttributeProfile@Bluetooth@Devices@Windows@@@details@Concurrency@@UEAAPEAXI@Z 0000000180050560 f i _nodert_generated.obj
 0001:0004f560       ??_G?$_Task_impl@PE$AAVGattCharacteristicsResult@GenericAttributeProfile@Bluetooth@Devices@Windows@@@details@Concurrency@@UEAAPEAXI@Z 0000000180050560 f i _nodert_generated.obj
 0001:0004f5b0       ??_G?$_Task_impl@PE$AAVGattClientNotificationResult@GenericAttributeProfile@Bluetooth@Devices@Windows@@@details@Concurrency@@UEAAPEAXI@Z 00000001800505b0 f i _nodert_generated.obj
 0001:0004f5b0       ??_E?$_Task_impl@PE$AAVGattClientNotificationResult@GenericAttributeProfile@Bluetooth@Devices@Windows@@@details@Concurrency@@UEAAPEAXI@Z 00000001800505b0 f i _nodert_generated.obj
 0001:0004f600       ??_G?$_Task_impl@PE$AAVGattDescriptorsResult@GenericAttributeProfile@Bluetooth@Devices@Windows@@@details@Concurrency@@UEAAPEAXI@Z 0000000180050600 f i _nodert_generated.obj
 0001:0004f600       ??_E?$_Task_impl@PE$AAVGattDescriptorsResult@GenericAttributeProfile@Bluetooth@Devices@Windows@@@details@Concurrency@@UEAAPEAXI@Z 0000000180050600 f i _nodert_generated.obj
 0001:0004f650       ??_G?$_Task_impl@PE$AAVGattDeviceService@GenericAttributeProfile@Bluetooth@Devices@Windows@@@details@Concurrency@@UEAAPEAXI@Z 0000000180050650 f i _nodert_generated.obj
 0001:0004f650       ??_E?$_Task_impl@PE$AAVGattDeviceService@GenericAttributeProfile@Bluetooth@Devices@Windows@@@details@Concurrency@@UEAAPEAXI@Z 0000000180050650 f i _nodert_generated.obj
 0001:0004f6a0       ??_G?$_Task_impl@PE$AAVGattDeviceServicesResult@GenericAttributeProfile@Bluetooth@Devices@Windows@@@details@Concurrency@@UEAAPEAXI@Z 00000001800506a0 f i _nodert_generated.obj
 0001:0004f6a0       ??_E?$_Task_impl@PE$AAVGattDeviceServicesResult@GenericAttributeProfile@Bluetooth@Devices@Windows@@@details@Concurrency@@UEAAPEAXI@Z 00000001800506a0 f i _nodert_generated.obj
 0001:0004f6f0       ??_G?$_Task_impl@PE$AAVGattLocalCharacteristicResult@GenericAttributeProfile@Bluetooth@Devices@Windows@@@details@Concurrency@@UEAAPEAXI@Z 00000001800506f0 f i _nodert_generated.obj
 0001:0004f6f0       ??_E?$_Task_impl@PE$AAVGattLocalCharacteristicResult@GenericAttributeProfile@Bluetooth@Devices@Windows@@@details@Concurrency@@UEAAPEAXI@Z 00000001800506f0 f i _nodert_generated.obj
 0001:0004f740       ??_G?$_Task_impl@PE$AAVGattLocalDescriptorResult@GenericAttributeProfile@Bluetooth@Devices@Windows@@@details@Concurrency@@UEAAPEAXI@Z 0000000180050740 f i _nodert_generated.obj
 0001:0004f740       ??_E?$_Task_impl@PE$AAVGattLocalDescriptorResult@GenericAttributeProfile@Bluetooth@Devices@Windows@@@details@Concurrency@@UEAAPEAXI@Z 0000000180050740 f i _nodert_generated.obj
 0001:0004f790       ??_E?$_Task_impl@PE$AAVGattReadClientCharacteristicConfigurationDescriptorResult@GenericAttributeProfile@Bluetooth@Devices@Windows@@@details@Concurrency@@UEAAPEAXI@Z 0000000180050790 f i _nodert_generated.obj
 0001:0004f790       ??_G?$_Task_impl@PE$AAVGattReadClientCharacteristicConfigurationDescriptorResult@GenericAttributeProfile@Bluetooth@Devices@Windows@@@details@Concurrency@@UEAAPEAXI@Z 0000000180050790 f i _nodert_generated.obj
 0001:0004f7e0       ??_G?$_Task_impl@PE$AAVGattReadRequest@GenericAttributeProfile@Bluetooth@Devices@Windows@@@details@Concurrency@@UEAAPEAXI@Z 00000001800507e0 f i _nodert_generated.obj
 0001:0004f7e0       ??_E?$_Task_impl@PE$AAVGattReadRequest@GenericAttributeProfile@Bluetooth@Devices@Windows@@@details@Concurrency@@UEAAPEAXI@Z 00000001800507e0 f i _nodert_generated.obj
 0001:0004f830       ??_E?$_Task_impl@PE$AAVGattReadResult@GenericAttributeProfile@Bluetooth@Devices@Windows@@@details@Concurrency@@UEAAPEAXI@Z 0000000180050830 f i _nodert_generated.obj
 0001:0004f830       ??_G?$_Task_impl@PE$AAVGattReadResult@GenericAttributeProfile@Bluetooth@Devices@Windows@@@details@Concurrency@@UEAAPEAXI@Z 0000000180050830 f i _nodert_generated.obj
 0001:0004f880       ??_G?$_Task_impl@PE$AAVGattServiceProviderResult@GenericAttributeProfile@Bluetooth@Devices@Windows@@@details@Concurrency@@UEAAPEAXI@Z 0000000180050880 f i _nodert_generated.obj
 0001:0004f880       ??_E?$_Task_impl@PE$AAVGattServiceProviderResult@GenericAttributeProfile@Bluetooth@Devices@Windows@@@details@Concurrency@@UEAAPEAXI@Z 0000000180050880 f i _nodert_generated.obj
 0001:0004f8d0       ??_E?$_Task_impl@PE$AAVGattSession@GenericAttributeProfile@Bluetooth@Devices@Windows@@@details@Concurrency@@UEAAPEAXI@Z 00000001800508d0 f i _nodert_generated.obj
 0001:0004f8d0       ??_G?$_Task_impl@PE$AAVGattSession@GenericAttributeProfile@Bluetooth@Devices@Windows@@@details@Concurrency@@UEAAPEAXI@Z 00000001800508d0 f i _nodert_generated.obj
 0001:0004f920       ??_E?$_Task_impl@PE$AAVGattWriteRequest@GenericAttributeProfile@Bluetooth@Devices@Windows@@@details@Concurrency@@UEAAPEAXI@Z 0000000180050920 f i _nodert_generated.obj
 0001:0004f920       ??_G?$_Task_impl@PE$AAVGattWriteRequest@GenericAttributeProfile@Bluetooth@Devices@Windows@@@details@Concurrency@@UEAAPEAXI@Z 0000000180050920 f i _nodert_generated.obj
 0001:0004f970       ??_E?$_Task_impl@PE$AAVGattWriteResult@GenericAttributeProfile@Bluetooth@Devices@Windows@@@details@Concurrency@@UEAAPEAXI@Z 0000000180050970 f i _nodert_generated.obj
 0001:0004f970       ??_G?$_Task_impl@PE$AAVGattWriteResult@GenericAttributeProfile@Bluetooth@Devices@Windows@@@details@Concurrency@@UEAAPEAXI@Z 0000000180050970 f i _nodert_generated.obj
 0001:0004f9c0       ??_G?$_Task_impl@W4DeviceAccessStatus@Enumeration@Devices@Windows@@@details@Concurrency@@UEAAPEAXI@Z 00000001800509c0 f i _nodert_generated.obj
 0001:0004f9c0       ??_E?$_Task_impl@W4DeviceAccessStatus@Enumeration@Devices@Windows@@@details@Concurrency@@UEAAPEAXI@Z 00000001800509c0 f i _nodert_generated.obj
 0001:0004fa10       ??_E?$_Task_impl@W4GattCommunicationStatus@GenericAttributeProfile@Bluetooth@Devices@Windows@@@details@Concurrency@@UEAAPEAXI@Z 0000000180050a10 f i _nodert_generated.obj
 0001:0004fa10       ??_G?$_Task_impl@W4GattCommunicationStatus@GenericAttributeProfile@Bluetooth@Devices@Windows@@@details@Concurrency@@UEAAPEAXI@Z 0000000180050a10 f i _nodert_generated.obj
 0001:0004fa60       ??_E?$_Task_impl@W4GattOpenStatus@GenericAttributeProfile@Bluetooth@Devices@Windows@@@details@Concurrency@@UEAAPEAXI@Z 0000000180050a60 f i _nodert_generated.obj
 0001:0004fa60       ??_G?$_Task_impl@W4GattOpenStatus@GenericAttributeProfile@Bluetooth@Devices@Windows@@@details@Concurrency@@UEAAPEAXI@Z 0000000180050a60 f i _nodert_generated.obj
 0001:0004fab0       ??_G?$__abi_FunctorCapture@V<lambda_012d1b0716f3329ce77b4dc59e2ea2c4>@@XPE$AAU?$IAsyncOperation@PE$AAVGattReadResult@GenericAttributeProfile@Bluetooth@Devices@Windows@@@Foundation@Windows@@W4AsyncStatus@34@@Details@Platform@@UEAAPEAXI@Z 0000000180050ab0 f i _nodert_generated.obj
 0001:0004fab0       ??_E?$__abi_FunctorCapture@V<lambda_012d1b0716f3329ce77b4dc59e2ea2c4>@@XPE$AAU?$IAsyncOperation@PE$AAVGattReadResult@GenericAttributeProfile@Bluetooth@Devices@Windows@@@Foundation@Windows@@W4AsyncStatus@34@@Details@Platform@@UEAAPEAXI@Z 0000000180050ab0 f i _nodert_generated.obj
 0001:0004fb00       ??_G?$__abi_FunctorCapture@V<lambda_090bdc159f06daf1ad7df2aa3c78a4be>@@XPE$AAVGattReadRequest@GenericAttributeProfile@Bluetooth@Devices@Windows@@PE$AAVGattRequestStateChangedEventArgs@3456@@Details@Platform@@UEAAPEAXI@Z 0000000180050b00 f i _nodert_generated.obj
 0001:0004fb00       ??_E?$__abi_FunctorCapture@V<lambda_090bdc159f06daf1ad7df2aa3c78a4be>@@XPE$AAVGattReadRequest@GenericAttributeProfile@Bluetooth@Devices@Windows@@PE$AAVGattRequestStateChangedEventArgs@3456@@Details@Platform@@UEAAPEAXI@Z 0000000180050b00 f i _nodert_generated.obj
 0001:0004fb50       ??_E?$__abi_FunctorCapture@V<lambda_0a9020982a14342fb1e918139af240e1>@@XPE$AAU?$IAsyncOperation@PE$AAVGattReadRequest@GenericAttributeProfile@Bluetooth@Devices@Windows@@@Foundation@Windows@@W4AsyncStatus@34@@Details@Platform@@UEAAPEAXI@Z 0000000180050b50 f i _nodert_generated.obj
 0001:0004fb50       ??_G?$__abi_FunctorCapture@V<lambda_0a9020982a14342fb1e918139af240e1>@@XPE$AAU?$IAsyncOperation@PE$AAVGattReadRequest@GenericAttributeProfile@Bluetooth@Devices@Windows@@@Foundation@Windows@@W4AsyncStatus@34@@Details@Platform@@UEAAPEAXI@Z 0000000180050b50 f i _nodert_generated.obj
 0001:0004fba0       ??_E?$__abi_FunctorCapture@V<lambda_1e7c9a6d2940facc4be4f3701614cac2>@@XPE$AAVGattCharacteristic@GenericAttributeProfile@Bluetooth@Devices@Windows@@PE$AAVGattValueChangedEventArgs@3456@@Details@Platform@@UEAAPEAXI@Z 0000000180050ba0 f i _nodert_generated.obj
 0001:0004fba0       ??_G?$__abi_FunctorCapture@V<lambda_1e7c9a6d2940facc4be4f3701614cac2>@@XPE$AAVGattCharacteristic@GenericAttributeProfile@Bluetooth@Devices@Windows@@PE$AAVGattValueChangedEventArgs@3456@@Details@Platform@@UEAAPEAXI@Z 0000000180050ba0 f i _nodert_generated.obj
 0001:0004fbf0       ??_G?$__abi_FunctorCapture@V<lambda_27c3f1d4b0a81c9410ff8960a453e918>@@XPE$AAU?$IAsyncOperation@PE$AAVGattServiceProviderResult@GenericAttributeProfile@Bluetooth@Devices@Windows@@@Foundation@Windows@@W4AsyncStatus@34@@Details@Platform@@UEAAPEAXI@Z 0000000180050bf0 f i _nodert_generated.obj
 0001:0004fbf0       ??_E?$__abi_FunctorCapture@V<lambda_27c3f1d4b0a81c9410ff8960a453e918>@@XPE$AAU?$IAsyncOperation@PE$AAVGattServiceProviderResult@GenericAttributeProfile@Bluetooth@Devices@Windows@@@Foundation@Windows@@W4AsyncStatus@34@@Details@Platform@@UEAAPEAXI@Z 0000000180050bf0 f i _nodert_generated.obj
 0001:0004fc40       ??_E?$__abi_FunctorCapture@V<lambda_2c0a6636ae14641389e798624ba358eb>@@XPE$AAU?$IAsyncOperation@W4GattOpenStatus@GenericAttributeProfile@Bluetooth@Devices@Windows@@@Foundation@Windows@@W4AsyncStatus@34@@Details@Platform@@UEAAPEAXI@Z 0000000180050c40 f i _nodert_generated.obj
 0001:0004fc40       ??_G?$__abi_FunctorCapture@V<lambda_2c0a6636ae14641389e798624ba358eb>@@XPE$AAU?$IAsyncOperation@W4GattOpenStatus@GenericAttributeProfile@Bluetooth@Devices@Windows@@@Foundation@Windows@@W4AsyncStatus@34@@Details@Platform@@UEAAPEAXI@Z 0000000180050c40 f i _nodert_generated.obj
 0001:0004fc90       ??_G?$__abi_FunctorCapture@V<lambda_399b06989cb7af58905804fceeab192c>@@XPE$AAU?$IAsyncOperation@PE$AAVGattLocalCharacteristicResult@GenericAttributeProfile@Bluetooth@Devices@Windows@@@Foundation@Windows@@W4AsyncStatus@34@@Details@Platform@@UEAAPEAXI@Z 0000000180050c90 f i _nodert_generated.obj
 0001:0004fc90       ??_E?$__abi_FunctorCapture@V<lambda_399b06989cb7af58905804fceeab192c>@@XPE$AAU?$IAsyncOperation@PE$AAVGattLocalCharacteristicResult@GenericAttributeProfile@Bluetooth@Devices@Windows@@@Foundation@Windows@@W4AsyncStatus@34@@Details@Platform@@UEAAPEAXI@Z 0000000180050c90 f i _nodert_generated.obj
 0001:0004fce0       ??_G?$__abi_FunctorCapture@V<lambda_3f385f7136180657b99a85d2aef88f1a>@@XPE$AAU?$IAsyncOperation@PE$AAVGattClientNotificationResult@GenericAttributeProfile@Bluetooth@Devices@Windows@@@Foundation@Windows@@W4AsyncStatus@34@@Details@Platform@@UEAAPEAXI@Z 0000000180050ce0 f i _nodert_generated.obj
 0001:0004fce0       ??_E?$__abi_FunctorCapture@V<lambda_3f385f7136180657b99a85d2aef88f1a>@@XPE$AAU?$IAsyncOperation@PE$AAVGattClientNotificationResult@GenericAttributeProfile@Bluetooth@Devices@Windows@@@Foundation@Windows@@W4AsyncStatus@34@@Details@Platform@@UEAAPEAXI@Z 0000000180050ce0 f i _nodert_generated.obj
 0001:0004fd30       ??_G?$__abi_FunctorCapture@V<lambda_4888d9310bec5452d0bb8f7f1b36752b>@@XPE$AAU?$IAsyncOperation@W4DeviceAccessStatus@Enumeration@Devices@Windows@@@Foundation@Windows@@W4AsyncStatus@34@@Details@Platform@@UEAAPEAXI@Z 0000000180050d30 f i _nodert_generated.obj
 0001:0004fd30       ??_E?$__abi_FunctorCapture@V<lambda_4888d9310bec5452d0bb8f7f1b36752b>@@XPE$AAU?$IAsyncOperation@W4DeviceAccessStatus@Enumeration@Devices@Windows@@@Foundation@Windows@@W4AsyncStatus@34@@Details@Platform@@UEAAPEAXI@Z 0000000180050d30 f i _nodert_generated.obj
 0001:0004fd80       ??_G?$__abi_FunctorCapture@V<lambda_59deb91dcb35d7ef053ea0a6eba68806>@@XPE$AAU?$IAsyncOperation@PE$AAVGattWriteRequest@GenericAttributeProfile@Bluetooth@Devices@Windows@@@Foundation@Windows@@W4AsyncStatus@34@@Details@Platform@@UEAAPEAXI@Z 0000000180050d80 f i _nodert_generated.obj
 0001:0004fd80       ??_E?$__abi_FunctorCapture@V<lambda_59deb91dcb35d7ef053ea0a6eba68806>@@XPE$AAU?$IAsyncOperation@PE$AAVGattWriteRequest@GenericAttributeProfile@Bluetooth@Devices@Windows@@@Foundation@Windows@@W4AsyncStatus@34@@Details@Platform@@UEAAPEAXI@Z 0000000180050d80 f i _nodert_generated.obj
 0001:0004fdd0       ??_G?$__abi_FunctorCapture@V<lambda_5b5d6f33d7c1af9e4714bef40fb1bdd8>@@XPE$AAU?$IAsyncOperation@PE$AAVGattDeviceService@GenericAttributeProfile@Bluetooth@Devices@Windows@@@Foundation@Windows@@W4AsyncStatus@34@@Details@Platform@@UEAAPEAXI@Z 0000000180050dd0 f i _nodert_generated.obj
 0001:0004fdd0       ??_E?$__abi_FunctorCapture@V<lambda_5b5d6f33d7c1af9e4714bef40fb1bdd8>@@XPE$AAU?$IAsyncOperation@PE$AAVGattDeviceService@GenericAttributeProfile@Bluetooth@Devices@Windows@@@Foundation@Windows@@W4AsyncStatus@34@@Details@Platform@@UEAAPEAXI@Z 0000000180050dd0 f i _nodert_generated.obj
 0001:0004fe20       ??_G?$__abi_FunctorCapture@V<lambda_67d43b9443a249c9bdd0ddd65a0a7143>@@XPE$AAVGattSession@GenericAttributeProfile@Bluetooth@Devices@Windows@@PE$AAVObject@Platform@@@Details@Platform@@UEAAPEAXI@Z 0000000180050e20 f i _nodert_generated.obj
 0001:0004fe20       ??_E?$__abi_FunctorCapture@V<lambda_67d43b9443a249c9bdd0ddd65a0a7143>@@XPE$AAVGattSession@GenericAttributeProfile@Bluetooth@Devices@Windows@@PE$AAVObject@Platform@@@Details@Platform@@UEAAPEAXI@Z 0000000180050e20 f i _nodert_generated.obj
 0001:0004fe70       ??_E?$__abi_FunctorCapture@V<lambda_6a95c42219ea05b374040d54ed0dcf40>@@XPE$AAVGattLocalDescriptor@GenericAttributeProfile@Bluetooth@Devices@Windows@@PE$AAVGattReadRequestedEventArgs@3456@@Details@Platform@@UEAAPEAXI@Z 0000000180050e70 f i _nodert_generated.obj
 0001:0004fe70       ??_G?$__abi_FunctorCapture@V<lambda_6a95c42219ea05b374040d54ed0dcf40>@@XPE$AAVGattLocalDescriptor@GenericAttributeProfile@Bluetooth@Devices@Windows@@PE$AAVGattReadRequestedEventArgs@3456@@Details@Platform@@UEAAPEAXI@Z 0000000180050e70 f i _nodert_generated.obj
 0001:0004fec0       ??_E?$__abi_FunctorCapture@V<lambda_74845d04b0ded4417a55353b3d1ccc92>@@XPE$AAU?$IAsyncOperation@PE$AAVGattSession@GenericAttributeProfile@Bluetooth@Devices@Windows@@@Foundation@Windows@@W4AsyncStatus@34@@Details@Platform@@UEAAPEAXI@Z 0000000180050ec0 f i _nodert_generated.obj
 0001:0004fec0       ??_G?$__abi_FunctorCapture@V<lambda_74845d04b0ded4417a55353b3d1ccc92>@@XPE$AAU?$IAsyncOperation@PE$AAVGattSession@GenericAttributeProfile@Bluetooth@Devices@Windows@@@Foundation@Windows@@W4AsyncStatus@34@@Details@Platform@@UEAAPEAXI@Z 0000000180050ec0 f i _nodert_generated.obj
 0001:0004ff10       ??_G?$__abi_FunctorCapture@V<lambda_78435badbdad8286054cccdf55e74883>@@XPE$AAU?$IAsyncOperation@PE$AAVGattDescriptorsResult@GenericAttributeProfile@Bluetooth@Devices@Windows@@@Foundation@Windows@@W4AsyncStatus@34@@Details@Platform@@UEAAPEAXI@Z 0000000180050f10 f i _nodert_generated.obj
 0001:0004ff10       ??_E?$__abi_FunctorCapture@V<lambda_78435badbdad8286054cccdf55e74883>@@XPE$AAU?$IAsyncOperation@PE$AAVGattDescriptorsResult@GenericAttributeProfile@Bluetooth@Devices@Windows@@@Foundation@Windows@@W4AsyncStatus@34@@Details@Platform@@UEAAPEAXI@Z 0000000180050f10 f i _nodert_generated.obj
 0001:0004ff60       ??_G?$__abi_FunctorCapture@V<lambda_7a59f362d5d7e53ea2283eda76e9d412>@@XPE$AAVGattSession@GenericAttributeProfile@Bluetooth@Devices@Windows@@PE$AAVGattSessionStatusChangedEventArgs@3456@@Details@Platform@@UEAAPEAXI@Z 0000000180050f60 f i _nodert_generated.obj
 0001:0004ff60       ??_E?$__abi_FunctorCapture@V<lambda_7a59f362d5d7e53ea2283eda76e9d412>@@XPE$AAVGattSession@GenericAttributeProfile@Bluetooth@Devices@Windows@@PE$AAVGattSessionStatusChangedEventArgs@3456@@Details@Platform@@UEAAPEAXI@Z 0000000180050f60 f i _nodert_generated.obj
 0001:0004ffb0       ??_G?$__abi_FunctorCapture@V<lambda_7f5659bcea5d2531b7562165d7c1ccb3>@@XPE$AAVGattSubscribedClient@GenericAttributeProfile@Bluetooth@Devices@Windows@@PE$AAVObject@Platform@@@Details@Platform@@UEAAPEAXI@Z 0000000180050fb0 f i _nodert_generated.obj
 0001:0004ffb0       ??_E?$__abi_FunctorCapture@V<lambda_7f5659bcea5d2531b7562165d7c1ccb3>@@XPE$AAVGattSubscribedClient@GenericAttributeProfile@Bluetooth@Devices@Windows@@PE$AAVObject@Platform@@@Details@Platform@@UEAAPEAXI@Z 0000000180050fb0 f i _nodert_generated.obj
 0001:00050000       ??_E?$__abi_FunctorCapture@V<lambda_8a184a7b15054694030a78acb2100e45>@@XPE$AAVGattWriteRequest@GenericAttributeProfile@Bluetooth@Devices@Windows@@PE$AAVGattRequestStateChangedEventArgs@3456@@Details@Platform@@UEAAPEAXI@Z 0000000180051000 f i _nodert_generated.obj
 0001:00050000       ??_G?$__abi_FunctorCapture@V<lambda_8a184a7b15054694030a78acb2100e45>@@XPE$AAVGattWriteRequest@GenericAttributeProfile@Bluetooth@Devices@Windows@@PE$AAVGattRequestStateChangedEventArgs@3456@@Details@Platform@@UEAAPEAXI@Z 0000000180051000 f i _nodert_generated.obj
 0001:00050050       ??_G?$__abi_FunctorCapture@V<lambda_98d579945f4c83d34f8a428098012be1>@@XPE$AAVGattServiceProvider@GenericAttributeProfile@Bluetooth@Devices@Windows@@PE$AAVGattServiceProviderAdvertisementStatusChangedEventArgs@3456@@Details@Platform@@UEAAPEAXI@Z 0000000180051050 f i _nodert_generated.obj
 0001:00050050       ??_E?$__abi_FunctorCapture@V<lambda_98d579945f4c83d34f8a428098012be1>@@XPE$AAVGattServiceProvider@GenericAttributeProfile@Bluetooth@Devices@Windows@@PE$AAVGattServiceProviderAdvertisementStatusChangedEventArgs@3456@@Details@Platform@@UEAAPEAXI@Z 0000000180051050 f i _nodert_generated.obj
 0001:000500a0       ??_G?$__abi_FunctorCapture@V<lambda_a0302cf3a5e5ab57348d3ae6e320902d>@@XPE$AAU?$IAsyncOperation@PE$AAVGattReadClientCharacteristicConfigurationDescriptorResult@GenericAttributeProfile@Bluetooth@Devices@Windows@@@Foundation@Windows@@W4AsyncStatus@34@@Details@Platform@@UEAAPEAXI@Z 00000001800510a0 f i _nodert_generated.obj
 0001:000500a0       ??_E?$__abi_FunctorCapture@V<lambda_a0302cf3a5e5ab57348d3ae6e320902d>@@XPE$AAU?$IAsyncOperation@PE$AAVGattReadClientCharacteristicConfigurationDescriptorResult@GenericAttributeProfile@Bluetooth@Devices@Windows@@@Foundation@Windows@@W4AsyncStatus@34@@Details@Platform@@UEAAPEAXI@Z 00000001800510a0 f i _nodert_generated.obj
 0001:000500f0       ??_G?$__abi_FunctorCapture@V<lambda_a72d7d755ea2b68030b9db336f3a6993>@@XPE$AAVGattLocalCharacteristic@GenericAttributeProfile@Bluetooth@Devices@Windows@@PE$AAVGattWriteRequestedEventArgs@3456@@Details@Platform@@UEAAPEAXI@Z 00000001800510f0 f i _nodert_generated.obj
 0001:000500f0       ??_E?$__abi_FunctorCapture@V<lambda_a72d7d755ea2b68030b9db336f3a6993>@@XPE$AAVGattLocalCharacteristic@GenericAttributeProfile@Bluetooth@Devices@Windows@@PE$AAVGattWriteRequestedEventArgs@3456@@Details@Platform@@UEAAPEAXI@Z 00000001800510f0 f i _nodert_generated.obj
 0001:00050140       ??_E?$__abi_FunctorCapture@V<lambda_a8834aaf222d29bff47139cb548fc10f>@@XPE$AAVGattLocalCharacteristic@GenericAttributeProfile@Bluetooth@Devices@Windows@@PE$AAVObject@Platform@@@Details@Platform@@UEAAPEAXI@Z 0000000180051140 f i _nodert_generated.obj
 0001:00050140       ??_G?$__abi_FunctorCapture@V<lambda_a8834aaf222d29bff47139cb548fc10f>@@XPE$AAVGattLocalCharacteristic@GenericAttributeProfile@Bluetooth@Devices@Windows@@PE$AAVObject@Platform@@@Details@Platform@@UEAAPEAXI@Z 0000000180051140 f i _nodert_generated.obj
 0001:00050190       ??_G?$__abi_FunctorCapture@V<lambda_abc89208398fe61ed8a5e99711cb35c7>@@XPE$AAU?$IAsyncOperation@PE$AAVGattCharacteristicsResult@GenericAttributeProfile@Bluetooth@Devices@Windows@@@Foundation@Windows@@W4AsyncStatus@34@@Details@Platform@@UEAAPEAXI@Z 0000000180051190 f i _nodert_generated.obj
 0001:00050190       ??_E?$__abi_FunctorCapture@V<lambda_abc89208398fe61ed8a5e99711cb35c7>@@XPE$AAU?$IAsyncOperation@PE$AAVGattCharacteristicsResult@GenericAttributeProfile@Bluetooth@Devices@Windows@@@Foundation@Windows@@W4AsyncStatus@34@@Details@Platform@@UEAAPEAXI@Z 0000000180051190 f i _nodert_generated.obj
 0001:000501e0       ??_G?$__abi_FunctorCapture@V<lambda_bfddb030084298f4346709237491b2f5>@@XPE$AAU?$IAsyncOperation@PE$AAVGattWriteResult@GenericAttributeProfile@Bluetooth@Devices@Windows@@@Foundation@Windows@@W4AsyncStatus@34@@Details@Platform@@UEAAPEAXI@Z 00000001800511e0 f i _nodert_generated.obj
 0001:000501e0       ??_E?$__abi_FunctorCapture@V<lambda_bfddb030084298f4346709237491b2f5>@@XPE$AAU?$IAsyncOperation@PE$AAVGattWriteResult@GenericAttributeProfile@Bluetooth@Devices@Windows@@@Foundation@Windows@@W4AsyncStatus@34@@Details@Platform@@UEAAPEAXI@Z 00000001800511e0 f i _nodert_generated.obj
 0001:00050230       ??_E?$__abi_FunctorCapture@V<lambda_cd1e0c671fdfa373cd4c83898506f7ac>@@XPE$AAU?$IAsyncOperation@PE$AAVGattDeviceServicesResult@GenericAttributeProfile@Bluetooth@Devices@Windows@@@Foundation@Windows@@W4AsyncStatus@34@@Details@Platform@@UEAAPEAXI@Z 0000000180051230 f i _nodert_generated.obj
 0001:00050230       ??_G?$__abi_FunctorCapture@V<lambda_cd1e0c671fdfa373cd4c83898506f7ac>@@XPE$AAU?$IAsyncOperation@PE$AAVGattDeviceServicesResult@GenericAttributeProfile@Bluetooth@Devices@Windows@@@Foundation@Windows@@W4AsyncStatus@34@@Details@Platform@@UEAAPEAXI@Z 0000000180051230 f i _nodert_generated.obj
 0001:00050280       ??_E?$__abi_FunctorCapture@V<lambda_d198f58cb38642f4ce4504b7023daa7d>@@XPE$AAU?$IAsyncOperation@W4GattCommunicationStatus@GenericAttributeProfile@Bluetooth@Devices@Windows@@@Foundation@Windows@@W4AsyncStatus@34@@Details@Platform@@UEAAPEAXI@Z 0000000180051280 f i _nodert_generated.obj
 0001:00050280       ??_G?$__abi_FunctorCapture@V<lambda_d198f58cb38642f4ce4504b7023daa7d>@@XPE$AAU?$IAsyncOperation@W4GattCommunicationStatus@GenericAttributeProfile@Bluetooth@Devices@Windows@@@Foundation@Windows@@W4AsyncStatus@34@@Details@Platform@@UEAAPEAXI@Z 0000000180051280 f i _nodert_generated.obj
 0001:000502d0       ??_E?$__abi_FunctorCapture@V<lambda_d364069c78f44ced2d04e6f16c14fb6e>@@XPE$AAU?$IAsyncOperation@PE$AAU?$IVectorView@PE$AAVGattClientNotificationResult@GenericAttributeProfile@Bluetooth@Devices@Windows@@@Collections@Foundation@Windows@@@Foundation@Windows@@W4AsyncStatus@34@@Details@Platform@@UEAAPEAXI@Z 00000001800512d0 f i _nodert_generated.obj
 0001:000502d0       ??_G?$__abi_FunctorCapture@V<lambda_d364069c78f44ced2d04e6f16c14fb6e>@@XPE$AAU?$IAsyncOperation@PE$AAU?$IVectorView@PE$AAVGattClientNotificationResult@GenericAttributeProfile@Bluetooth@Devices@Windows@@@Collections@Foundation@Windows@@@Foundation@Windows@@W4AsyncStatus@34@@Details@Platform@@UEAAPEAXI@Z 00000001800512d0 f i _nodert_generated.obj
 0001:00050320       ??_G?$__abi_FunctorCapture@V<lambda_f2c183ffcc3e535ab19cd5a930224e71>@@XPE$AAVGattLocalCharacteristic@GenericAttributeProfile@Bluetooth@Devices@Windows@@PE$AAVGattReadRequestedEventArgs@3456@@Details@Platform@@UEAAPEAXI@Z 0000000180051320 f i _nodert_generated.obj
 0001:00050320       ??_E?$__abi_FunctorCapture@V<lambda_f2c183ffcc3e535ab19cd5a930224e71>@@XPE$AAVGattLocalCharacteristic@GenericAttributeProfile@Bluetooth@Devices@Windows@@PE$AAVGattReadRequestedEventArgs@3456@@Details@Platform@@UEAAPEAXI@Z 0000000180051320 f i _nodert_generated.obj
 0001:00050370       ??_E?$__abi_FunctorCapture@V<lambda_fd38ceb54481fc5685093e4ce388a0db>@@XPE$AAU?$IAsyncOperation@PE$AAVGattLocalDescriptorResult@GenericAttributeProfile@Bluetooth@Devices@Windows@@@Foundation@Windows@@W4AsyncStatus@34@@Details@Platform@@UEAAPEAXI@Z 0000000180051370 f i _nodert_generated.obj
 0001:00050370       ??_G?$__abi_FunctorCapture@V<lambda_fd38ceb54481fc5685093e4ce388a0db>@@XPE$AAU?$IAsyncOperation@PE$AAVGattLocalDescriptorResult@GenericAttributeProfile@Bluetooth@Devices@Windows@@@Foundation@Windows@@W4AsyncStatus@34@@Details@Platform@@UEAAPEAXI@Z 0000000180051370 f i _nodert_generated.obj
 0001:000503c0       ??_G?$__abi_FunctorCapture@V<lambda_ff76360401e4d6f85634a86ab84aed97>@@XPE$AAVGattLocalDescriptor@GenericAttributeProfile@Bluetooth@Devices@Windows@@PE$AAVGattWriteRequestedEventArgs@3456@@Details@Platform@@UEAAPEAXI@Z 00000001800513c0 f i _nodert_generated.obj
 0001:000503c0       ??_E?$__abi_FunctorCapture@V<lambda_ff76360401e4d6f85634a86ab84aed97>@@XPE$AAVGattLocalDescriptor@GenericAttributeProfile@Bluetooth@Devices@Windows@@PE$AAVGattWriteRequestedEventArgs@3456@@Details@Platform@@UEAAPEAXI@Z 00000001800513c0 f i _nodert_generated.obj
 0001:00050410       ??_GGattCharacteristic@GenericAttributeProfile@Bluetooth@Devices@Windows@NodeRT@@UEAAPEAXI@Z 0000000180051410 f i _nodert_generated.obj
 0001:00050410       ??_EGattCharacteristic@GenericAttributeProfile@Bluetooth@Devices@Windows@NodeRT@@UEAAPEAXI@Z 0000000180051410 f i _nodert_generated.obj
 0001:00050480       ??_EGattCharacteristicUuids@GenericAttributeProfile@Bluetooth@Devices@Windows@NodeRT@@UEAAPEAXI@Z 0000000180051480 f i _nodert_generated.obj
 0001:00050480       ??_GGattCharacteristicUuids@GenericAttributeProfile@Bluetooth@Devices@Windows@NodeRT@@UEAAPEAXI@Z 0000000180051480 f i _nodert_generated.obj
 0001:000504f0       ??_GGattCharacteristicsResult@GenericAttributeProfile@Bluetooth@Devices@Windows@NodeRT@@UEAAPEAXI@Z 00000001800514f0 f i _nodert_generated.obj
 0001:000504f0       ??_EGattCharacteristicsResult@GenericAttributeProfile@Bluetooth@Devices@Windows@NodeRT@@UEAAPEAXI@Z 00000001800514f0 f i _nodert_generated.obj
 0001:00050560       ??_GGattClientNotificationResult@GenericAttributeProfile@Bluetooth@Devices@Windows@NodeRT@@UEAAPEAXI@Z 0000000180051560 f i _nodert_generated.obj
 0001:00050560       ??_EGattClientNotificationResult@GenericAttributeProfile@Bluetooth@Devices@Windows@NodeRT@@UEAAPEAXI@Z 0000000180051560 f i _nodert_generated.obj
 0001:000505d0       ??_EGattDescriptor@GenericAttributeProfile@Bluetooth@Devices@Windows@NodeRT@@UEAAPEAXI@Z 00000001800515d0 f i _nodert_generated.obj
 0001:000505d0       ??_GGattDescriptor@GenericAttributeProfile@Bluetooth@Devices@Windows@NodeRT@@UEAAPEAXI@Z 00000001800515d0 f i _nodert_generated.obj
 0001:00050640       ??_EGattDescriptorUuids@GenericAttributeProfile@Bluetooth@Devices@Windows@NodeRT@@UEAAPEAXI@Z 0000000180051640 f i _nodert_generated.obj
 0001:00050640       ??_GGattDescriptorUuids@GenericAttributeProfile@Bluetooth@Devices@Windows@NodeRT@@UEAAPEAXI@Z 0000000180051640 f i _nodert_generated.obj
 0001:000506b0       ??_EGattDescriptorsResult@GenericAttributeProfile@Bluetooth@Devices@Windows@NodeRT@@UEAAPEAXI@Z 00000001800516b0 f i _nodert_generated.obj
 0001:000506b0       ??_GGattDescriptorsResult@GenericAttributeProfile@Bluetooth@Devices@Windows@NodeRT@@UEAAPEAXI@Z 00000001800516b0 f i _nodert_generated.obj
 0001:00050720       ??_EGattDeviceService@GenericAttributeProfile@Bluetooth@Devices@Windows@NodeRT@@UEAAPEAXI@Z 0000000180051720 f i _nodert_generated.obj
 0001:00050720       ??_GGattDeviceService@GenericAttributeProfile@Bluetooth@Devices@Windows@NodeRT@@UEAAPEAXI@Z 0000000180051720 f i _nodert_generated.obj
 0001:00050790       ??_EGattDeviceServicesResult@GenericAttributeProfile@Bluetooth@Devices@Windows@NodeRT@@UEAAPEAXI@Z 0000000180051790 f i _nodert_generated.obj
 0001:00050790       ??_GGattDeviceServicesResult@GenericAttributeProfile@Bluetooth@Devices@Windows@NodeRT@@UEAAPEAXI@Z 0000000180051790 f i _nodert_generated.obj
 0001:00050800       ??_GGattLocalCharacteristic@GenericAttributeProfile@Bluetooth@Devices@Windows@NodeRT@@UEAAPEAXI@Z 0000000180051800 f i _nodert_generated.obj
 0001:00050800       ??_EGattLocalCharacteristic@GenericAttributeProfile@Bluetooth@Devices@Windows@NodeRT@@UEAAPEAXI@Z 0000000180051800 f i _nodert_generated.obj
 0001:00050870       ??_GGattLocalCharacteristicParameters@GenericAttributeProfile@Bluetooth@Devices@Windows@NodeRT@@UEAAPEAXI@Z 0000000180051870 f i _nodert_generated.obj
 0001:00050870       ??_EGattLocalCharacteristicParameters@GenericAttributeProfile@Bluetooth@Devices@Windows@NodeRT@@UEAAPEAXI@Z 0000000180051870 f i _nodert_generated.obj
 0001:000508e0       ??_GGattLocalCharacteristicResult@GenericAttributeProfile@Bluetooth@Devices@Windows@NodeRT@@UEAAPEAXI@Z 00000001800518e0 f i _nodert_generated.obj
 0001:000508e0       ??_EGattLocalCharacteristicResult@GenericAttributeProfile@Bluetooth@Devices@Windows@NodeRT@@UEAAPEAXI@Z 00000001800518e0 f i _nodert_generated.obj
 0001:00050950       ??_EGattLocalDescriptor@GenericAttributeProfile@Bluetooth@Devices@Windows@NodeRT@@UEAAPEAXI@Z 0000000180051950 f i _nodert_generated.obj
 0001:00050950       ??_GGattLocalDescriptor@GenericAttributeProfile@Bluetooth@Devices@Windows@NodeRT@@UEAAPEAXI@Z 0000000180051950 f i _nodert_generated.obj
 0001:000509c0       ??_GGattLocalDescriptorParameters@GenericAttributeProfile@Bluetooth@Devices@Windows@NodeRT@@UEAAPEAXI@Z 00000001800519c0 f i _nodert_generated.obj
 0001:000509c0       ??_EGattLocalDescriptorParameters@GenericAttributeProfile@Bluetooth@Devices@Windows@NodeRT@@UEAAPEAXI@Z 00000001800519c0 f i _nodert_generated.obj
 0001:00050a30       ??_EGattLocalDescriptorResult@GenericAttributeProfile@Bluetooth@Devices@Windows@NodeRT@@UEAAPEAXI@Z 0000000180051a30 f i _nodert_generated.obj
 0001:00050a30       ??_GGattLocalDescriptorResult@GenericAttributeProfile@Bluetooth@Devices@Windows@NodeRT@@UEAAPEAXI@Z 0000000180051a30 f i _nodert_generated.obj
 0001:00050aa0       ??_EGattLocalService@GenericAttributeProfile@Bluetooth@Devices@Windows@NodeRT@@UEAAPEAXI@Z 0000000180051aa0 f i _nodert_generated.obj
 0001:00050aa0       ??_GGattLocalService@GenericAttributeProfile@Bluetooth@Devices@Windows@NodeRT@@UEAAPEAXI@Z 0000000180051aa0 f i _nodert_generated.obj
 0001:00050b10       ??_GGattPresentationFormat@GenericAttributeProfile@Bluetooth@Devices@Windows@NodeRT@@UEAAPEAXI@Z 0000000180051b10 f i _nodert_generated.obj
 0001:00050b10       ??_EGattPresentationFormat@GenericAttributeProfile@Bluetooth@Devices@Windows@NodeRT@@UEAAPEAXI@Z 0000000180051b10 f i _nodert_generated.obj
 0001:00050b80       ??_EGattPresentationFormatTypes@GenericAttributeProfile@Bluetooth@Devices@Windows@NodeRT@@UEAAPEAXI@Z 0000000180051b80 f i _nodert_generated.obj
 0001:00050b80       ??_GGattPresentationFormatTypes@GenericAttributeProfile@Bluetooth@Devices@Windows@NodeRT@@UEAAPEAXI@Z 0000000180051b80 f i _nodert_generated.obj
 0001:00050bf0       ??_EGattProtocolError@GenericAttributeProfile@Bluetooth@Devices@Windows@NodeRT@@UEAAPEAXI@Z 0000000180051bf0 f i _nodert_generated.obj
 0001:00050bf0       ??_GGattProtocolError@GenericAttributeProfile@Bluetooth@Devices@Windows@NodeRT@@UEAAPEAXI@Z 0000000180051bf0 f i _nodert_generated.obj
 0001:00050c60       ??_EGattReadClientCharacteristicConfigurationDescriptorResult@GenericAttributeProfile@Bluetooth@Devices@Windows@NodeRT@@UEAAPEAXI@Z 0000000180051c60 f i _nodert_generated.obj
 0001:00050c60       ??_GGattReadClientCharacteristicConfigurationDescriptorResult@GenericAttributeProfile@Bluetooth@Devices@Windows@NodeRT@@UEAAPEAXI@Z 0000000180051c60 f i _nodert_generated.obj
 0001:00050cd0       ??_EGattReadRequest@GenericAttributeProfile@Bluetooth@Devices@Windows@NodeRT@@UEAAPEAXI@Z 0000000180051cd0 f i _nodert_generated.obj
 0001:00050cd0       ??_GGattReadRequest@GenericAttributeProfile@Bluetooth@Devices@Windows@NodeRT@@UEAAPEAXI@Z 0000000180051cd0 f i _nodert_generated.obj
 0001:00050d40       ??_GGattReadRequestedEventArgs@GenericAttributeProfile@Bluetooth@Devices@Windows@NodeRT@@UEAAPEAXI@Z 0000000180051d40 f i _nodert_generated.obj
 0001:00050d40       ??_EGattReadRequestedEventArgs@GenericAttributeProfile@Bluetooth@Devices@Windows@NodeRT@@UEAAPEAXI@Z 0000000180051d40 f i _nodert_generated.obj
 0001:00050db0       ??_EGattReadResult@GenericAttributeProfile@Bluetooth@Devices@Windows@NodeRT@@UEAAPEAXI@Z 0000000180051db0 f i _nodert_generated.obj
 0001:00050db0       ??_GGattReadResult@GenericAttributeProfile@Bluetooth@Devices@Windows@NodeRT@@UEAAPEAXI@Z 0000000180051db0 f i _nodert_generated.obj
 0001:00050e20       ??_GGattReliableWriteTransaction@GenericAttributeProfile@Bluetooth@Devices@Windows@NodeRT@@UEAAPEAXI@Z 0000000180051e20 f i _nodert_generated.obj
 0001:00050e20       ??_EGattReliableWriteTransaction@GenericAttributeProfile@Bluetooth@Devices@Windows@NodeRT@@UEAAPEAXI@Z 0000000180051e20 f i _nodert_generated.obj
 0001:00050e90       ??_GGattRequestStateChangedEventArgs@GenericAttributeProfile@Bluetooth@Devices@Windows@NodeRT@@UEAAPEAXI@Z 0000000180051e90 f i _nodert_generated.obj
 0001:00050e90       ??_EGattRequestStateChangedEventArgs@GenericAttributeProfile@Bluetooth@Devices@Windows@NodeRT@@UEAAPEAXI@Z 0000000180051e90 f i _nodert_generated.obj
 0001:00050f00       ??_GGattServiceProvider@GenericAttributeProfile@Bluetooth@Devices@Windows@NodeRT@@UEAAPEAXI@Z 0000000180051f00 f i _nodert_generated.obj
 0001:00050f00       ??_EGattServiceProvider@GenericAttributeProfile@Bluetooth@Devices@Windows@NodeRT@@UEAAPEAXI@Z 0000000180051f00 f i _nodert_generated.obj
 0001:00050f70       ??_EGattServiceProviderAdvertisementStatusChangedEventArgs@GenericAttributeProfile@Bluetooth@Devices@Windows@NodeRT@@UEAAPEAXI@Z 0000000180051f70 f i _nodert_generated.obj
 0001:00050f70       ??_GGattServiceProviderAdvertisementStatusChangedEventArgs@GenericAttributeProfile@Bluetooth@Devices@Windows@NodeRT@@UEAAPEAXI@Z 0000000180051f70 f i _nodert_generated.obj
 0001:00050fe0       ??_GGattServiceProviderAdvertisingParameters@GenericAttributeProfile@Bluetooth@Devices@Windows@NodeRT@@UEAAPEAXI@Z 0000000180051fe0 f i _nodert_generated.obj
 0001:00050fe0       ??_EGattServiceProviderAdvertisingParameters@GenericAttributeProfile@Bluetooth@Devices@Windows@NodeRT@@UEAAPEAXI@Z 0000000180051fe0 f i _nodert_generated.obj
 0001:00051050       ??_GGattServiceProviderResult@GenericAttributeProfile@Bluetooth@Devices@Windows@NodeRT@@UEAAPEAXI@Z 0000000180052050 f i _nodert_generated.obj
 0001:00051050       ??_EGattServiceProviderResult@GenericAttributeProfile@Bluetooth@Devices@Windows@NodeRT@@UEAAPEAXI@Z 0000000180052050 f i _nodert_generated.obj
 0001:000510c0       ??_GGattServiceUuids@GenericAttributeProfile@Bluetooth@Devices@Windows@NodeRT@@UEAAPEAXI@Z 00000001800520c0 f i _nodert_generated.obj
 0001:000510c0       ??_EGattServiceUuids@GenericAttributeProfile@Bluetooth@Devices@Windows@NodeRT@@UEAAPEAXI@Z 00000001800520c0 f i _nodert_generated.obj
 0001:00051130       ??_EGattSession@GenericAttributeProfile@Bluetooth@Devices@Windows@NodeRT@@UEAAPEAXI@Z 0000000180052130 f i _nodert_generated.obj
 0001:00051130       ??_GGattSession@GenericAttributeProfile@Bluetooth@Devices@Windows@NodeRT@@UEAAPEAXI@Z 0000000180052130 f i _nodert_generated.obj
 0001:000511a0       ??_EGattSessionStatusChangedEventArgs@GenericAttributeProfile@Bluetooth@Devices@Windows@NodeRT@@UEAAPEAXI@Z 00000001800521a0 f i _nodert_generated.obj
 0001:000511a0       ??_GGattSessionStatusChangedEventArgs@GenericAttributeProfile@Bluetooth@Devices@Windows@NodeRT@@UEAAPEAXI@Z 00000001800521a0 f i _nodert_generated.obj
 0001:00051210       ??_GGattSubscribedClient@GenericAttributeProfile@Bluetooth@Devices@Windows@NodeRT@@UEAAPEAXI@Z 0000000180052210 f i _nodert_generated.obj
 0001:00051210       ??_EGattSubscribedClient@GenericAttributeProfile@Bluetooth@Devices@Windows@NodeRT@@UEAAPEAXI@Z 0000000180052210 f i _nodert_generated.obj
 0001:00051280       ??_GGattValueChangedEventArgs@GenericAttributeProfile@Bluetooth@Devices@Windows@NodeRT@@UEAAPEAXI@Z 0000000180052280 f i _nodert_generated.obj
 0001:00051280       ??_EGattValueChangedEventArgs@GenericAttributeProfile@Bluetooth@Devices@Windows@NodeRT@@UEAAPEAXI@Z 0000000180052280 f i _nodert_generated.obj
 0001:000512f0       ??_EGattWriteRequest@GenericAttributeProfile@Bluetooth@Devices@Windows@NodeRT@@UEAAPEAXI@Z 00000001800522f0 f i _nodert_generated.obj
 0001:000512f0       ??_GGattWriteRequest@GenericAttributeProfile@Bluetooth@Devices@Windows@NodeRT@@UEAAPEAXI@Z 00000001800522f0 f i _nodert_generated.obj
 0001:00051360       ??_EGattWriteRequestedEventArgs@GenericAttributeProfile@Bluetooth@Devices@Windows@NodeRT@@UEAAPEAXI@Z 0000000180052360 f i _nodert_generated.obj
 0001:00051360       ??_GGattWriteRequestedEventArgs@GenericAttributeProfile@Bluetooth@Devices@Windows@NodeRT@@UEAAPEAXI@Z 0000000180052360 f i _nodert_generated.obj
 0001:000513d0       ??_GGattWriteResult@GenericAttributeProfile@Bluetooth@Devices@Windows@NodeRT@@UEAAPEAXI@Z 00000001800523d0 f i _nodert_generated.obj
 0001:000513d0       ??_EGattWriteResult@GenericAttributeProfile@Bluetooth@Devices@Windows@NodeRT@@UEAAPEAXI@Z 00000001800523d0 f i _nodert_generated.obj
 0001:00051440       ??_EObjectWrap@Nan@@UEAAPEAXI@Z 0000000180052440 f i _nodert_generated.obj
 0001:00051440       ??_GObjectWrap@Nan@@UEAAPEAXI@Z 0000000180052440 f i _nodert_generated.obj
 0001:00051490       ??_GTokenData@Async@NodeUtils@@UEAAPEAXI@Z 0000000180052490 f i _nodert_generated.obj
 0001:00051490       ??_ETokenData@Async@NodeUtils@@UEAAPEAXI@Z 0000000180052490 f i _nodert_generated.obj
 0001:00051540       ??_EWrapperBase@NodeRT@@UEAAPEAXI@Z 0000000180052540 f i _nodert_generated.obj
 0001:00051540       ??_GWrapperBase@NodeRT@@UEAAPEAXI@Z 0000000180052540 f i _nodert_generated.obj
 0001:00051590       ??_E_CancellationTokenRegistration@details@Concurrency@@MEAAPEAXI@Z 0000000180052590 f i _nodert_generated.obj
 0001:00051590       ??_G_CancellationTokenRegistration@details@Concurrency@@MEAAPEAXI@Z 0000000180052590 f i _nodert_generated.obj
 0001:00051600       ??_E_ContinuationTaskHandleBase@details@Concurrency@@UEAAPEAXI@Z 0000000180052600 f i _nodert_generated.obj
 0001:00051600       ??_G_ContinuationTaskHandleBase@details@Concurrency@@UEAAPEAXI@Z 0000000180052600 f i _nodert_generated.obj
 0001:00051670       ??_G_RefCounter@details@Concurrency@@UEAAPEAXI@Z 0000000180052670 f i _nodert_generated.obj
 0001:00051670       ??_E_RefCounter@details@Concurrency@@UEAAPEAXI@Z 0000000180052670 f i _nodert_generated.obj
 0001:000516b0       ??_E_Ref_count_base@std@@UEAAPEAXI@Z 00000001800526b0 f i _nodert_generated.obj
 0001:000516b0       ??_G_Ref_count_base@std@@UEAAPEAXI@Z 00000001800526b0 f i _nodert_generated.obj
 0001:000516f0       ??_G_TaskProcHandle@details@Concurrency@@UEAAPEAXI@Z 00000001800526f0 f i _nodert_generated.obj
 0001:000516f0       ??_E_TaskProcHandle@details@Concurrency@@UEAAPEAXI@Z 00000001800526f0 f i _nodert_generated.obj
 0001:00051730       ??_E_Task_impl_base@details@Concurrency@@UEAAPEAXI@Z 0000000180052730 f i _nodert_generated.obj
 0001:00051730       ??_G_Task_impl_base@details@Concurrency@@UEAAPEAXI@Z 0000000180052730 f i _nodert_generated.obj
 0001:00051780       ??_E__abi_CaptureBase@Details@Platform@@MEAAPEAXI@Z 0000000180052780 f i _nodert_generated.obj
 0001:00051780       ??_G__abi_CaptureBase@Details@Platform@@MEAAPEAXI@Z 0000000180052780 f i _nodert_generated.obj
 0001:000517c0       ??_Ebad_weak_ptr@std@@UEAAPEAXI@Z 00000001800527c0 f i _nodert_generated.obj
 0001:000517c0       ??_Gbad_weak_ptr@std@@UEAAPEAXI@Z 00000001800527c0 f i _nodert_generated.obj
 0001:00051800       ??_Gexception@stdext@@UEAAPEAXI@Z 0000000180052800 f i _nodert_generated.obj
 0001:00051800       ??_Eexception@stdext@@UEAAPEAXI@Z 0000000180052800 f i _nodert_generated.obj
 0001:00051840       ??_Einvalid_operation@Concurrency@@UEAAPEAXI@Z 0000000180052840 f i _nodert_generated.obj
 0001:00051840       ??_Ginvalid_operation@Concurrency@@UEAAPEAXI@Z 0000000180052840 f i _nodert_generated.obj
 0001:00051880       ??_Gruntime_error@std@@UEAAPEAXI@Z 0000000180052880 f i _nodert_generated.obj
 0001:00051880       ??_Eruntime_error@std@@UEAAPEAXI@Z 0000000180052880 f i _nodert_generated.obj
 0001:000518c0       ??_Etask_canceled@Concurrency@@UEAAPEAXI@Z 00000001800528c0 f i _nodert_generated.obj
 0001:000518c0       ??_Gtask_canceled@Concurrency@@UEAAPEAXI@Z 00000001800528c0 f i _nodert_generated.obj
 0001:00051900       ??_H@YAXPEAX_K1P6APEAX0@Z@Z 0000000180052900 f i _nodert_generated.obj
 0001:00051960       ?ActivateInstance@IActivationFactory@Details@Platform@@UE$AAAPE$AAVObject@3@XZ 0000000180052960 f i _nodert_generated.obj
 0001:000519e0       ?AddListener@GattCharacteristic@GenericAttributeProfile@Bluetooth@Devices@Windows@NodeRT@@CAXAEBV?$FunctionCallbackInfo@VValue@v8@@@Nan@@@Z 00000001800529e0 f i _nodert_generated.obj
 0001:00052070       ?AddListener@GattLocalCharacteristic@GenericAttributeProfile@Bluetooth@Devices@Windows@NodeRT@@CAXAEBV?$FunctionCallbackInfo@VValue@v8@@@Nan@@@Z 0000000180053070 f i _nodert_generated.obj
 0001:00052c10       ?AddListener@GattLocalDescriptor@GenericAttributeProfile@Bluetooth@Devices@Windows@NodeRT@@CAXAEBV?$FunctionCallbackInfo@VValue@v8@@@Nan@@@Z 0000000180053c10 f i _nodert_generated.obj
 0001:000534f0       ?AddListener@GattReadRequest@GenericAttributeProfile@Bluetooth@Devices@Windows@NodeRT@@CAXAEBV?$FunctionCallbackInfo@VValue@v8@@@Nan@@@Z 00000001800544f0 f i _nodert_generated.obj
 0001:00053b80       ?AddListener@GattServiceProvider@GenericAttributeProfile@Bluetooth@Devices@Windows@NodeRT@@CAXAEBV?$FunctionCallbackInfo@VValue@v8@@@Nan@@@Z 0000000180054b80 f i _nodert_generated.obj
 0001:00054210       ?AddListener@GattSession@GenericAttributeProfile@Bluetooth@Devices@Windows@NodeRT@@CAXAEBV?$FunctionCallbackInfo@VValue@v8@@@Nan@@@Z 0000000180055210 f i _nodert_generated.obj
 0001:00054af0       ?AddListener@GattSubscribedClient@GenericAttributeProfile@Bluetooth@Devices@Windows@NodeRT@@CAXAEBV?$FunctionCallbackInfo@VValue@v8@@@Nan@@@Z 0000000180055af0 f i _nodert_generated.obj
 0001:00055180       ?AddListener@GattWriteRequest@GenericAttributeProfile@Bluetooth@Devices@Windows@NodeRT@@CAXAEBV?$FunctionCallbackInfo@VValue@v8@@@Nan@@@Z 0000000180056180 f i _nodert_generated.obj
 0001:00055810       ?AdvertisementStatusGetter@GattServiceProvider@GenericAttributeProfile@Bluetooth@Devices@Windows@NodeRT@@CAXV?$Local@VString@v8@@@v8@@AEBV?$PropertyCallbackInfo@VValue@v8@@@Nan@@@Z 0000000180056810 f i _nodert_generated.obj
 0001:00055930       ?AlertCategoryIdBitMaskGetter@GattCharacteristicUuids@GenericAttributeProfile@Bluetooth@Devices@Windows@NodeRT@@CAXV?$Local@VString@v8@@@v8@@AEBV?$PropertyCallbackInfo@VValue@v8@@@Nan@@@Z 0000000180056930 f i _nodert_generated.obj
 0001:000559e0       ?AlertCategoryIdGetter@GattCharacteristicUuids@GenericAttributeProfile@Bluetooth@Devices@Windows@NodeRT@@CAXV?$Local@VString@v8@@@v8@@AEBV?$PropertyCallbackInfo@VValue@v8@@@Nan@@@Z 00000001800569e0 f i _nodert_generated.obj
 0001:00055a90       ?AlertLevelGetter@GattCharacteristicUuids@GenericAttributeProfile@Bluetooth@Devices@Windows@NodeRT@@CAXV?$Local@VString@v8@@@v8@@AEBV?$PropertyCallbackInfo@VValue@v8@@@Nan@@@Z 0000000180056a90 f i _nodert_generated.obj
 0001:00055b40       ?AlertNotificationControlPointGetter@GattCharacteristicUuids@GenericAttributeProfile@Bluetooth@Devices@Windows@NodeRT@@CAXV?$Local@VString@v8@@@v8@@AEBV?$PropertyCallbackInfo@VValue@v8@@@Nan@@@Z 0000000180056b40 f i _nodert_generated.obj
 0001:00055bf0       ?AlertNotificationGetter@GattServiceUuids@GenericAttributeProfile@Bluetooth@Devices@Windows@NodeRT@@CAXV?$Local@VString@v8@@@v8@@AEBV?$PropertyCallbackInfo@VValue@v8@@@Nan@@@Z 0000000180056bf0 f i _nodert_generated.obj
 0001:00055ca0       ?AlertStatusGetter@GattCharacteristicUuids@GenericAttributeProfile@Bluetooth@Devices@Windows@NodeRT@@CAXV?$Local@VString@v8@@@v8@@AEBV?$PropertyCallbackInfo@VValue@v8@@@Nan@@@Z 0000000180056ca0 f i _nodert_generated.obj
 0001:00055d50       ?AllocateAndCopyElements@?$WriteOnlyArray@PE$AAVGattPresentationFormat@GenericAttributeProfile@Bluetooth@Devices@Windows@@$00@Platform@@KAPEAPE$AAVGattPresentationFormat@GenericAttributeProfile@Bluetooth@Devices@Windows@@PEBQE$AAV34567@I@Z 0000000180056d50 f i _nodert_generated.obj
 0001:00055e40       ?Append@?$IVector@PE$AAVGattPresentationFormat@GenericAttributeProfile@Bluetooth@Devices@Windows@@@Collections@Foundation@Windows@@UE$AAAXPE$AAVGattPresentationFormat@GenericAttributeProfile@Bluetooth@Devices@4@@Z 0000000180056e40 f i _nodert_generated.obj
 0001:00055e70       ?Append@?$VectorWrapper@PE$AAVGattPresentationFormat@GenericAttributeProfile@Bluetooth@Devices@Windows@@@Collections@NodeRT@@CAXAEBV?$FunctionCallbackInfo@VValue@v8@@@Nan@@@Z 0000000180056e70 f i _nodert_generated.obj
 0001:00056090       ?AsyncCb@Async@NodeUtils@@CAXPEAUuv_async_s@@@Z 0000000180057090 f i _nodert_generated.obj
 0001:00056100       ?AttributeHandleGetter@GattCharacteristic@GenericAttributeProfile@Bluetooth@Devices@Windows@NodeRT@@CAXV?$Local@VString@v8@@@v8@@AEBV?$PropertyCallbackInfo@VValue@v8@@@Nan@@@Z 0000000180057100 f i _nodert_generated.obj
 0001:00056220       ?AttributeHandleGetter@GattDescriptor@GenericAttributeProfile@Bluetooth@Devices@Windows@NodeRT@@CAXV?$Local@VString@v8@@@v8@@AEBV?$PropertyCallbackInfo@VValue@v8@@@Nan@@@Z 0000000180057220 f i _nodert_generated.obj
 0001:00056340       ?AttributeHandleGetter@GattDeviceService@GenericAttributeProfile@Bluetooth@Devices@Windows@NodeRT@@CAXV?$Local@VString@v8@@@v8@@AEBV?$PropertyCallbackInfo@VValue@v8@@@Nan@@@Z 0000000180057340 f i _nodert_generated.obj
 0001:00056460       ?AttributeNotFoundGetter@GattProtocolError@GenericAttributeProfile@Bluetooth@Devices@Windows@NodeRT@@CAXV?$Local@VString@v8@@@v8@@AEBV?$PropertyCallbackInfo@VValue@v8@@@Nan@@@Z 0000000180057460 f i _nodert_generated.obj
 0001:00056530       ?AttributeNotLongGetter@GattProtocolError@GenericAttributeProfile@Bluetooth@Devices@Windows@NodeRT@@CAXV?$Local@VString@v8@@@v8@@AEBV?$PropertyCallbackInfo@VValue@v8@@@Nan@@@Z 0000000180057530 f i _nodert_generated.obj
 0001:00056600       ?AyncCloseCb@Async@NodeUtils@@CAXPEAUuv_handle_s@@@Z 0000000180057600 f i _nodert_generated.obj
 0001:00056620       ?BatteryGetter@GattServiceUuids@GenericAttributeProfile@Bluetooth@Devices@Windows@NodeRT@@CAXV?$Local@VString@v8@@@v8@@AEBV?$PropertyCallbackInfo@VValue@v8@@@Nan@@@Z 0000000180057620 f i _nodert_generated.obj
 0001:000566d0       ?BatteryLevelGetter@GattCharacteristicUuids@GenericAttributeProfile@Bluetooth@Devices@Windows@NodeRT@@CAXV?$Local@VString@v8@@@v8@@AEBV?$PropertyCallbackInfo@VValue@v8@@@Nan@@@Z 00000001800576d0 f i _nodert_generated.obj
 0001:00056780       ?Bit2Getter@GattPresentationFormatTypes@GenericAttributeProfile@Bluetooth@Devices@Windows@NodeRT@@CAXV?$Local@VString@v8@@@v8@@AEBV?$PropertyCallbackInfo@VValue@v8@@@Nan@@@Z 0000000180057780 f i _nodert_generated.obj
 0001:00056850       ?BloodPressureFeatureGetter@GattCharacteristicUuids@GenericAttributeProfile@Bluetooth@Devices@Windows@NodeRT@@CAXV?$Local@VString@v8@@@v8@@AEBV?$PropertyCallbackInfo@VValue@v8@@@Nan@@@Z 0000000180057850 f i _nodert_generated.obj
 0001:00056900       ?BloodPressureGetter@GattServiceUuids@GenericAttributeProfile@Bluetooth@Devices@Windows@NodeRT@@CAXV?$Local@VString@v8@@@v8@@AEBV?$PropertyCallbackInfo@VValue@v8@@@Nan@@@Z 0000000180057900 f i _nodert_generated.obj
 0001:000569b0       ?BloodPressureMeasurementGetter@GattCharacteristicUuids@GenericAttributeProfile@Bluetooth@Devices@Windows@NodeRT@@CAXV?$Local@VString@v8@@@v8@@AEBV?$PropertyCallbackInfo@VValue@v8@@@Nan@@@Z 00000001800579b0 f i _nodert_generated.obj
 0001:00056a60       ?BluetoothSigAssignedNumbersGetter@GattPresentationFormat@GenericAttributeProfile@Bluetooth@Devices@Windows@NodeRT@@CAXV?$Local@VString@v8@@@v8@@AEBV?$PropertyCallbackInfo@VValue@v8@@@Nan@@@Z 0000000180057a60 f i _nodert_generated.obj
 0001:00056b30       ?BodySensorLocationGetter@GattCharacteristicUuids@GenericAttributeProfile@Bluetooth@Devices@Windows@NodeRT@@CAXV?$Local@VString@v8@@@v8@@AEBV?$PropertyCallbackInfo@VValue@v8@@@Nan@@@Z 0000000180057b30 f i _nodert_generated.obj
 0001:00056be0       ?BooleanGetter@GattPresentationFormatTypes@GenericAttributeProfile@Bluetooth@Devices@Windows@NodeRT@@CAXV?$Local@VString@v8@@@v8@@AEBV?$PropertyCallbackInfo@VValue@v8@@@Nan@@@Z 0000000180057be0 f i _nodert_generated.obj
 0001:00056cb0       ?BootKeyboardInputReportGetter@GattCharacteristicUuids@GenericAttributeProfile@Bluetooth@Devices@Windows@NodeRT@@CAXV?$Local@VString@v8@@@v8@@AEBV?$PropertyCallbackInfo@VValue@v8@@@Nan@@@Z 0000000180057cb0 f i _nodert_generated.obj
 0001:00056d60       ?BootKeyboardOutputReportGetter@GattCharacteristicUuids@GenericAttributeProfile@Bluetooth@Devices@Windows@NodeRT@@CAXV?$Local@VString@v8@@@v8@@AEBV?$PropertyCallbackInfo@VValue@v8@@@Nan@@@Z 0000000180057d60 f i _nodert_generated.obj
 0001:00056e10       ?BootMouseInputReportGetter@GattCharacteristicUuids@GenericAttributeProfile@Bluetooth@Devices@Windows@NodeRT@@CAXV?$Local@VString@v8@@@v8@@AEBV?$PropertyCallbackInfo@VValue@v8@@@Nan@@@Z 0000000180057e10 f i _nodert_generated.obj
 0001:00056ec0       ?CanMaintainConnectionGetter@GattSession@GenericAttributeProfile@Bluetooth@Devices@Windows@NodeRT@@CAXV?$Local@VString@v8@@@v8@@AEBV?$PropertyCallbackInfo@VValue@v8@@@Nan@@@Z 0000000180057ec0 f i _nodert_generated.obj
 0001:00056fb0       ?Cancel@IAsyncInfo@Foundation@Windows@@UE$AAAXXZ 0000000180057fb0 f i _nodert_generated.obj
 0001:00056fe0       ?CastFrom@GattCharacteristic@GenericAttributeProfile@Bluetooth@Devices@Windows@NodeRT@@CAXAEBV?$FunctionCallbackInfo@VValue@v8@@@Nan@@@Z 0000000180057fe0 f i _nodert_generated.obj
 0001:00057210       ?CastFrom@GattCharacteristicUuids@GenericAttributeProfile@Bluetooth@Devices@Windows@NodeRT@@CAXAEBV?$FunctionCallbackInfo@VValue@v8@@@Nan@@@Z 0000000180058210 f i _nodert_generated.obj
 0001:00057440       ?CastFrom@GattCharacteristicsResult@GenericAttributeProfile@Bluetooth@Devices@Windows@NodeRT@@CAXAEBV?$FunctionCallbackInfo@VValue@v8@@@Nan@@@Z 0000000180058440 f i _nodert_generated.obj
 0001:00057670       ?CastFrom@GattClientNotificationResult@GenericAttributeProfile@Bluetooth@Devices@Windows@NodeRT@@CAXAEBV?$FunctionCallbackInfo@VValue@v8@@@Nan@@@Z 0000000180058670 f i _nodert_generated.obj
 0001:000578a0       ?CastFrom@GattDescriptor@GenericAttributeProfile@Bluetooth@Devices@Windows@NodeRT@@CAXAEBV?$FunctionCallbackInfo@VValue@v8@@@Nan@@@Z 00000001800588a0 f i _nodert_generated.obj
 0001:00057ad0       ?CastFrom@GattDescriptorUuids@GenericAttributeProfile@Bluetooth@Devices@Windows@NodeRT@@CAXAEBV?$FunctionCallbackInfo@VValue@v8@@@Nan@@@Z 0000000180058ad0 f i _nodert_generated.obj
 0001:00057d00       ?CastFrom@GattDescriptorsResult@GenericAttributeProfile@Bluetooth@Devices@Windows@NodeRT@@CAXAEBV?$FunctionCallbackInfo@VValue@v8@@@Nan@@@Z 0000000180058d00 f i _nodert_generated.obj
 0001:00057f30       ?CastFrom@GattDeviceService@GenericAttributeProfile@Bluetooth@Devices@Windows@NodeRT@@CAXAEBV?$FunctionCallbackInfo@VValue@v8@@@Nan@@@Z 0000000180058f30 f i _nodert_generated.obj
 0001:00058160       ?CastFrom@GattDeviceServicesResult@GenericAttributeProfile@Bluetooth@Devices@Windows@NodeRT@@CAXAEBV?$FunctionCallbackInfo@VValue@v8@@@Nan@@@Z 0000000180059160 f i _nodert_generated.obj
 0001:00058390       ?CastFrom@GattLocalCharacteristic@GenericAttributeProfile@Bluetooth@Devices@Windows@NodeRT@@CAXAEBV?$FunctionCallbackInfo@VValue@v8@@@Nan@@@Z 0000000180059390 f i _nodert_generated.obj
 0001:000585c0       ?CastFrom@GattLocalCharacteristicParameters@GenericAttributeProfile@Bluetooth@Devices@Windows@NodeRT@@CAXAEBV?$FunctionCallbackInfo@VValue@v8@@@Nan@@@Z 00000001800595c0 f i _nodert_generated.obj
 0001:000587f0       ?CastFrom@GattLocalCharacteristicResult@GenericAttributeProfile@Bluetooth@Devices@Windows@NodeRT@@CAXAEBV?$FunctionCallbackInfo@VValue@v8@@@Nan@@@Z 00000001800597f0 f i _nodert_generated.obj
 0001:00058a20       ?CastFrom@GattLocalDescriptor@GenericAttributeProfile@Bluetooth@Devices@Windows@NodeRT@@CAXAEBV?$FunctionCallbackInfo@VValue@v8@@@Nan@@@Z 0000000180059a20 f i _nodert_generated.obj
 0001:00058c50       ?CastFrom@GattLocalDescriptorParameters@GenericAttributeProfile@Bluetooth@Devices@Windows@NodeRT@@CAXAEBV?$FunctionCallbackInfo@VValue@v8@@@Nan@@@Z 0000000180059c50 f i _nodert_generated.obj
 0001:00058e80       ?CastFrom@GattLocalDescriptorResult@GenericAttributeProfile@Bluetooth@Devices@Windows@NodeRT@@CAXAEBV?$FunctionCallbackInfo@VValue@v8@@@Nan@@@Z 0000000180059e80 f i _nodert_generated.obj
 0001:000590b0       ?CastFrom@GattLocalService@GenericAttributeProfile@Bluetooth@Devices@Windows@NodeRT@@CAXAEBV?$FunctionCallbackInfo@VValue@v8@@@Nan@@@Z 000000018005a0b0 f i _nodert_generated.obj
 0001:000592e0       ?CastFrom@GattPresentationFormat@GenericAttributeProfile@Bluetooth@Devices@Windows@NodeRT@@CAXAEBV?$FunctionCallbackInfo@VValue@v8@@@Nan@@@Z 000000018005a2e0 f i _nodert_generated.obj
 0001:00059510       ?CastFrom@GattPresentationFormatTypes@GenericAttributeProfile@Bluetooth@Devices@Windows@NodeRT@@CAXAEBV?$FunctionCallbackInfo@VValue@v8@@@Nan@@@Z 000000018005a510 f i _nodert_generated.obj
 0001:00059740       ?CastFrom@GattProtocolError@GenericAttributeProfile@Bluetooth@Devices@Windows@NodeRT@@CAXAEBV?$FunctionCallbackInfo@VValue@v8@@@Nan@@@Z 000000018005a740 f i _nodert_generated.obj
 0001:00059970       ?CastFrom@GattReadClientCharacteristicConfigurationDescriptorResult@GenericAttributeProfile@Bluetooth@Devices@Windows@NodeRT@@CAXAEBV?$FunctionCallbackInfo@VValue@v8@@@Nan@@@Z 000000018005a970 f i _nodert_generated.obj
 0001:00059ba0       ?CastFrom@GattReadRequest@GenericAttributeProfile@Bluetooth@Devices@Windows@NodeRT@@CAXAEBV?$FunctionCallbackInfo@VValue@v8@@@Nan@@@Z 000000018005aba0 f i _nodert_generated.obj
 0001:00059dd0       ?CastFrom@GattReadRequestedEventArgs@GenericAttributeProfile@Bluetooth@Devices@Windows@NodeRT@@CAXAEBV?$FunctionCallbackInfo@VValue@v8@@@Nan@@@Z 000000018005add0 f i _nodert_generated.obj
 0001:0005a000       ?CastFrom@GattReadResult@GenericAttributeProfile@Bluetooth@Devices@Windows@NodeRT@@CAXAEBV?$FunctionCallbackInfo@VValue@v8@@@Nan@@@Z 000000018005b000 f i _nodert_generated.obj
 0001:0005a230       ?CastFrom@GattReliableWriteTransaction@GenericAttributeProfile@Bluetooth@Devices@Windows@NodeRT@@CAXAEBV?$FunctionCallbackInfo@VValue@v8@@@Nan@@@Z 000000018005b230 f i _nodert_generated.obj
 0001:0005a460       ?CastFrom@GattRequestStateChangedEventArgs@GenericAttributeProfile@Bluetooth@Devices@Windows@NodeRT@@CAXAEBV?$FunctionCallbackInfo@VValue@v8@@@Nan@@@Z 000000018005b460 f i _nodert_generated.obj
 0001:0005a690       ?CastFrom@GattServiceProvider@GenericAttributeProfile@Bluetooth@Devices@Windows@NodeRT@@CAXAEBV?$FunctionCallbackInfo@VValue@v8@@@Nan@@@Z 000000018005b690 f i _nodert_generated.obj
 0001:0005a8c0       ?CastFrom@GattServiceProviderAdvertisementStatusChangedEventArgs@GenericAttributeProfile@Bluetooth@Devices@Windows@NodeRT@@CAXAEBV?$FunctionCallbackInfo@VValue@v8@@@Nan@@@Z 000000018005b8c0 f i _nodert_generated.obj
 0001:0005aaf0       ?CastFrom@GattServiceProviderAdvertisingParameters@GenericAttributeProfile@Bluetooth@Devices@Windows@NodeRT@@CAXAEBV?$FunctionCallbackInfo@VValue@v8@@@Nan@@@Z 000000018005baf0 f i _nodert_generated.obj
 0001:0005ad20       ?CastFrom@GattServiceProviderResult@GenericAttributeProfile@Bluetooth@Devices@Windows@NodeRT@@CAXAEBV?$FunctionCallbackInfo@VValue@v8@@@Nan@@@Z 000000018005bd20 f i _nodert_generated.obj
 0001:0005af50       ?CastFrom@GattServiceUuids@GenericAttributeProfile@Bluetooth@Devices@Windows@NodeRT@@CAXAEBV?$FunctionCallbackInfo@VValue@v8@@@Nan@@@Z 000000018005bf50 f i _nodert_generated.obj
 0001:0005b180       ?CastFrom@GattSession@GenericAttributeProfile@Bluetooth@Devices@Windows@NodeRT@@CAXAEBV?$FunctionCallbackInfo@VValue@v8@@@Nan@@@Z 000000018005c180 f i _nodert_generated.obj
 0001:0005b3b0       ?CastFrom@GattSessionStatusChangedEventArgs@GenericAttributeProfile@Bluetooth@Devices@Windows@NodeRT@@CAXAEBV?$FunctionCallbackInfo@VValue@v8@@@Nan@@@Z 000000018005c3b0 f i _nodert_generated.obj
 0001:0005b5e0       ?CastFrom@GattSubscribedClient@GenericAttributeProfile@Bluetooth@Devices@Windows@NodeRT@@CAXAEBV?$FunctionCallbackInfo@VValue@v8@@@Nan@@@Z 000000018005c5e0 f i _nodert_generated.obj
 0001:0005b810       ?CastFrom@GattValueChangedEventArgs@GenericAttributeProfile@Bluetooth@Devices@Windows@NodeRT@@CAXAEBV?$FunctionCallbackInfo@VValue@v8@@@Nan@@@Z 000000018005c810 f i _nodert_generated.obj
 0001:0005ba40       ?CastFrom@GattWriteRequest@GenericAttributeProfile@Bluetooth@Devices@Windows@NodeRT@@CAXAEBV?$FunctionCallbackInfo@VValue@v8@@@Nan@@@Z 000000018005ca40 f i _nodert_generated.obj
 0001:0005bc70       ?CastFrom@GattWriteRequestedEventArgs@GenericAttributeProfile@Bluetooth@Devices@Windows@NodeRT@@CAXAEBV?$FunctionCallbackInfo@VValue@v8@@@Nan@@@Z 000000018005cc70 f i _nodert_generated.obj
 0001:0005bea0       ?CastFrom@GattWriteResult@GenericAttributeProfile@Bluetooth@Devices@Windows@NodeRT@@CAXAEBV?$FunctionCallbackInfo@VValue@v8@@@Nan@@@Z 000000018005cea0 f i _nodert_generated.obj
 0001:0005c0d0       ?CharacteristicAggregateFormatGetter@GattDescriptorUuids@GenericAttributeProfile@Bluetooth@Devices@Windows@NodeRT@@CAXV?$Local@VString@v8@@@v8@@AEBV?$PropertyCallbackInfo@VValue@v8@@@Nan@@@Z 000000018005d0d0 f i _nodert_generated.obj
 0001:0005c180       ?CharacteristicExtendedPropertiesGetter@GattDescriptorUuids@GenericAttributeProfile@Bluetooth@Devices@Windows@NodeRT@@CAXV?$Local@VString@v8@@@v8@@AEBV?$PropertyCallbackInfo@VValue@v8@@@Nan@@@Z 000000018005d180 f i _nodert_generated.obj
 0001:0005c230       ?CharacteristicGetter@GattLocalCharacteristicResult@GenericAttributeProfile@Bluetooth@Devices@Windows@NodeRT@@CAXV?$Local@VString@v8@@@v8@@AEBV?$PropertyCallbackInfo@VValue@v8@@@Nan@@@Z 000000018005d230 f i _nodert_generated.obj
 0001:0005c380       ?CharacteristicPresentationFormatGetter@GattDescriptorUuids@GenericAttributeProfile@Bluetooth@Devices@Windows@NodeRT@@CAXV?$Local@VString@v8@@@v8@@AEBV?$PropertyCallbackInfo@VValue@v8@@@Nan@@@Z 000000018005d380 f i _nodert_generated.obj
 0001:0005c430       ?CharacteristicPropertiesGetter@GattCharacteristic@GenericAttributeProfile@Bluetooth@Devices@Windows@NodeRT@@CAXV?$Local@VString@v8@@@v8@@AEBV?$PropertyCallbackInfo@VValue@v8@@@Nan@@@Z 000000018005d430 f i _nodert_generated.obj
 0001:0005c550       ?CharacteristicPropertiesGetter@GattLocalCharacteristic@GenericAttributeProfile@Bluetooth@Devices@Windows@NodeRT@@CAXV?$Local@VString@v8@@@v8@@AEBV?$PropertyCallbackInfo@VValue@v8@@@Nan@@@Z 000000018005d550 f i _nodert_generated.obj
 0001:0005c670       ?CharacteristicPropertiesGetter@GattLocalCharacteristicParameters@GenericAttributeProfile@Bluetooth@Devices@Windows@NodeRT@@CAXV?$Local@VString@v8@@@v8@@AEBV?$PropertyCallbackInfo@VValue@v8@@@Nan@@@Z 000000018005d670 f i _nodert_generated.obj
 0001:0005c790       ?CharacteristicPropertiesSetter@GattLocalCharacteristicParameters@GenericAttributeProfile@Bluetooth@Devices@Windows@NodeRT@@CAXV?$Local@VString@v8@@@v8@@V?$Local@VValue@v8@@@8@AEBV?$PropertyCallbackInfo@X@Nan@@@Z 000000018005d790 f i _nodert_generated.obj
 0001:0005c8c0       ?CharacteristicUserDescriptionGetter@GattDescriptorUuids@GenericAttributeProfile@Bluetooth@Devices@Windows@NodeRT@@CAXV?$Local@VString@v8@@@v8@@AEBV?$PropertyCallbackInfo@VValue@v8@@@Nan@@@Z 000000018005d8c0 f i _nodert_generated.obj
 0001:0005c970       ?CharacteristicValueGetter@GattValueChangedEventArgs@GenericAttributeProfile@Bluetooth@Devices@Windows@NodeRT@@CAXV?$Local@VString@v8@@@v8@@AEBV?$PropertyCallbackInfo@VValue@v8@@@Nan@@@Z 000000018005d970 f i _nodert_generated.obj
 0001:0005cad0       ?CharacteristicsGetter@GattCharacteristicsResult@GenericAttributeProfile@Bluetooth@Devices@Windows@NodeRT@@CAXV?$Local@VString@v8@@@v8@@AEBV?$PropertyCallbackInfo@VValue@v8@@@Nan@@@Z 000000018005dad0 f i _nodert_generated.obj
 0001:0005cd70       ?CharacteristicsGetter@GattLocalService@GenericAttributeProfile@Bluetooth@Devices@Windows@NodeRT@@CAXV?$Local@VString@v8@@@v8@@AEBV?$PropertyCallbackInfo@VValue@v8@@@Nan@@@Z 000000018005dd70 f i _nodert_generated.obj
 0001:0005d010       ?Clear@?$IVector@PE$AAVGattPresentationFormat@GenericAttributeProfile@Bluetooth@Devices@Windows@@@Collections@Foundation@Windows@@UE$AAAXXZ 000000018005e010 f i _nodert_generated.obj
 0001:0005d040       ?Clear@?$VectorWrapper@PE$AAVGattPresentationFormat@GenericAttributeProfile@Bluetooth@Devices@Windows@@@Collections@NodeRT@@CAXAEBV?$FunctionCallbackInfo@VValue@v8@@@Nan@@@Z 000000018005e040 f i _nodert_generated.obj
 0001:0005d130       ?ClientCharacteristicConfigurationDescriptorGetter@GattReadClientCharacteristicConfigurationDescriptorResult@GenericAttributeProfile@Bluetooth@Devices@Windows@NodeRT@@CAXV?$Local@VString@v8@@@v8@@AEBV?$PropertyCallbackInfo@VValue@v8@@@Nan@@@Z 000000018005e130 f i _nodert_generated.obj
 0001:0005d250       ?ClientCharacteristicConfigurationGetter@GattDescriptorUuids@GenericAttributeProfile@Bluetooth@Devices@Windows@NodeRT@@CAXV?$Local@VString@v8@@@v8@@AEBV?$PropertyCallbackInfo@VValue@v8@@@Nan@@@Z 000000018005e250 f i _nodert_generated.obj
 0001:0005d300       ?Close@GattDeviceService@GenericAttributeProfile@Bluetooth@Devices@Windows@NodeRT@@CAXAEBV?$FunctionCallbackInfo@VValue@v8@@@Nan@@@Z 000000018005e300 f i _nodert_generated.obj
 0001:0005d490       ?Close@GattSession@GenericAttributeProfile@Bluetooth@Devices@Windows@NodeRT@@CAXAEBV?$FunctionCallbackInfo@VValue@v8@@@Nan@@@Z 000000018005e490 f i _nodert_generated.obj
 0001:0005d620       ?CommitAsync@GattReliableWriteTransaction@GenericAttributeProfile@Bluetooth@Devices@Windows@NodeRT@@CAXAEBV?$FunctionCallbackInfo@VValue@v8@@@Nan@@@Z 000000018005e620 f i _nodert_generated.obj
 0001:0005d970       ?CommitAsync@IGattReliableWriteTransaction@GenericAttributeProfile@Bluetooth@Devices@Windows@@UE$AAAPE$AAU?$IAsyncOperation@W4GattCommunicationStatus@GenericAttributeProfile@Bluetooth@Devices@Windows@@@Foundation@5@XZ 000000018005e970 f i _nodert_generated.obj
 0001:0005d9f0       ?CommitWithResultAsync@GattReliableWriteTransaction@GenericAttributeProfile@Bluetooth@Devices@Windows@NodeRT@@CAXAEBV?$FunctionCallbackInfo@VValue@v8@@@Nan@@@Z 000000018005e9f0 f i _nodert_generated.obj
 0001:0005ddb0       ?CommitWithResultAsync@IGattReliableWriteTransaction2@GenericAttributeProfile@Bluetooth@Devices@Windows@@UE$AAAPE$AAU?$IAsyncOperation@PE$AAVGattWriteResult@GenericAttributeProfile@Bluetooth@Devices@Windows@@@Foundation@5@XZ 000000018005edb0 f i _nodert_generated.obj
 0001:0005de30       ?ConvertShortIdToUuid@GattCharacteristic@GenericAttributeProfile@Bluetooth@Devices@Windows@@SA?AVGuid@Platform@@G@Z 000000018005ee30 f i _nodert_generated.obj
 0001:0005df10       ?ConvertShortIdToUuid@GattCharacteristic@GenericAttributeProfile@Bluetooth@Devices@Windows@NodeRT@@CAXAEBV?$FunctionCallbackInfo@VValue@v8@@@Nan@@@Z 000000018005ef10 f i _nodert_generated.obj
 0001:0005e090       ?ConvertShortIdToUuid@GattDescriptor@GenericAttributeProfile@Bluetooth@Devices@Windows@@SA?AVGuid@Platform@@G@Z 000000018005f090 f i _nodert_generated.obj
 0001:0005e170       ?ConvertShortIdToUuid@GattDescriptor@GenericAttributeProfile@Bluetooth@Devices@Windows@NodeRT@@CAXAEBV?$FunctionCallbackInfo@VValue@v8@@@Nan@@@Z 000000018005f170 f i _nodert_generated.obj
 0001:0005e2f0       ?ConvertShortIdToUuid@GattDeviceService@GenericAttributeProfile@Bluetooth@Devices@Windows@@SA?AVGuid@Platform@@G@Z 000000018005f2f0 f i _nodert_generated.obj
 0001:0005e3d0       ?ConvertShortIdToUuid@GattDeviceService@GenericAttributeProfile@Bluetooth@Devices@Windows@NodeRT@@CAXAEBV?$FunctionCallbackInfo@VValue@v8@@@Nan@@@Z 000000018005f3d0 f i _nodert_generated.obj
 0001:0005e550       ?ConvertShortIdToUuid@IGattCharacteristicStatics@GenericAttributeProfile@Bluetooth@Devices@Windows@@UE$AAA?AVGuid@Platform@@G@Z 000000018005f550 f i _nodert_generated.obj
 0001:0005e5a0       ?ConvertShortIdToUuid@IGattDescriptorStatics@GenericAttributeProfile@Bluetooth@Devices@Windows@@UE$AAA?AVGuid@Platform@@G@Z 000000018005f5a0 f i _nodert_generated.obj
 0001:0005e5f0       ?ConvertShortIdToUuid@IGattDeviceServiceStatics@GenericAttributeProfile@Bluetooth@Devices@Windows@@UE$AAA?AVGuid@Platform@@G@Z 000000018005f5f0 f i _nodert_generated.obj
 0001:0005e640       ?CopyToOrDetach@?$Array@PE$AAVGattPresentationFormat@GenericAttributeProfile@Bluetooth@Devices@Windows@@$00@Platform@@AE$AAAXPEAPEAPE$AAVGattPresentationFormat@GenericAttributeProfile@Bluetooth@Devices@Windows@@PEAI@Z 000000018005f640 f i _nodert_generated.obj
 0001:0005e760       ?CreateAsync@GattServiceProvider@GenericAttributeProfile@Bluetooth@Devices@Windows@@SAPE$AAU?$IAsyncOperation@PE$AAVGattServiceProviderResult@GenericAttributeProfile@Bluetooth@Devices@Windows@@@Foundation@5@VGuid@Platform@@@Z 000000018005f760 f i _nodert_generated.obj
 0001:0005e880       ?CreateAsync@GattServiceProvider@GenericAttributeProfile@Bluetooth@Devices@Windows@NodeRT@@CAXAEBV?$FunctionCallbackInfo@VValue@v8@@@Nan@@@Z 000000018005f880 f i _nodert_generated.obj
 0001:0005ec10       ?CreateAsync@IGattServiceProviderStatics@GenericAttributeProfile@Bluetooth@Devices@Windows@@UE$AAAPE$AAU?$IAsyncOperation@PE$AAVGattServiceProviderResult@GenericAttributeProfile@Bluetooth@Devices@Windows@@@Foundation@5@VGuid@Platform@@@Z 000000018005fc10 f i _nodert_generated.obj
 0001:0005eca0       ?CreateCallbackData@Async@NodeUtils@@CA?AV?$Local@VObject@v8@@@v8@@V?$Local@VFunction@v8@@@4@V?$Local@VValue@v8@@@4@@Z 000000018005fca0 f i _nodert_generated.obj
 0001:0005ef80       ?CreateCharacteristicAsync@GattLocalService@GenericAttributeProfile@Bluetooth@Devices@Windows@NodeRT@@CAXAEBV?$FunctionCallbackInfo@VValue@v8@@@Nan@@@Z 000000018005ff80 f i _nodert_generated.obj
 0001:0005f460       ?CreateCharacteristicAsync@IGattLocalService@GenericAttributeProfile@Bluetooth@Devices@Windows@@UE$AAAPE$AAU?$IAsyncOperation@PE$AAVGattLocalCharacteristicResult@GenericAttributeProfile@Bluetooth@Devices@Windows@@@Foundation@5@VGuid@Platform@@PE$AAVGattLocalCharacteristicParameters@2345@@Z 0000000180060460 f i _nodert_generated.obj
 0001:0005f4f0       ?CreateDescriptorAsync@GattLocalCharacteristic@GenericAttributeProfile@Bluetooth@Devices@Windows@NodeRT@@CAXAEBV?$FunctionCallbackInfo@VValue@v8@@@Nan@@@Z 00000001800604f0 f i _nodert_generated.obj
 0001:0005f9d0       ?CreateDescriptorAsync@IGattLocalCharacteristic@GenericAttributeProfile@Bluetooth@Devices@Windows@@UE$AAAPE$AAU?$IAsyncOperation@PE$AAVGattLocalDescriptorResult@GenericAttributeProfile@Bluetooth@Devices@Windows@@@Foundation@5@VGuid@Platform@@PE$AAVGattLocalDescriptorParameters@2345@@Z 00000001800609d0 f i _nodert_generated.obj
 0001:0005fa60       ?CreateInt64@IPropertyValueStatics@Foundation@Windows@@UE$AAAPE$AAVObject@Platform@@_J@Z 0000000180060a60 f i _nodert_generated.obj
 0001:0005fae0       ?CreateInt64@PropertyValue@Foundation@Windows@@SAPE$AAVObject@Platform@@_J@Z 0000000180060ae0 f i _nodert_generated.obj
 0001:0005fbf0       ?CreateIteratorWrapper@?$IteratorWrapper@PE$AAVGattCharacteristic@GenericAttributeProfile@Bluetooth@Devices@Windows@@@Collections@NodeRT@@SA?AV?$Local@VValue@v8@@@v8@@PE$AAU?$IIterator@PE$AAVGattCharacteristic@GenericAttributeProfile@Bluetooth@Devices@Windows@@@2Foundation@Windows@@AEBV?$function@$$A6A?AV?$Local@VValue@v8@@@v8@@PE$AAVGattCharacteristic@GenericAttributeProfile@Bluetooth@Devices@Windows@@@Z@std@@@Z 0000000180060bf0 f i _nodert_generated.obj
 0001:0005fd90       ?CreateIteratorWrapper@?$IteratorWrapper@PE$AAVGattClientNotificationResult@GenericAttributeProfile@Bluetooth@Devices@Windows@@@Collections@NodeRT@@SA?AV?$Local@VValue@v8@@@v8@@PE$AAU?$IIterator@PE$AAVGattClientNotificationResult@GenericAttributeProfile@Bluetooth@Devices@Windows@@@2Foundation@Windows@@AEBV?$function@$$A6A?AV?$Local@VValue@v8@@@v8@@PE$AAVGattClientNotificationResult@GenericAttributeProfile@Bluetooth@Devices@Windows@@@Z@std@@@Z 0000000180060d90 f i _nodert_generated.obj
 0001:0005ff30       ?CreateIteratorWrapper@?$IteratorWrapper@PE$AAVGattDescriptor@GenericAttributeProfile@Bluetooth@Devices@Windows@@@Collections@NodeRT@@SA?AV?$Local@VValue@v8@@@v8@@PE$AAU?$IIterator@PE$AAVGattDescriptor@GenericAttributeProfile@Bluetooth@Devices@Windows@@@2Foundation@Windows@@AEBV?$function@$$A6A?AV?$Local@VValue@v8@@@v8@@PE$AAVGattDescriptor@GenericAttributeProfile@Bluetooth@Devices@Windows@@@Z@std@@@Z 0000000180060f30 f i _nodert_generated.obj
 0001:000600d0       ?CreateIteratorWrapper@?$IteratorWrapper@PE$AAVGattDeviceService@GenericAttributeProfile@Bluetooth@Devices@Windows@@@Collections@NodeRT@@SA?AV?$Local@VValue@v8@@@v8@@PE$AAU?$IIterator@PE$AAVGattDeviceService@GenericAttributeProfile@Bluetooth@Devices@Windows@@@2Foundation@Windows@@AEBV?$function@$$A6A?AV?$Local@VValue@v8@@@v8@@PE$AAVGattDeviceService@GenericAttributeProfile@Bluetooth@Devices@Windows@@@Z@std@@@Z 00000001800610d0 f i _nodert_generated.obj
 0001:00060270       ?CreateIteratorWrapper@?$IteratorWrapper@PE$AAVGattLocalCharacteristic@GenericAttributeProfile@Bluetooth@Devices@Windows@@@Collections@NodeRT@@SA?AV?$Local@VValue@v8@@@v8@@PE$AAU?$IIterator@PE$AAVGattLocalCharacteristic@GenericAttributeProfile@Bluetooth@Devices@Windows@@@2Foundation@Windows@@AEBV?$function@$$A6A?AV?$Local@VValue@v8@@@v8@@PE$AAVGattLocalCharacteristic@GenericAttributeProfile@Bluetooth@Devices@Windows@@@Z@std@@@Z 0000000180061270 f i _nodert_generated.obj
 0001:00060410       ?CreateIteratorWrapper@?$IteratorWrapper@PE$AAVGattLocalDescriptor@GenericAttributeProfile@Bluetooth@Devices@Windows@@@Collections@NodeRT@@SA?AV?$Local@VValue@v8@@@v8@@PE$AAU?$IIterator@PE$AAVGattLocalDescriptor@GenericAttributeProfile@Bluetooth@Devices@Windows@@@2Foundation@Windows@@AEBV?$function@$$A6A?AV?$Local@VValue@v8@@@v8@@PE$AAVGattLocalDescriptor@GenericAttributeProfile@Bluetooth@Devices@Windows@@@Z@std@@@Z 0000000180061410 f i _nodert_generated.obj
 0001:000605b0       ?CreateIteratorWrapper@?$IteratorWrapper@PE$AAVGattPresentationFormat@GenericAttributeProfile@Bluetooth@Devices@Windows@@@Collections@NodeRT@@SA?AV?$Local@VValue@v8@@@v8@@PE$AAU?$IIterator@PE$AAVGattPresentationFormat@GenericAttributeProfile@Bluetooth@Devices@Windows@@@2Foundation@Windows@@AEBV?$function@$$A6A?AV?$Local@VValue@v8@@@v8@@PE$AAVGattPresentationFormat@GenericAttributeProfile@Bluetooth@Devices@Windows@@@Z@std@@@Z 00000001800615b0 f i _nodert_generated.obj
 0001:00060750       ?CreateIteratorWrapper@?$IteratorWrapper@PE$AAVGattSubscribedClient@GenericAttributeProfile@Bluetooth@Devices@Windows@@@Collections@NodeRT@@SA?AV?$Local@VValue@v8@@@v8@@PE$AAU?$IIterator@PE$AAVGattSubscribedClient@GenericAttributeProfile@Bluetooth@Devices@Windows@@@2Foundation@Windows@@AEBV?$function@$$A6A?AV?$Local@VValue@v8@@@v8@@PE$AAVGattSubscribedClient@GenericAttributeProfile@Bluetooth@Devices@Windows@@@Z@std@@@Z 0000000180061750 f i _nodert_generated.obj
 0001:000608f0       ?CreateVectorViewWrapper@?$VectorViewWrapper@PE$AAVGattCharacteristic@GenericAttributeProfile@Bluetooth@Devices@Windows@@@Collections@NodeRT@@SA?AV?$Local@VValue@v8@@@v8@@PE$AAU?$IVectorView@PE$AAVGattCharacteristic@GenericAttributeProfile@Bluetooth@Devices@Windows@@@2Foundation@Windows@@AEBV?$function@$$A6A?AV?$Local@VValue@v8@@@v8@@PE$AAVGattCharacteristic@GenericAttributeProfile@Bluetooth@Devices@Windows@@@Z@std@@AEBV?$function@$$A6A_NV?$Local@VValue@v8@@@v8@@@Z@std@@AEBV?$function@$$A6APE$AAVGattCharacteristic@GenericAttributeProfile@Bluetooth@Devices@Windows@@V?$Local@VValue@v8@@@v8@@@Z@std@@@Z 00000001800618f0 f i _nodert_generated.obj
 0001:00060b90       ?CreateVectorViewWrapper@?$VectorViewWrapper@PE$AAVGattClientNotificationResult@GenericAttributeProfile@Bluetooth@Devices@Windows@@@Collections@NodeRT@@SA?AV?$Local@VValue@v8@@@v8@@PE$AAU?$IVectorView@PE$AAVGattClientNotificationResult@GenericAttributeProfile@Bluetooth@Devices@Windows@@@2Foundation@Windows@@AEBV?$function@$$A6A?AV?$Local@VValue@v8@@@v8@@PE$AAVGattClientNotificationResult@GenericAttributeProfile@Bluetooth@Devices@Windows@@@Z@std@@AEBV?$function@$$A6A_NV?$Local@VValue@v8@@@v8@@@Z@std@@AEBV?$function@$$A6APE$AAVGattClientNotificationResult@GenericAttributeProfile@Bluetooth@Devices@Windows@@V?$Local@VValue@v8@@@v8@@@Z@std@@@Z 0000000180061b90 f i _nodert_generated.obj
 0001:00060e30       ?CreateVectorViewWrapper@?$VectorViewWrapper@PE$AAVGattDescriptor@GenericAttributeProfile@Bluetooth@Devices@Windows@@@Collections@NodeRT@@SA?AV?$Local@VValue@v8@@@v8@@PE$AAU?$IVectorView@PE$AAVGattDescriptor@GenericAttributeProfile@Bluetooth@Devices@Windows@@@2Foundation@Windows@@AEBV?$function@$$A6A?AV?$Local@VValue@v8@@@v8@@PE$AAVGattDescriptor@GenericAttributeProfile@Bluetooth@Devices@Windows@@@Z@std@@AEBV?$function@$$A6A_NV?$Local@VValue@v8@@@v8@@@Z@std@@AEBV?$function@$$A6APE$AAVGattDescriptor@GenericAttributeProfile@Bluetooth@Devices@Windows@@V?$Local@VValue@v8@@@v8@@@Z@std@@@Z 0000000180061e30 f i _nodert_generated.obj
 0001:000610d0       ?CreateVectorViewWrapper@?$VectorViewWrapper@PE$AAVGattDeviceService@GenericAttributeProfile@Bluetooth@Devices@Windows@@@Collections@NodeRT@@SA?AV?$Local@VValue@v8@@@v8@@PE$AAU?$IVectorView@PE$AAVGattDeviceService@GenericAttributeProfile@Bluetooth@Devices@Windows@@@2Foundation@Windows@@AEBV?$function@$$A6A?AV?$Local@VValue@v8@@@v8@@PE$AAVGattDeviceService@GenericAttributeProfile@Bluetooth@Devices@Windows@@@Z@std@@AEBV?$function@$$A6A_NV?$Local@VValue@v8@@@v8@@@Z@std@@AEBV?$function@$$A6APE$AAVGattDeviceService@GenericAttributeProfile@Bluetooth@Devices@Windows@@V?$Local@VValue@v8@@@v8@@@Z@std@@@Z 00000001800620d0 f i _nodert_generated.obj
 0001:00061370       ?CreateVectorViewWrapper@?$VectorViewWrapper@PE$AAVGattLocalCharacteristic@GenericAttributeProfile@Bluetooth@Devices@Windows@@@Collections@NodeRT@@SA?AV?$Local@VValue@v8@@@v8@@PE$AAU?$IVectorView@PE$AAVGattLocalCharacteristic@GenericAttributeProfile@Bluetooth@Devices@Windows@@@2Foundation@Windows@@AEBV?$function@$$A6A?AV?$Local@VValue@v8@@@v8@@PE$AAVGattLocalCharacteristic@GenericAttributeProfile@Bluetooth@Devices@Windows@@@Z@std@@AEBV?$function@$$A6A_NV?$Local@VValue@v8@@@v8@@@Z@std@@AEBV?$function@$$A6APE$AAVGattLocalCharacteristic@GenericAttributeProfile@Bluetooth@Devices@Windows@@V?$Local@VValue@v8@@@v8@@@Z@std@@@Z 0000000180062370 f i _nodert_generated.obj
 0001:00061610       ?CreateVectorViewWrapper@?$VectorViewWrapper@PE$AAVGattLocalDescriptor@GenericAttributeProfile@Bluetooth@Devices@Windows@@@Collections@NodeRT@@SA?AV?$Local@VValue@v8@@@v8@@PE$AAU?$IVectorView@PE$AAVGattLocalDescriptor@GenericAttributeProfile@Bluetooth@Devices@Windows@@@2Foundation@Windows@@AEBV?$function@$$A6A?AV?$Local@VValue@v8@@@v8@@PE$AAVGattLocalDescriptor@GenericAttributeProfile@Bluetooth@Devices@Windows@@@Z@std@@AEBV?$function@$$A6A_NV?$Local@VValue@v8@@@v8@@@Z@std@@AEBV?$function@$$A6APE$AAVGattLocalDescriptor@GenericAttributeProfile@Bluetooth@Devices@Windows@@V?$Local@VValue@v8@@@v8@@@Z@std@@@Z 0000000180062610 f i _nodert_generated.obj
 0001:000618b0       ?CreateVectorViewWrapper@?$VectorViewWrapper@PE$AAVGattPresentationFormat@GenericAttributeProfile@Bluetooth@Devices@Windows@@@Collections@NodeRT@@SA?AV?$Local@VValue@v8@@@v8@@PE$AAU?$IVectorView@PE$AAVGattPresentationFormat@GenericAttributeProfile@Bluetooth@Devices@Windows@@@2Foundation@Windows@@AEBV?$function@$$A6A?AV?$Local@VValue@v8@@@v8@@PE$AAVGattPresentationFormat@GenericAttributeProfile@Bluetooth@Devices@Windows@@@Z@std@@AEBV?$function@$$A6A_NV?$Local@VValue@v8@@@v8@@@Z@std@@AEBV?$function@$$A6APE$AAVGattPresentationFormat@GenericAttributeProfile@Bluetooth@Devices@Windows@@V?$Local@VValue@v8@@@v8@@@Z@std@@@Z 00000001800628b0 f i _nodert_generated.obj
 0001:00061b50       ?CreateVectorViewWrapper@?$VectorViewWrapper@PE$AAVGattSubscribedClient@GenericAttributeProfile@Bluetooth@Devices@Windows@@@Collections@NodeRT@@SA?AV?$Local@VValue@v8@@@v8@@PE$AAU?$IVectorView@PE$AAVGattSubscribedClient@GenericAttributeProfile@Bluetooth@Devices@Windows@@@2Foundation@Windows@@AEBV?$function@$$A6A?AV?$Local@VValue@v8@@@v8@@PE$AAVGattSubscribedClient@GenericAttributeProfile@Bluetooth@Devices@Windows@@@Z@std@@AEBV?$function@$$A6A_NV?$Local@VValue@v8@@@v8@@@Z@std@@AEBV?$function@$$A6APE$AAVGattSubscribedClient@GenericAttributeProfile@Bluetooth@Devices@Windows@@V?$Local@VValue@v8@@@v8@@@Z@std@@@Z 0000000180062b50 f i _nodert_generated.obj
 0001:00061df0       ?CreateVectorWrapper@?$VectorWrapper@PE$AAVGattPresentationFormat@GenericAttributeProfile@Bluetooth@Devices@Windows@@@Collections@NodeRT@@SA?AV?$Local@VValue@v8@@@v8@@PE$AAU?$IVector@PE$AAVGattPresentationFormat@GenericAttributeProfile@Bluetooth@Devices@Windows@@@2Foundation@Windows@@AEBV?$function@$$A6A?AV?$Local@VValue@v8@@@v8@@PE$AAVGattPresentationFormat@GenericAttributeProfile@Bluetooth@Devices@Windows@@@Z@std@@AEBV?$function@$$A6A_NV?$Local@VValue@v8@@@v8@@@Z@std@@AEBV?$function@$$A6APE$AAVGattPresentationFormat@GenericAttributeProfile@Bluetooth@Devices@Windows@@V?$Local@VValue@v8@@@v8@@@Z@std@@@Z 0000000180062df0 f i _nodert_generated.obj
 0001:00061fb0       ?CscFeatureGetter@GattCharacteristicUuids@GenericAttributeProfile@Bluetooth@Devices@Windows@NodeRT@@CAXV?$Local@VString@v8@@@v8@@AEBV?$PropertyCallbackInfo@VValue@v8@@@Nan@@@Z 0000000180062fb0 f i _nodert_generated.obj
 0001:00062060       ?CscMeasurementGetter@GattCharacteristicUuids@GenericAttributeProfile@Bluetooth@Devices@Windows@NodeRT@@CAXV?$Local@VString@v8@@@v8@@AEBV?$PropertyCallbackInfo@VValue@v8@@@Nan@@@Z 0000000180063060 f i _nodert_generated.obj
 0001:00062110       ?CurrentGetter@?$IteratorWrapper@PE$AAVGattCharacteristic@GenericAttributeProfile@Bluetooth@Devices@Windows@@@Collections@NodeRT@@CAXV?$Local@VString@v8@@@v8@@AEBV?$PropertyCallbackInfo@VValue@v8@@@Nan@@@Z 0000000180063110 f i _nodert_generated.obj
 0001:000622a0       ?CurrentGetter@?$IteratorWrapper@PE$AAVGattClientNotificationResult@GenericAttributeProfile@Bluetooth@Devices@Windows@@@Collections@NodeRT@@CAXV?$Local@VString@v8@@@v8@@AEBV?$PropertyCallbackInfo@VValue@v8@@@Nan@@@Z 00000001800632a0 f i _nodert_generated.obj
 0001:00062430       ?CurrentGetter@?$IteratorWrapper@PE$AAVGattDescriptor@GenericAttributeProfile@Bluetooth@Devices@Windows@@@Collections@NodeRT@@CAXV?$Local@VString@v8@@@v8@@AEBV?$PropertyCallbackInfo@VValue@v8@@@Nan@@@Z 0000000180063430 f i _nodert_generated.obj
 0001:000625c0       ?CurrentGetter@?$IteratorWrapper@PE$AAVGattDeviceService@GenericAttributeProfile@Bluetooth@Devices@Windows@@@Collections@NodeRT@@CAXV?$Local@VString@v8@@@v8@@AEBV?$PropertyCallbackInfo@VValue@v8@@@Nan@@@Z 00000001800635c0 f i _nodert_generated.obj
 0001:00062750       ?CurrentGetter@?$IteratorWrapper@PE$AAVGattLocalCharacteristic@GenericAttributeProfile@Bluetooth@Devices@Windows@@@Collections@NodeRT@@CAXV?$Local@VString@v8@@@v8@@AEBV?$PropertyCallbackInfo@VValue@v8@@@Nan@@@Z 0000000180063750 f i _nodert_generated.obj
 0001:000628e0       ?CurrentGetter@?$IteratorWrapper@PE$AAVGattLocalDescriptor@GenericAttributeProfile@Bluetooth@Devices@Windows@@@Collections@NodeRT@@CAXV?$Local@VString@v8@@@v8@@AEBV?$PropertyCallbackInfo@VValue@v8@@@Nan@@@Z 00000001800638e0 f i _nodert_generated.obj
 0001:00062a70       ?CurrentGetter@?$IteratorWrapper@PE$AAVGattPresentationFormat@GenericAttributeProfile@Bluetooth@Devices@Windows@@@Collections@NodeRT@@CAXV?$Local@VString@v8@@@v8@@AEBV?$PropertyCallbackInfo@VValue@v8@@@Nan@@@Z 0000000180063a70 f i _nodert_generated.obj
 0001:00062c00       ?CurrentGetter@?$IteratorWrapper@PE$AAVGattSubscribedClient@GenericAttributeProfile@Bluetooth@Devices@Windows@@@Collections@NodeRT@@CAXV?$Local@VString@v8@@@v8@@AEBV?$PropertyCallbackInfo@VValue@v8@@@Nan@@@Z 0000000180063c00 f i _nodert_generated.obj
 0001:00062d90       ?CurrentTimeGetter@GattCharacteristicUuids@GenericAttributeProfile@Bluetooth@Devices@Windows@NodeRT@@CAXV?$Local@VString@v8@@@v8@@AEBV?$PropertyCallbackInfo@VValue@v8@@@Nan@@@Z 0000000180063d90 f i _nodert_generated.obj
 0001:00062e40       ?CurrentTimeGetter@GattServiceUuids@GenericAttributeProfile@Bluetooth@Devices@Windows@NodeRT@@CAXV?$Local@VString@v8@@@v8@@AEBV?$PropertyCallbackInfo@VValue@v8@@@Nan@@@Z 0000000180063e40 f i _nodert_generated.obj
 0001:00062ef0       ?CyclingPowerControlPointGetter@GattCharacteristicUuids@GenericAttributeProfile@Bluetooth@Devices@Windows@NodeRT@@CAXV?$Local@VString@v8@@@v8@@AEBV?$PropertyCallbackInfo@VValue@v8@@@Nan@@@Z 0000000180063ef0 f i _nodert_generated.obj
 0001:00062fa0       ?CyclingPowerFeatureGetter@GattCharacteristicUuids@GenericAttributeProfile@Bluetooth@Devices@Windows@NodeRT@@CAXV?$Local@VString@v8@@@v8@@AEBV?$PropertyCallbackInfo@VValue@v8@@@Nan@@@Z 0000000180063fa0 f i _nodert_generated.obj
 0001:00063050       ?CyclingPowerGetter@GattServiceUuids@GenericAttributeProfile@Bluetooth@Devices@Windows@NodeRT@@CAXV?$Local@VString@v8@@@v8@@AEBV?$PropertyCallbackInfo@VValue@v8@@@Nan@@@Z 0000000180064050 f i _nodert_generated.obj
 0001:00063100       ?CyclingPowerMeasurementGetter@GattCharacteristicUuids@GenericAttributeProfile@Bluetooth@Devices@Windows@NodeRT@@CAXV?$Local@VString@v8@@@v8@@AEBV?$PropertyCallbackInfo@VValue@v8@@@Nan@@@Z 0000000180064100 f i _nodert_generated.obj
 0001:000631b0       ?CyclingPowerVectorGetter@GattCharacteristicUuids@GenericAttributeProfile@Bluetooth@Devices@Windows@NodeRT@@CAXV?$Local@VString@v8@@@v8@@AEBV?$PropertyCallbackInfo@VValue@v8@@@Nan@@@Z 00000001800641b0 f i _nodert_generated.obj
 0001:00063260       ?CyclingSpeedAndCadenceGetter@GattServiceUuids@GenericAttributeProfile@Bluetooth@Devices@Windows@NodeRT@@CAXV?$Local@VString@v8@@@v8@@AEBV?$PropertyCallbackInfo@VValue@v8@@@Nan@@@Z 0000000180064260 f i _nodert_generated.obj
 0001:00063310       ?DUInt16Getter@GattPresentationFormatTypes@GenericAttributeProfile@Bluetooth@Devices@Windows@NodeRT@@CAXV?$Local@VString@v8@@@v8@@AEBV?$PropertyCallbackInfo@VValue@v8@@@Nan@@@Z 0000000180064310 f i _nodert_generated.obj
 0001:000633e0       ?DateTimeGetter@GattCharacteristicUuids@GenericAttributeProfile@Bluetooth@Devices@Windows@NodeRT@@CAXV?$Local@VString@v8@@@v8@@AEBV?$PropertyCallbackInfo@VValue@v8@@@Nan@@@Z 00000001800643e0 f i _nodert_generated.obj
 0001:00063490       ?DayDateTimeGetter@GattCharacteristicUuids@GenericAttributeProfile@Bluetooth@Devices@Windows@NodeRT@@CAXV?$Local@VString@v8@@@v8@@AEBV?$PropertyCallbackInfo@VValue@v8@@@Nan@@@Z 0000000180064490 f i _nodert_generated.obj
 0001:00063540       ?DayOfWeekGetter@GattCharacteristicUuids@GenericAttributeProfile@Bluetooth@Devices@Windows@NodeRT@@CAXV?$Local@VString@v8@@@v8@@AEBV?$PropertyCallbackInfo@VValue@v8@@@Nan@@@Z 0000000180064540 f i _nodert_generated.obj
 0001:000635f0       ?Decrement@__abi_FTMWeakRefData@@QECAKXZ 00000001800645f0 f i _nodert_generated.obj
 0001:000636a0       ?Delete@Nan@@YA?AV?$Maybe@_N@v8@@V?$Local@VObject@v8@@@3@V?$Local@VString@v8@@@3@@Z 00000001800646a0 f i _nodert_generated.obj
 0001:00063740       ?DescriptionGetter@GattPresentationFormat@GenericAttributeProfile@Bluetooth@Devices@Windows@NodeRT@@CAXV?$Local@VString@v8@@@v8@@AEBV?$PropertyCallbackInfo@VValue@v8@@@Nan@@@Z 0000000180064740 f i _nodert_generated.obj
 0001:00063860       ?DescriptorGetter@GattLocalDescriptorResult@GenericAttributeProfile@Bluetooth@Devices@Windows@NodeRT@@CAXV?$Local@VString@v8@@@v8@@AEBV?$PropertyCallbackInfo@VValue@v8@@@Nan@@@Z 0000000180064860 f i _nodert_generated.obj
 0001:000639b0       ?DescriptorsGetter@GattDescriptorsResult@GenericAttributeProfile@Bluetooth@Devices@Windows@NodeRT@@CAXV?$Local@VString@v8@@@v8@@AEBV?$PropertyCallbackInfo@VValue@v8@@@Nan@@@Z 00000001800649b0 f i _nodert_generated.obj
 0001:00063c50       ?DescriptorsGetter@GattLocalCharacteristic@GenericAttributeProfile@Bluetooth@Devices@Windows@NodeRT@@CAXV?$Local@VString@v8@@@v8@@AEBV?$PropertyCallbackInfo@VValue@v8@@@Nan@@@Z 0000000180064c50 f i _nodert_generated.obj
 0001:00063ef0       ?DeviceAccessInformationGetter@GattDeviceService@GenericAttributeProfile@Bluetooth@Devices@Windows@NodeRT@@CAXV?$Local@VString@v8@@@v8@@AEBV?$PropertyCallbackInfo@VValue@v8@@@Nan@@@Z 0000000180064ef0 f i _nodert_generated.obj
 0001:000640d0       ?DeviceGetter@GattDeviceService@GenericAttributeProfile@Bluetooth@Devices@Windows@NodeRT@@CAXV?$Local@VString@v8@@@v8@@AEBV?$PropertyCallbackInfo@VValue@v8@@@Nan@@@Z 00000001800650d0 f i _nodert_generated.obj
 0001:000642b0       ?DeviceIdGetter@GattDeviceService@GenericAttributeProfile@Bluetooth@Devices@Windows@NodeRT@@CAXV?$Local@VString@v8@@@v8@@AEBV?$PropertyCallbackInfo@VValue@v8@@@Nan@@@Z 00000001800652b0 f i _nodert_generated.obj
 0001:000643f0       ?DeviceIdGetter@GattSession@GenericAttributeProfile@Bluetooth@Devices@Windows@NodeRT@@CAXV?$Local@VString@v8@@@v8@@AEBV?$PropertyCallbackInfo@VValue@v8@@@Nan@@@Z 00000001800653f0 f i _nodert_generated.obj
 0001:00064550       ?DeviceInformationGetter@GattServiceUuids@GenericAttributeProfile@Bluetooth@Devices@Windows@NodeRT@@CAXV?$Local@VString@v8@@@v8@@AEBV?$PropertyCallbackInfo@VValue@v8@@@Nan@@@Z 0000000180065550 f i _nodert_generated.obj
 0001:00064600       ?DstOffsetGetter@GattCharacteristicUuids@GenericAttributeProfile@Bluetooth@Devices@Windows@NodeRT@@CAXV?$Local@VString@v8@@@v8@@AEBV?$PropertyCallbackInfo@VValue@v8@@@Nan@@@Z 0000000180065600 f i _nodert_generated.obj
 0001:000646b0       ?Equals@Nan@@YA?AV?$Maybe@_N@v8@@V?$Local@VValue@v8@@@3@0@Z 00000001800656b0 f i _nodert_generated.obj
 0001:00064740       ?ErrorGetter@GattLocalCharacteristicResult@GenericAttributeProfile@Bluetooth@Devices@Windows@NodeRT@@CAXV?$Local@VString@v8@@@v8@@AEBV?$PropertyCallbackInfo@VValue@v8@@@Nan@@@Z 0000000180065740 f i _nodert_generated.obj
 0001:00064860       ?ErrorGetter@GattLocalDescriptorResult@GenericAttributeProfile@Bluetooth@Devices@Windows@NodeRT@@CAXV?$Local@VString@v8@@@v8@@AEBV?$PropertyCallbackInfo@VValue@v8@@@Nan@@@Z 0000000180065860 f i _nodert_generated.obj
 0001:00064980       ?ErrorGetter@GattRequestStateChangedEventArgs@GenericAttributeProfile@Bluetooth@Devices@Windows@NodeRT@@CAXV?$Local@VString@v8@@@v8@@AEBV?$PropertyCallbackInfo@VValue@v8@@@Nan@@@Z 0000000180065980 f i _nodert_generated.obj
 0001:00064aa0       ?ErrorGetter@GattServiceProviderAdvertisementStatusChangedEventArgs@GenericAttributeProfile@Bluetooth@Devices@Windows@NodeRT@@CAXV?$Local@VString@v8@@@v8@@AEBV?$PropertyCallbackInfo@VValue@v8@@@Nan@@@Z 0000000180065aa0 f i _nodert_generated.obj
 0001:00064bc0       ?ErrorGetter@GattServiceProviderResult@GenericAttributeProfile@Bluetooth@Devices@Windows@NodeRT@@CAXV?$Local@VString@v8@@@v8@@AEBV?$PropertyCallbackInfo@VValue@v8@@@Nan@@@Z 0000000180065bc0 f i _nodert_generated.obj
 0001:00064ce0       ?ErrorGetter@GattSessionStatusChangedEventArgs@GenericAttributeProfile@Bluetooth@Devices@Windows@NodeRT@@CAXV?$Local@VString@v8@@@v8@@AEBV?$PropertyCallbackInfo@VValue@v8@@@Nan@@@Z 0000000180065ce0 f i _nodert_generated.obj
 0001:00064e00       ?ExactTime256Getter@GattCharacteristicUuids@GenericAttributeProfile@Bluetooth@Devices@Windows@NodeRT@@CAXV?$Local@VString@v8@@@v8@@AEBV?$PropertyCallbackInfo@VValue@v8@@@Nan@@@Z 0000000180065e00 f i _nodert_generated.obj
 0001:00064eb0       ?ExponentGetter@GattPresentationFormat@GenericAttributeProfile@Bluetooth@Devices@Windows@NodeRT@@CAXV?$Local@VString@v8@@@v8@@AEBV?$PropertyCallbackInfo@VValue@v8@@@Nan@@@Z 0000000180065eb0 f i _nodert_generated.obj
 0001:00064fd0       ?FirmwareRevisionStringGetter@GattCharacteristicUuids@GenericAttributeProfile@Bluetooth@Devices@Windows@NodeRT@@CAXV?$Local@VString@v8@@@v8@@AEBV?$PropertyCallbackInfo@VValue@v8@@@Nan@@@Z 0000000180065fd0 f i _nodert_generated.obj
 0001:00065080       ?First@?$IIterable@PE$AAVGattCharacteristic@GenericAttributeProfile@Bluetooth@Devices@Windows@@@Collections@Foundation@Windows@@UE$AAAPE$AAU?$IIterator@PE$AAVGattCharacteristic@GenericAttributeProfile@Bluetooth@Devices@Windows@@@234@XZ 0000000180066080 f i _nodert_generated.obj
 0001:00065100       ?First@?$IIterable@PE$AAVGattClientNotificationResult@GenericAttributeProfile@Bluetooth@Devices@Windows@@@Collections@Foundation@Windows@@UE$AAAPE$AAU?$IIterator@PE$AAVGattClientNotificationResult@GenericAttributeProfile@Bluetooth@Devices@Windows@@@234@XZ 0000000180066100 f i _nodert_generated.obj
 0001:00065180       ?First@?$IIterable@PE$AAVGattDescriptor@GenericAttributeProfile@Bluetooth@Devices@Windows@@@Collections@Foundation@Windows@@UE$AAAPE$AAU?$IIterator@PE$AAVGattDescriptor@GenericAttributeProfile@Bluetooth@Devices@Windows@@@234@XZ 0000000180066180 f i _nodert_generated.obj
 0001:00065200       ?First@?$IIterable@PE$AAVGattDeviceService@GenericAttributeProfile@Bluetooth@Devices@Windows@@@Collections@Foundation@Windows@@UE$AAAPE$AAU?$IIterator@PE$AAVGattDeviceService@GenericAttributeProfile@Bluetooth@Devices@Windows@@@234@XZ 0000000180066200 f i _nodert_generated.obj
 0001:00065280       ?First@?$IIterable@PE$AAVGattLocalCharacteristic@GenericAttributeProfile@Bluetooth@Devices@Windows@@@Collections@Foundation@Windows@@UE$AAAPE$AAU?$IIterator@PE$AAVGattLocalCharacteristic@GenericAttributeProfile@Bluetooth@Devices@Windows@@@234@XZ 0000000180066280 f i _nodert_generated.obj
 0001:00065300       ?First@?$IIterable@PE$AAVGattLocalDescriptor@GenericAttributeProfile@Bluetooth@Devices@Windows@@@Collections@Foundation@Windows@@UE$AAAPE$AAU?$IIterator@PE$AAVGattLocalDescriptor@GenericAttributeProfile@Bluetooth@Devices@Windows@@@234@XZ 0000000180066300 f i _nodert_generated.obj
 0001:00065380       ?First@?$IIterable@PE$AAVGattPresentationFormat@GenericAttributeProfile@Bluetooth@Devices@Windows@@@Collections@Foundation@Windows@@UE$AAAPE$AAU?$IIterator@PE$AAVGattPresentationFormat@GenericAttributeProfile@Bluetooth@Devices@Windows@@@234@XZ 0000000180066380 f i _nodert_generated.obj
 0001:00065400       ?First@?$IIterable@PE$AAVGattSubscribedClient@GenericAttributeProfile@Bluetooth@Devices@Windows@@@Collections@Foundation@Windows@@UE$AAAPE$AAU?$IIterator@PE$AAVGattSubscribedClient@GenericAttributeProfile@Bluetooth@Devices@Windows@@@234@XZ 0000000180066400 f i _nodert_generated.obj
 0001:00065480       ?First@?$VectorViewWrapper@PE$AAVGattCharacteristic@GenericAttributeProfile@Bluetooth@Devices@Windows@@@Collections@NodeRT@@CAXAEBV?$FunctionCallbackInfo@VValue@v8@@@Nan@@@Z 0000000180066480 f i _nodert_generated.obj
 0001:00065650       ?First@?$VectorViewWrapper@PE$AAVGattClientNotificationResult@GenericAttributeProfile@Bluetooth@Devices@Windows@@@Collections@NodeRT@@CAXAEBV?$FunctionCallbackInfo@VValue@v8@@@Nan@@@Z 0000000180066650 f i _nodert_generated.obj
 0001:00065820       ?First@?$VectorViewWrapper@PE$AAVGattDescriptor@GenericAttributeProfile@Bluetooth@Devices@Windows@@@Collections@NodeRT@@CAXAEBV?$FunctionCallbackInfo@VValue@v8@@@Nan@@@Z 0000000180066820 f i _nodert_generated.obj
 0001:000659f0       ?First@?$VectorViewWrapper@PE$AAVGattDeviceService@GenericAttributeProfile@Bluetooth@Devices@Windows@@@Collections@NodeRT@@CAXAEBV?$FunctionCallbackInfo@VValue@v8@@@Nan@@@Z 00000001800669f0 f i _nodert_generated.obj
 0001:00065bc0       ?First@?$VectorViewWrapper@PE$AAVGattLocalCharacteristic@GenericAttributeProfile@Bluetooth@Devices@Windows@@@Collections@NodeRT@@CAXAEBV?$FunctionCallbackInfo@VValue@v8@@@Nan@@@Z 0000000180066bc0 f i _nodert_generated.obj
 0001:00065d90       ?First@?$VectorViewWrapper@PE$AAVGattLocalDescriptor@GenericAttributeProfile@Bluetooth@Devices@Windows@@@Collections@NodeRT@@CAXAEBV?$FunctionCallbackInfo@VValue@v8@@@Nan@@@Z 0000000180066d90 f i _nodert_generated.obj
 0001:00065f60       ?First@?$VectorViewWrapper@PE$AAVGattPresentationFormat@GenericAttributeProfile@Bluetooth@Devices@Windows@@@Collections@NodeRT@@CAXAEBV?$FunctionCallbackInfo@VValue@v8@@@Nan@@@Z 0000000180066f60 f i _nodert_generated.obj
 0001:00066130       ?First@?$VectorViewWrapper@PE$AAVGattSubscribedClient@GenericAttributeProfile@Bluetooth@Devices@Windows@@@Collections@NodeRT@@CAXAEBV?$FunctionCallbackInfo@VValue@v8@@@Nan@@@Z 0000000180067130 f i _nodert_generated.obj
 0001:00066300       ?First@?$VectorWrapper@PE$AAVGattPresentationFormat@GenericAttributeProfile@Bluetooth@Devices@Windows@@@Collections@NodeRT@@CAXAEBV?$FunctionCallbackInfo@VValue@v8@@@Nan@@@Z 0000000180067300 f i _nodert_generated.obj
 0001:000664d0       ?Float32Getter@GattPresentationFormatTypes@GenericAttributeProfile@Bluetooth@Devices@Windows@NodeRT@@CAXV?$Local@VString@v8@@@v8@@AEBV?$PropertyCallbackInfo@VValue@v8@@@Nan@@@Z 00000001800674d0 f i _nodert_generated.obj
 0001:000665a0       ?Float64Getter@GattPresentationFormatTypes@GenericAttributeProfile@Bluetooth@Devices@Windows@NodeRT@@CAXV?$Local@VString@v8@@@v8@@AEBV?$PropertyCallbackInfo@VValue@v8@@@Nan@@@Z 00000001800675a0 f i _nodert_generated.obj
 0001:00066670       ?FloatGetter@GattPresentationFormatTypes@GenericAttributeProfile@Bluetooth@Devices@Windows@NodeRT@@CAXV?$Local@VString@v8@@@v8@@AEBV?$PropertyCallbackInfo@VValue@v8@@@Nan@@@Z 0000000180067670 f i _nodert_generated.obj
 0001:00066740       ?FormatTypeGetter@GattPresentationFormat@GenericAttributeProfile@Bluetooth@Devices@Windows@NodeRT@@CAXV?$Local@VString@v8@@@v8@@AEBV?$PropertyCallbackInfo@VValue@v8@@@Nan@@@Z 0000000180067740 f i _nodert_generated.obj
 0001:00066860       ?FromDeviceIdAsync@GattSession@GenericAttributeProfile@Bluetooth@Devices@Windows@@SAPE$AAU?$IAsyncOperation@PE$AAVGattSession@GenericAttributeProfile@Bluetooth@Devices@Windows@@@Foundation@5@PE$AAVBluetoothDeviceId@345@@Z 0000000180067860 f i _nodert_generated.obj
 0001:00066970       ?FromDeviceIdAsync@GattSession@GenericAttributeProfile@Bluetooth@Devices@Windows@NodeRT@@CAXAEBV?$FunctionCallbackInfo@VValue@v8@@@Nan@@@Z 0000000180067970 f i _nodert_generated.obj
 0001:00066d80       ?FromDeviceIdAsync@IGattSessionStatics@GenericAttributeProfile@Bluetooth@Devices@Windows@@UE$AAAPE$AAU?$IAsyncOperation@PE$AAVGattSession@GenericAttributeProfile@Bluetooth@Devices@Windows@@@Foundation@5@PE$AAVBluetoothDeviceId@345@@Z 0000000180067d80 f i _nodert_generated.obj
 0001:00066e00       ?FromIdAsync@GattDeviceService@GenericAttributeProfile@Bluetooth@Devices@Windows@@SAPE$AAU?$IAsyncOperation@PE$AAVGattDeviceService@GenericAttributeProfile@Bluetooth@Devices@Windows@@@Foundation@5@PE$AAVString@Platform@@@Z 0000000180067e00 f i _nodert_generated.obj
 0001:00066f10       ?FromIdAsync@GattDeviceService@GenericAttributeProfile@Bluetooth@Devices@Windows@@SAPE$AAU?$IAsyncOperation@PE$AAVGattDeviceService@GenericAttributeProfile@Bluetooth@Devices@Windows@@@Foundation@5@PE$AAVString@Platform@@W4GattSharingMode@2345@@Z 0000000180067f10 f i _nodert_generated.obj
 0001:00067020       ?FromIdAsync@GattDeviceService@GenericAttributeProfile@Bluetooth@Devices@Windows@NodeRT@@CAXAEBV?$FunctionCallbackInfo@VValue@v8@@@Nan@@@Z 0000000180068020 f i _nodert_generated.obj
 0001:00067600       ?FromIdAsync@IGattDeviceServiceStatics2@GenericAttributeProfile@Bluetooth@Devices@Windows@@UE$AAAPE$AAU?$IAsyncOperation@PE$AAVGattDeviceService@GenericAttributeProfile@Bluetooth@Devices@Windows@@@Foundation@5@PE$AAVString@Platform@@W4GattSharingMode@2345@@Z 0000000180068600 f i _nodert_generated.obj
 0001:00067680       ?FromIdAsync@IGattDeviceServiceStatics@GenericAttributeProfile@Bluetooth@Devices@Windows@@UE$AAAPE$AAU?$IAsyncOperation@PE$AAVGattDeviceService@GenericAttributeProfile@Bluetooth@Devices@Windows@@@Foundation@5@PE$AAVString@Platform@@@Z 0000000180068680 f i _nodert_generated.obj
 0001:00067700       ?FromParts@GattPresentationFormat@GenericAttributeProfile@Bluetooth@Devices@Windows@@SAPE$AAV12345@EHGEG@Z 0000000180068700 f i _nodert_generated.obj
 0001:00067850       ?FromParts@GattPresentationFormat@GenericAttributeProfile@Bluetooth@Devices@Windows@NodeRT@@CAXAEBV?$FunctionCallbackInfo@VValue@v8@@@Nan@@@Z 0000000180068850 f i _nodert_generated.obj
 0001:00067c90       ?FromParts@IGattPresentationFormatStatics2@GenericAttributeProfile@Bluetooth@Devices@Windows@@UE$AAAPE$AAVGattPresentationFormat@2345@EHGEG@Z 0000000180068c90 f i _nodert_generated.obj
 0001:00067e40       ?GapAppearanceGetter@GattCharacteristicUuids@GenericAttributeProfile@Bluetooth@Devices@Windows@NodeRT@@CAXV?$Local@VString@v8@@@v8@@AEBV?$PropertyCallbackInfo@VValue@v8@@@Nan@@@Z 0000000180068e40 f i _nodert_generated.obj
 0001:00067ef0       ?GapDeviceNameGetter@GattCharacteristicUuids@GenericAttributeProfile@Bluetooth@Devices@Windows@NodeRT@@CAXV?$Local@VString@v8@@@v8@@AEBV?$PropertyCallbackInfo@VValue@v8@@@Nan@@@Z 0000000180068ef0 f i _nodert_generated.obj
 0001:00067fa0       ?GapPeripheralPreferredConnectionParametersGetter@GattCharacteristicUuids@GenericAttributeProfile@Bluetooth@Devices@Windows@NodeRT@@CAXV?$Local@VString@v8@@@v8@@AEBV?$PropertyCallbackInfo@VValue@v8@@@Nan@@@Z 0000000180068fa0 f i _nodert_generated.obj
 0001:00068050       ?GapPeripheralPrivacyFlagGetter@GattCharacteristicUuids@GenericAttributeProfile@Bluetooth@Devices@Windows@NodeRT@@CAXV?$Local@VString@v8@@@v8@@AEBV?$PropertyCallbackInfo@VValue@v8@@@Nan@@@Z 0000000180069050 f i _nodert_generated.obj
 0001:00068100       ?GapReconnectionAddressGetter@GattCharacteristicUuids@GenericAttributeProfile@Bluetooth@Devices@Windows@NodeRT@@CAXV?$Local@VString@v8@@@v8@@AEBV?$PropertyCallbackInfo@VValue@v8@@@Nan@@@Z 0000000180069100 f i _nodert_generated.obj
 0001:000681b0       ?GattServiceChangedGetter@GattCharacteristicUuids@GenericAttributeProfile@Bluetooth@Devices@Windows@NodeRT@@CAXV?$Local@VString@v8@@@v8@@AEBV?$PropertyCallbackInfo@VValue@v8@@@Nan@@@Z 00000001800691b0 f i _nodert_generated.obj
 0001:00068260       ?GenericAccessGetter@GattServiceUuids@GenericAttributeProfile@Bluetooth@Devices@Windows@NodeRT@@CAXV?$Local@VString@v8@@@v8@@AEBV?$PropertyCallbackInfo@VValue@v8@@@Nan@@@Z 0000000180069260 f i _nodert_generated.obj
 0001:00068310       ?GenericAttributeGetter@GattServiceUuids@GenericAttributeProfile@Bluetooth@Devices@Windows@NodeRT@@CAXV?$Local@VString@v8@@@v8@@AEBV?$PropertyCallbackInfo@VValue@v8@@@Nan@@@Z 0000000180069310 f i _nodert_generated.obj
 0001:000683c0       ?Get@?$Agile@PE$AAU?$IVectorView@PE$AAVGattClientNotificationResult@GenericAttributeProfile@Bluetooth@Devices@Windows@@@Collections@Foundation@Windows@@$00@Platform@@QEBAPE$AAU?$IVectorView@PE$AAVGattClientNotificationResult@GenericAttributeProfile@Bluetooth@Devices@Windows@@@Collections@Foundation@Windows@@XZ 00000001800693c0 f i _nodert_generated.obj
 0001:00068580       ?Get@?$VectorViewWrapper@PE$AAVGattCharacteristic@GenericAttributeProfile@Bluetooth@Devices@Windows@@@Collections@NodeRT@@CAXIAEBV?$PropertyCallbackInfo@VValue@v8@@@Nan@@@Z 0000000180069580 f i _nodert_generated.obj
 0001:000686f0       ?Get@?$VectorViewWrapper@PE$AAVGattClientNotificationResult@GenericAttributeProfile@Bluetooth@Devices@Windows@@@Collections@NodeRT@@CAXIAEBV?$PropertyCallbackInfo@VValue@v8@@@Nan@@@Z 00000001800696f0 f i _nodert_generated.obj
 0001:00068860       ?Get@?$VectorViewWrapper@PE$AAVGattDescriptor@GenericAttributeProfile@Bluetooth@Devices@Windows@@@Collections@NodeRT@@CAXIAEBV?$PropertyCallbackInfo@VValue@v8@@@Nan@@@Z 0000000180069860 f i _nodert_generated.obj
 0001:000689d0       ?Get@?$VectorViewWrapper@PE$AAVGattDeviceService@GenericAttributeProfile@Bluetooth@Devices@Windows@@@Collections@NodeRT@@CAXIAEBV?$PropertyCallbackInfo@VValue@v8@@@Nan@@@Z 00000001800699d0 f i _nodert_generated.obj
 0001:00068b40       ?Get@?$VectorViewWrapper@PE$AAVGattLocalCharacteristic@GenericAttributeProfile@Bluetooth@Devices@Windows@@@Collections@NodeRT@@CAXIAEBV?$PropertyCallbackInfo@VValue@v8@@@Nan@@@Z 0000000180069b40 f i _nodert_generated.obj
 0001:00068cb0       ?Get@?$VectorViewWrapper@PE$AAVGattLocalDescriptor@GenericAttributeProfile@Bluetooth@Devices@Windows@@@Collections@NodeRT@@CAXIAEBV?$PropertyCallbackInfo@VValue@v8@@@Nan@@@Z 0000000180069cb0 f i _nodert_generated.obj
 0001:00068e20       ?Get@?$VectorViewWrapper@PE$AAVGattPresentationFormat@GenericAttributeProfile@Bluetooth@Devices@Windows@@@Collections@NodeRT@@CAXIAEBV?$PropertyCallbackInfo@VValue@v8@@@Nan@@@Z 0000000180069e20 f i _nodert_generated.obj
 0001:00068f90       ?Get@?$VectorViewWrapper@PE$AAVGattSubscribedClient@GenericAttributeProfile@Bluetooth@Devices@Windows@@@Collections@NodeRT@@CAXIAEBV?$PropertyCallbackInfo@VValue@v8@@@Nan@@@Z 0000000180069f90 f i _nodert_generated.obj
 0001:00069100       ?Get@?$VectorWrapper@PE$AAVGattPresentationFormat@GenericAttributeProfile@Bluetooth@Devices@Windows@@@Collections@NodeRT@@CAXIAEBV?$PropertyCallbackInfo@VValue@v8@@@Nan@@@Z 000000018006a100 f i _nodert_generated.obj
 0001:00069270       ?Get@Nan@@YA?AV?$MaybeLocal@VValue@v8@@@v8@@V?$Local@VObject@v8@@@3@V?$Local@VValue@v8@@@3@@Z 000000018006a270 f i _nodert_generated.obj
 0001:00069320       ?GetAllCharacteristics@GattDeviceService@GenericAttributeProfile@Bluetooth@Devices@Windows@NodeRT@@CAXAEBV?$FunctionCallbackInfo@VValue@v8@@@Nan@@@Z 000000018006a320 f i _nodert_generated.obj
 0001:00069680       ?GetAllCharacteristics@IGattDeviceService2@GenericAttributeProfile@Bluetooth@Devices@Windows@@UE$AAAPE$AAU?$IVectorView@PE$AAVGattCharacteristic@GenericAttributeProfile@Bluetooth@Devices@Windows@@@Collections@Foundation@5@XZ 000000018006a680 f i _nodert_generated.obj
 0001:00069700       ?GetAllDescriptors@GattCharacteristic@GenericAttributeProfile@Bluetooth@Devices@Windows@NodeRT@@CAXAEBV?$FunctionCallbackInfo@VValue@v8@@@Nan@@@Z 000000018006a700 f i _nodert_generated.obj
 0001:00069a60       ?GetAllDescriptors@IGattCharacteristic2@GenericAttributeProfile@Bluetooth@Devices@Windows@@UE$AAAPE$AAU?$IVectorView@PE$AAVGattDescriptor@GenericAttributeProfile@Bluetooth@Devices@Windows@@@Collections@Foundation@5@XZ 000000018006aa60 f i _nodert_generated.obj
 0001:00069ae0       ?GetAllIncludedServices@GattDeviceService@GenericAttributeProfile@Bluetooth@Devices@Windows@NodeRT@@CAXAEBV?$FunctionCallbackInfo@VValue@v8@@@Nan@@@Z 000000018006aae0 f i _nodert_generated.obj
 0001:00069e40       ?GetAllIncludedServices@IGattDeviceService2@GenericAttributeProfile@Bluetooth@Devices@Windows@@UE$AAAPE$AAU?$IVectorView@PE$AAVGattDeviceService@GenericAttributeProfile@Bluetooth@Devices@Windows@@@Collections@Foundation@5@XZ 000000018006ae40 f i _nodert_generated.obj
 0001:00069ec0       ?GetAt@?$IVector@PE$AAVGattPresentationFormat@GenericAttributeProfile@Bluetooth@Devices@Windows@@@Collections@Foundation@Windows@@UE$AAAPE$AAVGattPresentationFormat@GenericAttributeProfile@Bluetooth@Devices@4@I@Z 000000018006aec0 f i _nodert_generated.obj
 0001:00069f40       ?GetAt@?$IVectorView@PE$AAVGattCharacteristic@GenericAttributeProfile@Bluetooth@Devices@Windows@@@Collections@Foundation@Windows@@UE$AAAPE$AAVGattCharacteristic@GenericAttributeProfile@Bluetooth@Devices@4@I@Z 000000018006af40 f i _nodert_generated.obj
 0001:00069fc0       ?GetAt@?$IVectorView@PE$AAVGattClientNotificationResult@GenericAttributeProfile@Bluetooth@Devices@Windows@@@Collections@Foundation@Windows@@UE$AAAPE$AAVGattClientNotificationResult@GenericAttributeProfile@Bluetooth@Devices@4@I@Z 000000018006afc0 f i _nodert_generated.obj
 0001:0006a040       ?GetAt@?$IVectorView@PE$AAVGattDescriptor@GenericAttributeProfile@Bluetooth@Devices@Windows@@@Collections@Foundation@Windows@@UE$AAAPE$AAVGattDescriptor@GenericAttributeProfile@Bluetooth@Devices@4@I@Z 000000018006b040 f i _nodert_generated.obj
 0001:0006a0c0       ?GetAt@?$IVectorView@PE$AAVGattDeviceService@GenericAttributeProfile@Bluetooth@Devices@Windows@@@Collections@Foundation@Windows@@UE$AAAPE$AAVGattDeviceService@GenericAttributeProfile@Bluetooth@Devices@4@I@Z 000000018006b0c0 f i _nodert_generated.obj
 0001:0006a140       ?GetAt@?$IVectorView@PE$AAVGattLocalCharacteristic@GenericAttributeProfile@Bluetooth@Devices@Windows@@@Collections@Foundation@Windows@@UE$AAAPE$AAVGattLocalCharacteristic@GenericAttributeProfile@Bluetooth@Devices@4@I@Z 000000018006b140 f i _nodert_generated.obj
 0001:0006a1c0       ?GetAt@?$IVectorView@PE$AAVGattLocalDescriptor@GenericAttributeProfile@Bluetooth@Devices@Windows@@@Collections@Foundation@Windows@@UE$AAAPE$AAVGattLocalDescriptor@GenericAttributeProfile@Bluetooth@Devices@4@I@Z 000000018006b1c0 f i _nodert_generated.obj
 0001:0006a240       ?GetAt@?$IVectorView@PE$AAVGattPresentationFormat@GenericAttributeProfile@Bluetooth@Devices@Windows@@@Collections@Foundation@Windows@@UE$AAAPE$AAVGattPresentationFormat@GenericAttributeProfile@Bluetooth@Devices@4@I@Z 000000018006b240 f i _nodert_generated.obj
 0001:0006a2c0       ?GetAt@?$IVectorView@PE$AAVGattSubscribedClient@GenericAttributeProfile@Bluetooth@Devices@Windows@@@Collections@Foundation@Windows@@UE$AAAPE$AAVGattSubscribedClient@GenericAttributeProfile@Bluetooth@Devices@4@I@Z 000000018006b2c0 f i _nodert_generated.obj
 0001:0006a340       ?GetAt@?$VectorViewWrapper@PE$AAVGattCharacteristic@GenericAttributeProfile@Bluetooth@Devices@Windows@@@Collections@NodeRT@@CAXAEBV?$FunctionCallbackInfo@VValue@v8@@@Nan@@@Z 000000018006b340 f i _nodert_generated.obj
 0001:0006a580       ?GetAt@?$VectorViewWrapper@PE$AAVGattClientNotificationResult@GenericAttributeProfile@Bluetooth@Devices@Windows@@@Collections@NodeRT@@CAXAEBV?$FunctionCallbackInfo@VValue@v8@@@Nan@@@Z 000000018006b580 f i _nodert_generated.obj
 0001:0006a7c0       ?GetAt@?$VectorViewWrapper@PE$AAVGattDescriptor@GenericAttributeProfile@Bluetooth@Devices@Windows@@@Collections@NodeRT@@CAXAEBV?$FunctionCallbackInfo@VValue@v8@@@Nan@@@Z 000000018006b7c0 f i _nodert_generated.obj
 0001:0006aa00       ?GetAt@?$VectorViewWrapper@PE$AAVGattDeviceService@GenericAttributeProfile@Bluetooth@Devices@Windows@@@Collections@NodeRT@@CAXAEBV?$FunctionCallbackInfo@VValue@v8@@@Nan@@@Z 000000018006ba00 f i _nodert_generated.obj
 0001:0006ac40       ?GetAt@?$VectorViewWrapper@PE$AAVGattLocalCharacteristic@GenericAttributeProfile@Bluetooth@Devices@Windows@@@Collections@NodeRT@@CAXAEBV?$FunctionCallbackInfo@VValue@v8@@@Nan@@@Z 000000018006bc40 f i _nodert_generated.obj
 0001:0006ae80       ?GetAt@?$VectorViewWrapper@PE$AAVGattLocalDescriptor@GenericAttributeProfile@Bluetooth@Devices@Windows@@@Collections@NodeRT@@CAXAEBV?$FunctionCallbackInfo@VValue@v8@@@Nan@@@Z 000000018006be80 f i _nodert_generated.obj
 0001:0006b0c0       ?GetAt@?$VectorViewWrapper@PE$AAVGattPresentationFormat@GenericAttributeProfile@Bluetooth@Devices@Windows@@@Collections@NodeRT@@CAXAEBV?$FunctionCallbackInfo@VValue@v8@@@Nan@@@Z 000000018006c0c0 f i _nodert_generated.obj
 0001:0006b300       ?GetAt@?$VectorViewWrapper@PE$AAVGattSubscribedClient@GenericAttributeProfile@Bluetooth@Devices@Windows@@@Collections@NodeRT@@CAXAEBV?$FunctionCallbackInfo@VValue@v8@@@Nan@@@Z 000000018006c300 f i _nodert_generated.obj
 0001:0006b540       ?GetAt@?$VectorWrapper@PE$AAVGattPresentationFormat@GenericAttributeProfile@Bluetooth@Devices@Windows@@@Collections@NodeRT@@CAXAEBV?$FunctionCallbackInfo@VValue@v8@@@Nan@@@Z 000000018006c540 f i _nodert_generated.obj
 0001:0006b780       ?GetCharacteristics@GattDeviceService@GenericAttributeProfile@Bluetooth@Devices@Windows@NodeRT@@CAXAEBV?$FunctionCallbackInfo@VValue@v8@@@Nan@@@Z 000000018006c780 f i _nodert_generated.obj
 0001:0006bb10       ?GetCharacteristics@IGattDeviceService@GenericAttributeProfile@Bluetooth@Devices@Windows@@UE$AAAPE$AAU?$IVectorView@PE$AAVGattCharacteristic@GenericAttributeProfile@Bluetooth@Devices@Windows@@@Collections@Foundation@5@VGuid@Platform@@@Z 000000018006cb10 f i _nodert_generated.obj
 0001:0006bba0       ?GetCharacteristicsAsync@GattDeviceService@GenericAttributeProfile@Bluetooth@Devices@Windows@NodeRT@@CAXAEBV?$FunctionCallbackInfo@VValue@v8@@@Nan@@@Z 000000018006cba0 f i _nodert_generated.obj
 0001:0006c070       ?GetCharacteristicsAsync@IGattDeviceService3@GenericAttributeProfile@Bluetooth@Devices@Windows@@UE$AAAPE$AAU?$IAsyncOperation@PE$AAVGattCharacteristicsResult@GenericAttributeProfile@Bluetooth@Devices@Windows@@@Foundation@5@W4BluetoothCacheMode@345@@Z 000000018006d070 f i _nodert_generated.obj
 0001:0006c0f0       ?GetCharacteristicsAsync@IGattDeviceService3@GenericAttributeProfile@Bluetooth@Devices@Windows@@UE$AAAPE$AAU?$IAsyncOperation@PE$AAVGattCharacteristicsResult@GenericAttributeProfile@Bluetooth@Devices@Windows@@@Foundation@5@XZ 000000018006d0f0 f i _nodert_generated.obj
 0001:0006c170       ?GetCharacteristicsForUuidAsync@GattDeviceService@GenericAttributeProfile@Bluetooth@Devices@Windows@NodeRT@@CAXAEBV?$FunctionCallbackInfo@VValue@v8@@@Nan@@@Z 000000018006d170 f i _nodert_generated.obj
 0001:0006c800       ?GetCharacteristicsForUuidAsync@IGattDeviceService3@GenericAttributeProfile@Bluetooth@Devices@Windows@@UE$AAAPE$AAU?$IAsyncOperation@PE$AAVGattCharacteristicsResult@GenericAttributeProfile@Bluetooth@Devices@Windows@@@Foundation@5@VGuid@Platform@@@Z 000000018006d800 f i _nodert_generated.obj
 0001:0006c890       ?GetCharacteristicsForUuidAsync@IGattDeviceService3@GenericAttributeProfile@Bluetooth@Devices@Windows@@UE$AAAPE$AAU?$IAsyncOperation@PE$AAVGattCharacteristicsResult@GenericAttributeProfile@Bluetooth@Devices@Windows@@@Foundation@5@VGuid@Platform@@W4BluetoothCacheMode@345@@Z 000000018006d890 f i _nodert_generated.obj
 0001:0006c920       ?GetDeferral@GattReadRequestedEventArgs@GenericAttributeProfile@Bluetooth@Devices@Windows@NodeRT@@CAXAEBV?$FunctionCallbackInfo@VValue@v8@@@Nan@@@Z 000000018006d920 f i _nodert_generated.obj
 0001:0006cac0       ?GetDeferral@GattWriteRequestedEventArgs@GenericAttributeProfile@Bluetooth@Devices@Windows@NodeRT@@CAXAEBV?$FunctionCallbackInfo@VValue@v8@@@Nan@@@Z 000000018006dac0 f i _nodert_generated.obj
 0001:0006cc60       ?GetDeferral@IGattReadRequestedEventArgs@GenericAttributeProfile@Bluetooth@Devices@Windows@@UE$AAAPE$AAVDeferral@Foundation@5@XZ 000000018006dc60 f i _nodert_generated.obj
 0001:0006cce0       ?GetDeferral@IGattWriteRequestedEventArgs@GenericAttributeProfile@Bluetooth@Devices@Windows@@UE$AAAPE$AAVDeferral@Foundation@5@XZ 000000018006dce0 f i _nodert_generated.obj
 0001:0006cd60       ?GetDescriptors@GattCharacteristic@GenericAttributeProfile@Bluetooth@Devices@Windows@NodeRT@@CAXAEBV?$FunctionCallbackInfo@VValue@v8@@@Nan@@@Z 000000018006dd60 f i _nodert_generated.obj
 0001:0006d0f0       ?GetDescriptors@IGattCharacteristic@GenericAttributeProfile@Bluetooth@Devices@Windows@@UE$AAAPE$AAU?$IVectorView@PE$AAVGattDescriptor@GenericAttributeProfile@Bluetooth@Devices@Windows@@@Collections@Foundation@5@VGuid@Platform@@@Z 000000018006e0f0 f i _nodert_generated.obj
 0001:0006d180       ?GetDescriptorsAsync@GattCharacteristic@GenericAttributeProfile@Bluetooth@Devices@Windows@NodeRT@@CAXAEBV?$FunctionCallbackInfo@VValue@v8@@@Nan@@@Z 000000018006e180 f i _nodert_generated.obj
 0001:0006d650       ?GetDescriptorsAsync@IGattCharacteristic3@GenericAttributeProfile@Bluetooth@Devices@Windows@@UE$AAAPE$AAU?$IAsyncOperation@PE$AAVGattDescriptorsResult@GenericAttributeProfile@Bluetooth@Devices@Windows@@@Foundation@5@W4BluetoothCacheMode@345@@Z 000000018006e650 f i _nodert_generated.obj
 0001:0006d6d0       ?GetDescriptorsAsync@IGattCharacteristic3@GenericAttributeProfile@Bluetooth@Devices@Windows@@UE$AAAPE$AAU?$IAsyncOperation@PE$AAVGattDescriptorsResult@GenericAttributeProfile@Bluetooth@Devices@Windows@@@Foundation@5@XZ 000000018006e6d0 f i _nodert_generated.obj
 0001:0006d750       ?GetDescriptorsForUuidAsync@GattCharacteristic@GenericAttributeProfile@Bluetooth@Devices@Windows@NodeRT@@CAXAEBV?$FunctionCallbackInfo@VValue@v8@@@Nan@@@Z 000000018006e750 f i _nodert_generated.obj
