 binding

 Timestamp is 5c52a9a5 (Thu Jan 31 16:54:13 2019)

 Preferred load address is 0000000180000000

 Start         Length     Name                   Class
 0001:00000000 00004b40H .text$di                CODE
 0001:00004b40 00046f30H .text$mn                CODE
 0001:0004ba70 00001020H .text$mn$00             CODE
 0001:0004ca90 00008e70H .text$x                 CODE
 0001:00055900 0000141cH .text$yd                CODE
 0002:00000000 00000110H .CRT$XCA                DATA
 0002:00000110 00000110H .CRT$XCL                DATA
 0002:00000220 000002a8H .CRT$XCU                DATA
 0002:000004c8 00000110H .CRT$XCZ                DATA
 0002:000005d8 00000110H .CRT$XIA                DATA
 0002:000006e8 00000110H .CRT$XIC                DATA
 0002:000007f8 00000110H .CRT$XIYB               DATA
 0002:00000908 00000110H .CRT$XIZ                DATA
 0002:00000a18 00000008H .CRT$XLA                DATA
 0002:00000a20 00000008H .CRT$XLZ                DATA
 0002:00000a28 00000110H .CRT$XPA                DATA
 0002:00000b38 00000110H .CRT$XPZ                DATA
 0002:00000c48 00000110H .CRT$XTA                DATA
 0002:00000d58 00000118H .CRT$XTZ                DATA
 0002:00000e70 0000af90H .rdata                  DATA
 0002:0000be00 00000130H .rdata$T                DATA
 0002:0000bf30 00000648H .rdata$r                DATA
 0002:0000c578 000001d8H .rdata$zzzdbg           DATA
 0002:0000c750 00000110H .rtc$IAA                DATA
 0002:0000c860 00000110H .rtc$IZZ                DATA
 0002:0000c970 00000110H .rtc$TAA                DATA
 0002:0000ca80 00000110H .rtc$TZZ                DATA
 0002:0000cb90 00016720H .xdata                  DATA
 0002:000232b0 00000490H .xdata$x                DATA
 0002:00023740 00000162H .edata                  DATA
 0003:00000000 00002790H .data                   DATA
 0003:00002790 00000e30H .data$r                 DATA
 0003:000035c0 00000a21H .bss                    DATA
 0004:00000000 00004c80H .pdata                  DATA
 0005:00000000 00000830H .idata$5                DATA
 0005:00000830 000000c8H .idata$2                DATA
 0005:000008f8 00000018H .idata$3                DATA
 0005:00000910 00000830H .idata$4                DATA
 0005:00001140 0000133aH .idata$6                DATA
 0006:00000000 00000020H .didat$2                DATA
 0006:00000020 00000020H .didat$3                DATA
 0006:00000040 00000370H .didat$4                DATA
 0006:000003b0 00000370H .didat$5                DATA
 0006:00000720 00001ae0H .didat$6                DATA
 0006:00002200 000003e3H .didat$7                DATA
 0007:00000000 00000110H minATL$__a              DATA
 0007:00000110 00000110H minATL$__m              DATA
 0007:00000220 00000109H minATL$__z              DATA
 0008:00000000 00000232H .gfids$y                DATA
 0009:00000000 00000104H .tls                    DATA
 0009:00000104 00000104H .tls$                   DATA
 0009:00000208 00000101H .tls$ZZZ                DATA
 000a:00000000 0000011bH .00cfg                  DATA
 000b:00000000 00000170H .rsrc$01                DATA
 000b:00000170 000002ccH .rsrc$02                DATA

  Address         Publics by Value              Rva+Base               Lib:Object

 0000:00000000       __guard_iat_table          0000000000000000     <absolute>
 0000:00000000       __guard_fids_count         0000000000000000     <absolute>
 0000:00000000       __dynamic_value_reloc_table 0000000000000000     <absolute>
 0000:00000000       __guard_iat_count          0000000000000000     <absolute>
 0000:00000000       ___safe_se_handler_count   0000000000000000     <absolute>
 0000:00000000       __guard_fids_table         0000000000000000     <absolute>
 0000:00000000       __guard_longjmp_table      0000000000000000     <absolute>
 0000:00000000       __guard_longjmp_count      0000000000000000     <absolute>
 0000:00000000       ___safe_se_handler_table   0000000000000000     <absolute>
 0000:00000100       __guard_flags              0000000000000100     <absolute>
 0000:00000000       __ImageBase                0000000180000000     <linker-defined>
 0001:00004b40       ?__abi_winrt_cast_use_helper@@YAPE$AAVObject@Platform@@_NPEAXAEBU_GUID@@PEAU__abi_IUnknown@@@Z 0000000180005b40 f i _nodert_generated.obj
 0001:00004bc0       ?init@@YAXV?$Local@VObject@v8@@@v8@@@Z 0000000180005bc0 f   _nodert_generated.obj
 0001:00004ce0       ?_Copy@?$_Func_impl@V<lambda_058e118d0cb39557fbb1f2a131aaaa50>@@V?$allocator@H@std@@_NV?$Local@VValue@v8@@@v8@@@std@@EEBAPEAV?$_Func_base@_NV?$Local@VValue@v8@@@v8@@@2@PEAX@Z 0000000180005ce0 f i _nodert_generated.obj
 0001:00004d00       ?_Move@?$_Func_impl@V<lambda_058e118d0cb39557fbb1f2a131aaaa50>@@V?$allocator@H@std@@_NV?$Local@VValue@v8@@@v8@@@std@@EEAAPEAV?$_Func_base@_NV?$Local@VValue@v8@@@v8@@@2@PEAX@Z 0000000180005d00 f i _nodert_generated.obj
 0001:00004d20       ?_Do_call@?$_Func_impl@V<lambda_058e118d0cb39557fbb1f2a131aaaa50>@@V?$allocator@H@std@@_NV?$Local@VValue@v8@@@v8@@@std@@EEAA_N$$QEAV?$Local@VValue@v8@@@v8@@@Z 0000000180005d20 f i _nodert_generated.obj
 0001:00004d50       ?_Target_type@?$_Func_impl@V<lambda_058e118d0cb39557fbb1f2a131aaaa50>@@V?$allocator@H@std@@_NV?$Local@VValue@v8@@@v8@@@std@@EEBAAEBVtype_info@@XZ 0000000180005d50 f i _nodert_generated.obj
 0001:00004d60       ?_Get@?$_Func_impl@V<lambda_058e118d0cb39557fbb1f2a131aaaa50>@@V?$allocator@H@std@@_NV?$Local@VValue@v8@@@v8@@@std@@EEBAPEBXXZ 0000000180005d60 f i _nodert_generated.obj
 0001:00004d70       ?_Delete_this@?$_Func_impl@V<lambda_058e118d0cb39557fbb1f2a131aaaa50>@@V?$allocator@H@std@@_NV?$Local@VValue@v8@@@v8@@@std@@EEAAX_N@Z 0000000180005d70 f i _nodert_generated.obj
 0001:00004d90       ?<Dispose>@?QIDisposable@Platform@@?$Array@PE$AAVBluetoothLEAdvertisementBytePattern@Advertisement@Bluetooth@Devices@Windows@@$00@2@UE$AAAXXZ 0000000180005d90 f i _nodert_generated.obj
 0001:00004dc0       ?<Dispose>@?QIDisposable@Platform@@?$Array@PE$AAVBluetoothLEAdvertisementBytePattern@Advertisement@Bluetooth@Devices@Windows@@$00@2@WBI@E$AAAXXZ 0000000180005dc0 f i _nodert_generated.obj
 0001:00004dcc       ?<Dispose>@?QIDisposable@Platform@@?$Array@PE$AAVBluetoothLEAdvertisementBytePattern@Advertisement@Bluetooth@Devices@Windows@@$00@2@WCI@E$AAAXXZ 0000000180005dcc f i _nodert_generated.obj
 0001:00004de0       ?<Dispose>@?QIDisposable@Platform@@?$Array@PE$AAVBluetoothLEAdvertisementDataSection@Advertisement@Bluetooth@Devices@Windows@@$00@2@UE$AAAXXZ 0000000180005de0 f i _nodert_generated.obj
 0001:00004e10       ?<Dispose>@?QIDisposable@Platform@@?$Array@PE$AAVBluetoothLEAdvertisementDataSection@Advertisement@Bluetooth@Devices@Windows@@$00@2@WBI@E$AAAXXZ 0000000180005e10 f i _nodert_generated.obj
 0001:00004e1c       ?<Dispose>@?QIDisposable@Platform@@?$Array@PE$AAVBluetoothLEAdvertisementDataSection@Advertisement@Bluetooth@Devices@Windows@@$00@2@WCI@E$AAAXXZ 0000000180005e1c f i _nodert_generated.obj
 0001:00004e30       ?<Dispose>@?QIDisposable@Platform@@?$Array@PE$AAVBluetoothLEManufacturerData@Advertisement@Bluetooth@Devices@Windows@@$00@2@UE$AAAXXZ 0000000180005e30 f i _nodert_generated.obj
 0001:00004e60       ?<Dispose>@?QIDisposable@Platform@@?$Array@PE$AAVBluetoothLEManufacturerData@Advertisement@Bluetooth@Devices@Windows@@$00@2@WBI@E$AAAXXZ 0000000180005e60 f i _nodert_generated.obj
 0001:00004e6c       ?<Dispose>@?QIDisposable@Platform@@?$Array@PE$AAVBluetoothLEManufacturerData@Advertisement@Bluetooth@Devices@Windows@@$00@2@WCI@E$AAAXXZ 0000000180005e6c f i _nodert_generated.obj
 0001:00004e80       ?<Dispose>@?QIDisposable@Platform@@?$Array@VGuid@Platform@@$00@2@UE$AAAXXZ 0000000180005e80 f i _nodert_generated.obj
 0001:00004eec       ?<Dispose>@?QIDisposable@Platform@@?$Array@VGuid@Platform@@$00@2@WBI@E$AAAXXZ 0000000180005eec f i _nodert_generated.obj
 0001:00004ef8       ?<Dispose>@?QIDisposable@Platform@@?$Array@VGuid@Platform@@$00@2@WCI@E$AAAXXZ 0000000180005ef8 f i _nodert_generated.obj
 0001:00004f10       ?<Dispose>@?QIDisposable@Platform@@?$WriteOnlyArray@PE$AAVBluetoothLEAdvertisementBytePattern@Advertisement@Bluetooth@Devices@Windows@@$00@2@UE$AAAXXZ 0000000180005f10 f i _nodert_generated.obj
 0001:00004f24       ?<Dispose>@?QIDisposable@Platform@@?$WriteOnlyArray@PE$AAVBluetoothLEAdvertisementBytePattern@Advertisement@Bluetooth@Devices@Windows@@$00@2@W7E$AAAXXZ 0000000180005f24 f i _nodert_generated.obj
 0001:00004f30       ?<Dispose>@?QIDisposable@Platform@@?$WriteOnlyArray@PE$AAVBluetoothLEAdvertisementDataSection@Advertisement@Bluetooth@Devices@Windows@@$00@2@UE$AAAXXZ 0000000180005f30 f i _nodert_generated.obj
 0001:00004f44       ?<Dispose>@?QIDisposable@Platform@@?$WriteOnlyArray@PE$AAVBluetoothLEAdvertisementDataSection@Advertisement@Bluetooth@Devices@Windows@@$00@2@W7E$AAAXXZ 0000000180005f44 f i _nodert_generated.obj
 0001:00004f50       ?<Dispose>@?QIDisposable@Platform@@?$WriteOnlyArray@PE$AAVBluetoothLEManufacturerData@Advertisement@Bluetooth@Devices@Windows@@$00@2@UE$AAAXXZ 0000000180005f50 f i _nodert_generated.obj
 0001:00004f64       ?<Dispose>@?QIDisposable@Platform@@?$WriteOnlyArray@PE$AAVBluetoothLEManufacturerData@Advertisement@Bluetooth@Devices@Windows@@$00@2@W7E$AAAXXZ 0000000180005f64 f i _nodert_generated.obj
 0001:00004f70       ?<Dispose>@?QIDisposable@Platform@@?$WriteOnlyArray@VGuid@Platform@@$00@2@UE$AAAXXZ 0000000180005f70 f i _nodert_generated.obj
 0001:00004fb8       ?<Dispose>@?QIDisposable@Platform@@?$WriteOnlyArray@VGuid@Platform@@$00@2@W7E$AAAXXZ 0000000180005fb8 f i _nodert_generated.obj
 0001:00004fd0       ?<Dispose>@IDisposable@Platform@@UE$AAAXXZ 0000000180005fd0 f i _nodert_generated.obj
 0001:00005000       ??$?0AEBV?$allocator@H@std@@@?$_Wrap_alloc@V?$allocator@V?$_Func_impl@V<lambda_058e118d0cb39557fbb1f2a131aaaa50>@@V?$allocator@H@std@@_NV?$Local@VValue@v8@@@v8@@@std@@@std@@@std@@QEAA@AEBV?$allocator@H@1@@Z 0000000180006000 f i _nodert_generated.obj
 0001:00005010       ??$?0AEBV?$allocator@H@std@@V<lambda_058e118d0cb39557fbb1f2a131aaaa50>@@@?$_Compressed_pair@V?$allocator@H@std@@V<lambda_058e118d0cb39557fbb1f2a131aaaa50>@@$00@std@@QEAA@U_One_then_variadic_args_t@1@AEBV?$allocator@H@1@$$QEAV<lambda_058e118d0cb39557fbb1f2a131aaaa50>@@@Z 0000000180006010 f i _nodert_generated.obj
 0001:00005020       ??$?0V<lambda_237595074df0c8017b22e4dbeff6e432>@@@?$TypedEventHandler@PE$AAVBluetoothLEAdvertisementWatcher@Advertisement@Bluetooth@Devices@Windows@@PE$AAVBluetoothLEAdvertisementReceivedEventArgs@2345@@Foundation@Windows@@QE$AAA@V<lambda_237595074df0c8017b22e4dbeff6e432>@@W4CallbackContext@Platform@@_N@Z 0000000180006020 f i _nodert_generated.obj
 0001:00005180       ??$?0V<lambda_7027264ebf1117594dd4155ebab65c3d>@@@?$TypedEventHandler@PE$AAVBluetoothLEAdvertisementWatcher@Advertisement@Bluetooth@Devices@Windows@@PE$AAVBluetoothLEAdvertisementWatcherStoppedEventArgs@2345@@Foundation@Windows@@QE$AAA@V<lambda_7027264ebf1117594dd4155ebab65c3d>@@W4CallbackContext@Platform@@_N@Z 0000000180006180 f i _nodert_generated.obj
 0001:000052e0       ??$?0V<lambda_73d2589d6f7f5ba1a0f6aa6530cd3b8a>@@@?$TypedEventHandler@PE$AAVBluetoothLEAdvertisementPublisher@Advertisement@Bluetooth@Devices@Windows@@PE$AAVBluetoothLEAdvertisementPublisherStatusChangedEventArgs@2345@@Foundation@Windows@@QE$AAA@V<lambda_73d2589d6f7f5ba1a0f6aa6530cd3b8a>@@W4CallbackContext@Platform@@_N@Z 00000001800062e0 f i _nodert_generated.obj
 0001:00005440       ??$?4AEAV?$function@$$A6AXXZ@std@@XX@?$function@$$A6AXXZ@std@@QEAAAEAV01@AEAV01@@Z 0000000180006440 f i _nodert_generated.obj
 0001:000054f0       ??$IsWinRtWrapperOf@P$01E$AAV?$Array@PE$AAVBluetoothLEAdvertisementBytePattern@Advertisement@Bluetooth@Devices@Windows@@$00@Platform@@@Utils@NodeRT@@YA_NV?$Local@VValue@v8@@@v8@@@Z 00000001800064f0 f i _nodert_generated.obj
 0001:00005660       ??$IsWinRtWrapperOf@P$01E$AAV?$Array@PE$AAVBluetoothLEAdvertisementDataSection@Advertisement@Bluetooth@Devices@Windows@@$00@Platform@@@Utils@NodeRT@@YA_NV?$Local@VValue@v8@@@v8@@@Z 0000000180006660 f i _nodert_generated.obj
 0001:000057d0       ??$IsWinRtWrapperOf@P$01E$AAV?$Array@PE$AAVBluetoothLEManufacturerData@Advertisement@Bluetooth@Devices@Windows@@$00@Platform@@@Utils@NodeRT@@YA_NV?$Local@VValue@v8@@@v8@@@Z 00000001800067d0 f i _nodert_generated.obj
 0001:00005940       ??$IsWinRtWrapperOf@P$01E$AAV?$Array@VGuid@Platform@@$00@Platform@@@Utils@NodeRT@@YA_NV?$Local@VValue@v8@@@v8@@@Z 0000000180006940 f i _nodert_generated.obj
 0001:00005ab0       ??$IsWinRtWrapperOf@PE$AAU?$IIterator@PE$AAVBluetoothLEAdvertisementBytePattern@Advertisement@Bluetooth@Devices@Windows@@@Collections@Foundation@Windows@@@Utils@NodeRT@@YA_NV?$Local@VValue@v8@@@v8@@@Z 0000000180006ab0 f i _nodert_generated.obj
 0001:00005c20       ??$IsWinRtWrapperOf@PE$AAU?$IIterator@PE$AAVBluetoothLEAdvertisementDataSection@Advertisement@Bluetooth@Devices@Windows@@@Collections@Foundation@Windows@@@Utils@NodeRT@@YA_NV?$Local@VValue@v8@@@v8@@@Z 0000000180006c20 f i _nodert_generated.obj
 0001:00005d90       ??$IsWinRtWrapperOf@PE$AAU?$IIterator@PE$AAVBluetoothLEManufacturerData@Advertisement@Bluetooth@Devices@Windows@@@Collections@Foundation@Windows@@@Utils@NodeRT@@YA_NV?$Local@VValue@v8@@@v8@@@Z 0000000180006d90 f i _nodert_generated.obj
 0001:00005f00       ??$IsWinRtWrapperOf@PE$AAU?$IIterator@VGuid@Platform@@@Collections@Foundation@Windows@@@Utils@NodeRT@@YA_NV?$Local@VValue@v8@@@v8@@@Z 0000000180006f00 f i _nodert_generated.obj
 0001:00006070       ??$IsWinRtWrapperOf@PE$AAU?$IVector@PE$AAVBluetoothLEAdvertisementBytePattern@Advertisement@Bluetooth@Devices@Windows@@@Collections@Foundation@Windows@@@Utils@NodeRT@@YA_NV?$Local@VValue@v8@@@v8@@@Z 0000000180007070 f i _nodert_generated.obj
 0001:000061e0       ??$IsWinRtWrapperOf@PE$AAU?$IVector@PE$AAVBluetoothLEAdvertisementDataSection@Advertisement@Bluetooth@Devices@Windows@@@Collections@Foundation@Windows@@@Utils@NodeRT@@YA_NV?$Local@VValue@v8@@@v8@@@Z 00000001800071e0 f i _nodert_generated.obj
 0001:00006350       ??$IsWinRtWrapperOf@PE$AAU?$IVector@PE$AAVBluetoothLEManufacturerData@Advertisement@Bluetooth@Devices@Windows@@@Collections@Foundation@Windows@@@Utils@NodeRT@@YA_NV?$Local@VValue@v8@@@v8@@@Z 0000000180007350 f i _nodert_generated.obj
 0001:000064c0       ??$IsWinRtWrapperOf@PE$AAU?$IVector@VGuid@Platform@@@Collections@Foundation@Windows@@@Utils@NodeRT@@YA_NV?$Local@VValue@v8@@@v8@@@Z 00000001800074c0 f i _nodert_generated.obj
 0001:00006630       ??$IsWinRtWrapperOf@PE$AAU?$IVectorView@PE$AAVBluetoothLEAdvertisementBytePattern@Advertisement@Bluetooth@Devices@Windows@@@Collections@Foundation@Windows@@@Utils@NodeRT@@YA_NV?$Local@VValue@v8@@@v8@@@Z 0000000180007630 f i _nodert_generated.obj
 0001:000067a0       ??$IsWinRtWrapperOf@PE$AAU?$IVectorView@PE$AAVBluetoothLEAdvertisementDataSection@Advertisement@Bluetooth@Devices@Windows@@@Collections@Foundation@Windows@@@Utils@NodeRT@@YA_NV?$Local@VValue@v8@@@v8@@@Z 00000001800077a0 f i _nodert_generated.obj
 0001:00006910       ??$IsWinRtWrapperOf@PE$AAU?$IVectorView@PE$AAVBluetoothLEManufacturerData@Advertisement@Bluetooth@Devices@Windows@@@Collections@Foundation@Windows@@@Utils@NodeRT@@YA_NV?$Local@VValue@v8@@@v8@@@Z 0000000180007910 f i _nodert_generated.obj
 0001:00006a80       ??$IsWinRtWrapperOf@PE$AAU?$IVectorView@VGuid@Platform@@@Collections@Foundation@Windows@@@Utils@NodeRT@@YA_NV?$Local@VValue@v8@@@v8@@@Z 0000000180007a80 f i _nodert_generated.obj
 0001:00006bf0       ??$IsWinRtWrapperOf@PE$AAUIBuffer@Streams@Storage@Windows@@@Utils@NodeRT@@YA_NV?$Local@VValue@v8@@@v8@@@Z 0000000180007bf0 f i _nodert_generated.obj
 0001:00006d60       ??$IsWinRtWrapperOf@PE$AAVBluetoothLEAdvertisement@Advertisement@Bluetooth@Devices@Windows@@@Utils@NodeRT@@YA_NV?$Local@VValue@v8@@@v8@@@Z 0000000180007d60 f i _nodert_generated.obj
 0001:00006ed0       ??$IsWinRtWrapperOf@PE$AAVBluetoothLEAdvertisementBytePattern@Advertisement@Bluetooth@Devices@Windows@@@Utils@NodeRT@@YA_NV?$Local@VValue@v8@@@v8@@@Z 0000000180007ed0 f i _nodert_generated.obj
 0001:00007040       ??$IsWinRtWrapperOf@PE$AAVBluetoothLEAdvertisementDataSection@Advertisement@Bluetooth@Devices@Windows@@@Utils@NodeRT@@YA_NV?$Local@VValue@v8@@@v8@@@Z 0000000180008040 f i _nodert_generated.obj
 0001:000071b0       ??$IsWinRtWrapperOf@PE$AAVBluetoothLEAdvertisementDataTypes@Advertisement@Bluetooth@Devices@Windows@@@Utils@NodeRT@@YA_NV?$Local@VValue@v8@@@v8@@@Z 00000001800081b0 f i _nodert_generated.obj
 0001:00007320       ??$IsWinRtWrapperOf@PE$AAVBluetoothLEAdvertisementFilter@Advertisement@Bluetooth@Devices@Windows@@@Utils@NodeRT@@YA_NV?$Local@VValue@v8@@@v8@@@Z 0000000180008320 f i _nodert_generated.obj
 0001:00007490       ??$IsWinRtWrapperOf@PE$AAVBluetoothLEAdvertisementPublisher@Advertisement@Bluetooth@Devices@Windows@@@Utils@NodeRT@@YA_NV?$Local@VValue@v8@@@v8@@@Z 0000000180008490 f i _nodert_generated.obj
 0001:00007600       ??$IsWinRtWrapperOf@PE$AAVBluetoothLEAdvertisementPublisherStatusChangedEventArgs@Advertisement@Bluetooth@Devices@Windows@@@Utils@NodeRT@@YA_NV?$Local@VValue@v8@@@v8@@@Z 0000000180008600 f i _nodert_generated.obj
 0001:00007770       ??$IsWinRtWrapperOf@PE$AAVBluetoothLEAdvertisementReceivedEventArgs@Advertisement@Bluetooth@Devices@Windows@@@Utils@NodeRT@@YA_NV?$Local@VValue@v8@@@v8@@@Z 0000000180008770 f i _nodert_generated.obj
 0001:000078e0       ??$IsWinRtWrapperOf@PE$AAVBluetoothLEAdvertisementWatcher@Advertisement@Bluetooth@Devices@Windows@@@Utils@NodeRT@@YA_NV?$Local@VValue@v8@@@v8@@@Z 00000001800088e0 f i _nodert_generated.obj
 0001:00007a50       ??$IsWinRtWrapperOf@PE$AAVBluetoothLEAdvertisementWatcherStoppedEventArgs@Advertisement@Bluetooth@Devices@Windows@@@Utils@NodeRT@@YA_NV?$Local@VValue@v8@@@v8@@@Z 0000000180008a50 f i _nodert_generated.obj
 0001:00007bc0       ??$IsWinRtWrapperOf@PE$AAVBluetoothLEManufacturerData@Advertisement@Bluetooth@Devices@Windows@@@Utils@NodeRT@@YA_NV?$Local@VValue@v8@@@v8@@@Z 0000000180008bc0 f i _nodert_generated.obj
 0001:00007d30       ??$IsWinRtWrapperOf@PE$AAVBluetoothSignalStrengthFilter@Bluetooth@Devices@Windows@@@Utils@NodeRT@@YA_NV?$Local@VValue@v8@@@v8@@@Z 0000000180008d30 f i _nodert_generated.obj
 0001:00007ea0       ??$New@VBoolean@v8@@_N@Nan@@YA?AV?$Local@VBoolean@v8@@@v8@@_N@Z 0000000180008ea0 f i _nodert_generated.obj
 0001:00007f00       ??$New@VExternal@v8@@PEAX@Nan@@YA?AV?$Local@VExternal@v8@@@v8@@PEAX@Z 0000000180008f00 f i _nodert_generated.obj
 0001:00007f40       ??$New@VFunctionTemplate@v8@@@Nan@@YA?AV?$Local@VFunctionTemplate@v8@@@v8@@P6AXAEBV?$FunctionCallbackInfo@VValue@v8@@@0@@ZV?$Local@VValue@v8@@@2@@Z 0000000180008f40 f i _nodert_generated.obj
 0001:00007f60       ??$New@VFunctionTemplate@v8@@V?$Local@VSignature@v8@@@2@@Nan@@YA?AV?$Local@VFunctionTemplate@v8@@@v8@@P6AXAEBV?$FunctionCallbackInfo@VValue@v8@@@0@@ZV?$Local@VValue@v8@@@2@V?$Local@VSignature@v8@@@2@@Z 0000000180008f60 f i _nodert_generated.obj
 0001:00007f80       ??$New@VInteger@v8@@E@Nan@@YA?AV?$Local@VInteger@v8@@@v8@@E@Z 0000000180008f80 f i _nodert_generated.obj
 0001:00007ff0       ??$New@VInteger@v8@@F@Nan@@YA?AV?$Local@VInteger@v8@@@v8@@F@Z 0000000180008ff0 f i _nodert_generated.obj
 0001:00008060       ??$New@VInteger@v8@@G@Nan@@YA?AV?$Local@VInteger@v8@@@v8@@G@Z 0000000180009060 f i _nodert_generated.obj
 0001:000080d0       ??$New@VInteger@v8@@H@Nan@@YA?AV?$Local@VInteger@v8@@@v8@@H@Z 00000001800090d0 f i _nodert_generated.obj
 0001:00008140       ??$New@VInteger@v8@@I@Nan@@YA?AV?$Local@VInteger@v8@@@v8@@I@Z 0000000180009140 f i _nodert_generated.obj
 0001:000081b0       ??$New@VNumber@v8@@N@Nan@@YA?AV?$Local@VNumber@v8@@@v8@@N@Z 00000001800091b0 f i _nodert_generated.obj
 0001:00008200       ??$New@VObject@v8@@@Nan@@YA?AV?$Local@VObject@v8@@@v8@@XZ 0000000180009200 f i _nodert_generated.obj
 0001:00008230       ??$New@VObjectTemplate@v8@@@Nan@@YA?AV?$Local@VObjectTemplate@v8@@@v8@@XZ 0000000180009230 f i _nodert_generated.obj
 0001:00008260       ??$New@VSignature@v8@@V?$Local@VFunctionTemplate@v8@@@2@@Nan@@YA?AV?$Local@VSignature@v8@@@v8@@V?$Local@VFunctionTemplate@v8@@@2@@Z 0000000180009260 f i _nodert_generated.obj
 0001:000082a0       ??$New@VString@v8@@PEBD@Nan@@YA?AV?$MaybeLocal@VString@v8@@@v8@@PEBD@Z 00000001800092a0 f i _nodert_generated.obj
 0001:000082f0       ??$Reset@VObject@v8@@@?$Persistent@VObject@v8@@V?$NonCopyablePersistentTraits@VObject@v8@@@2@@Nan@@QEAAXAEBV?$Local@VObject@v8@@@v8@@@Z 00000001800092f0 f i _nodert_generated.obj
 0001:00008360       ??$SetMethod@VObject@v8@@VLocal@2@@Nan@@YAXV?$Local@VObject@v8@@@v8@@PEBDP6AXAEBV?$FunctionCallbackInfo@VValue@v8@@@0@@Z@Z 0000000180009360 f i _nodert_generated.obj
 0001:00008450       ??$SetMethodAux@V?$Local@VObject@v8@@@v8@@@imp@Nan@@YAXV?$Local@VObject@v8@@@v8@@V?$Local@VString@v8@@@3@V?$Local@VFunctionTemplate@v8@@@3@ZZ 0000000180009450 f i _nodert_generated.obj
 0001:000084c0       ??$ToStringInternal@$00@?$CustomBox@W4BluetoothLEAdvertisementFlags@Advertisement@Bluetooth@Devices@Windows@@@Details@Platform@@AE$AAAPE$AAVString@2@XZ 00000001800094c0 f i _nodert_generated.obj
 0001:000085b0       ??$Unwrap@V?$IteratorWrapper@PE$AAVBluetoothLEAdvertisementBytePattern@Advertisement@Bluetooth@Devices@Windows@@@Collections@NodeRT@@@ObjectWrap@Nan@@SAPEAV?$IteratorWrapper@PE$AAVBluetoothLEAdvertisementBytePattern@Advertisement@Bluetooth@Devices@Windows@@@Collections@NodeRT@@V?$Local@VObject@v8@@@v8@@@Z 00000001800095b0 f i _nodert_generated.obj
 0001:00008660       ??$Unwrap@V?$IteratorWrapper@PE$AAVBluetoothLEAdvertisementDataSection@Advertisement@Bluetooth@Devices@Windows@@@Collections@NodeRT@@@ObjectWrap@Nan@@SAPEAV?$IteratorWrapper@PE$AAVBluetoothLEAdvertisementDataSection@Advertisement@Bluetooth@Devices@Windows@@@Collections@NodeRT@@V?$Local@VObject@v8@@@v8@@@Z 0000000180009660 f i _nodert_generated.obj
 0001:00008710       ??$Unwrap@V?$IteratorWrapper@PE$AAVBluetoothLEManufacturerData@Advertisement@Bluetooth@Devices@Windows@@@Collections@NodeRT@@@ObjectWrap@Nan@@SAPEAV?$IteratorWrapper@PE$AAVBluetoothLEManufacturerData@Advertisement@Bluetooth@Devices@Windows@@@Collections@NodeRT@@V?$Local@VObject@v8@@@v8@@@Z 0000000180009710 f i _nodert_generated.obj
 0001:000087c0       ??$Unwrap@V?$IteratorWrapper@VGuid@Platform@@@Collections@NodeRT@@@ObjectWrap@Nan@@SAPEAV?$IteratorWrapper@VGuid@Platform@@@Collections@NodeRT@@V?$Local@VObject@v8@@@v8@@@Z 00000001800097c0 f i _nodert_generated.obj
 0001:00008870       ??$Unwrap@V?$VectorViewWrapper@PE$AAVBluetoothLEAdvertisementBytePattern@Advertisement@Bluetooth@Devices@Windows@@@Collections@NodeRT@@@ObjectWrap@Nan@@SAPEAV?$VectorViewWrapper@PE$AAVBluetoothLEAdvertisementBytePattern@Advertisement@Bluetooth@Devices@Windows@@@Collections@NodeRT@@V?$Local@VObject@v8@@@v8@@@Z 0000000180009870 f i _nodert_generated.obj
 0001:00008920       ??$Unwrap@V?$VectorViewWrapper@PE$AAVBluetoothLEAdvertisementDataSection@Advertisement@Bluetooth@Devices@Windows@@@Collections@NodeRT@@@ObjectWrap@Nan@@SAPEAV?$VectorViewWrapper@PE$AAVBluetoothLEAdvertisementDataSection@Advertisement@Bluetooth@Devices@Windows@@@Collections@NodeRT@@V?$Local@VObject@v8@@@v8@@@Z 0000000180009920 f i _nodert_generated.obj
 0001:000089d0       ??$Unwrap@V?$VectorViewWrapper@PE$AAVBluetoothLEManufacturerData@Advertisement@Bluetooth@Devices@Windows@@@Collections@NodeRT@@@ObjectWrap@Nan@@SAPEAV?$VectorViewWrapper@PE$AAVBluetoothLEManufacturerData@Advertisement@Bluetooth@Devices@Windows@@@Collections@NodeRT@@V?$Local@VObject@v8@@@v8@@@Z 00000001800099d0 f i _nodert_generated.obj
 0001:00008a80       ??$Unwrap@V?$VectorViewWrapper@VGuid@Platform@@@Collections@NodeRT@@@ObjectWrap@Nan@@SAPEAV?$VectorViewWrapper@VGuid@Platform@@@Collections@NodeRT@@V?$Local@VObject@v8@@@v8@@@Z 0000000180009a80 f i _nodert_generated.obj
 0001:00008b30       ??$Unwrap@V?$VectorWrapper@PE$AAVBluetoothLEAdvertisementBytePattern@Advertisement@Bluetooth@Devices@Windows@@@Collections@NodeRT@@@ObjectWrap@Nan@@SAPEAV?$VectorWrapper@PE$AAVBluetoothLEAdvertisementBytePattern@Advertisement@Bluetooth@Devices@Windows@@@Collections@NodeRT@@V?$Local@VObject@v8@@@v8@@@Z 0000000180009b30 f i _nodert_generated.obj
 0001:00008be0       ??$Unwrap@V?$VectorWrapper@PE$AAVBluetoothLEAdvertisementDataSection@Advertisement@Bluetooth@Devices@Windows@@@Collections@NodeRT@@@ObjectWrap@Nan@@SAPEAV?$VectorWrapper@PE$AAVBluetoothLEAdvertisementDataSection@Advertisement@Bluetooth@Devices@Windows@@@Collections@NodeRT@@V?$Local@VObject@v8@@@v8@@@Z 0000000180009be0 f i _nodert_generated.obj
 0001:00008c90       ??$Unwrap@V?$VectorWrapper@PE$AAVBluetoothLEManufacturerData@Advertisement@Bluetooth@Devices@Windows@@@Collections@NodeRT@@@ObjectWrap@Nan@@SAPEAV?$VectorWrapper@PE$AAVBluetoothLEManufacturerData@Advertisement@Bluetooth@Devices@Windows@@@Collections@NodeRT@@V?$Local@VObject@v8@@@v8@@@Z 0000000180009c90 f i _nodert_generated.obj
 0001:00008d40       ??$Unwrap@V?$VectorWrapper@VGuid@Platform@@@Collections@NodeRT@@@ObjectWrap@Nan@@SAPEAV?$VectorWrapper@VGuid@Platform@@@Collections@NodeRT@@V?$Local@VObject@v8@@@v8@@@Z 0000000180009d40 f i _nodert_generated.obj
 0001:00008df0       ??$Unwrap@VBluetoothLEAdvertisement@Advertisement@Bluetooth@Devices@Windows@NodeRT@@@ObjectWrap@Nan@@SAPEAVBluetoothLEAdvertisement@Advertisement@Bluetooth@Devices@Windows@NodeRT@@V?$Local@VObject@v8@@@v8@@@Z 0000000180009df0 f i _nodert_generated.obj
 0001:00008ea0       ??$Unwrap@VBluetoothLEAdvertisementBytePattern@Advertisement@Bluetooth@Devices@Windows@NodeRT@@@ObjectWrap@Nan@@SAPEAVBluetoothLEAdvertisementBytePattern@Advertisement@Bluetooth@Devices@Windows@NodeRT@@V?$Local@VObject@v8@@@v8@@@Z 0000000180009ea0 f i _nodert_generated.obj
 0001:00008f50       ??$Unwrap@VBluetoothLEAdvertisementDataSection@Advertisement@Bluetooth@Devices@Windows@NodeRT@@@ObjectWrap@Nan@@SAPEAVBluetoothLEAdvertisementDataSection@Advertisement@Bluetooth@Devices@Windows@NodeRT@@V?$Local@VObject@v8@@@v8@@@Z 0000000180009f50 f i _nodert_generated.obj
 0001:00009000       ??$Unwrap@VBluetoothLEAdvertisementDataTypes@Advertisement@Bluetooth@Devices@Windows@NodeRT@@@ObjectWrap@Nan@@SAPEAVBluetoothLEAdvertisementDataTypes@Advertisement@Bluetooth@Devices@Windows@NodeRT@@V?$Local@VObject@v8@@@v8@@@Z 000000018000a000 f i _nodert_generated.obj
 0001:000090b0       ??$Unwrap@VBluetoothLEAdvertisementFilter@Advertisement@Bluetooth@Devices@Windows@NodeRT@@@ObjectWrap@Nan@@SAPEAVBluetoothLEAdvertisementFilter@Advertisement@Bluetooth@Devices@Windows@NodeRT@@V?$Local@VObject@v8@@@v8@@@Z 000000018000a0b0 f i _nodert_generated.obj
 0001:00009160       ??$Unwrap@VBluetoothLEAdvertisementPublisher@Advertisement@Bluetooth@Devices@Windows@NodeRT@@@ObjectWrap@Nan@@SAPEAVBluetoothLEAdvertisementPublisher@Advertisement@Bluetooth@Devices@Windows@NodeRT@@V?$Local@VObject@v8@@@v8@@@Z 000000018000a160 f i _nodert_generated.obj
 0001:00009210       ??$Unwrap@VBluetoothLEAdvertisementPublisherStatusChangedEventArgs@Advertisement@Bluetooth@Devices@Windows@NodeRT@@@ObjectWrap@Nan@@SAPEAVBluetoothLEAdvertisementPublisherStatusChangedEventArgs@Advertisement@Bluetooth@Devices@Windows@NodeRT@@V?$Local@VObject@v8@@@v8@@@Z 000000018000a210 f i _nodert_generated.obj
 0001:000092c0       ??$Unwrap@VBluetoothLEAdvertisementReceivedEventArgs@Advertisement@Bluetooth@Devices@Windows@NodeRT@@@ObjectWrap@Nan@@SAPEAVBluetoothLEAdvertisementReceivedEventArgs@Advertisement@Bluetooth@Devices@Windows@NodeRT@@V?$Local@VObject@v8@@@v8@@@Z 000000018000a2c0 f i _nodert_generated.obj
 0001:00009370       ??$Unwrap@VBluetoothLEAdvertisementWatcher@Advertisement@Bluetooth@Devices@Windows@NodeRT@@@ObjectWrap@Nan@@SAPEAVBluetoothLEAdvertisementWatcher@Advertisement@Bluetooth@Devices@Windows@NodeRT@@V?$Local@VObject@v8@@@v8@@@Z 000000018000a370 f i _nodert_generated.obj
 0001:00009420       ??$Unwrap@VBluetoothLEAdvertisementWatcherStoppedEventArgs@Advertisement@Bluetooth@Devices@Windows@NodeRT@@@ObjectWrap@Nan@@SAPEAVBluetoothLEAdvertisementWatcherStoppedEventArgs@Advertisement@Bluetooth@Devices@Windows@NodeRT@@V?$Local@VObject@v8@@@v8@@@Z 000000018000a420 f i _nodert_generated.obj
 0001:000094d0       ??$Unwrap@VBluetoothLEManufacturerData@Advertisement@Bluetooth@Devices@Windows@NodeRT@@@ObjectWrap@Nan@@SAPEAVBluetoothLEManufacturerData@Advertisement@Bluetooth@Devices@Windows@NodeRT@@V?$Local@VObject@v8@@@v8@@@Z 000000018000a4d0 f i _nodert_generated.obj
 0001:00009580       ??$Unwrap@VOpaqueWrapper@NodeRT@@@ObjectWrap@Nan@@SAPEAVOpaqueWrapper@NodeRT@@V?$Local@VObject@v8@@@v8@@@Z 000000018000a580 f i _nodert_generated.obj
 0001:00009630       ??$Unwrap@VWrapperBase@NodeRT@@@ObjectWrap@Nan@@SAPEAVWrapperBase@NodeRT@@V?$Local@VObject@v8@@@v8@@@Z 000000018000a630 f i _nodert_generated.obj
 0001:000096e0       ??$_Invoke_ret@PE$AAVBluetoothLEAdvertisementBytePattern@Advertisement@Bluetooth@Devices@Windows@@AEAV<lambda_4463207407c68c7d36ca12cd70016193>@@V?$Local@VValue@v8@@@v8@@@std@@YAPE$AAVBluetoothLEAdvertisementBytePattern@Advertisement@Bluetooth@Devices@Windows@@U?$_Forced@PE$AAVBluetoothLEAdvertisementBytePattern@Advertisement@Bluetooth@Devices@Windows@@$0A@@0@AEAV<lambda_4463207407c68c7d36ca12cd70016193>@@$$QEAV?$Local@VValue@v8@@@v8@@@Z 000000018000a6e0 f i _nodert_generated.obj
 0001:00009780       ??$_Invoke_ret@PE$AAVBluetoothLEAdvertisementDataSection@Advertisement@Bluetooth@Devices@Windows@@AEAV<lambda_ac17bd2cadf98042e21e07a1caf6a194>@@V?$Local@VValue@v8@@@v8@@@std@@YAPE$AAVBluetoothLEAdvertisementDataSection@Advertisement@Bluetooth@Devices@Windows@@U?$_Forced@PE$AAVBluetoothLEAdvertisementDataSection@Advertisement@Bluetooth@Devices@Windows@@$0A@@0@AEAV<lambda_ac17bd2cadf98042e21e07a1caf6a194>@@$$QEAV?$Local@VValue@v8@@@v8@@@Z 000000018000a780 f i _nodert_generated.obj
 0001:00009820       ??$_Invoke_ret@PE$AAVBluetoothLEAdvertisementDataSection@Advertisement@Bluetooth@Devices@Windows@@AEAV<lambda_d8d33de05d7b79e795a8008ef007f86e>@@V?$Local@VValue@v8@@@v8@@@std@@YAPE$AAVBluetoothLEAdvertisementDataSection@Advertisement@Bluetooth@Devices@Windows@@U?$_Forced@PE$AAVBluetoothLEAdvertisementDataSection@Advertisement@Bluetooth@Devices@Windows@@$0A@@0@AEAV<lambda_d8d33de05d7b79e795a8008ef007f86e>@@$$QEAV?$Local@VValue@v8@@@v8@@@Z 000000018000a820 f i _nodert_generated.obj
 0001:000098c0       ??$_Invoke_ret@PE$AAVBluetoothLEManufacturerData@Advertisement@Bluetooth@Devices@Windows@@AEAV<lambda_274ebad6e66cd704c8f9f6a92063cf98>@@V?$Local@VValue@v8@@@v8@@@std@@YAPE$AAVBluetoothLEManufacturerData@Advertisement@Bluetooth@Devices@Windows@@U?$_Forced@PE$AAVBluetoothLEManufacturerData@Advertisement@Bluetooth@Devices@Windows@@$0A@@0@AEAV<lambda_274ebad6e66cd704c8f9f6a92063cf98>@@$$QEAV?$Local@VValue@v8@@@v8@@@Z 000000018000a8c0 f i _nodert_generated.obj
 0001:00009960       ??$_Invoke_ret@PE$AAVBluetoothLEManufacturerData@Advertisement@Bluetooth@Devices@Windows@@AEAV<lambda_2a9ef30eb72dc05ade045c5168f16b94>@@V?$Local@VValue@v8@@@v8@@@std@@YAPE$AAVBluetoothLEManufacturerData@Advertisement@Bluetooth@Devices@Windows@@U?$_Forced@PE$AAVBluetoothLEManufacturerData@Advertisement@Bluetooth@Devices@Windows@@$0A@@0@AEAV<lambda_2a9ef30eb72dc05ade045c5168f16b94>@@$$QEAV?$Local@VValue@v8@@@v8@@@Z 000000018000a960 f i _nodert_generated.obj
 0001:00009a00       ??$__abi_array_to_raw@PE$AAVBluetoothLEAdvertisementBytePattern@Advertisement@Bluetooth@Devices@Windows@@PE$AAV12345@$00@Details@Platform@@YAPEAPE$AAVBluetoothLEAdvertisementBytePattern@Advertisement@Bluetooth@Devices@Windows@@P$01E$ABV?$Array@PE$AAVBluetoothLEAdvertisementBytePattern@Advertisement@Bluetooth@Devices@Windows@@$00@1@@Z 000000018000aa00 f i _nodert_generated.obj
 0001:00009a10       ??$__abi_array_to_raw@PE$AAVBluetoothLEAdvertisementDataSection@Advertisement@Bluetooth@Devices@Windows@@PE$AAV12345@$00@Details@Platform@@YAPEAPE$AAVBluetoothLEAdvertisementDataSection@Advertisement@Bluetooth@Devices@Windows@@P$01E$ABV?$Array@PE$AAVBluetoothLEAdvertisementDataSection@Advertisement@Bluetooth@Devices@Windows@@$00@1@@Z 000000018000aa10 f i _nodert_generated.obj
 0001:00009a20       ??$__abi_array_to_raw@PE$AAVBluetoothLEManufacturerData@Advertisement@Bluetooth@Devices@Windows@@PE$AAV12345@$00@Details@Platform@@YAPEAPE$AAVBluetoothLEManufacturerData@Advertisement@Bluetooth@Devices@Windows@@P$01E$ABV?$Array@PE$AAVBluetoothLEManufacturerData@Advertisement@Bluetooth@Devices@Windows@@$00@1@@Z 000000018000aa20 f i _nodert_generated.obj
 0001:00009a30       ??$__abi_array_to_raw@VGuid@Platform@@V12@$00@Details@Platform@@YAPEAVGuid@1@P$01E$ABV?$Array@VGuid@Platform@@$00@1@@Z 000000018000aa30 f i _nodert_generated.obj
 0001:00009a40       ??$__abi_create_box@VGuid@Platform@@@@YAPE$AAV?$Box@VGuid@Platform@@@Platform@@VGuid@1@@Z 000000018000aa40 f i _nodert_generated.obj
 0001:00009a90       ??$__abi_unbox@_J@@YA_JPE$AAVObject@Platform@@@Z 000000018000aa90 f i _nodert_generated.obj
 0001:00009b20       ??$__abi_winrt_ptrto_array_ctor@PE$AAVBluetoothLEAdvertisementBytePattern@Advertisement@Bluetooth@Devices@Windows@@$00@@YAPEAXQ$01E$ADV?$Array@PE$AAVBluetoothLEAdvertisementBytePattern@Advertisement@Bluetooth@Devices@Windows@@$00@Platform@@@Z 000000018000ab20 f i _nodert_generated.obj
 0001:00009b90       ??$__abi_winrt_ptrto_array_ctor@PE$AAVBluetoothLEAdvertisementDataSection@Advertisement@Bluetooth@Devices@Windows@@$00@@YAPEAXQ$01E$ADV?$Array@PE$AAVBluetoothLEAdvertisementDataSection@Advertisement@Bluetooth@Devices@Windows@@$00@Platform@@@Z 000000018000ab90 f i _nodert_generated.obj
 0001:00009c00       ??$__abi_winrt_ptrto_array_ctor@PE$AAVBluetoothLEManufacturerData@Advertisement@Bluetooth@Devices@Windows@@$00@@YAPEAXQ$01E$ADV?$Array@PE$AAVBluetoothLEManufacturerData@Advertisement@Bluetooth@Devices@Windows@@$00@Platform@@@Z 000000018000ac00 f i _nodert_generated.obj
 0001:00009c70       ??$__abi_winrt_ptrto_array_ctor@VGuid@Platform@@$00@@YAPEAXQ$01E$ADV?$Array@VGuid@Platform@@$00@Platform@@@Z 000000018000ac70 f i _nodert_generated.obj
 0001:00009ce0       ??$__abi_winrt_ptrto_delegate_dtor@V?$TypedEventHandler@PE$AAVBluetoothLEAdvertisementPublisher@Advertisement@Bluetooth@Devices@Windows@@PE$AAVBluetoothLEAdvertisementPublisherStatusChangedEventArgs@2345@@Foundation@Windows@@@@YAXPE$ADV?$TypedEventHandler@PE$AAVBluetoothLEAdvertisementPublisher@Advertisement@Bluetooth@Devices@Windows@@PE$AAVBluetoothLEAdvertisementPublisherStatusChangedEventArgs@2345@@Foundation@Windows@@@Z 000000018000ace0 f i _nodert_generated.obj
 0001:00009cf0       ??$__abi_winrt_ptrto_delegate_dtor@V?$TypedEventHandler@PE$AAVBluetoothLEAdvertisementWatcher@Advertisement@Bluetooth@Devices@Windows@@PE$AAVBluetoothLEAdvertisementReceivedEventArgs@2345@@Foundation@Windows@@@@YAXPE$ADV?$TypedEventHandler@PE$AAVBluetoothLEAdvertisementWatcher@Advertisement@Bluetooth@Devices@Windows@@PE$AAVBluetoothLEAdvertisementReceivedEventArgs@2345@@Foundation@Windows@@@Z 000000018000acf0 f i _nodert_generated.obj
 0001:00009d00       ??$__abi_winrt_ptrto_delegate_dtor@V?$TypedEventHandler@PE$AAVBluetoothLEAdvertisementWatcher@Advertisement@Bluetooth@Devices@Windows@@PE$AAVBluetoothLEAdvertisementWatcherStoppedEventArgs@2345@@Foundation@Windows@@@@YAXPE$ADV?$TypedEventHandler@PE$AAVBluetoothLEAdvertisementWatcher@Advertisement@Bluetooth@Devices@Windows@@PE$AAVBluetoothLEAdvertisementWatcherStoppedEventArgs@2345@@Foundation@Windows@@@Z 000000018000ad00 f i _nodert_generated.obj
 0001:0000a0d0       ??0?$Array@PE$AAVBluetoothLEAdvertisementBytePattern@Advertisement@Bluetooth@Devices@Windows@@$00@Platform@@QE$AAA@PEAPE$AAVBluetoothLEAdvertisementBytePattern@Advertisement@Bluetooth@Devices@Windows@@I@Z 000000018000b0d0 f i _nodert_generated.obj
 0001:0000a1c0       ??0?$Array@PE$AAVBluetoothLEAdvertisementDataSection@Advertisement@Bluetooth@Devices@Windows@@$00@Platform@@QE$AAA@PEAPE$AAVBluetoothLEAdvertisementDataSection@Advertisement@Bluetooth@Devices@Windows@@I@Z 000000018000b1c0 f i _nodert_generated.obj
 0001:0000a2b0       ??0?$Array@PE$AAVBluetoothLEManufacturerData@Advertisement@Bluetooth@Devices@Windows@@$00@Platform@@QE$AAA@PEAPE$AAVBluetoothLEManufacturerData@Advertisement@Bluetooth@Devices@Windows@@I@Z 000000018000b2b0 f i _nodert_generated.obj
 0001:0000a3a0       ??0?$Array@VGuid@Platform@@$00@Platform@@QE$AAA@PEAVGuid@1@I@Z 000000018000b3a0 f i _nodert_generated.obj
 0001:0000a490       ??0?$Box@VGuid@Platform@@@Platform@@QE$AAA@VGuid@1@@Z 000000018000b490 f i _nodert_generated.obj
 0001:0000a6a0       ??0?$Box@W4BluetoothLEAdvertisementFlags@Advertisement@Bluetooth@Devices@Windows@@@Platform@@QE$AAA@W4BluetoothLEAdvertisementFlags@Advertisement@Bluetooth@Devices@Windows@@@Z 000000018000b6a0 f i _nodert_generated.obj
 0001:0000a8a0       ??0?$CustomBox@VGuid@Platform@@@Details@Platform@@QE$AAA@VGuid@2@@Z 000000018000b8a0 f i _nodert_generated.obj
 0001:0000a980       ??0?$CustomBox@W4BluetoothLEAdvertisementFlags@Advertisement@Bluetooth@Devices@Windows@@@Details@Platform@@QE$AAA@W4BluetoothLEAdvertisementFlags@Advertisement@Bluetooth@Devices@Windows@@@Z 000000018000b980 f i _nodert_generated.obj
 0001:0000aa60       ??0?$IteratorWrapper@PE$AAVBluetoothLEAdvertisementBytePattern@Advertisement@Bluetooth@Devices@Windows@@@Collections@NodeRT@@AEAA@PE$AAU?$IIterator@PE$AAVBluetoothLEAdvertisementBytePattern@Advertisement@Bluetooth@Devices@Windows@@@1Foundation@Windows@@AEBV?$function@$$A6A?AV?$Local@VValue@v8@@@v8@@PE$AAVBluetoothLEAdvertisementBytePattern@Advertisement@Bluetooth@Devices@Windows@@@Z@std@@@Z 000000018000ba60 f i _nodert_generated.obj
 0001:0000ab10       ??0?$IteratorWrapper@PE$AAVBluetoothLEAdvertisementDataSection@Advertisement@Bluetooth@Devices@Windows@@@Collections@NodeRT@@AEAA@PE$AAU?$IIterator@PE$AAVBluetoothLEAdvertisementDataSection@Advertisement@Bluetooth@Devices@Windows@@@1Foundation@Windows@@AEBV?$function@$$A6A?AV?$Local@VValue@v8@@@v8@@PE$AAVBluetoothLEAdvertisementDataSection@Advertisement@Bluetooth@Devices@Windows@@@Z@std@@@Z 000000018000bb10 f i _nodert_generated.obj
 0001:0000abc0       ??0?$IteratorWrapper@PE$AAVBluetoothLEManufacturerData@Advertisement@Bluetooth@Devices@Windows@@@Collections@NodeRT@@AEAA@PE$AAU?$IIterator@PE$AAVBluetoothLEManufacturerData@Advertisement@Bluetooth@Devices@Windows@@@1Foundation@Windows@@AEBV?$function@$$A6A?AV?$Local@VValue@v8@@@v8@@PE$AAVBluetoothLEManufacturerData@Advertisement@Bluetooth@Devices@Windows@@@Z@std@@@Z 000000018000bbc0 f i _nodert_generated.obj
 0001:0000ac70       ??0?$IteratorWrapper@VGuid@Platform@@@Collections@NodeRT@@AEAA@PE$AAU?$IIterator@VGuid@Platform@@@1Foundation@Windows@@AEBV?$function@$$A6A?AV?$Local@VValue@v8@@@v8@@VGuid@Platform@@@Z@std@@@Z 000000018000bc70 f i _nodert_generated.obj
 0001:0000ad20       ??0?$Local@VValue@v8@@@v8@@QEAA@XZ 000000018000bd20 f i _nodert_generated.obj
 0001:0000ad30       ??0?$VectorViewWrapper@PE$AAVBluetoothLEAdvertisementBytePattern@Advertisement@Bluetooth@Devices@Windows@@@Collections@NodeRT@@AEAA@PE$AAU?$IVectorView@PE$AAVBluetoothLEAdvertisementBytePattern@Advertisement@Bluetooth@Devices@Windows@@@1Foundation@Windows@@AEBV?$function@$$A6A?AV?$Local@VValue@v8@@@v8@@PE$AAVBluetoothLEAdvertisementBytePattern@Advertisement@Bluetooth@Devices@Windows@@@Z@std@@AEBV?$function@$$A6A_NV?$Local@VValue@v8@@@v8@@@Z@7@AEBV?$function@$$A6APE$AAVBluetoothLEAdvertisementBytePattern@Advertisement@Bluetooth@Devices@Windows@@V?$Local@VValue@v8@@@v8@@@Z@7@@Z 000000018000bd30 f i _nodert_generated.obj
 0001:0000ae40       ??0?$VectorViewWrapper@PE$AAVBluetoothLEAdvertisementDataSection@Advertisement@Bluetooth@Devices@Windows@@@Collections@NodeRT@@AEAA@PE$AAU?$IVectorView@PE$AAVBluetoothLEAdvertisementDataSection@Advertisement@Bluetooth@Devices@Windows@@@1Foundation@Windows@@AEBV?$function@$$A6A?AV?$Local@VValue@v8@@@v8@@PE$AAVBluetoothLEAdvertisementDataSection@Advertisement@Bluetooth@Devices@Windows@@@Z@std@@AEBV?$function@$$A6A_NV?$Local@VValue@v8@@@v8@@@Z@7@AEBV?$function@$$A6APE$AAVBluetoothLEAdvertisementDataSection@Advertisement@Bluetooth@Devices@Windows@@V?$Local@VValue@v8@@@v8@@@Z@7@@Z 000000018000be40 f i _nodert_generated.obj
 0001:0000af50       ??0?$VectorViewWrapper@PE$AAVBluetoothLEManufacturerData@Advertisement@Bluetooth@Devices@Windows@@@Collections@NodeRT@@AEAA@PE$AAU?$IVectorView@PE$AAVBluetoothLEManufacturerData@Advertisement@Bluetooth@Devices@Windows@@@1Foundation@Windows@@AEBV?$function@$$A6A?AV?$Local@VValue@v8@@@v8@@PE$AAVBluetoothLEManufacturerData@Advertisement@Bluetooth@Devices@Windows@@@Z@std@@AEBV?$function@$$A6A_NV?$Local@VValue@v8@@@v8@@@Z@7@AEBV?$function@$$A6APE$AAVBluetoothLEManufacturerData@Advertisement@Bluetooth@Devices@Windows@@V?$Local@VValue@v8@@@v8@@@Z@7@@Z 000000018000bf50 f i _nodert_generated.obj
 0001:0000b060       ??0?$VectorViewWrapper@VGuid@Platform@@@Collections@NodeRT@@AEAA@PE$AAU?$IVectorView@VGuid@Platform@@@1Foundation@Windows@@AEBV?$function@$$A6A?AV?$Local@VValue@v8@@@v8@@VGuid@Platform@@@Z@std@@AEBV?$function@$$A6A_NV?$Local@VValue@v8@@@v8@@@Z@7@AEBV?$function@$$A6A?AVGuid@Platform@@V?$Local@VValue@v8@@@v8@@@Z@7@@Z 000000018000c060 f i _nodert_generated.obj
 0001:0000b170       ??0?$VectorWrapper@PE$AAVBluetoothLEAdvertisementBytePattern@Advertisement@Bluetooth@Devices@Windows@@@Collections@NodeRT@@AEAA@PE$AAU?$IVector@PE$AAVBluetoothLEAdvertisementBytePattern@Advertisement@Bluetooth@Devices@Windows@@@1Foundation@Windows@@AEBV?$function@$$A6A?AV?$Local@VValue@v8@@@v8@@PE$AAVBluetoothLEAdvertisementBytePattern@Advertisement@Bluetooth@Devices@Windows@@@Z@std@@AEBV?$function@$$A6A_NV?$Local@VValue@v8@@@v8@@@Z@7@AEBV?$function@$$A6APE$AAVBluetoothLEAdvertisementBytePattern@Advertisement@Bluetooth@Devices@Windows@@V?$Local@VValue@v8@@@v8@@@Z@7@@Z 000000018000c170 f i _nodert_generated.obj
 0001:0000b280       ??0?$VectorWrapper@PE$AAVBluetoothLEAdvertisementDataSection@Advertisement@Bluetooth@Devices@Windows@@@Collections@NodeRT@@AEAA@PE$AAU?$IVector@PE$AAVBluetoothLEAdvertisementDataSection@Advertisement@Bluetooth@Devices@Windows@@@1Foundation@Windows@@AEBV?$function@$$A6A?AV?$Local@VValue@v8@@@v8@@PE$AAVBluetoothLEAdvertisementDataSection@Advertisement@Bluetooth@Devices@Windows@@@Z@std@@AEBV?$function@$$A6A_NV?$Local@VValue@v8@@@v8@@@Z@7@AEBV?$function@$$A6APE$AAVBluetoothLEAdvertisementDataSection@Advertisement@Bluetooth@Devices@Windows@@V?$Local@VValue@v8@@@v8@@@Z@7@@Z 000000018000c280 f i _nodert_generated.obj
 0001:0000b390       ??0?$VectorWrapper@PE$AAVBluetoothLEManufacturerData@Advertisement@Bluetooth@Devices@Windows@@@Collections@NodeRT@@AEAA@PE$AAU?$IVector@PE$AAVBluetoothLEManufacturerData@Advertisement@Bluetooth@Devices@Windows@@@1Foundation@Windows@@AEBV?$function@$$A6A?AV?$Local@VValue@v8@@@v8@@PE$AAVBluetoothLEManufacturerData@Advertisement@Bluetooth@Devices@Windows@@@Z@std@@AEBV?$function@$$A6A_NV?$Local@VValue@v8@@@v8@@@Z@7@AEBV?$function@$$A6APE$AAVBluetoothLEManufacturerData@Advertisement@Bluetooth@Devices@Windows@@V?$Local@VValue@v8@@@v8@@@Z@7@@Z 000000018000c390 f i _nodert_generated.obj
 0001:0000b4a0       ??0?$VectorWrapper@VGuid@Platform@@@Collections@NodeRT@@AEAA@PE$AAU?$IVector@VGuid@Platform@@@1Foundation@Windows@@AEBV?$function@$$A6A?AV?$Local@VValue@v8@@@v8@@VGuid@Platform@@@Z@std@@AEBV?$function@$$A6A_NV?$Local@VValue@v8@@@v8@@@Z@7@AEBV?$function@$$A6A?AVGuid@Platform@@V?$Local@VValue@v8@@@v8@@@Z@7@@Z 000000018000c4a0 f i _nodert_generated.obj
 0001:0000b5b0       ??0?$WriteOnlyArray@PE$AAVBluetoothLEAdvertisementBytePattern@Advertisement@Bluetooth@Devices@Windows@@$00@Platform@@IE$AAA@PEAPE$AAVBluetoothLEAdvertisementBytePattern@Advertisement@Bluetooth@Devices@Windows@@I@Z 000000018000c5b0 f i _nodert_generated.obj
 0001:0000b6a0       ??0?$WriteOnlyArray@PE$AAVBluetoothLEAdvertisementDataSection@Advertisement@Bluetooth@Devices@Windows@@$00@Platform@@IE$AAA@PEAPE$AAVBluetoothLEAdvertisementDataSection@Advertisement@Bluetooth@Devices@Windows@@I@Z 000000018000c6a0 f i _nodert_generated.obj
 0001:0000b790       ??0?$WriteOnlyArray@PE$AAVBluetoothLEManufacturerData@Advertisement@Bluetooth@Devices@Windows@@$00@Platform@@IE$AAA@PEAPE$AAVBluetoothLEManufacturerData@Advertisement@Bluetooth@Devices@Windows@@I@Z 000000018000c790 f i _nodert_generated.obj
 0001:0000b880       ??0?$WriteOnlyArray@VGuid@Platform@@$00@Platform@@IE$AAA@PEAVGuid@1@I@Z 000000018000c880 f i _nodert_generated.obj
 0001:0000b970       ??0?$__abi_FunctorCapture@V<lambda_237595074df0c8017b22e4dbeff6e432>@@XPE$AAVBluetoothLEAdvertisementWatcher@Advertisement@Bluetooth@Devices@Windows@@PE$AAVBluetoothLEAdvertisementReceivedEventArgs@3456@@Details@Platform@@QEAA@V<lambda_237595074df0c8017b22e4dbeff6e432>@@@Z 000000018000c970 f i _nodert_generated.obj
 0001:0000ba30       ??0?$__abi_FunctorCapture@V<lambda_7027264ebf1117594dd4155ebab65c3d>@@XPE$AAVBluetoothLEAdvertisementWatcher@Advertisement@Bluetooth@Devices@Windows@@PE$AAVBluetoothLEAdvertisementWatcherStoppedEventArgs@3456@@Details@Platform@@QEAA@V<lambda_7027264ebf1117594dd4155ebab65c3d>@@@Z 000000018000ca30 f i _nodert_generated.obj
 0001:0000baf0       ??0?$__abi_FunctorCapture@V<lambda_73d2589d6f7f5ba1a0f6aa6530cd3b8a>@@XPE$AAVBluetoothLEAdvertisementPublisher@Advertisement@Bluetooth@Devices@Windows@@PE$AAVBluetoothLEAdvertisementPublisherStatusChangedEventArgs@3456@@Details@Platform@@QEAA@V<lambda_73d2589d6f7f5ba1a0f6aa6530cd3b8a>@@@Z 000000018000caf0 f i _nodert_generated.obj
 0001:0000bbb0       ??0BluetoothLEAdvertisement@Advertisement@Bluetooth@Devices@Windows@@QE$AAA@XZ 000000018000cbb0 f i _nodert_generated.obj
 0001:0000bd20       ??0BluetoothLEAdvertisement@Advertisement@Bluetooth@Devices@Windows@NodeRT@@AEAA@PE$AAV01234@@Z 000000018000cd20 f i _nodert_generated.obj
 0001:0000bdb0       ??0BluetoothLEAdvertisementBytePattern@Advertisement@Bluetooth@Devices@Windows@@QE$AAA@EFPE$AAUIBuffer@Streams@Storage@4@@Z 000000018000cdb0 f i _nodert_generated.obj
 0001:0000bef0       ??0BluetoothLEAdvertisementBytePattern@Advertisement@Bluetooth@Devices@Windows@@QE$AAA@XZ 000000018000cef0 f i _nodert_generated.obj
 0001:0000c060       ??0BluetoothLEAdvertisementBytePattern@Advertisement@Bluetooth@Devices@Windows@NodeRT@@AEAA@PE$AAV01234@@Z 000000018000d060 f i _nodert_generated.obj
 0001:0000c0f0       ??0BluetoothLEAdvertisementDataSection@Advertisement@Bluetooth@Devices@Windows@@QE$AAA@EPE$AAUIBuffer@Streams@Storage@4@@Z 000000018000d0f0 f i _nodert_generated.obj
 0001:0000c210       ??0BluetoothLEAdvertisementDataSection@Advertisement@Bluetooth@Devices@Windows@@QE$AAA@XZ 000000018000d210 f i _nodert_generated.obj
 0001:0000c380       ??0BluetoothLEAdvertisementDataSection@Advertisement@Bluetooth@Devices@Windows@NodeRT@@AEAA@PE$AAV01234@@Z 000000018000d380 f i _nodert_generated.obj
 0001:0000c410       ??0BluetoothLEAdvertisementDataTypes@Advertisement@Bluetooth@Devices@Windows@NodeRT@@AEAA@PE$AAV01234@@Z 000000018000d410 f i _nodert_generated.obj
 0001:0000c4a0       ??0BluetoothLEAdvertisementFilter@Advertisement@Bluetooth@Devices@Windows@@QE$AAA@XZ 000000018000d4a0 f i _nodert_generated.obj
 0001:0000c610       ??0BluetoothLEAdvertisementFilter@Advertisement@Bluetooth@Devices@Windows@NodeRT@@AEAA@PE$AAV01234@@Z 000000018000d610 f i _nodert_generated.obj
 0001:0000c6a0       ??0BluetoothLEAdvertisementPublisher@Advertisement@Bluetooth@Devices@Windows@@QE$AAA@PE$AAVBluetoothLEAdvertisement@1234@@Z 000000018000d6a0 f i _nodert_generated.obj
 0001:0000c7b0       ??0BluetoothLEAdvertisementPublisher@Advertisement@Bluetooth@Devices@Windows@@QE$AAA@XZ 000000018000d7b0 f i _nodert_generated.obj
 0001:0000c920       ??0BluetoothLEAdvertisementPublisher@Advertisement@Bluetooth@Devices@Windows@NodeRT@@AEAA@PE$AAV01234@@Z 000000018000d920 f i _nodert_generated.obj
 0001:0000c9b0       ??0BluetoothLEAdvertisementPublisherStatusChangedEventArgs@Advertisement@Bluetooth@Devices@Windows@NodeRT@@AEAA@PE$AAV01234@@Z 000000018000d9b0 f i _nodert_generated.obj
 0001:0000ca40       ??0BluetoothLEAdvertisementReceivedEventArgs@Advertisement@Bluetooth@Devices@Windows@NodeRT@@AEAA@PE$AAV01234@@Z 000000018000da40 f i _nodert_generated.obj
 0001:0000cad0       ??0BluetoothLEAdvertisementWatcher@Advertisement@Bluetooth@Devices@Windows@@QE$AAA@PE$AAVBluetoothLEAdvertisementFilter@1234@@Z 000000018000dad0 f i _nodert_generated.obj
 0001:0000cbe0       ??0BluetoothLEAdvertisementWatcher@Advertisement@Bluetooth@Devices@Windows@@QE$AAA@XZ 000000018000dbe0 f i _nodert_generated.obj
 0001:0000cd50       ??0BluetoothLEAdvertisementWatcher@Advertisement@Bluetooth@Devices@Windows@NodeRT@@AEAA@PE$AAV01234@@Z 000000018000dd50 f i _nodert_generated.obj
 0001:0000cde0       ??0BluetoothLEAdvertisementWatcherStoppedEventArgs@Advertisement@Bluetooth@Devices@Windows@NodeRT@@AEAA@PE$AAV01234@@Z 000000018000dde0 f i _nodert_generated.obj
 0001:0000ce70       ??0BluetoothLEManufacturerData@Advertisement@Bluetooth@Devices@Windows@@QE$AAA@GPE$AAUIBuffer@Streams@Storage@4@@Z 000000018000de70 f i _nodert_generated.obj
 0001:0000cf90       ??0BluetoothLEManufacturerData@Advertisement@Bluetooth@Devices@Windows@@QE$AAA@XZ 000000018000df90 f i _nodert_generated.obj
 0001:0000d100       ??0BluetoothLEManufacturerData@Advertisement@Bluetooth@Devices@Windows@NodeRT@@AEAA@PE$AAV01234@@Z 000000018000e100 f i _nodert_generated.obj
 0001:0000d190       ??0String@Platform@@QE$AAA@PEB_W@Z 000000018000e190 f i _nodert_generated.obj
 0001:0000d520       ??1?$Array@PE$AAVBluetoothLEAdvertisementBytePattern@Advertisement@Bluetooth@Devices@Windows@@$00@Platform@@QE$AAA@XZ 000000018000e520 f i _nodert_generated.obj
 0001:0000d540       ??1?$Array@PE$AAVBluetoothLEAdvertisementDataSection@Advertisement@Bluetooth@Devices@Windows@@$00@Platform@@QE$AAA@XZ 000000018000e540 f i _nodert_generated.obj
 0001:0000d560       ??1?$Array@PE$AAVBluetoothLEManufacturerData@Advertisement@Bluetooth@Devices@Windows@@$00@Platform@@QE$AAA@XZ 000000018000e560 f i _nodert_generated.obj
 0001:0000d580       ??1?$Array@VGuid@Platform@@$00@Platform@@QE$AAA@XZ 000000018000e580 f i _nodert_generated.obj
 0001:0000d5d0       ??1?$VectorViewWrapper@PE$AAVBluetoothLEAdvertisementBytePattern@Advertisement@Bluetooth@Devices@Windows@@@Collections@NodeRT@@UEAA@XZ 000000018000e5d0 f i _nodert_generated.obj
 0001:0000d6a0       ??1?$VectorViewWrapper@PE$AAVBluetoothLEAdvertisementDataSection@Advertisement@Bluetooth@Devices@Windows@@@Collections@NodeRT@@UEAA@XZ 000000018000e6a0 f i _nodert_generated.obj
 0001:0000d770       ??1?$VectorViewWrapper@PE$AAVBluetoothLEManufacturerData@Advertisement@Bluetooth@Devices@Windows@@@Collections@NodeRT@@UEAA@XZ 000000018000e770 f i _nodert_generated.obj
 0001:0000d840       ??1?$VectorViewWrapper@VGuid@Platform@@@Collections@NodeRT@@UEAA@XZ 000000018000e840 f i _nodert_generated.obj
 0001:0000d910       ??1?$VectorWrapper@PE$AAVBluetoothLEAdvertisementBytePattern@Advertisement@Bluetooth@Devices@Windows@@@Collections@NodeRT@@UEAA@XZ 000000018000e910 f i _nodert_generated.obj
 0001:0000d9e0       ??1?$VectorWrapper@PE$AAVBluetoothLEAdvertisementDataSection@Advertisement@Bluetooth@Devices@Windows@@@Collections@NodeRT@@UEAA@XZ 000000018000e9e0 f i _nodert_generated.obj
 0001:0000dab0       ??1?$VectorWrapper@PE$AAVBluetoothLEManufacturerData@Advertisement@Bluetooth@Devices@Windows@@@Collections@NodeRT@@UEAA@XZ 000000018000eab0 f i _nodert_generated.obj
 0001:0000db80       ??1?$VectorWrapper@VGuid@Platform@@@Collections@NodeRT@@UEAA@XZ 000000018000eb80 f i _nodert_generated.obj
 0001:0000dc50       ??1?$WriteOnlyArray@PE$AAVBluetoothLEAdvertisementBytePattern@Advertisement@Bluetooth@Devices@Windows@@$00@Platform@@QE$AAA@XZ 000000018000ec50 f i _nodert_generated.obj
 0001:0000dcf0       ??1?$WriteOnlyArray@PE$AAVBluetoothLEAdvertisementDataSection@Advertisement@Bluetooth@Devices@Windows@@$00@Platform@@QE$AAA@XZ 000000018000ecf0 f i _nodert_generated.obj
 0001:0000dd90       ??1?$WriteOnlyArray@PE$AAVBluetoothLEManufacturerData@Advertisement@Bluetooth@Devices@Windows@@$00@Platform@@QE$AAA@XZ 000000018000ed90 f i _nodert_generated.obj
 0001:0000de30       ??1?$WriteOnlyArray@VGuid@Platform@@$00@Platform@@QE$AAA@XZ 000000018000ee30 f i _nodert_generated.obj
 0001:0000de70       ??1?$_Func_class@PE$AAVBluetoothLEAdvertisementBytePattern@Advertisement@Bluetooth@Devices@Windows@@V?$Local@VValue@v8@@@v8@@@std@@QEAA@XZ 000000018000ee70 f i _nodert_generated.obj
 0001:0000deb0       ??1?$_Func_class@PE$AAVBluetoothLEAdvertisementDataSection@Advertisement@Bluetooth@Devices@Windows@@V?$Local@VValue@v8@@@v8@@@std@@QEAA@XZ 000000018000eeb0 f i _nodert_generated.obj
 0001:0000def0       ??1?$_Func_class@PE$AAVBluetoothLEManufacturerData@Advertisement@Bluetooth@Devices@Windows@@V?$Local@VValue@v8@@@v8@@@std@@QEAA@XZ 000000018000eef0 f i _nodert_generated.obj
 0001:0000df30       ??1?$_Func_class@V?$Local@VValue@v8@@@v8@@PE$AAVBluetoothLEAdvertisementBytePattern@Advertisement@Bluetooth@Devices@Windows@@@std@@QEAA@XZ 000000018000ef30 f i _nodert_generated.obj
 0001:0000df70       ??1?$_Func_class@V?$Local@VValue@v8@@@v8@@PE$AAVBluetoothLEAdvertisementDataSection@Advertisement@Bluetooth@Devices@Windows@@@std@@QEAA@XZ 000000018000ef70 f i _nodert_generated.obj
 0001:0000dfb0       ??1?$_Func_class@V?$Local@VValue@v8@@@v8@@PE$AAVBluetoothLEManufacturerData@Advertisement@Bluetooth@Devices@Windows@@@std@@QEAA@XZ 000000018000efb0 f i _nodert_generated.obj
 0001:0000dff0       ??1?$_Func_class@V?$Local@VValue@v8@@@v8@@VGuid@Platform@@@std@@QEAA@XZ 000000018000eff0 f i _nodert_generated.obj
 0001:0000e030       ??1?$_Func_class@VGuid@Platform@@V?$Local@VValue@v8@@@v8@@@std@@QEAA@XZ 000000018000f030 f i _nodert_generated.obj
 0001:0000e070       ??1?$_Func_class@X$$V@std@@QEAA@XZ 000000018000f070 f i _nodert_generated.obj
 0001:0000e0b0       ??1?$_Func_class@_NV?$Local@VValue@v8@@@v8@@@std@@QEAA@XZ 000000018000f0b0 f i _nodert_generated.obj
 0001:0000e0f0       ??1?$__abi_FunctorCapture@V<lambda_237595074df0c8017b22e4dbeff6e432>@@XPE$AAVBluetoothLEAdvertisementWatcher@Advertisement@Bluetooth@Devices@Windows@@PE$AAVBluetoothLEAdvertisementReceivedEventArgs@3456@@Details@Platform@@UEAA@XZ 000000018000f0f0 f i _nodert_generated.obj
 0001:0000e190       ??1?$__abi_FunctorCapture@V<lambda_7027264ebf1117594dd4155ebab65c3d>@@XPE$AAVBluetoothLEAdvertisementWatcher@Advertisement@Bluetooth@Devices@Windows@@PE$AAVBluetoothLEAdvertisementWatcherStoppedEventArgs@3456@@Details@Platform@@UEAA@XZ 000000018000f190 f i _nodert_generated.obj
 0001:0000e230       ??1?$__abi_FunctorCapture@V<lambda_73d2589d6f7f5ba1a0f6aa6530cd3b8a>@@XPE$AAVBluetoothLEAdvertisementPublisher@Advertisement@Bluetooth@Devices@Windows@@PE$AAVBluetoothLEAdvertisementPublisherStatusChangedEventArgs@3456@@Details@Platform@@UEAA@XZ 000000018000f230 f i _nodert_generated.obj
 0001:0000e2d0       ??1?$function@$$A6A?AV?$Local@VValue@v8@@@v8@@PE$AAVBluetoothLEAdvertisementBytePattern@Advertisement@Bluetooth@Devices@Windows@@@Z@std@@QEAA@XZ 000000018000f2d0 f i _nodert_generated.obj
 0001:0000e310       ??1?$function@$$A6A?AV?$Local@VValue@v8@@@v8@@PE$AAVBluetoothLEAdvertisementDataSection@Advertisement@Bluetooth@Devices@Windows@@@Z@std@@QEAA@XZ 000000018000f310 f i _nodert_generated.obj
 0001:0000e350       ??1?$function@$$A6A?AV?$Local@VValue@v8@@@v8@@PE$AAVBluetoothLEManufacturerData@Advertisement@Bluetooth@Devices@Windows@@@Z@std@@QEAA@XZ 000000018000f350 f i _nodert_generated.obj
 0001:0000e390       ??1?$function@$$A6A?AV?$Local@VValue@v8@@@v8@@VGuid@Platform@@@Z@std@@QEAA@XZ 000000018000f390 f i _nodert_generated.obj
 0001:0000e3d0       ??1?$function@$$A6A?AVGuid@Platform@@V?$Local@VValue@v8@@@v8@@@Z@std@@QEAA@XZ 000000018000f3d0 f i _nodert_generated.obj
 0001:0000e410       ??1?$function@$$A6APE$AAVBluetoothLEAdvertisementBytePattern@Advertisement@Bluetooth@Devices@Windows@@V?$Local@VValue@v8@@@v8@@@Z@std@@QEAA@XZ 000000018000f410 f i _nodert_generated.obj
 0001:0000e450       ??1?$function@$$A6APE$AAVBluetoothLEAdvertisementDataSection@Advertisement@Bluetooth@Devices@Windows@@V?$Local@VValue@v8@@@v8@@@Z@std@@QEAA@XZ 000000018000f450 f i _nodert_generated.obj
 0001:0000e490       ??1?$function@$$A6APE$AAVBluetoothLEManufacturerData@Advertisement@Bluetooth@Devices@Windows@@V?$Local@VValue@v8@@@v8@@@Z@std@@QEAA@XZ 000000018000f490 f i _nodert_generated.obj
 0001:0000e4d0       ??1?$function@$$A6AXXZ@std@@QEAA@XZ 000000018000f4d0 f i _nodert_generated.obj
 0001:0000e510       ??1?$function@$$A6A_NV?$Local@VValue@v8@@@v8@@@Z@std@@QEAA@XZ 000000018000f510 f i _nodert_generated.obj
 0001:0000e550       ??1?$shared_ptr@V?$Persistent@VObject@v8@@V?$NonCopyablePersistentTraits@VObject@v8@@@2@@Nan@@@std@@QEAA@XZ 000000018000f550 f i _nodert_generated.obj
 0001:0000e5b0       ??1?$unique_ptr@$$BY0A@V?$Local@VValue@v8@@@v8@@U?$default_delete@$$BY0A@V?$Local@VValue@v8@@@v8@@@std@@@std@@QEAA@XZ 000000018000f5b0 f i _nodert_generated.obj
 0001:0000e5c0       ??1EscapableHandleScope@Nan@@QEAA@XZ 000000018000f5c0 f i _nodert_generated.obj
 0001:0000e5d0       ??1HandleScope@Nan@@QEAA@XZ 000000018000f5d0 f i _nodert_generated.obj
 0001:0000e5e0       ??1ObjectWrap@Nan@@UEAA@XZ 000000018000f5e0 f i _nodert_generated.obj
 0001:0000e680       ??1TokenData@Async@NodeUtils@@UEAA@XZ 000000018000f680 f i _nodert_generated.obj
 0001:0000e700       ??1TryCatch@Nan@@QEAA@XZ   000000018000f700 f i _nodert_generated.obj
 0001:0000e710       ??1WrapperBase@NodeRT@@UEAA@XZ 000000018000f710 f i _nodert_generated.obj
 0001:0000e720       ??1_Ref_count_base@std@@UEAA@XZ 000000018000f720 f i _nodert_generated.obj
 0001:0000e730       ??1__abi_CaptureBase@Details@Platform@@MEAA@XZ 000000018000f730 f i _nodert_generated.obj
 0001:0000e740       ??1__abi_CapturePtr@Details@Platform@@QEAA@XZ 000000018000f740 f i _nodert_generated.obj
 0001:0000e7a0       ??3__abi_CaptureBase@Details@Platform@@SAXPEAX0@Z 000000018000f7a0 f i _nodert_generated.obj
 0001:0000e7f0       ??B?$Box@_J@Platform@@QE$AAA_JXZ 000000018000f7f0 f i _nodert_generated.obj
 0001:0000f0f0       ??R?$_Func_class@PE$AAVBluetoothLEAdvertisementBytePattern@Advertisement@Bluetooth@Devices@Windows@@V?$Local@VValue@v8@@@v8@@@std@@QEBAPE$AAVBluetoothLEAdvertisementBytePattern@Advertisement@Bluetooth@Devices@Windows@@V?$Local@VValue@v8@@@v8@@@Z 00000001800100f0 f i _nodert_generated.obj
 0001:0000f140       ??R?$_Func_class@PE$AAVBluetoothLEAdvertisementDataSection@Advertisement@Bluetooth@Devices@Windows@@V?$Local@VValue@v8@@@v8@@@std@@QEBAPE$AAVBluetoothLEAdvertisementDataSection@Advertisement@Bluetooth@Devices@Windows@@V?$Local@VValue@v8@@@v8@@@Z 0000000180010140 f i _nodert_generated.obj
 0001:0000f190       ??R?$_Func_class@PE$AAVBluetoothLEManufacturerData@Advertisement@Bluetooth@Devices@Windows@@V?$Local@VValue@v8@@@v8@@@std@@QEBAPE$AAVBluetoothLEManufacturerData@Advertisement@Bluetooth@Devices@Windows@@V?$Local@VValue@v8@@@v8@@@Z 0000000180010190 f i _nodert_generated.obj
 0001:0000f1e0       ??R?$_Func_class@V?$Local@VValue@v8@@@v8@@PE$AAVBluetoothLEAdvertisementBytePattern@Advertisement@Bluetooth@Devices@Windows@@@std@@QEBA?AV?$Local@VValue@v8@@@v8@@PE$AAVBluetoothLEAdvertisementBytePattern@Advertisement@Bluetooth@Devices@Windows@@@Z 00000001800101e0 f i _nodert_generated.obj
 0001:0000f280       ??R?$_Func_class@V?$Local@VValue@v8@@@v8@@PE$AAVBluetoothLEAdvertisementDataSection@Advertisement@Bluetooth@Devices@Windows@@@std@@QEBA?AV?$Local@VValue@v8@@@v8@@PE$AAVBluetoothLEAdvertisementDataSection@Advertisement@Bluetooth@Devices@Windows@@@Z 0000000180010280 f i _nodert_generated.obj
 0001:0000f320       ??R?$_Func_class@V?$Local@VValue@v8@@@v8@@PE$AAVBluetoothLEManufacturerData@Advertisement@Bluetooth@Devices@Windows@@@std@@QEBA?AV?$Local@VValue@v8@@@v8@@PE$AAVBluetoothLEManufacturerData@Advertisement@Bluetooth@Devices@Windows@@@Z 0000000180010320 f i _nodert_generated.obj
 0001:0000f3c0       ??_G?$IteratorWrapper@PE$AAVBluetoothLEAdvertisementBytePattern@Advertisement@Bluetooth@Devices@Windows@@@Collections@NodeRT@@UEAAPEAXI@Z 00000001800103c0 f i _nodert_generated.obj
 0001:0000f3c0       ??_E?$IteratorWrapper@PE$AAVBluetoothLEAdvertisementBytePattern@Advertisement@Bluetooth@Devices@Windows@@@Collections@NodeRT@@UEAAPEAXI@Z 00000001800103c0 f i _nodert_generated.obj
 0001:0000f460       ??_G?$IteratorWrapper@PE$AAVBluetoothLEAdvertisementDataSection@Advertisement@Bluetooth@Devices@Windows@@@Collections@NodeRT@@UEAAPEAXI@Z 0000000180010460 f i _nodert_generated.obj
 0001:0000f460       ??_E?$IteratorWrapper@PE$AAVBluetoothLEAdvertisementDataSection@Advertisement@Bluetooth@Devices@Windows@@@Collections@NodeRT@@UEAAPEAXI@Z 0000000180010460 f i _nodert_generated.obj
 0001:0000f500       ??_G?$IteratorWrapper@PE$AAVBluetoothLEManufacturerData@Advertisement@Bluetooth@Devices@Windows@@@Collections@NodeRT@@UEAAPEAXI@Z 0000000180010500 f i _nodert_generated.obj
 0001:0000f500       ??_E?$IteratorWrapper@PE$AAVBluetoothLEManufacturerData@Advertisement@Bluetooth@Devices@Windows@@@Collections@NodeRT@@UEAAPEAXI@Z 0000000180010500 f i _nodert_generated.obj
 0001:0000f5a0       ??_E?$IteratorWrapper@VGuid@Platform@@@Collections@NodeRT@@UEAAPEAXI@Z 00000001800105a0 f i _nodert_generated.obj
 0001:0000f5a0       ??_G?$IteratorWrapper@VGuid@Platform@@@Collections@NodeRT@@UEAAPEAXI@Z 00000001800105a0 f i _nodert_generated.obj
 0001:0000f640       ??_G?$VectorViewWrapper@PE$AAVBluetoothLEAdvertisementBytePattern@Advertisement@Bluetooth@Devices@Windows@@@Collections@NodeRT@@UEAAPEAXI@Z 0000000180010640 f i _nodert_generated.obj
 0001:0000f640       ??_E?$VectorViewWrapper@PE$AAVBluetoothLEAdvertisementBytePattern@Advertisement@Bluetooth@Devices@Windows@@@Collections@NodeRT@@UEAAPEAXI@Z 0000000180010640 f i _nodert_generated.obj
 0001:0000f690       ??_E?$VectorViewWrapper@PE$AAVBluetoothLEAdvertisementDataSection@Advertisement@Bluetooth@Devices@Windows@@@Collections@NodeRT@@UEAAPEAXI@Z 0000000180010690 f i _nodert_generated.obj
 0001:0000f690       ??_G?$VectorViewWrapper@PE$AAVBluetoothLEAdvertisementDataSection@Advertisement@Bluetooth@Devices@Windows@@@Collections@NodeRT@@UEAAPEAXI@Z 0000000180010690 f i _nodert_generated.obj
 0001:0000f6e0       ??_E?$VectorViewWrapper@PE$AAVBluetoothLEManufacturerData@Advertisement@Bluetooth@Devices@Windows@@@Collections@NodeRT@@UEAAPEAXI@Z 00000001800106e0 f i _nodert_generated.obj
 0001:0000f6e0       ??_G?$VectorViewWrapper@PE$AAVBluetoothLEManufacturerData@Advertisement@Bluetooth@Devices@Windows@@@Collections@NodeRT@@UEAAPEAXI@Z 00000001800106e0 f i _nodert_generated.obj
 0001:0000f730       ??_E?$VectorViewWrapper@VGuid@Platform@@@Collections@NodeRT@@UEAAPEAXI@Z 0000000180010730 f i _nodert_generated.obj
 0001:0000f730       ??_G?$VectorViewWrapper@VGuid@Platform@@@Collections@NodeRT@@UEAAPEAXI@Z 0000000180010730 f i _nodert_generated.obj
 0001:0000f780       ??_G?$VectorWrapper@PE$AAVBluetoothLEAdvertisementBytePattern@Advertisement@Bluetooth@Devices@Windows@@@Collections@NodeRT@@UEAAPEAXI@Z 0000000180010780 f i _nodert_generated.obj
 0001:0000f780       ??_E?$VectorWrapper@PE$AAVBluetoothLEAdvertisementBytePattern@Advertisement@Bluetooth@Devices@Windows@@@Collections@NodeRT@@UEAAPEAXI@Z 0000000180010780 f i _nodert_generated.obj
 0001:0000f7d0       ??_G?$VectorWrapper@PE$AAVBluetoothLEAdvertisementDataSection@Advertisement@Bluetooth@Devices@Windows@@@Collections@NodeRT@@UEAAPEAXI@Z 00000001800107d0 f i _nodert_generated.obj
 0001:0000f7d0       ??_E?$VectorWrapper@PE$AAVBluetoothLEAdvertisementDataSection@Advertisement@Bluetooth@Devices@Windows@@@Collections@NodeRT@@UEAAPEAXI@Z 00000001800107d0 f i _nodert_generated.obj
 0001:0000f820       ??_E?$VectorWrapper@PE$AAVBluetoothLEManufacturerData@Advertisement@Bluetooth@Devices@Windows@@@Collections@NodeRT@@UEAAPEAXI@Z 0000000180010820 f i _nodert_generated.obj
 0001:0000f820       ??_G?$VectorWrapper@PE$AAVBluetoothLEManufacturerData@Advertisement@Bluetooth@Devices@Windows@@@Collections@NodeRT@@UEAAPEAXI@Z 0000000180010820 f i _nodert_generated.obj
 0001:0000f870       ??_G?$VectorWrapper@VGuid@Platform@@@Collections@NodeRT@@UEAAPEAXI@Z 0000000180010870 f i _nodert_generated.obj
 0001:0000f870       ??_E?$VectorWrapper@VGuid@Platform@@@Collections@NodeRT@@UEAAPEAXI@Z 0000000180010870 f i _nodert_generated.obj
 0001:0000f8c0       ??_E?$_Ref_count_del@V?$Persistent@VObject@v8@@V?$NonCopyablePersistentTraits@VObject@v8@@@2@@Nan@@V<lambda_04ac22ce5b42da517f675f8337af0c15>@@@std@@UEAAPEAXI@Z 00000001800108c0 f i _nodert_generated.obj
 0001:0000f8c0       ??_G?$_Ref_count_del@V?$Persistent@VObject@v8@@V?$NonCopyablePersistentTraits@VObject@v8@@@2@@Nan@@V<lambda_04ac22ce5b42da517f675f8337af0c15>@@@std@@UEAAPEAXI@Z 00000001800108c0 f i _nodert_generated.obj
 0001:0000f900       ??_G?$_Ref_count_del@V?$Persistent@VObject@v8@@V?$NonCopyablePersistentTraits@VObject@v8@@@2@@Nan@@V<lambda_53f15f71c0d076d50b21ae82008508cf>@@@std@@UEAAPEAXI@Z 0000000180010900 f i _nodert_generated.obj
 0001:0000f900       ??_E?$_Ref_count_del@V?$Persistent@VObject@v8@@V?$NonCopyablePersistentTraits@VObject@v8@@@2@@Nan@@V<lambda_53f15f71c0d076d50b21ae82008508cf>@@@std@@UEAAPEAXI@Z 0000000180010900 f i _nodert_generated.obj
 0001:0000f940       ??_G?$_Ref_count_del@V?$Persistent@VObject@v8@@V?$NonCopyablePersistentTraits@VObject@v8@@@2@@Nan@@V<lambda_8d95b5316acffedb3360aa6562c31600>@@@std@@UEAAPEAXI@Z 0000000180010940 f i _nodert_generated.obj
 0001:0000f940       ??_E?$_Ref_count_del@V?$Persistent@VObject@v8@@V?$NonCopyablePersistentTraits@VObject@v8@@@2@@Nan@@V<lambda_8d95b5316acffedb3360aa6562c31600>@@@std@@UEAAPEAXI@Z 0000000180010940 f i _nodert_generated.obj
 0001:0000f980       ??_E?$__abi_FunctorCapture@V<lambda_237595074df0c8017b22e4dbeff6e432>@@XPE$AAVBluetoothLEAdvertisementWatcher@Advertisement@Bluetooth@Devices@Windows@@PE$AAVBluetoothLEAdvertisementReceivedEventArgs@3456@@Details@Platform@@UEAAPEAXI@Z 0000000180010980 f i _nodert_generated.obj
 0001:0000f980       ??_G?$__abi_FunctorCapture@V<lambda_237595074df0c8017b22e4dbeff6e432>@@XPE$AAVBluetoothLEAdvertisementWatcher@Advertisement@Bluetooth@Devices@Windows@@PE$AAVBluetoothLEAdvertisementReceivedEventArgs@3456@@Details@Platform@@UEAAPEAXI@Z 0000000180010980 f i _nodert_generated.obj
 0001:0000f9d0       ??_G?$__abi_FunctorCapture@V<lambda_7027264ebf1117594dd4155ebab65c3d>@@XPE$AAVBluetoothLEAdvertisementWatcher@Advertisement@Bluetooth@Devices@Windows@@PE$AAVBluetoothLEAdvertisementWatcherStoppedEventArgs@3456@@Details@Platform@@UEAAPEAXI@Z 00000001800109d0 f i _nodert_generated.obj
 0001:0000f9d0       ??_E?$__abi_FunctorCapture@V<lambda_7027264ebf1117594dd4155ebab65c3d>@@XPE$AAVBluetoothLEAdvertisementWatcher@Advertisement@Bluetooth@Devices@Windows@@PE$AAVBluetoothLEAdvertisementWatcherStoppedEventArgs@3456@@Details@Platform@@UEAAPEAXI@Z 00000001800109d0 f i _nodert_generated.obj
 0001:0000fa20       ??_G?$__abi_FunctorCapture@V<lambda_73d2589d6f7f5ba1a0f6aa6530cd3b8a>@@XPE$AAVBluetoothLEAdvertisementPublisher@Advertisement@Bluetooth@Devices@Windows@@PE$AAVBluetoothLEAdvertisementPublisherStatusChangedEventArgs@3456@@Details@Platform@@UEAAPEAXI@Z 0000000180010a20 f i _nodert_generated.obj
 0001:0000fa20       ??_E?$__abi_FunctorCapture@V<lambda_73d2589d6f7f5ba1a0f6aa6530cd3b8a>@@XPE$AAVBluetoothLEAdvertisementPublisher@Advertisement@Bluetooth@Devices@Windows@@PE$AAVBluetoothLEAdvertisementPublisherStatusChangedEventArgs@3456@@Details@Platform@@UEAAPEAXI@Z 0000000180010a20 f i _nodert_generated.obj
 0001:0000fa70       ??_GBluetoothLEAdvertisement@Advertisement@Bluetooth@Devices@Windows@NodeRT@@UEAAPEAXI@Z 0000000180010a70 f i _nodert_generated.obj
 0001:0000fa70       ??_EBluetoothLEAdvertisement@Advertisement@Bluetooth@Devices@Windows@NodeRT@@UEAAPEAXI@Z 0000000180010a70 f i _nodert_generated.obj
 0001:0000fae0       ??_GBluetoothLEAdvertisementBytePattern@Advertisement@Bluetooth@Devices@Windows@NodeRT@@UEAAPEAXI@Z 0000000180010ae0 f i _nodert_generated.obj
 0001:0000fae0       ??_EBluetoothLEAdvertisementBytePattern@Advertisement@Bluetooth@Devices@Windows@NodeRT@@UEAAPEAXI@Z 0000000180010ae0 f i _nodert_generated.obj
 0001:0000fb50       ??_EBluetoothLEAdvertisementDataSection@Advertisement@Bluetooth@Devices@Windows@NodeRT@@UEAAPEAXI@Z 0000000180010b50 f i _nodert_generated.obj
 0001:0000fb50       ??_GBluetoothLEAdvertisementDataSection@Advertisement@Bluetooth@Devices@Windows@NodeRT@@UEAAPEAXI@Z 0000000180010b50 f i _nodert_generated.obj
 0001:0000fbc0       ??_GBluetoothLEAdvertisementDataTypes@Advertisement@Bluetooth@Devices@Windows@NodeRT@@UEAAPEAXI@Z 0000000180010bc0 f i _nodert_generated.obj
 0001:0000fbc0       ??_EBluetoothLEAdvertisementDataTypes@Advertisement@Bluetooth@Devices@Windows@NodeRT@@UEAAPEAXI@Z 0000000180010bc0 f i _nodert_generated.obj
 0001:0000fc30       ??_EBluetoothLEAdvertisementFilter@Advertisement@Bluetooth@Devices@Windows@NodeRT@@UEAAPEAXI@Z 0000000180010c30 f i _nodert_generated.obj
 0001:0000fc30       ??_GBluetoothLEAdvertisementFilter@Advertisement@Bluetooth@Devices@Windows@NodeRT@@UEAAPEAXI@Z 0000000180010c30 f i _nodert_generated.obj
 0001:0000fca0       ??_GBluetoothLEAdvertisementPublisher@Advertisement@Bluetooth@Devices@Windows@NodeRT@@UEAAPEAXI@Z 0000000180010ca0 f i _nodert_generated.obj
 0001:0000fca0       ??_EBluetoothLEAdvertisementPublisher@Advertisement@Bluetooth@Devices@Windows@NodeRT@@UEAAPEAXI@Z 0000000180010ca0 f i _nodert_generated.obj
 0001:0000fd10       ??_EBluetoothLEAdvertisementPublisherStatusChangedEventArgs@Advertisement@Bluetooth@Devices@Windows@NodeRT@@UEAAPEAXI@Z 0000000180010d10 f i _nodert_generated.obj
 0001:0000fd10       ??_GBluetoothLEAdvertisementPublisherStatusChangedEventArgs@Advertisement@Bluetooth@Devices@Windows@NodeRT@@UEAAPEAXI@Z 0000000180010d10 f i _nodert_generated.obj
 0001:0000fd80       ??_GBluetoothLEAdvertisementReceivedEventArgs@Advertisement@Bluetooth@Devices@Windows@NodeRT@@UEAAPEAXI@Z 0000000180010d80 f i _nodert_generated.obj
 0001:0000fd80       ??_EBluetoothLEAdvertisementReceivedEventArgs@Advertisement@Bluetooth@Devices@Windows@NodeRT@@UEAAPEAXI@Z 0000000180010d80 f i _nodert_generated.obj
 0001:0000fdf0       ??_GBluetoothLEAdvertisementWatcher@Advertisement@Bluetooth@Devices@Windows@NodeRT@@UEAAPEAXI@Z 0000000180010df0 f i _nodert_generated.obj
 0001:0000fdf0       ??_EBluetoothLEAdvertisementWatcher@Advertisement@Bluetooth@Devices@Windows@NodeRT@@UEAAPEAXI@Z 0000000180010df0 f i _nodert_generated.obj
 0001:0000fe60       ??_EBluetoothLEAdvertisementWatcherStoppedEventArgs@Advertisement@Bluetooth@Devices@Windows@NodeRT@@UEAAPEAXI@Z 0000000180010e60 f i _nodert_generated.obj
 0001:0000fe60       ??_GBluetoothLEAdvertisementWatcherStoppedEventArgs@Advertisement@Bluetooth@Devices@Windows@NodeRT@@UEAAPEAXI@Z 0000000180010e60 f i _nodert_generated.obj
 0001:0000fed0       ??_EBluetoothLEManufacturerData@Advertisement@Bluetooth@Devices@Windows@NodeRT@@UEAAPEAXI@Z 0000000180010ed0 f i _nodert_generated.obj
 0001:0000fed0       ??_GBluetoothLEManufacturerData@Advertisement@Bluetooth@Devices@Windows@NodeRT@@UEAAPEAXI@Z 0000000180010ed0 f i _nodert_generated.obj
 0001:0000ff40       ??_GObjectWrap@Nan@@UEAAPEAXI@Z 0000000180010f40 f i _nodert_generated.obj
 0001:0000ff40       ??_EObjectWrap@Nan@@UEAAPEAXI@Z 0000000180010f40 f i _nodert_generated.obj
 0001:0000ff90       ??_ETokenData@Async@NodeUtils@@UEAAPEAXI@Z 0000000180010f90 f i _nodert_generated.obj
 0001:0000ff90       ??_GTokenData@Async@NodeUtils@@UEAAPEAXI@Z 0000000180010f90 f i _nodert_generated.obj
 0001:00010040       ??_EWrapperBase@NodeRT@@UEAAPEAXI@Z 0000000180011040 f i _nodert_generated.obj
 0001:00010040       ??_GWrapperBase@NodeRT@@UEAAPEAXI@Z 0000000180011040 f i _nodert_generated.obj
 0001:00010090       ??_E_Ref_count_base@std@@UEAAPEAXI@Z 0000000180011090 f i _nodert_generated.obj
 0001:00010090       ??_G_Ref_count_base@std@@UEAAPEAXI@Z 0000000180011090 f i _nodert_generated.obj
 0001:000100d0       ??_G__abi_CaptureBase@Details@Platform@@MEAAPEAXI@Z 00000001800110d0 f i _nodert_generated.obj
 0001:000100d0       ??_E__abi_CaptureBase@Details@Platform@@MEAAPEAXI@Z 00000001800110d0 f i _nodert_generated.obj
 0001:00010110       ??_H@YAXPEAX_K1P6APEAX0@Z@Z 0000000180011110 f i _nodert_generated.obj
 0001:00010170       ?ActivateInstance@IActivationFactory@Details@Platform@@UE$AAAPE$AAVObject@3@XZ 0000000180011170 f i _nodert_generated.obj
 0001:000101f0       ?AddListener@BluetoothLEAdvertisementPublisher@Advertisement@Bluetooth@Devices@Windows@NodeRT@@CAXAEBV?$FunctionCallbackInfo@VValue@v8@@@Nan@@@Z 00000001800111f0 f i _nodert_generated.obj
 0001:00010880       ?AddListener@BluetoothLEAdvertisementWatcher@Advertisement@Bluetooth@Devices@Windows@NodeRT@@CAXAEBV?$FunctionCallbackInfo@VValue@v8@@@Nan@@@Z 0000000180011880 f i _nodert_generated.obj
 0001:00011170       ?AdvertisementFilterGetter@BluetoothLEAdvertisementWatcher@Advertisement@Bluetooth@Devices@Windows@NodeRT@@CAXV?$Local@VString@v8@@@v8@@AEBV?$PropertyCallbackInfo@VValue@v8@@@Nan@@@Z 0000000180012170 f i _nodert_generated.obj
 0001:000112c0       ?AdvertisementFilterSetter@BluetoothLEAdvertisementWatcher@Advertisement@Bluetooth@Devices@Windows@NodeRT@@CAXV?$Local@VString@v8@@@v8@@V?$Local@VValue@v8@@@8@AEBV?$PropertyCallbackInfo@X@Nan@@@Z 00000001800122c0 f i _nodert_generated.obj
 0001:000114a0       ?AdvertisementGetter@BluetoothLEAdvertisementFilter@Advertisement@Bluetooth@Devices@Windows@NodeRT@@CAXV?$Local@VString@v8@@@v8@@AEBV?$PropertyCallbackInfo@VValue@v8@@@Nan@@@Z 00000001800124a0 f i _nodert_generated.obj
 0001:000115f0       ?AdvertisementGetter@BluetoothLEAdvertisementPublisher@Advertisement@Bluetooth@Devices@Windows@NodeRT@@CAXV?$Local@VString@v8@@@v8@@AEBV?$PropertyCallbackInfo@VValue@v8@@@Nan@@@Z 00000001800125f0 f i _nodert_generated.obj
 0001:00011740       ?AdvertisementGetter@BluetoothLEAdvertisementReceivedEventArgs@Advertisement@Bluetooth@Devices@Windows@NodeRT@@CAXV?$Local@VString@v8@@@v8@@AEBV?$PropertyCallbackInfo@VValue@v8@@@Nan@@@Z 0000000180012740 f i _nodert_generated.obj
 0001:00011890       ?AdvertisementSetter@BluetoothLEAdvertisementFilter@Advertisement@Bluetooth@Devices@Windows@NodeRT@@CAXV?$Local@VString@v8@@@v8@@V?$Local@VValue@v8@@@8@AEBV?$PropertyCallbackInfo@X@Nan@@@Z 0000000180012890 f i _nodert_generated.obj
 0001:00011a60       ?AdvertisementTypeGetter@BluetoothLEAdvertisementReceivedEventArgs@Advertisement@Bluetooth@Devices@Windows@NodeRT@@CAXV?$Local@VString@v8@@@v8@@AEBV?$PropertyCallbackInfo@VValue@v8@@@Nan@@@Z 0000000180012a60 f i _nodert_generated.obj
 0001:00011b80       ?AdvertisingIntervalGetter@BluetoothLEAdvertisementDataTypes@Advertisement@Bluetooth@Devices@Windows@NodeRT@@CAXV?$Local@VString@v8@@@v8@@AEBV?$PropertyCallbackInfo@VValue@v8@@@Nan@@@Z 0000000180012b80 f i _nodert_generated.obj
 0001:00011c50       ?AllocateAndCopyElements@?$WriteOnlyArray@PE$AAVBluetoothLEAdvertisementBytePattern@Advertisement@Bluetooth@Devices@Windows@@$00@Platform@@KAPEAPE$AAVBluetoothLEAdvertisementBytePattern@Advertisement@Bluetooth@Devices@Windows@@PEBQE$AAV34567@I@Z 0000000180012c50 f i _nodert_generated.obj
 0001:00011d40       ?AllocateAndCopyElements@?$WriteOnlyArray@PE$AAVBluetoothLEAdvertisementDataSection@Advertisement@Bluetooth@Devices@Windows@@$00@Platform@@KAPEAPE$AAVBluetoothLEAdvertisementDataSection@Advertisement@Bluetooth@Devices@Windows@@PEBQE$AAV34567@I@Z 0000000180012d40 f i _nodert_generated.obj
 0001:00011e30       ?AllocateAndCopyElements@?$WriteOnlyArray@PE$AAVBluetoothLEManufacturerData@Advertisement@Bluetooth@Devices@Windows@@$00@Platform@@KAPEAPE$AAVBluetoothLEManufacturerData@Advertisement@Bluetooth@Devices@Windows@@PEBQE$AAV34567@I@Z 0000000180012e30 f i _nodert_generated.obj
 0001:00011f20       ?AllocateAndCopyElements@?$WriteOnlyArray@VGuid@Platform@@$00@Platform@@KAPEAVGuid@2@PEBV32@I@Z 0000000180012f20 f i _nodert_generated.obj
 0001:00011ff0       ?AppearanceGetter@BluetoothLEAdvertisementDataTypes@Advertisement@Bluetooth@Devices@Windows@NodeRT@@CAXV?$Local@VString@v8@@@v8@@AEBV?$PropertyCallbackInfo@VValue@v8@@@Nan@@@Z 0000000180012ff0 f i _nodert_generated.obj
 0001:000120c0       ?Append@?$IVector@PE$AAVBluetoothLEAdvertisementBytePattern@Advertisement@Bluetooth@Devices@Windows@@@Collections@Foundation@Windows@@UE$AAAXPE$AAVBluetoothLEAdvertisementBytePattern@Advertisement@Bluetooth@Devices@4@@Z 00000001800130c0 f i _nodert_generated.obj
 0001:000120f0       ?Append@?$IVector@PE$AAVBluetoothLEAdvertisementDataSection@Advertisement@Bluetooth@Devices@Windows@@@Collections@Foundation@Windows@@UE$AAAXPE$AAVBluetoothLEAdvertisementDataSection@Advertisement@Bluetooth@Devices@4@@Z 00000001800130f0 f i _nodert_generated.obj
 0001:00012120       ?Append@?$IVector@PE$AAVBluetoothLEManufacturerData@Advertisement@Bluetooth@Devices@Windows@@@Collections@Foundation@Windows@@UE$AAAXPE$AAVBluetoothLEManufacturerData@Advertisement@Bluetooth@Devices@4@@Z 0000000180013120 f i _nodert_generated.obj
 0001:00012150       ?Append@?$IVector@VGuid@Platform@@@Collections@Foundation@Windows@@UE$AAAXVGuid@Platform@@@Z 0000000180013150 f i _nodert_generated.obj
 0001:00012190       ?Append@?$VectorWrapper@PE$AAVBluetoothLEAdvertisementBytePattern@Advertisement@Bluetooth@Devices@Windows@@@Collections@NodeRT@@CAXAEBV?$FunctionCallbackInfo@VValue@v8@@@Nan@@@Z 0000000180013190 f i _nodert_generated.obj
 0001:000123b0       ?Append@?$VectorWrapper@PE$AAVBluetoothLEAdvertisementDataSection@Advertisement@Bluetooth@Devices@Windows@@@Collections@NodeRT@@CAXAEBV?$FunctionCallbackInfo@VValue@v8@@@Nan@@@Z 00000001800133b0 f i _nodert_generated.obj
 0001:000125d0       ?Append@?$VectorWrapper@PE$AAVBluetoothLEManufacturerData@Advertisement@Bluetooth@Devices@Windows@@@Collections@NodeRT@@CAXAEBV?$FunctionCallbackInfo@VValue@v8@@@Nan@@@Z 00000001800135d0 f i _nodert_generated.obj
 0001:000127f0       ?Append@?$VectorWrapper@VGuid@Platform@@@Collections@NodeRT@@CAXAEBV?$FunctionCallbackInfo@VValue@v8@@@Nan@@@Z 00000001800137f0 f i _nodert_generated.obj
 0001:000129d0       ?AsyncCb@Async@NodeUtils@@CAXPEAUuv_async_s@@@Z 00000001800139d0 f i _nodert_generated.obj
 0001:00012a40       ?AyncCloseCb@Async@NodeUtils@@CAXPEAUuv_handle_s@@@Z 0000000180013a40 f i _nodert_generated.obj
 0001:00012a60       ?BluetoothAddressGetter@BluetoothLEAdvertisementReceivedEventArgs@Advertisement@Bluetooth@Devices@Windows@NodeRT@@CAXV?$Local@VString@v8@@@v8@@AEBV?$PropertyCallbackInfo@VValue@v8@@@Nan@@@Z 0000000180013a60 f i _nodert_generated.obj
 0001:00012b70       ?BytePatternsGetter@BluetoothLEAdvertisementFilter@Advertisement@Bluetooth@Devices@Windows@NodeRT@@CAXV?$Local@VString@v8@@@v8@@AEBV?$PropertyCallbackInfo@VValue@v8@@@Nan@@@Z 0000000180013b70 f i _nodert_generated.obj
 0001:00012e10       ?CastFrom@BluetoothLEAdvertisement@Advertisement@Bluetooth@Devices@Windows@NodeRT@@CAXAEBV?$FunctionCallbackInfo@VValue@v8@@@Nan@@@Z 0000000180013e10 f i _nodert_generated.obj
 0001:00013040       ?CastFrom@BluetoothLEAdvertisementBytePattern@Advertisement@Bluetooth@Devices@Windows@NodeRT@@CAXAEBV?$FunctionCallbackInfo@VValue@v8@@@Nan@@@Z 0000000180014040 f i _nodert_generated.obj
 0001:00013270       ?CastFrom@BluetoothLEAdvertisementDataSection@Advertisement@Bluetooth@Devices@Windows@NodeRT@@CAXAEBV?$FunctionCallbackInfo@VValue@v8@@@Nan@@@Z 0000000180014270 f i _nodert_generated.obj
 0001:000134a0       ?CastFrom@BluetoothLEAdvertisementDataTypes@Advertisement@Bluetooth@Devices@Windows@NodeRT@@CAXAEBV?$FunctionCallbackInfo@VValue@v8@@@Nan@@@Z 00000001800144a0 f i _nodert_generated.obj
 0001:000136d0       ?CastFrom@BluetoothLEAdvertisementFilter@Advertisement@Bluetooth@Devices@Windows@NodeRT@@CAXAEBV?$FunctionCallbackInfo@VValue@v8@@@Nan@@@Z 00000001800146d0 f i _nodert_generated.obj
 0001:00013900       ?CastFrom@BluetoothLEAdvertisementPublisher@Advertisement@Bluetooth@Devices@Windows@NodeRT@@CAXAEBV?$FunctionCallbackInfo@VValue@v8@@@Nan@@@Z 0000000180014900 f i _nodert_generated.obj
 0001:00013b30       ?CastFrom@BluetoothLEAdvertisementPublisherStatusChangedEventArgs@Advertisement@Bluetooth@Devices@Windows@NodeRT@@CAXAEBV?$FunctionCallbackInfo@VValue@v8@@@Nan@@@Z 0000000180014b30 f i _nodert_generated.obj
 0001:00013d60       ?CastFrom@BluetoothLEAdvertisementReceivedEventArgs@Advertisement@Bluetooth@Devices@Windows@NodeRT@@CAXAEBV?$FunctionCallbackInfo@VValue@v8@@@Nan@@@Z 0000000180014d60 f i _nodert_generated.obj
 0001:00013f90       ?CastFrom@BluetoothLEAdvertisementWatcher@Advertisement@Bluetooth@Devices@Windows@NodeRT@@CAXAEBV?$FunctionCallbackInfo@VValue@v8@@@Nan@@@Z 0000000180014f90 f i _nodert_generated.obj
 0001:000141c0       ?CastFrom@BluetoothLEAdvertisementWatcherStoppedEventArgs@Advertisement@Bluetooth@Devices@Windows@NodeRT@@CAXAEBV?$FunctionCallbackInfo@VValue@v8@@@Nan@@@Z 00000001800151c0 f i _nodert_generated.obj
 0001:000143f0       ?CastFrom@BluetoothLEManufacturerData@Advertisement@Bluetooth@Devices@Windows@NodeRT@@CAXAEBV?$FunctionCallbackInfo@VValue@v8@@@Nan@@@Z 00000001800153f0 f i _nodert_generated.obj
 0001:00014620       ?Clear@?$IVector@PE$AAVBluetoothLEAdvertisementBytePattern@Advertisement@Bluetooth@Devices@Windows@@@Collections@Foundation@Windows@@UE$AAAXXZ 0000000180015620 f i _nodert_generated.obj
 0001:00014650       ?Clear@?$IVector@PE$AAVBluetoothLEAdvertisementDataSection@Advertisement@Bluetooth@Devices@Windows@@@Collections@Foundation@Windows@@UE$AAAXXZ 0000000180015650 f i _nodert_generated.obj
 0001:00014680       ?Clear@?$IVector@PE$AAVBluetoothLEManufacturerData@Advertisement@Bluetooth@Devices@Windows@@@Collections@Foundation@Windows@@UE$AAAXXZ 0000000180015680 f i _nodert_generated.obj
 0001:000146b0       ?Clear@?$IVector@VGuid@Platform@@@Collections@Foundation@Windows@@UE$AAAXXZ 00000001800156b0 f i _nodert_generated.obj
 0001:000146e0       ?Clear@?$VectorWrapper@PE$AAVBluetoothLEAdvertisementBytePattern@Advertisement@Bluetooth@Devices@Windows@@@Collections@NodeRT@@CAXAEBV?$FunctionCallbackInfo@VValue@v8@@@Nan@@@Z 00000001800156e0 f i _nodert_generated.obj
 0001:000147d0       ?Clear@?$VectorWrapper@PE$AAVBluetoothLEAdvertisementDataSection@Advertisement@Bluetooth@Devices@Windows@@@Collections@NodeRT@@CAXAEBV?$FunctionCallbackInfo@VValue@v8@@@Nan@@@Z 00000001800157d0 f i _nodert_generated.obj
 0001:000148c0       ?Clear@?$VectorWrapper@PE$AAVBluetoothLEManufacturerData@Advertisement@Bluetooth@Devices@Windows@@@Collections@NodeRT@@CAXAEBV?$FunctionCallbackInfo@VValue@v8@@@Nan@@@Z 00000001800158c0 f i _nodert_generated.obj
 0001:000149b0       ?Clear@?$VectorWrapper@VGuid@Platform@@@Collections@NodeRT@@CAXAEBV?$FunctionCallbackInfo@VValue@v8@@@Nan@@@Z 00000001800159b0 f i _nodert_generated.obj
 0001:00014aa0       ?CompanyIdGetter@BluetoothLEManufacturerData@Advertisement@Bluetooth@Devices@Windows@NodeRT@@CAXV?$Local@VString@v8@@@v8@@AEBV?$PropertyCallbackInfo@VValue@v8@@@Nan@@@Z 0000000180015aa0 f i _nodert_generated.obj
 0001:00014bc0       ?CompanyIdSetter@BluetoothLEManufacturerData@Advertisement@Bluetooth@Devices@Windows@NodeRT@@CAXV?$Local@VString@v8@@@v8@@V?$Local@VValue@v8@@@8@AEBV?$PropertyCallbackInfo@X@Nan@@@Z 0000000180015bc0 f i _nodert_generated.obj
 0001:00014cf0       ?CompleteLocalNameGetter@BluetoothLEAdvertisementDataTypes@Advertisement@Bluetooth@Devices@Windows@NodeRT@@CAXV?$Local@VString@v8@@@v8@@AEBV?$PropertyCallbackInfo@VValue@v8@@@Nan@@@Z 0000000180015cf0 f i _nodert_generated.obj
 0001:00014dc0       ?CompleteService128BitUuidsGetter@BluetoothLEAdvertisementDataTypes@Advertisement@Bluetooth@Devices@Windows@NodeRT@@CAXV?$Local@VString@v8@@@v8@@AEBV?$PropertyCallbackInfo@VValue@v8@@@Nan@@@Z 0000000180015dc0 f i _nodert_generated.obj
 0001:00014e90       ?CompleteService16BitUuidsGetter@BluetoothLEAdvertisementDataTypes@Advertisement@Bluetooth@Devices@Windows@NodeRT@@CAXV?$Local@VString@v8@@@v8@@AEBV?$PropertyCallbackInfo@VValue@v8@@@Nan@@@Z 0000000180015e90 f i _nodert_generated.obj
 0001:00014f60       ?CompleteService32BitUuidsGetter@BluetoothLEAdvertisementDataTypes@Advertisement@Bluetooth@Devices@Windows@NodeRT@@CAXV?$Local@VString@v8@@@v8@@AEBV?$PropertyCallbackInfo@VValue@v8@@@Nan@@@Z 0000000180015f60 f i _nodert_generated.obj
 0001:00015030       ?CopyToOrDetach@?$Array@PE$AAVBluetoothLEAdvertisementBytePattern@Advertisement@Bluetooth@Devices@Windows@@$00@Platform@@AE$AAAXPEAPEAPE$AAVBluetoothLEAdvertisementBytePattern@Advertisement@Bluetooth@Devices@Windows@@PEAI@Z 0000000180016030 f i _nodert_generated.obj
 0001:00015150       ?CopyToOrDetach@?$Array@PE$AAVBluetoothLEAdvertisementDataSection@Advertisement@Bluetooth@Devices@Windows@@$00@Platform@@AE$AAAXPEAPEAPE$AAVBluetoothLEAdvertisementDataSection@Advertisement@Bluetooth@Devices@Windows@@PEAI@Z 0000000180016150 f i _nodert_generated.obj
 0001:00015270       ?CopyToOrDetach@?$Array@PE$AAVBluetoothLEManufacturerData@Advertisement@Bluetooth@Devices@Windows@@$00@Platform@@AE$AAAXPEAPEAPE$AAVBluetoothLEManufacturerData@Advertisement@Bluetooth@Devices@Windows@@PEAI@Z 0000000180016270 f i _nodert_generated.obj
 0001:00015390       ?CopyToOrDetach@?$Array@VGuid@Platform@@$00@Platform@@AE$AAAXPEAPEAVGuid@2@PEAI@Z 0000000180016390 f i _nodert_generated.obj
 0001:000154b0       ?Create@IBluetoothLEAdvertisementBytePatternFactory@Advertisement@Bluetooth@Devices@Windows@@UE$AAAPE$AAVBluetoothLEAdvertisementBytePattern@2345@EFPE$AAUIBuffer@Streams@Storage@5@@Z 00000001800164b0 f i _nodert_generated.obj
 0001:00015530       ?Create@IBluetoothLEAdvertisementDataSectionFactory@Advertisement@Bluetooth@Devices@Windows@@UE$AAAPE$AAVBluetoothLEAdvertisementDataSection@2345@EPE$AAUIBuffer@Streams@Storage@5@@Z 0000000180016530 f i _nodert_generated.obj
 0001:000155b0       ?Create@IBluetoothLEAdvertisementPublisherFactory@Advertisement@Bluetooth@Devices@Windows@@UE$AAAPE$AAVBluetoothLEAdvertisementPublisher@2345@PE$AAVBluetoothLEAdvertisement@2345@@Z 00000001800165b0 f i _nodert_generated.obj
 0001:00015630       ?Create@IBluetoothLEAdvertisementWatcherFactory@Advertisement@Bluetooth@Devices@Windows@@UE$AAAPE$AAVBluetoothLEAdvertisementWatcher@2345@PE$AAVBluetoothLEAdvertisementFilter@2345@@Z 0000000180016630 f i _nodert_generated.obj
 0001:000156b0       ?Create@IBluetoothLEManufacturerDataFactory@Advertisement@Bluetooth@Devices@Windows@@UE$AAAPE$AAVBluetoothLEManufacturerData@2345@GPE$AAUIBuffer@Streams@Storage@5@@Z 00000001800166b0 f i _nodert_generated.obj
 0001:00015730       ?CreateInt64@IPropertyValueStatics@Foundation@Windows@@UE$AAAPE$AAVObject@Platform@@_J@Z 0000000180016730 f i _nodert_generated.obj
 0001:000157b0       ?CreateInt64@PropertyValue@Foundation@Windows@@SAPE$AAVObject@Platform@@_J@Z 00000001800167b0 f i _nodert_generated.obj
 0001:000158c0       ?CreateIteratorWrapper@?$IteratorWrapper@PE$AAVBluetoothLEAdvertisementBytePattern@Advertisement@Bluetooth@Devices@Windows@@@Collections@NodeRT@@SA?AV?$Local@VValue@v8@@@v8@@PE$AAU?$IIterator@PE$AAVBluetoothLEAdvertisementBytePattern@Advertisement@Bluetooth@Devices@Windows@@@2Foundation@Windows@@AEBV?$function@$$A6A?AV?$Local@VValue@v8@@@v8@@PE$AAVBluetoothLEAdvertisementBytePattern@Advertisement@Bluetooth@Devices@Windows@@@Z@std@@@Z 00000001800168c0 f i _nodert_generated.obj
 0001:00015a60       ?CreateIteratorWrapper@?$IteratorWrapper@PE$AAVBluetoothLEAdvertisementDataSection@Advertisement@Bluetooth@Devices@Windows@@@Collections@NodeRT@@SA?AV?$Local@VValue@v8@@@v8@@PE$AAU?$IIterator@PE$AAVBluetoothLEAdvertisementDataSection@Advertisement@Bluetooth@Devices@Windows@@@2Foundation@Windows@@AEBV?$function@$$A6A?AV?$Local@VValue@v8@@@v8@@PE$AAVBluetoothLEAdvertisementDataSection@Advertisement@Bluetooth@Devices@Windows@@@Z@std@@@Z 0000000180016a60 f i _nodert_generated.obj
 0001:00015c00       ?CreateIteratorWrapper@?$IteratorWrapper@PE$AAVBluetoothLEManufacturerData@Advertisement@Bluetooth@Devices@Windows@@@Collections@NodeRT@@SA?AV?$Local@VValue@v8@@@v8@@PE$AAU?$IIterator@PE$AAVBluetoothLEManufacturerData@Advertisement@Bluetooth@Devices@Windows@@@2Foundation@Windows@@AEBV?$function@$$A6A?AV?$Local@VValue@v8@@@v8@@PE$AAVBluetoothLEManufacturerData@Advertisement@Bluetooth@Devices@Windows@@@Z@std@@@Z 0000000180016c00 f i _nodert_generated.obj
 0001:00015da0       ?CreateIteratorWrapper@?$IteratorWrapper@VGuid@Platform@@@Collections@NodeRT@@SA?AV?$Local@VValue@v8@@@v8@@PE$AAU?$IIterator@VGuid@Platform@@@2Foundation@Windows@@AEBV?$function@$$A6A?AV?$Local@VValue@v8@@@v8@@VGuid@Platform@@@Z@std@@@Z 0000000180016da0 f i _nodert_generated.obj
 0001:00015f40       ?CreateVectorViewWrapper@?$VectorViewWrapper@PE$AAVBluetoothLEAdvertisementBytePattern@Advertisement@Bluetooth@Devices@Windows@@@Collections@NodeRT@@SA?AV?$Local@VValue@v8@@@v8@@PE$AAU?$IVectorView@PE$AAVBluetoothLEAdvertisementBytePattern@Advertisement@Bluetooth@Devices@Windows@@@2Foundation@Windows@@AEBV?$function@$$A6A?AV?$Local@VValue@v8@@@v8@@PE$AAVBluetoothLEAdvertisementBytePattern@Advertisement@Bluetooth@Devices@Windows@@@Z@std@@AEBV?$function@$$A6A_NV?$Local@VValue@v8@@@v8@@@Z@std@@AEBV?$function@$$A6APE$AAVBluetoothLEAdvertisementBytePattern@Advertisement@Bluetooth@Devices@Windows@@V?$Local@VValue@v8@@@v8@@@Z@std@@@Z 0000000180016f40 f i _nodert_generated.obj
 0001:000161e0       ?CreateVectorViewWrapper@?$VectorViewWrapper@PE$AAVBluetoothLEAdvertisementDataSection@Advertisement@Bluetooth@Devices@Windows@@@Collections@NodeRT@@SA?AV?$Local@VValue@v8@@@v8@@PE$AAU?$IVectorView@PE$AAVBluetoothLEAdvertisementDataSection@Advertisement@Bluetooth@Devices@Windows@@@2Foundation@Windows@@AEBV?$function@$$A6A?AV?$Local@VValue@v8@@@v8@@PE$AAVBluetoothLEAdvertisementDataSection@Advertisement@Bluetooth@Devices@Windows@@@Z@std@@AEBV?$function@$$A6A_NV?$Local@VValue@v8@@@v8@@@Z@std@@AEBV?$function@$$A6APE$AAVBluetoothLEAdvertisementDataSection@Advertisement@Bluetooth@Devices@Windows@@V?$Local@VValue@v8@@@v8@@@Z@std@@@Z 00000001800171e0 f i _nodert_generated.obj
 0001:00016480       ?CreateVectorViewWrapper@?$VectorViewWrapper@PE$AAVBluetoothLEManufacturerData@Advertisement@Bluetooth@Devices@Windows@@@Collections@NodeRT@@SA?AV?$Local@VValue@v8@@@v8@@PE$AAU?$IVectorView@PE$AAVBluetoothLEManufacturerData@Advertisement@Bluetooth@Devices@Windows@@@2Foundation@Windows@@AEBV?$function@$$A6A?AV?$Local@VValue@v8@@@v8@@PE$AAVBluetoothLEManufacturerData@Advertisement@Bluetooth@Devices@Windows@@@Z@std@@AEBV?$function@$$A6A_NV?$Local@VValue@v8@@@v8@@@Z@std@@AEBV?$function@$$A6APE$AAVBluetoothLEManufacturerData@Advertisement@Bluetooth@Devices@Windows@@V?$Local@VValue@v8@@@v8@@@Z@std@@@Z 0000000180017480 f i _nodert_generated.obj
 0001:00016720       ?CreateVectorViewWrapper@?$VectorViewWrapper@VGuid@Platform@@@Collections@NodeRT@@SA?AV?$Local@VValue@v8@@@v8@@PE$AAU?$IVectorView@VGuid@Platform@@@2Foundation@Windows@@AEBV?$function@$$A6A?AV?$Local@VValue@v8@@@v8@@VGuid@Platform@@@Z@std@@AEBV?$function@$$A6A_NV?$Local@VValue@v8@@@v8@@@Z@std@@AEBV?$function@$$A6A?AVGuid@Platform@@V?$Local@VValue@v8@@@v8@@@Z@std@@@Z 0000000180017720 f i _nodert_generated.obj
 0001:000169c0       ?CreateVectorWrapper@?$VectorWrapper@PE$AAVBluetoothLEAdvertisementBytePattern@Advertisement@Bluetooth@Devices@Windows@@@Collections@NodeRT@@SA?AV?$Local@VValue@v8@@@v8@@PE$AAU?$IVector@PE$AAVBluetoothLEAdvertisementBytePattern@Advertisement@Bluetooth@Devices@Windows@@@2Foundation@Windows@@AEBV?$function@$$A6A?AV?$Local@VValue@v8@@@v8@@PE$AAVBluetoothLEAdvertisementBytePattern@Advertisement@Bluetooth@Devices@Windows@@@Z@std@@AEBV?$function@$$A6A_NV?$Local@VValue@v8@@@v8@@@Z@std@@AEBV?$function@$$A6APE$AAVBluetoothLEAdvertisementBytePattern@Advertisement@Bluetooth@Devices@Windows@@V?$Local@VValue@v8@@@v8@@@Z@std@@@Z 00000001800179c0 f i _nodert_generated.obj
 0001:00016b80       ?CreateVectorWrapper@?$VectorWrapper@PE$AAVBluetoothLEAdvertisementDataSection@Advertisement@Bluetooth@Devices@Windows@@@Collections@NodeRT@@SA?AV?$Local@VValue@v8@@@v8@@PE$AAU?$IVector@PE$AAVBluetoothLEAdvertisementDataSection@Advertisement@Bluetooth@Devices@Windows@@@2Foundation@Windows@@AEBV?$function@$$A6A?AV?$Local@VValue@v8@@@v8@@PE$AAVBluetoothLEAdvertisementDataSection@Advertisement@Bluetooth@Devices@Windows@@@Z@std@@AEBV?$function@$$A6A_NV?$Local@VValue@v8@@@v8@@@Z@std@@AEBV?$function@$$A6APE$AAVBluetoothLEAdvertisementDataSection@Advertisement@Bluetooth@Devices@Windows@@V?$Local@VValue@v8@@@v8@@@Z@std@@@Z 0000000180017b80 f i _nodert_generated.obj
 0001:00016d40       ?CreateVectorWrapper@?$VectorWrapper@PE$AAVBluetoothLEManufacturerData@Advertisement@Bluetooth@Devices@Windows@@@Collections@NodeRT@@SA?AV?$Local@VValue@v8@@@v8@@PE$AAU?$IVector@PE$AAVBluetoothLEManufacturerData@Advertisement@Bluetooth@Devices@Windows@@@2Foundation@Windows@@AEBV?$function@$$A6A?AV?$Local@VValue@v8@@@v8@@PE$AAVBluetoothLEManufacturerData@Advertisement@Bluetooth@Devices@Windows@@@Z@std@@AEBV?$function@$$A6A_NV?$Local@VValue@v8@@@v8@@@Z@std@@AEBV?$function@$$A6APE$AAVBluetoothLEManufacturerData@Advertisement@Bluetooth@Devices@Windows@@V?$Local@VValue@v8@@@v8@@@Z@std@@@Z 0000000180017d40 f i _nodert_generated.obj
 0001:00016f00       ?CreateVectorWrapper@?$VectorWrapper@VGuid@Platform@@@Collections@NodeRT@@SA?AV?$Local@VValue@v8@@@v8@@PE$AAU?$IVector@VGuid@Platform@@@2Foundation@Windows@@AEBV?$function@$$A6A?AV?$Local@VValue@v8@@@v8@@VGuid@Platform@@@Z@std@@AEBV?$function@$$A6A_NV?$Local@VValue@v8@@@v8@@@Z@std@@AEBV?$function@$$A6A?AVGuid@Platform@@V?$Local@VValue@v8@@@v8@@@Z@std@@@Z 0000000180017f00 f i _nodert_generated.obj
 0001:000170c0       ?CurrentGetter@?$IteratorWrapper@PE$AAVBluetoothLEAdvertisementBytePattern@Advertisement@Bluetooth@Devices@Windows@@@Collections@NodeRT@@CAXV?$Local@VString@v8@@@v8@@AEBV?$PropertyCallbackInfo@VValue@v8@@@Nan@@@Z 00000001800180c0 f i _nodert_generated.obj
 0001:00017250       ?CurrentGetter@?$IteratorWrapper@PE$AAVBluetoothLEAdvertisementDataSection@Advertisement@Bluetooth@Devices@Windows@@@Collections@NodeRT@@CAXV?$Local@VString@v8@@@v8@@AEBV?$PropertyCallbackInfo@VValue@v8@@@Nan@@@Z 0000000180018250 f i _nodert_generated.obj
 0001:000173e0       ?CurrentGetter@?$IteratorWrapper@PE$AAVBluetoothLEManufacturerData@Advertisement@Bluetooth@Devices@Windows@@@Collections@NodeRT@@CAXV?$Local@VString@v8@@@v8@@AEBV?$PropertyCallbackInfo@VValue@v8@@@Nan@@@Z 00000001800183e0 f i _nodert_generated.obj
 0001:00017570       ?CurrentGetter@?$IteratorWrapper@VGuid@Platform@@@Collections@NodeRT@@CAXV?$Local@VString@v8@@@v8@@AEBV?$PropertyCallbackInfo@VValue@v8@@@Nan@@@Z 0000000180018570 f i _nodert_generated.obj
 0001:00017760       ?DataGetter@BluetoothLEAdvertisementBytePattern@Advertisement@Bluetooth@Devices@Windows@NodeRT@@CAXV?$Local@VString@v8@@@v8@@AEBV?$PropertyCallbackInfo@VValue@v8@@@Nan@@@Z 0000000180018760 f i _nodert_generated.obj
 0001:000178c0       ?DataGetter@BluetoothLEAdvertisementDataSection@Advertisement@Bluetooth@Devices@Windows@NodeRT@@CAXV?$Local@VString@v8@@@v8@@AEBV?$PropertyCallbackInfo@VValue@v8@@@Nan@@@Z 00000001800188c0 f i _nodert_generated.obj
 0001:00017a20       ?DataGetter@BluetoothLEManufacturerData@Advertisement@Bluetooth@Devices@Windows@NodeRT@@CAXV?$Local@VString@v8@@@v8@@AEBV?$PropertyCallbackInfo@VValue@v8@@@Nan@@@Z 0000000180018a20 f i _nodert_generated.obj
 0001:00017b80       ?DataSectionsGetter@BluetoothLEAdvertisement@Advertisement@Bluetooth@Devices@Windows@NodeRT@@CAXV?$Local@VString@v8@@@v8@@AEBV?$PropertyCallbackInfo@VValue@v8@@@Nan@@@Z 0000000180018b80 f i _nodert_generated.obj
 0001:00017e20       ?DataSetter@BluetoothLEAdvertisementBytePattern@Advertisement@Bluetooth@Devices@Windows@NodeRT@@CAXV?$Local@VString@v8@@@v8@@V?$Local@VValue@v8@@@8@AEBV?$PropertyCallbackInfo@X@Nan@@@Z 0000000180018e20 f i _nodert_generated.obj
 0001:00017ff0       ?DataSetter@BluetoothLEAdvertisementDataSection@Advertisement@Bluetooth@Devices@Windows@NodeRT@@CAXV?$Local@VString@v8@@@v8@@V?$Local@VValue@v8@@@8@AEBV?$PropertyCallbackInfo@X@Nan@@@Z 0000000180018ff0 f i _nodert_generated.obj
 0001:000181c0       ?DataSetter@BluetoothLEManufacturerData@Advertisement@Bluetooth@Devices@Windows@NodeRT@@CAXV?$Local@VString@v8@@@v8@@V?$Local@VValue@v8@@@8@AEBV?$PropertyCallbackInfo@X@Nan@@@Z 00000001800191c0 f i _nodert_generated.obj
 0001:00018390       ?DataTypeGetter@BluetoothLEAdvertisementBytePattern@Advertisement@Bluetooth@Devices@Windows@NodeRT@@CAXV?$Local@VString@v8@@@v8@@AEBV?$PropertyCallbackInfo@VValue@v8@@@Nan@@@Z 0000000180019390 f i _nodert_generated.obj
 0001:000184b0       ?DataTypeGetter@BluetoothLEAdvertisementDataSection@Advertisement@Bluetooth@Devices@Windows@NodeRT@@CAXV?$Local@VString@v8@@@v8@@AEBV?$PropertyCallbackInfo@VValue@v8@@@Nan@@@Z 00000001800194b0 f i _nodert_generated.obj
 0001:000185d0       ?DataTypeSetter@BluetoothLEAdvertisementBytePattern@Advertisement@Bluetooth@Devices@Windows@NodeRT@@CAXV?$Local@VString@v8@@@v8@@V?$Local@VValue@v8@@@8@AEBV?$PropertyCallbackInfo@X@Nan@@@Z 00000001800195d0 f i _nodert_generated.obj
 0001:00018700       ?DataTypeSetter@BluetoothLEAdvertisementDataSection@Advertisement@Bluetooth@Devices@Windows@NodeRT@@CAXV?$Local@VString@v8@@@v8@@V?$Local@VValue@v8@@@8@AEBV?$PropertyCallbackInfo@X@Nan@@@Z 0000000180019700 f i _nodert_generated.obj
 0001:00018830       ?Decrement@__abi_FTMWeakRefData@@QECAKXZ 0000000180019830 f i _nodert_generated.obj
 0001:000188e0       ?Delete@Nan@@YA?AV?$Maybe@_N@v8@@V?$Local@VObject@v8@@@3@V?$Local@VString@v8@@@3@@Z 00000001800198e0 f i _nodert_generated.obj
 0001:00018980       ?Equals@Nan@@YA?AV?$Maybe@_N@v8@@V?$Local@VValue@v8@@@3@0@Z 0000000180019980 f i _nodert_generated.obj
 0001:00018a10       ?ErrorGetter@BluetoothLEAdvertisementPublisherStatusChangedEventArgs@Advertisement@Bluetooth@Devices@Windows@NodeRT@@CAXV?$Local@VString@v8@@@v8@@AEBV?$PropertyCallbackInfo@VValue@v8@@@Nan@@@Z 0000000180019a10 f i _nodert_generated.obj
 0001:00018b30       ?ErrorGetter@BluetoothLEAdvertisementWatcherStoppedEventArgs@Advertisement@Bluetooth@Devices@Windows@NodeRT@@CAXV?$Local@VString@v8@@@v8@@AEBV?$PropertyCallbackInfo@VValue@v8@@@Nan@@@Z 0000000180019b30 f i _nodert_generated.obj
 0001:00018c50       ?First@?$IIterable@PE$AAVBluetoothLEAdvertisementBytePattern@Advertisement@Bluetooth@Devices@Windows@@@Collections@Foundation@Windows@@UE$AAAPE$AAU?$IIterator@PE$AAVBluetoothLEAdvertisementBytePattern@Advertisement@Bluetooth@Devices@Windows@@@234@XZ 0000000180019c50 f i _nodert_generated.obj
 0001:00018cd0       ?First@?$IIterable@PE$AAVBluetoothLEAdvertisementDataSection@Advertisement@Bluetooth@Devices@Windows@@@Collections@Foundation@Windows@@UE$AAAPE$AAU?$IIterator@PE$AAVBluetoothLEAdvertisementDataSection@Advertisement@Bluetooth@Devices@Windows@@@234@XZ 0000000180019cd0 f i _nodert_generated.obj
 0001:00018d50       ?First@?$IIterable@PE$AAVBluetoothLEManufacturerData@Advertisement@Bluetooth@Devices@Windows@@@Collections@Foundation@Windows@@UE$AAAPE$AAU?$IIterator@PE$AAVBluetoothLEManufacturerData@Advertisement@Bluetooth@Devices@Windows@@@234@XZ 0000000180019d50 f i _nodert_generated.obj
 0001:00018dd0       ?First@?$IIterable@VGuid@Platform@@@Collections@Foundation@Windows@@UE$AAAPE$AAU?$IIterator@VGuid@Platform@@@234@XZ 0000000180019dd0 f i _nodert_generated.obj
 0001:00018e50       ?First@?$VectorViewWrapper@PE$AAVBluetoothLEAdvertisementBytePattern@Advertisement@Bluetooth@Devices@Windows@@@Collections@NodeRT@@CAXAEBV?$FunctionCallbackInfo@VValue@v8@@@Nan@@@Z 0000000180019e50 f i _nodert_generated.obj
 0001:00019020       ?First@?$VectorViewWrapper@PE$AAVBluetoothLEAdvertisementDataSection@Advertisement@Bluetooth@Devices@Windows@@@Collections@NodeRT@@CAXAEBV?$FunctionCallbackInfo@VValue@v8@@@Nan@@@Z 000000018001a020 f i _nodert_generated.obj
 0001:000191f0       ?First@?$VectorViewWrapper@PE$AAVBluetoothLEManufacturerData@Advertisement@Bluetooth@Devices@Windows@@@Collections@NodeRT@@CAXAEBV?$FunctionCallbackInfo@VValue@v8@@@Nan@@@Z 000000018001a1f0 f i _nodert_generated.obj
 0001:000193c0       ?First@?$VectorViewWrapper@VGuid@Platform@@@Collections@NodeRT@@CAXAEBV?$FunctionCallbackInfo@VValue@v8@@@Nan@@@Z 000000018001a3c0 f i _nodert_generated.obj
 0001:00019590       ?First@?$VectorWrapper@PE$AAVBluetoothLEAdvertisementBytePattern@Advertisement@Bluetooth@Devices@Windows@@@Collections@NodeRT@@CAXAEBV?$FunctionCallbackInfo@VValue@v8@@@Nan@@@Z 000000018001a590 f i _nodert_generated.obj
 0001:00019760       ?First@?$VectorWrapper@PE$AAVBluetoothLEAdvertisementDataSection@Advertisement@Bluetooth@Devices@Windows@@@Collections@NodeRT@@CAXAEBV?$FunctionCallbackInfo@VValue@v8@@@Nan@@@Z 000000018001a760 f i _nodert_generated.obj
 0001:00019930       ?First@?$VectorWrapper@PE$AAVBluetoothLEManufacturerData@Advertisement@Bluetooth@Devices@Windows@@@Collections@NodeRT@@CAXAEBV?$FunctionCallbackInfo@VValue@v8@@@Nan@@@Z 000000018001a930 f i _nodert_generated.obj
 0001:00019b00       ?First@?$VectorWrapper@VGuid@Platform@@@Collections@NodeRT@@CAXAEBV?$FunctionCallbackInfo@VValue@v8@@@Nan@@@Z 000000018001ab00 f i _nodert_generated.obj
 0001:00019cd0       ?FlagsGetter@BluetoothLEAdvertisement@Advertisement@Bluetooth@Devices@Windows@NodeRT@@CAXV?$Local@VString@v8@@@v8@@AEBV?$PropertyCallbackInfo@VValue@v8@@@Nan@@@Z 000000018001acd0 f i _nodert_generated.obj
 0001:00019eb0       ?FlagsGetter@BluetoothLEAdvertisementDataTypes@Advertisement@Bluetooth@Devices@Windows@NodeRT@@CAXV?$Local@VString@v8@@@v8@@AEBV?$PropertyCallbackInfo@VValue@v8@@@Nan@@@Z 000000018001aeb0 f i _nodert_generated.obj
 0001:00019f80       ?FlagsSetter@BluetoothLEAdvertisement@Advertisement@Bluetooth@Devices@Windows@NodeRT@@CAXV?$Local@VString@v8@@@v8@@V?$Local@VValue@v8@@@8@AEBV?$PropertyCallbackInfo@X@Nan@@@Z 000000018001af80 f i _nodert_generated.obj
 0001:0001a290       ?Get@?$VectorViewWrapper@PE$AAVBluetoothLEAdvertisementBytePattern@Advertisement@Bluetooth@Devices@Windows@@@Collections@NodeRT@@CAXIAEBV?$PropertyCallbackInfo@VValue@v8@@@Nan@@@Z 000000018001b290 f i _nodert_generated.obj
 0001:0001a400       ?Get@?$VectorViewWrapper@PE$AAVBluetoothLEAdvertisementDataSection@Advertisement@Bluetooth@Devices@Windows@@@Collections@NodeRT@@CAXIAEBV?$PropertyCallbackInfo@VValue@v8@@@Nan@@@Z 000000018001b400 f i _nodert_generated.obj
 0001:0001a570       ?Get@?$VectorViewWrapper@PE$AAVBluetoothLEManufacturerData@Advertisement@Bluetooth@Devices@Windows@@@Collections@NodeRT@@CAXIAEBV?$PropertyCallbackInfo@VValue@v8@@@Nan@@@Z 000000018001b570 f i _nodert_generated.obj
 0001:0001a6e0       ?Get@?$VectorViewWrapper@VGuid@Platform@@@Collections@NodeRT@@CAXIAEBV?$PropertyCallbackInfo@VValue@v8@@@Nan@@@Z 000000018001b6e0 f i _nodert_generated.obj
 0001:0001a8d0       ?Get@?$VectorWrapper@PE$AAVBluetoothLEAdvertisementBytePattern@Advertisement@Bluetooth@Devices@Windows@@@Collections@NodeRT@@CAXIAEBV?$PropertyCallbackInfo@VValue@v8@@@Nan@@@Z 000000018001b8d0 f i _nodert_generated.obj
 0001:0001aa40       ?Get@?$VectorWrapper@PE$AAVBluetoothLEAdvertisementDataSection@Advertisement@Bluetooth@Devices@Windows@@@Collections@NodeRT@@CAXIAEBV?$PropertyCallbackInfo@VValue@v8@@@Nan@@@Z 000000018001ba40 f i _nodert_generated.obj
 0001:0001abb0       ?Get@?$VectorWrapper@PE$AAVBluetoothLEManufacturerData@Advertisement@Bluetooth@Devices@Windows@@@Collections@NodeRT@@CAXIAEBV?$PropertyCallbackInfo@VValue@v8@@@Nan@@@Z 000000018001bbb0 f i _nodert_generated.obj
 0001:0001ad20       ?Get@?$VectorWrapper@VGuid@Platform@@@Collections@NodeRT@@CAXIAEBV?$PropertyCallbackInfo@VValue@v8@@@Nan@@@Z 000000018001bd20 f i _nodert_generated.obj
 0001:0001af10       ?Get@Nan@@YA?AV?$MaybeLocal@VValue@v8@@@v8@@V?$Local@VObject@v8@@@3@V?$Local@VValue@v8@@@3@@Z 000000018001bf10 f i _nodert_generated.obj
 0001:0001afc0       ?GetAt@?$IVector@PE$AAVBluetoothLEAdvertisementBytePattern@Advertisement@Bluetooth@Devices@Windows@@@Collections@Foundation@Windows@@UE$AAAPE$AAVBluetoothLEAdvertisementBytePattern@Advertisement@Bluetooth@Devices@4@I@Z 000000018001bfc0 f i _nodert_generated.obj
 0001:0001b040       ?GetAt@?$IVector@PE$AAVBluetoothLEAdvertisementDataSection@Advertisement@Bluetooth@Devices@Windows@@@Collections@Foundation@Windows@@UE$AAAPE$AAVBluetoothLEAdvertisementDataSection@Advertisement@Bluetooth@Devices@4@I@Z 000000018001c040 f i _nodert_generated.obj
 0001:0001b0c0       ?GetAt@?$IVector@PE$AAVBluetoothLEManufacturerData@Advertisement@Bluetooth@Devices@Windows@@@Collections@Foundation@Windows@@UE$AAAPE$AAVBluetoothLEManufacturerData@Advertisement@Bluetooth@Devices@4@I@Z 000000018001c0c0 f i _nodert_generated.obj
 0001:0001b140       ?GetAt@?$IVector@VGuid@Platform@@@Collections@Foundation@Windows@@UE$AAA?AVGuid@Platform@@I@Z 000000018001c140 f i _nodert_generated.obj
 0001:0001b190       ?GetAt@?$IVectorView@PE$AAVBluetoothLEAdvertisementBytePattern@Advertisement@Bluetooth@Devices@Windows@@@Collections@Foundation@Windows@@UE$AAAPE$AAVBluetoothLEAdvertisementBytePattern@Advertisement@Bluetooth@Devices@4@I@Z 000000018001c190 f i _nodert_generated.obj
 0001:0001b210       ?GetAt@?$IVectorView@PE$AAVBluetoothLEAdvertisementDataSection@Advertisement@Bluetooth@Devices@Windows@@@Collections@Foundation@Windows@@UE$AAAPE$AAVBluetoothLEAdvertisementDataSection@Advertisement@Bluetooth@Devices@4@I@Z 000000018001c210 f i _nodert_generated.obj
 0001:0001b290       ?GetAt@?$IVectorView@PE$AAVBluetoothLEManufacturerData@Advertisement@Bluetooth@Devices@Windows@@@Collections@Foundation@Windows@@UE$AAAPE$AAVBluetoothLEManufacturerData@Advertisement@Bluetooth@Devices@4@I@Z 000000018001c290 f i _nodert_generated.obj
 0001:0001b310       ?GetAt@?$IVectorView@VGuid@Platform@@@Collections@Foundation@Windows@@UE$AAA?AVGuid@Platform@@I@Z 000000018001c310 f i _nodert_generated.obj
 0001:0001b360       ?GetAt@?$VectorViewWrapper@PE$AAVBluetoothLEAdvertisementBytePattern@Advertisement@Bluetooth@Devices@Windows@@@Collections@NodeRT@@CAXAEBV?$FunctionCallbackInfo@VValue@v8@@@Nan@@@Z 000000018001c360 f i _nodert_generated.obj
 0001:0001b5a0       ?GetAt@?$VectorViewWrapper@PE$AAVBluetoothLEAdvertisementDataSection@Advertisement@Bluetooth@Devices@Windows@@@Collections@NodeRT@@CAXAEBV?$FunctionCallbackInfo@VValue@v8@@@Nan@@@Z 000000018001c5a0 f i _nodert_generated.obj
 0001:0001b7e0       ?GetAt@?$VectorViewWrapper@PE$AAVBluetoothLEManufacturerData@Advertisement@Bluetooth@Devices@Windows@@@Collections@NodeRT@@CAXAEBV?$FunctionCallbackInfo@VValue@v8@@@Nan@@@Z 000000018001c7e0 f i _nodert_generated.obj
 0001:0001ba20       ?GetAt@?$VectorViewWrapper@VGuid@Platform@@@Collections@NodeRT@@CAXAEBV?$FunctionCallbackInfo@VValue@v8@@@Nan@@@Z 000000018001ca20 f i _nodert_generated.obj
 0001:0001bc50       ?GetAt@?$VectorWrapper@PE$AAVBluetoothLEAdvertisementBytePattern@Advertisement@Bluetooth@Devices@Windows@@@Collections@NodeRT@@CAXAEBV?$FunctionCallbackInfo@VValue@v8@@@Nan@@@Z 000000018001cc50 f i _nodert_generated.obj
 0001:0001be90       ?GetAt@?$VectorWrapper@PE$AAVBluetoothLEAdvertisementDataSection@Advertisement@Bluetooth@Devices@Windows@@@Collections@NodeRT@@CAXAEBV?$FunctionCallbackInfo@VValue@v8@@@Nan@@@Z 000000018001ce90 f i _nodert_generated.obj
 0001:0001c0d0       ?GetAt@?$VectorWrapper@PE$AAVBluetoothLEManufacturerData@Advertisement@Bluetooth@Devices@Windows@@@Collections@NodeRT@@CAXAEBV?$FunctionCallbackInfo@VValue@v8@@@Nan@@@Z 000000018001d0d0 f i _nodert_generated.obj
 0001:0001c310       ?GetAt@?$VectorWrapper@VGuid@Platform@@@Collections@NodeRT@@CAXAEBV?$FunctionCallbackInfo@VValue@v8@@@Nan@@@Z 000000018001d310 f i _nodert_generated.obj
 0001:0001c540       ?GetFunction@Nan@@YA?AV?$MaybeLocal@VFunction@v8@@@v8@@V?$Local@VFunctionTemplate@v8@@@3@@Z 000000018001d540 f i _nodert_generated.obj
 0001:0001c5e0       ?GetManufacturerDataByCompanyId@BluetoothLEAdvertisement@Advertisement@Bluetooth@Devices@Windows@NodeRT@@CAXAEBV?$FunctionCallbackInfo@VValue@v8@@@Nan@@@Z 000000018001d5e0 f i _nodert_generated.obj
 0001:0001c950       ?GetManufacturerDataByCompanyId@IBluetoothLEAdvertisement@Advertisement@Bluetooth@Devices@Windows@@UE$AAAPE$AAU?$IVectorView@PE$AAVBluetoothLEManufacturerData@Advertisement@Bluetooth@Devices@Windows@@@Collections@Foundation@5@G@Z 000000018001d950 f i _nodert_generated.obj
 0001:0001c9d0       ?GetMany@?$IteratorWrapper@PE$AAVBluetoothLEAdvertisementBytePattern@Advertisement@Bluetooth@Devices@Windows@@@Collections@NodeRT@@CAXAEBV?$FunctionCallbackInfo@VValue@v8@@@Nan@@@Z 000000018001d9d0 f i _nodert_generated.obj
 0001:0001ca60       ?GetMany@?$IteratorWrapper@PE$AAVBluetoothLEAdvertisementDataSection@Advertisement@Bluetooth@Devices@Windows@@@Collections@NodeRT@@CAXAEBV?$FunctionCallbackInfo@VValue@v8@@@Nan@@@Z 000000018001da60 f i _nodert_generated.obj
 0001:0001caf0       ?GetMany@?$IteratorWrapper@PE$AAVBluetoothLEManufacturerData@Advertisement@Bluetooth@Devices@Windows@@@Collections@NodeRT@@CAXAEBV?$FunctionCallbackInfo@VValue@v8@@@Nan@@@Z 000000018001daf0 f i _nodert_generated.obj
 0001:0001cb80       ?GetMany@?$IteratorWrapper@VGuid@Platform@@@Collections@NodeRT@@CAXAEBV?$FunctionCallbackInfo@VValue@v8@@@Nan@@@Z 000000018001db80 f i _nodert_generated.obj
 0001:0001cc10       ?GetMany@?$VectorViewWrapper@PE$AAVBluetoothLEAdvertisementBytePattern@Advertisement@Bluetooth@Devices@Windows@@@Collections@NodeRT@@CAXAEBV?$FunctionCallbackInfo@VValue@v8@@@Nan@@@Z 000000018001dc10 f i _nodert_generated.obj
 0001:0001cca0       ?GetMany@?$VectorViewWrapper@PE$AAVBluetoothLEAdvertisementDataSection@Advertisement@Bluetooth@Devices@Windows@@@Collections@NodeRT@@CAXAEBV?$FunctionCallbackInfo@VValue@v8@@@Nan@@@Z 000000018001dca0 f i _nodert_generated.obj
 0001:0001cd30       ?GetMany@?$VectorViewWrapper@PE$AAVBluetoothLEManufacturerData@Advertisement@Bluetooth@Devices@Windows@@@Collections@NodeRT@@CAXAEBV?$FunctionCallbackInfo@VValue@v8@@@Nan@@@Z 000000018001dd30 f i _nodert_generated.obj
 0001:0001cdc0       ?GetMany@?$VectorViewWrapper@VGuid@Platform@@@Collections@NodeRT@@CAXAEBV?$FunctionCallbackInfo@VValue@v8@@@Nan@@@Z 000000018001ddc0 f i _nodert_generated.obj
 0001:0001ce50       ?GetMany@?$VectorWrapper@PE$AAVBluetoothLEAdvertisementBytePattern@Advertisement@Bluetooth@Devices@Windows@@@Collections@NodeRT@@CAXAEBV?$FunctionCallbackInfo@VValue@v8@@@Nan@@@Z 000000018001de50 f i _nodert_generated.obj
 0001:0001cee0       ?GetMany@?$VectorWrapper@PE$AAVBluetoothLEAdvertisementDataSection@Advertisement@Bluetooth@Devices@Windows@@@Collections@NodeRT@@CAXAEBV?$FunctionCallbackInfo@VValue@v8@@@Nan@@@Z 000000018001dee0 f i _nodert_generated.obj
 0001:0001cf70       ?GetMany@?$VectorWrapper@PE$AAVBluetoothLEManufacturerData@Advertisement@Bluetooth@Devices@Windows@@@Collections@NodeRT@@CAXAEBV?$FunctionCallbackInfo@VValue@v8@@@Nan@@@Z 000000018001df70 f i _nodert_generated.obj
 0001:0001d000       ?GetMany@?$VectorWrapper@VGuid@Platform@@@Collections@NodeRT@@CAXAEBV?$FunctionCallbackInfo@VValue@v8@@@Nan@@@Z 000000018001e000 f i _nodert_generated.obj
 0001:0001d090       ?GetObjectInstance@?$IteratorWrapper@PE$AAVBluetoothLEAdvertisementBytePattern@Advertisement@Bluetooth@Devices@Windows@@@Collections@NodeRT@@UEBAPE$AAVObject@Platform@@XZ 000000018001e090 f i _nodert_generated.obj
 0001:0001d0c0       ?GetObjectInstance@?$IteratorWrapper@PE$AAVBluetoothLEAdvertisementDataSection@Advertisement@Bluetooth@Devices@Windows@@@Collections@NodeRT@@UEBAPE$AAVObject@Platform@@XZ 000000018001e0c0 f i _nodert_generated.obj
 0001:0001d0f0       ?GetObjectInstance@?$IteratorWrapper@PE$AAVBluetoothLEManufacturerData@Advertisement@Bluetooth@Devices@Windows@@@Collections@NodeRT@@UEBAPE$AAVObject@Platform@@XZ 000000018001e0f0 f i _nodert_generated.obj
 0001:0001d120       ?GetObjectInstance@?$IteratorWrapper@VGuid@Platform@@@Collections@NodeRT@@UEBAPE$AAVObject@Platform@@XZ 000000018001e120 f i _nodert_generated.obj
 0001:0001d150       ?GetObjectInstance@?$VectorViewWrapper@PE$AAVBluetoothLEAdvertisementBytePattern@Advertisement@Bluetooth@Devices@Windows@@@Collections@NodeRT@@UEBAPE$AAVObject@Platform@@XZ 000000018001e150 f i _nodert_generated.obj
 0001:0001d180       ?GetObjectInstance@?$VectorViewWrapper@PE$AAVBluetoothLEAdvertisementDataSection@Advertisement@Bluetooth@Devices@Windows@@@Collections@NodeRT@@UEBAPE$AAVObject@Platform@@XZ 000000018001e180 f i _nodert_generated.obj
 0001:0001d1b0       ?GetObjectInstance@?$VectorViewWrapper@PE$AAVBluetoothLEManufacturerData@Advertisement@Bluetooth@Devices@Windows@@@Collections@NodeRT@@UEBAPE$AAVObject@Platform@@XZ 000000018001e1b0 f i _nodert_generated.obj
 0001:0001d1e0       ?GetObjectInstance@?$VectorViewWrapper@VGuid@Platform@@@Collections@NodeRT@@UEBAPE$AAVObject@Platform@@XZ 000000018001e1e0 f i _nodert_generated.obj
 0001:0001d210       ?GetObjectInstance@?$VectorWrapper@PE$AAVBluetoothLEAdvertisementBytePattern@Advertisement@Bluetooth@Devices@Windows@@@Collections@NodeRT@@UEBAPE$AAVObject@Platform@@XZ 000000018001e210 f i _nodert_generated.obj
 0001:0001d240       ?GetObjectInstance@?$VectorWrapper@PE$AAVBluetoothLEAdvertisementDataSection@Advertisement@Bluetooth@Devices@Windows@@@Collections@NodeRT@@UEBAPE$AAVObject@Platform@@XZ 000000018001e240 f i _nodert_generated.obj
 0001:0001d270       ?GetObjectInstance@?$VectorWrapper@PE$AAVBluetoothLEManufacturerData@Advertisement@Bluetooth@Devices@Windows@@@Collections@NodeRT@@UEBAPE$AAVObject@Platform@@XZ 000000018001e270 f i _nodert_generated.obj
 0001:0001d2a0       ?GetObjectInstance@?$VectorWrapper@VGuid@Platform@@@Collections@NodeRT@@UEBAPE$AAVObject@Platform@@XZ 000000018001e2a0 f i _nodert_generated.obj
 0001:0001d2d0       ?GetObjectInstance@BluetoothLEAdvertisement@Advertisement@Bluetooth@Devices@Windows@NodeRT@@UEBAPE$AAVObject@Platform@@XZ 000000018001e2d0 f i _nodert_generated.obj
 0001:0001d300       ?GetObjectInstance@BluetoothLEAdvertisementBytePattern@Advertisement@Bluetooth@Devices@Windows@NodeRT@@UEBAPE$AAVObject@Platform@@XZ 000000018001e300 f i _nodert_generated.obj
 0001:0001d330       ?GetObjectInstance@BluetoothLEAdvertisementDataSection@Advertisement@Bluetooth@Devices@Windows@NodeRT@@UEBAPE$AAVObject@Platform@@XZ 000000018001e330 f i _nodert_generated.obj
 0001:0001d360       ?GetObjectInstance@BluetoothLEAdvertisementDataTypes@Advertisement@Bluetooth@Devices@Windows@NodeRT@@UEBAPE$AAVObject@Platform@@XZ 000000018001e360 f i _nodert_generated.obj
 0001:0001d390       ?GetObjectInstance@BluetoothLEAdvertisementFilter@Advertisement@Bluetooth@Devices@Windows@NodeRT@@UEBAPE$AAVObject@Platform@@XZ 000000018001e390 f i _nodert_generated.obj
 0001:0001d3c0       ?GetObjectInstance@BluetoothLEAdvertisementPublisher@Advertisement@Bluetooth@Devices@Windows@NodeRT@@UEBAPE$AAVObject@Platform@@XZ 000000018001e3c0 f i _nodert_generated.obj
 0001:0001d3f0       ?GetObjectInstance@BluetoothLEAdvertisementPublisherStatusChangedEventArgs@Advertisement@Bluetooth@Devices@Windows@NodeRT@@UEBAPE$AAVObject@Platform@@XZ 000000018001e3f0 f i _nodert_generated.obj
 0001:0001d420       ?GetObjectInstance@BluetoothLEAdvertisementReceivedEventArgs@Advertisement@Bluetooth@Devices@Windows@NodeRT@@UEBAPE$AAVObject@Platform@@XZ 000000018001e420 f i _nodert_generated.obj
 0001:0001d450       ?GetObjectInstance@BluetoothLEAdvertisementWatcher@Advertisement@Bluetooth@Devices@Windows@NodeRT@@UEBAPE$AAVObject@Platform@@XZ 000000018001e450 f i _nodert_generated.obj
 0001:0001d480       ?GetObjectInstance@BluetoothLEAdvertisementWatcherStoppedEventArgs@Advertisement@Bluetooth@Devices@Windows@NodeRT@@UEBAPE$AAVObject@Platform@@XZ 000000018001e480 f i _nodert_generated.obj
 0001:0001d4b0       ?GetObjectInstance@BluetoothLEManufacturerData@Advertisement@Bluetooth@Devices@Windows@NodeRT@@UEBAPE$AAVObject@Platform@@XZ 000000018001e4b0 f i _nodert_generated.obj
 0001:0001d4e0       ?GetSectionsByType@BluetoothLEAdvertisement@Advertisement@Bluetooth@Devices@Windows@NodeRT@@CAXAEBV?$FunctionCallbackInfo@VValue@v8@@@Nan@@@Z 000000018001e4e0 f i _nodert_generated.obj
 0001:0001d850       ?GetSectionsByType@IBluetoothLEAdvertisement@Advertisement@Bluetooth@Devices@Windows@@UE$AAAPE$AAU?$IVectorView@PE$AAVBluetoothLEAdvertisementDataSection@Advertisement@Bluetooth@Devices@Windows@@@Collections@Foundation@5@E@Z 000000018001e850 f i _nodert_generated.obj
 0001:0001d8d0       ?GetView@?$IVector@PE$AAVBluetoothLEAdvertisementBytePattern@Advertisement@Bluetooth@Devices@Windows@@@Collections@Foundation@Windows@@UE$AAAPE$AAU?$IVectorView@PE$AAVBluetoothLEAdvertisementBytePattern@Advertisement@Bluetooth@Devices@Windows@@@234@XZ 000000018001e8d0 f i _nodert_generated.obj
 0001:0001d950       ?GetView@?$IVector@PE$AAVBluetoothLEAdvertisementDataSection@Advertisement@Bluetooth@Devices@Windows@@@Collections@Foundation@Windows@@UE$AAAPE$AAU?$IVectorView@PE$AAVBluetoothLEAdvertisementDataSection@Advertisement@Bluetooth@Devices@Windows@@@234@XZ 000000018001e950 f i _nodert_generated.obj
 0001:0001d9d0       ?GetView@?$IVector@PE$AAVBluetoothLEManufacturerData@Advertisement@Bluetooth@Devices@Windows@@@Collections@Foundation@Windows@@UE$AAAPE$AAU?$IVectorView@PE$AAVBluetoothLEManufacturerData@Advertisement@Bluetooth@Devices@Windows@@@234@XZ 000000018001e9d0 f i _nodert_generated.obj
 0001:0001da50       ?GetView@?$IVector@VGuid@Platform@@@Collections@Foundation@Windows@@UE$AAAPE$AAU?$IVectorView@VGuid@Platform@@@234@XZ 000000018001ea50 f i _nodert_generated.obj
 0001:0001dad0       ?GetView@?$VectorWrapper@PE$AAVBluetoothLEAdvertisementBytePattern@Advertisement@Bluetooth@Devices@Windows@@@Collections@NodeRT@@CAXAEBV?$FunctionCallbackInfo@VValue@v8@@@Nan@@@Z 000000018001ead0 f i _nodert_generated.obj
 0001:0001dc70       ?GetView@?$VectorWrapper@PE$AAVBluetoothLEAdvertisementDataSection@Advertisement@Bluetooth@Devices@Windows@@@Collections@NodeRT@@CAXAEBV?$FunctionCallbackInfo@VValue@v8@@@Nan@@@Z 000000018001ec70 f i _nodert_generated.obj
 0001:0001de10       ?GetView@?$VectorWrapper@PE$AAVBluetoothLEManufacturerData@Advertisement@Bluetooth@Devices@Windows@@@Collections@NodeRT@@CAXAEBV?$FunctionCallbackInfo@VValue@v8@@@Nan@@@Z 000000018001ee10 f i _nodert_generated.obj
 0001:0001dfb0       ?GetView@?$VectorWrapper@VGuid@Platform@@@Collections@NodeRT@@CAXAEBV?$FunctionCallbackInfo@VValue@v8@@@Nan@@@Z 000000018001efb0 f i _nodert_generated.obj
 0001:0001e150       ?GetWeakReference@?QIWeakReferenceSource@Details@Platform@@?$Array@PE$AAVBluetoothLEAdvertisementBytePattern@Advertisement@Bluetooth@Devices@Windows@@$00@3@UE$AAAPE$AAUIWeakReference@23@XZ 000000018001f150 f i _nodert_generated.obj
 0001:0001e198       ?GetWeakReference@?QIWeakReferenceSource@Details@Platform@@?$Array@PE$AAVBluetoothLEAdvertisementBytePattern@Advertisement@Bluetooth@Devices@Windows@@$00@3@WDI@E$AAAPE$AAUIWeakReference@23@XZ 000000018001f198 f i _nodert_generated.obj
 0001:0001e1a4       ?GetWeakReference@?QIWeakReferenceSource@Details@Platform@@?$Array@PE$AAVBluetoothLEAdvertisementBytePattern@Advertisement@Bluetooth@Devices@Windows@@$00@3@WHA@E$AAAPE$AAUIWeakReference@23@XZ 000000018001f1a4 f i _nodert_generated.obj
 0001:0001e1b0       ?GetWeakReference@?QIWeakReferenceSource@Details@Platform@@?$Array@PE$AAVBluetoothLEAdvertisementDataSection@Advertisement@Bluetooth@Devices@Windows@@$00@3@UE$AAAPE$AAUIWeakReference@23@XZ 000000018001f1b0 f i _nodert_generated.obj
 0001:0001e1f8       ?GetWeakReference@?QIWeakReferenceSource@Details@Platform@@?$Array@PE$AAVBluetoothLEAdvertisementDataSection@Advertisement@Bluetooth@Devices@Windows@@$00@3@WDI@E$AAAPE$AAUIWeakReference@23@XZ 000000018001f1f8 f i _nodert_generated.obj
 0001:0001e204       ?GetWeakReference@?QIWeakReferenceSource@Details@Platform@@?$Array@PE$AAVBluetoothLEAdvertisementDataSection@Advertisement@Bluetooth@Devices@Windows@@$00@3@WHA@E$AAAPE$AAUIWeakReference@23@XZ 000000018001f204 f i _nodert_generated.obj
 0001:0001e210       ?GetWeakReference@?QIWeakReferenceSource@Details@Platform@@?$Array@PE$AAVBluetoothLEManufacturerData@Advertisement@Bluetooth@Devices@Windows@@$00@3@UE$AAAPE$AAUIWeakReference@23@XZ 000000018001f210 f i _nodert_generated.obj
 0001:0001e258       ?GetWeakReference@?QIWeakReferenceSource@Details@Platform@@?$Array@PE$AAVBluetoothLEManufacturerData@Advertisement@Bluetooth@Devices@Windows@@$00@3@WDI@E$AAAPE$AAUIWeakReference@23@XZ 000000018001f258 f i _nodert_generated.obj
 0001:0001e264       ?GetWeakReference@?QIWeakReferenceSource@Details@Platform@@?$Array@PE$AAVBluetoothLEManufacturerData@Advertisement@Bluetooth@Devices@Windows@@$00@3@WHA@E$AAAPE$AAUIWeakReference@23@XZ 000000018001f264 f i _nodert_generated.obj
 0001:0001e270       ?GetWeakReference@?QIWeakReferenceSource@Details@Platform@@?$Array@VGuid@Platform@@$00@3@UE$AAAPE$AAUIWeakReference@23@XZ 000000018001f270 f i _nodert_generated.obj
 0001:0001e2b8       ?GetWeakReference@?QIWeakReferenceSource@Details@Platform@@?$Array@VGuid@Platform@@$00@3@WDI@E$AAAPE$AAUIWeakReference@23@XZ 000000018001f2b8 f i _nodert_generated.obj
 0001:0001e2c4       ?GetWeakReference@?QIWeakReferenceSource@Details@Platform@@?$Array@VGuid@Platform@@$00@3@WHA@E$AAAPE$AAUIWeakReference@23@XZ 000000018001f2c4 f i _nodert_generated.obj
 0001:0001e2d0       ?GetWeakReference@?QIWeakReferenceSource@Details@Platform@@?$CustomBox@VGuid@Platform@@@23@UE$AAAPE$AAUIWeakReference@23@XZ 000000018001f2d0 f i _nodert_generated.obj
 0001:0001e318       ?GetWeakReference@?QIWeakReferenceSource@Details@Platform@@?$CustomBox@VGuid@Platform@@@23@WCA@E$AAAPE$AAUIWeakReference@23@XZ 000000018001f318 f i _nodert_generated.obj
 0001:0001e330       ?GetWeakReference@?QIWeakReferenceSource@Details@Platform@@?$CustomBox@W4BluetoothLEAdvertisementFlags@Advertisement@Bluetooth@Devices@Windows@@@23@UE$AAAPE$AAUIWeakReference@23@XZ 000000018001f330 f i _nodert_generated.obj
 0001:0001e378       ?GetWeakReference@?QIWeakReferenceSource@Details@Platform@@?$CustomBox@W4BluetoothLEAdvertisementFlags@Advertisement@Bluetooth@Devices@Windows@@@23@WCA@E$AAAPE$AAUIWeakReference@23@XZ 000000018001f378 f i _nodert_generated.obj
 0001:0001e390       ?GetWeakReference@?QIWeakReferenceSource@Details@Platform@@?$WriteOnlyArray@PE$AAVBluetoothLEAdvertisementBytePattern@Advertisement@Bluetooth@Devices@Windows@@$00@3@UE$AAAPE$AAUIWeakReference@23@XZ 000000018001f390 f i _nodert_generated.obj
 0001:0001e3d8       ?GetWeakReference@?QIWeakReferenceSource@Details@Platform@@?$WriteOnlyArray@PE$AAVBluetoothLEAdvertisementBytePattern@Advertisement@Bluetooth@Devices@Windows@@$00@3@WBI@E$AAAPE$AAUIWeakReference@23@XZ 000000018001f3d8 f i _nodert_generated.obj
 0001:0001e3f0       ?GetWeakReference@?QIWeakReferenceSource@Details@Platform@@?$WriteOnlyArray@PE$AAVBluetoothLEAdvertisementDataSection@Advertisement@Bluetooth@Devices@Windows@@$00@3@UE$AAAPE$AAUIWeakReference@23@XZ 000000018001f3f0 f i _nodert_generated.obj
 0001:0001e438       ?GetWeakReference@?QIWeakReferenceSource@Details@Platform@@?$WriteOnlyArray@PE$AAVBluetoothLEAdvertisementDataSection@Advertisement@Bluetooth@Devices@Windows@@$00@3@WBI@E$AAAPE$AAUIWeakReference@23@XZ 000000018001f438 f i _nodert_generated.obj
 0001:0001e450       ?GetWeakReference@?QIWeakReferenceSource@Details@Platform@@?$WriteOnlyArray@PE$AAVBluetoothLEManufacturerData@Advertisement@Bluetooth@Devices@Windows@@$00@3@UE$AAAPE$AAUIWeakReference@23@XZ 000000018001f450 f i _nodert_generated.obj
 0001:0001e498       ?GetWeakReference@?QIWeakReferenceSource@Details@Platform@@?$WriteOnlyArray@PE$AAVBluetoothLEManufacturerData@Advertisement@Bluetooth@Devices@Windows@@$00@3@WBI@E$AAAPE$AAUIWeakReference@23@XZ 000000018001f498 f i _nodert_generated.obj
 0001:0001e4b0       ?GetWeakReference@?QIWeakReferenceSource@Details@Platform@@?$WriteOnlyArray@VGuid@Platform@@$00@3@UE$AAAPE$AAUIWeakReference@23@XZ 000000018001f4b0 f i _nodert_generated.obj
 0001:0001e4f8       ?GetWeakReference@?QIWeakReferenceSource@Details@Platform@@?$WriteOnlyArray@VGuid@Platform@@$00@3@WBI@E$AAAPE$AAUIWeakReference@23@XZ 000000018001f4f8 f i _nodert_generated.obj
 0001:0001e610       ?HasCurrentGetter@?$IteratorWrapper@PE$AAVBluetoothLEAdvertisementBytePattern@Advertisement@Bluetooth@Devices@Windows@@@Collections@NodeRT@@CAXV?$Local@VString@v8@@@v8@@AEBV?$PropertyCallbackInfo@VValue@v8@@@Nan@@@Z 000000018001f610 f i _nodert_generated.obj
 0001:0001e6f0       ?HasCurrentGetter@?$IteratorWrapper@PE$AAVBluetoothLEAdvertisementDataSection@Advertisement@Bluetooth@Devices@Windows@@@Collections@NodeRT@@CAXV?$Local@VString@v8@@@v8@@AEBV?$PropertyCallbackInfo@VValue@v8@@@Nan@@@Z 000000018001f6f0 f i _nodert_generated.obj
 0001:0001e7d0       ?HasCurrentGetter@?$IteratorWrapper@PE$AAVBluetoothLEManufacturerData@Advertisement@Bluetooth@Devices@Windows@@@Collections@NodeRT@@CAXV?$Local@VString@v8@@@v8@@AEBV?$PropertyCallbackInfo@VValue@v8@@@Nan@@@Z 000000018001f7d0 f i _nodert_generated.obj
 0001:0001e8b0       ?HasCurrentGetter@?$IteratorWrapper@VGuid@Platform@@@Collections@NodeRT@@CAXV?$Local@VString@v8@@@v8@@AEBV?$PropertyCallbackInfo@VValue@v8@@@Nan@@@Z 000000018001f8b0 f i _nodert_generated.obj
 0001:0001e990       ?IncompleteService128BitUuidsGetter@BluetoothLEAdvertisementDataTypes@Advertisement@Bluetooth@Devices@Windows@NodeRT@@CAXV?$Local@VString@v8@@@v8@@AEBV?$PropertyCallbackInfo@VValue@v8@@@Nan@@@Z 000000018001f990 f i _nodert_generated.obj
 0001:0001ea60       ?IncompleteService16BitUuidsGetter@BluetoothLEAdvertisementDataTypes@Advertisement@Bluetooth@Devices@Windows@NodeRT@@CAXV?$Local@VString@v8@@@v8@@AEBV?$PropertyCallbackInfo@VValue@v8@@@Nan@@@Z 000000018001fa60 f i _nodert_generated.obj
 0001:0001eb30       ?IncompleteService32BitUuidsGetter@BluetoothLEAdvertisementDataTypes@Advertisement@Bluetooth@Devices@Windows@NodeRT@@CAXV?$Local@VString@v8@@@v8@@AEBV?$PropertyCallbackInfo@VValue@v8@@@Nan@@@Z 000000018001fb30 f i _nodert_generated.obj
 0001:0001ec00       ?Increment@__abi_FTMWeakRefData@@QECAKXZ 000000018001fc00 f i _nodert_generated.obj
 0001:0001ef50       ?IndexOf@?$IVector@PE$AAVBluetoothLEAdvertisementBytePattern@Advertisement@Bluetooth@Devices@Windows@@@Collections@Foundation@Windows@@UE$AAA_NPE$AAVBluetoothLEAdvertisementBytePattern@Advertisement@Bluetooth@Devices@4@PEAI@Z 000000018001ff50 f i _nodert_generated.obj
 0001:0001ef90       ?IndexOf@?$IVector@PE$AAVBluetoothLEAdvertisementDataSection@Advertisement@Bluetooth@Devices@Windows@@@Collections@Foundation@Windows@@UE$AAA_NPE$AAVBluetoothLEAdvertisementDataSection@Advertisement@Bluetooth@Devices@4@PEAI@Z 000000018001ff90 f i _nodert_generated.obj
 0001:0001efd0       ?IndexOf@?$IVector@PE$AAVBluetoothLEManufacturerData@Advertisement@Bluetooth@Devices@Windows@@@Collections@Foundation@Windows@@UE$AAA_NPE$AAVBluetoothLEManufacturerData@Advertisement@Bluetooth@Devices@4@PEAI@Z 000000018001ffd0 f i _nodert_generated.obj
 0001:0001f010       ?IndexOf@?$IVector@VGuid@Platform@@@Collections@Foundation@Windows@@UE$AAA_NVGuid@Platform@@PEAI@Z 0000000180020010 f i _nodert_generated.obj
 0001:0001f060       ?IndexOf@?$IVectorView@PE$AAVBluetoothLEAdvertisementBytePattern@Advertisement@Bluetooth@Devices@Windows@@@Collections@Foundation@Windows@@UE$AAA_NPE$AAVBluetoothLEAdvertisementBytePattern@Advertisement@Bluetooth@Devices@4@PEAI@Z 0000000180020060 f i _nodert_generated.obj
 0001:0001f0a0       ?IndexOf@?$IVectorView@PE$AAVBluetoothLEAdvertisementDataSection@Advertisement@Bluetooth@Devices@Windows@@@Collections@Foundation@Windows@@UE$AAA_NPE$AAVBluetoothLEAdvertisementDataSection@Advertisement@Bluetooth@Devices@4@PEAI@Z 00000001800200a0 f i _nodert_generated.obj
 0001:0001f0e0       ?IndexOf@?$IVectorView@PE$AAVBluetoothLEManufacturerData@Advertisement@Bluetooth@Devices@Windows@@@Collections@Foundation@Windows@@UE$AAA_NPE$AAVBluetoothLEManufacturerData@Advertisement@Bluetooth@Devices@4@PEAI@Z 00000001800200e0 f i _nodert_generated.obj
 0001:0001f120       ?IndexOf@?$IVectorView@VGuid@Platform@@@Collections@Foundation@Windows@@UE$AAA_NVGuid@Platform@@PEAI@Z 0000000180020120 f i _nodert_generated.obj
 0001:0001f170       ?IndexOf@?$VectorViewWrapper@PE$AAVBluetoothLEAdvertisementBytePattern@Advertisement@Bluetooth@Devices@Windows@@@Collections@NodeRT@@CAXAEBV?$FunctionCallbackInfo@VValue@v8@@@Nan@@@Z 0000000180020170 f i _nodert_generated.obj
 0001:0001f540       ?IndexOf@?$VectorViewWrapper@PE$AAVBluetoothLEAdvertisementDataSection@Advertisement@Bluetooth@Devices@Windows@@@Collections@NodeRT@@CAXAEBV?$FunctionCallbackInfo@VValue@v8@@@Nan@@@Z 0000000180020540 f i _nodert_generated.obj
 0001:0001f910       ?IndexOf@?$VectorViewWrapper@PE$AAVBluetoothLEManufacturerData@Advertisement@Bluetooth@Devices@Windows@@@Collections@NodeRT@@CAXAEBV?$FunctionCallbackInfo@VValue@v8@@@Nan@@@Z 0000000180020910 f i _nodert_generated.obj
 0001:0001fce0       ?IndexOf@?$VectorViewWrapper@VGuid@Platform@@@Collections@NodeRT@@CAXAEBV?$FunctionCallbackInfo@VValue@v8@@@Nan@@@Z 0000000180020ce0 f i _nodert_generated.obj
 0001:000200a0       ?IndexOf@?$VectorWrapper@PE$AAVBluetoothLEAdvertisementBytePattern@Advertisement@Bluetooth@Devices@Windows@@@Collections@NodeRT@@CAXAEBV?$FunctionCallbackInfo@VValue@v8@@@Nan@@@Z 00000001800210a0 f i _nodert_generated.obj
 0001:00020470       ?IndexOf@?$VectorWrapper@PE$AAVBluetoothLEAdvertisementDataSection@Advertisement@Bluetooth@Devices@Windows@@@Collections@NodeRT@@CAXAEBV?$FunctionCallbackInfo@VValue@v8@@@Nan@@@Z 0000000180021470 f i _nodert_generated.obj
 0001:00020840       ?IndexOf@?$VectorWrapper@PE$AAVBluetoothLEManufacturerData@Advertisement@Bluetooth@Devices@Windows@@@Collections@NodeRT@@CAXAEBV?$FunctionCallbackInfo@VValue@v8@@@Nan@@@Z 0000000180021840 f i _nodert_generated.obj
 0001:00020c10       ?IndexOf@?$VectorWrapper@VGuid@Platform@@@Collections@NodeRT@@CAXAEBV?$FunctionCallbackInfo@VValue@v8@@@Nan@@@Z 0000000180021c10 f i _nodert_generated.obj
 0001:000211f0       ?Init@?$IteratorWrapper@PE$AAVBluetoothLEAdvertisementBytePattern@Advertisement@Bluetooth@Devices@Windows@@@Collections@NodeRT@@SAXXZ 00000001800221f0 f i _nodert_generated.obj
 0001:00021490       ?Init@?$IteratorWrapper@PE$AAVBluetoothLEAdvertisementDataSection@Advertisement@Bluetooth@Devices@Windows@@@Collections@NodeRT@@SAXXZ 0000000180022490 f i _nodert_generated.obj
 0001:00021730       ?Init@?$IteratorWrapper@PE$AAVBluetoothLEManufacturerData@Advertisement@Bluetooth@Devices@Windows@@@Collections@NodeRT@@SAXXZ 0000000180022730 f i _nodert_generated.obj
 0001:000219d0       ?Init@?$IteratorWrapper@VGuid@Platform@@@Collections@NodeRT@@SAXXZ 00000001800229d0 f i _nodert_generated.obj
 0001:00021c70       ?Init@?$VectorViewWrapper@PE$AAVBluetoothLEAdvertisementBytePattern@Advertisement@Bluetooth@Devices@Windows@@@Collections@NodeRT@@SAXXZ 0000000180022c70 f i _nodert_generated.obj
 0001:00022040       ?Init@?$VectorViewWrapper@PE$AAVBluetoothLEAdvertisementDataSection@Advertisement@Bluetooth@Devices@Windows@@@Collections@NodeRT@@SAXXZ 0000000180023040 f i _nodert_generated.obj
 0001:00022410       ?Init@?$VectorViewWrapper@PE$AAVBluetoothLEManufacturerData@Advertisement@Bluetooth@Devices@Windows@@@Collections@NodeRT@@SAXXZ 0000000180023410 f i _nodert_generated.obj
 0001:000227e0       ?Init@?$VectorViewWrapper@VGuid@Platform@@@Collections@NodeRT@@SAXXZ 00000001800237e0 f i _nodert_generated.obj
 0001:00022bb0       ?Init@?$VectorWrapper@PE$AAVBluetoothLEAdvertisementBytePattern@Advertisement@Bluetooth@Devices@Windows@@@Collections@NodeRT@@SAXXZ 0000000180023bb0 f i _nodert_generated.obj
 0001:000230a0       ?Init@?$VectorWrapper@PE$AAVBluetoothLEAdvertisementDataSection@Advertisement@Bluetooth@Devices@Windows@@@Collections@NodeRT@@SAXXZ 00000001800240a0 f i _nodert_generated.obj
 0001:00023590       ?Init@?$VectorWrapper@PE$AAVBluetoothLEManufacturerData@Advertisement@Bluetooth@Devices@Windows@@@Collections@NodeRT@@SAXXZ 0000000180024590 f i _nodert_generated.obj
 0001:00023a80       ?Init@?$VectorWrapper@VGuid@Platform@@@Collections@NodeRT@@SAXXZ 0000000180024a80 f i _nodert_generated.obj
 0001:00023f70       ?Init@BluetoothLEAdvertisement@Advertisement@Bluetooth@Devices@Windows@NodeRT@@SAXV?$Local@VObject@v8@@@v8@@@Z 0000000180024f70 f i _nodert_generated.obj
 0001:00024450       ?Init@BluetoothLEAdvertisementBytePattern@Advertisement@Bluetooth@Devices@Windows@NodeRT@@SAXV?$Local@VObject@v8@@@v8@@@Z 0000000180025450 f i _nodert_generated.obj
 0001:000247e0       ?Init@BluetoothLEAdvertisementDataSection@Advertisement@Bluetooth@Devices@Windows@NodeRT@@SAXV?$Local@VObject@v8@@@v8@@@Z 00000001800257e0 f i _nodert_generated.obj
 0001:00024ae0       ?Init@BluetoothLEAdvertisementDataTypes@Advertisement@Bluetooth@Devices@Windows@NodeRT@@SAXV?$Local@VObject@v8@@@v8@@@Z 0000000180025ae0 f i _nodert_generated.obj
 0001:00025620       ?Init@BluetoothLEAdvertisementFilter@Advertisement@Bluetooth@Devices@Windows@NodeRT@@SAXV?$Local@VObject@v8@@@v8@@@Z 0000000180026620 f i _nodert_generated.obj
 0001:00025920       ?Init@BluetoothLEAdvertisementPublisher@Advertisement@Bluetooth@Devices@Windows@NodeRT@@SAXV?$Local@VObject@v8@@@v8@@@Z 0000000180026920 f i _nodert_generated.obj
 0001:00025cd0       ?Init@BluetoothLEAdvertisementPublisherStatusChangedEventArgs@Advertisement@Bluetooth@Devices@Windows@NodeRT@@SAXV?$Local@VObject@v8@@@v8@@@Z 0000000180026cd0 f i _nodert_generated.obj
 0001:00025fd0       ?Init@BluetoothLEAdvertisementReceivedEventArgs@Advertisement@Bluetooth@Devices@Windows@NodeRT@@SAXV?$Local@VObject@v8@@@v8@@@Z 0000000180026fd0 f i _nodert_generated.obj
 0001:00026460       ?Init@BluetoothLEAdvertisementWatcher@Advertisement@Bluetooth@Devices@Windows@NodeRT@@SAXV?$Local@VObject@v8@@@v8@@@Z 0000000180027460 f i _nodert_generated.obj
 0001:00026b50       ?Init@BluetoothLEAdvertisementWatcherStoppedEventArgs@Advertisement@Bluetooth@Devices@Windows@NodeRT@@SAXV?$Local@VObject@v8@@@v8@@@Z 0000000180027b50 f i _nodert_generated.obj
 0001:00026dc0       ?Init@BluetoothLEManufacturerData@Advertisement@Bluetooth@Devices@Windows@NodeRT@@SAXV?$Local@VObject@v8@@@v8@@@Z 0000000180027dc0 f i _nodert_generated.obj
 0001:000270c0       ?InitBluetoothLEAdvertisement@Advertisement@Bluetooth@Devices@Windows@NodeRT@@YAXV?$Local@VObject@v8@@@v8@@@Z 00000001800280c0 f   _nodert_generated.obj
 0001:000270e0       ?InitBluetoothLEAdvertisementBytePattern@Advertisement@Bluetooth@Devices@Windows@NodeRT@@YAXV?$Local@VObject@v8@@@v8@@@Z 00000001800280e0 f   _nodert_generated.obj
 0001:00027100       ?InitBluetoothLEAdvertisementDataSection@Advertisement@Bluetooth@Devices@Windows@NodeRT@@YAXV?$Local@VObject@v8@@@v8@@@Z 0000000180028100 f   _nodert_generated.obj
 0001:00027120       ?InitBluetoothLEAdvertisementDataTypes@Advertisement@Bluetooth@Devices@Windows@NodeRT@@YAXV?$Local@VObject@v8@@@v8@@@Z 0000000180028120 f   _nodert_generated.obj
 0001:00027140       ?InitBluetoothLEAdvertisementFilter@Advertisement@Bluetooth@Devices@Windows@NodeRT@@YAXV?$Local@VObject@v8@@@v8@@@Z 0000000180028140 f   _nodert_generated.obj
 0001:000275c0       ?InitBluetoothLEAdvertisementPublisher@Advertisement@Bluetooth@Devices@Windows@NodeRT@@YAXV?$Local@VObject@v8@@@v8@@@Z 00000001800285c0 f   _nodert_generated.obj
 0001:000275e0       ?InitBluetoothLEAdvertisementPublisherStatusChangedEventArgs@Advertisement@Bluetooth@Devices@Windows@NodeRT@@YAXV?$Local@VObject@v8@@@v8@@@Z 00000001800285e0 f   _nodert_generated.obj
 0001:00027a60       ?InitBluetoothLEAdvertisementReceivedEventArgs@Advertisement@Bluetooth@Devices@Windows@NodeRT@@YAXV?$Local@VObject@v8@@@v8@@@Z 0000000180028a60 f   _nodert_generated.obj
 0001:00027e50       ?InitBluetoothLEAdvertisementWatcher@Advertisement@Bluetooth@Devices@Windows@NodeRT@@YAXV?$Local@VObject@v8@@@v8@@@Z 0000000180028e50 f   _nodert_generated.obj
 0001:00028240       ?InitBluetoothLEAdvertisementWatcherStoppedEventArgs@Advertisement@Bluetooth@Devices@Windows@NodeRT@@YAXV?$Local@VObject@v8@@@v8@@@Z 0000000180029240 f   _nodert_generated.obj
 0001:00028260       ?InitBluetoothLEManufacturerData@Advertisement@Bluetooth@Devices@Windows@NodeRT@@YAXV?$Local@VObject@v8@@@v8@@@Z 0000000180029260 f   _nodert_generated.obj
 0001:00028480       ?InsertAt@?$IVector@PE$AAVBluetoothLEAdvertisementBytePattern@Advertisement@Bluetooth@Devices@Windows@@@Collections@Foundation@Windows@@UE$AAAXIPE$AAVBluetoothLEAdvertisementBytePattern@Advertisement@Bluetooth@Devices@4@@Z 0000000180029480 f i _nodert_generated.obj
 0001:000284b0       ?InsertAt@?$IVector@PE$AAVBluetoothLEAdvertisementDataSection@Advertisement@Bluetooth@Devices@Windows@@@Collections@Foundation@Windows@@UE$AAAXIPE$AAVBluetoothLEAdvertisementDataSection@Advertisement@Bluetooth@Devices@4@@Z 00000001800294b0 f i _nodert_generated.obj
 0001:000284e0       ?InsertAt@?$IVector@PE$AAVBluetoothLEManufacturerData@Advertisement@Bluetooth@Devices@Windows@@@Collections@Foundation@Windows@@UE$AAAXIPE$AAVBluetoothLEManufacturerData@Advertisement@Bluetooth@Devices@4@@Z 00000001800294e0 f i _nodert_generated.obj
 0001:00028510       ?InsertAt@?$IVector@VGuid@Platform@@@Collections@Foundation@Windows@@UE$AAAXIVGuid@Platform@@@Z 0000000180029510 f i _nodert_generated.obj
 0001:00028550       ?InsertAt@?$VectorWrapper@PE$AAVBluetoothLEAdvertisementBytePattern@Advertisement@Bluetooth@Devices@Windows@@@Collections@NodeRT@@CAXAEBV?$FunctionCallbackInfo@VValue@v8@@@Nan@@@Z 0000000180029550 f i _nodert_generated.obj
 0001:000287a0       ?InsertAt@?$VectorWrapper@PE$AAVBluetoothLEAdvertisementDataSection@Advertisement@Bluetooth@Devices@Windows@@@Collections@NodeRT@@CAXAEBV?$FunctionCallbackInfo@VValue@v8@@@Nan@@@Z 00000001800297a0 f i _nodert_generated.obj
 0001:000289f0       ?InsertAt@?$VectorWrapper@PE$AAVBluetoothLEManufacturerData@Advertisement@Bluetooth@Devices@Windows@@@Collections@NodeRT@@CAXAEBV?$FunctionCallbackInfo@VValue@v8@@@Nan@@@Z 00000001800299f0 f i _nodert_generated.obj
 0001:00028c40       ?InsertAt@?$VectorWrapper@VGuid@Platform@@@Collections@NodeRT@@CAXAEBV?$FunctionCallbackInfo@VValue@v8@@@Nan@@@Z 0000000180029c40 f i _nodert_generated.obj
 0001:00028e90       ?Invoke@?$TypedEventHandler@PE$AAVBluetoothLEAdvertisementPublisher@Advertisement@Bluetooth@Devices@Windows@@PE$AAVBluetoothLEAdvertisementPublisherStatusChangedEventArgs@2345@@Foundation@Windows@@UE$AAAXPE$AAVBluetoothLEAdvertisementPublisher@Advertisement@Bluetooth@Devices@3@PE$AAVBluetoothLEAdvertisementPublisherStatusChangedEventArgs@5673@@Z 0000000180029e90 f i _nodert_generated.obj
 0001:00028ee0       ?Invoke@?$TypedEventHandler@PE$AAVBluetoothLEAdvertisementWatcher@Advertisement@Bluetooth@Devices@Windows@@PE$AAVBluetoothLEAdvertisementReceivedEventArgs@2345@@Foundation@Windows@@UE$AAAXPE$AAVBluetoothLEAdvertisementWatcher@Advertisement@Bluetooth@Devices@3@PE$AAVBluetoothLEAdvertisementReceivedEventArgs@5673@@Z 0000000180029ee0 f i _nodert_generated.obj
 0001:00028f30       ?Invoke@?$TypedEventHandler@PE$AAVBluetoothLEAdvertisementWatcher@Advertisement@Bluetooth@Devices@Windows@@PE$AAVBluetoothLEAdvertisementWatcherStoppedEventArgs@2345@@Foundation@Windows@@UE$AAAXPE$AAVBluetoothLEAdvertisementWatcher@Advertisement@Bluetooth@Devices@3@PE$AAVBluetoothLEAdvertisementWatcherStoppedEventArgs@5673@@Z 0000000180029f30 f i _nodert_generated.obj
 0001:00028f80       ?Invoke@?$__abi_FunctorCapture@V<lambda_237595074df0c8017b22e4dbeff6e432>@@XPE$AAVBluetoothLEAdvertisementWatcher@Advertisement@Bluetooth@Devices@Windows@@PE$AAVBluetoothLEAdvertisementReceivedEventArgs@3456@@Details@Platform@@UEAAXPE$AAVBluetoothLEAdvertisementWatcher@Advertisement@Bluetooth@Devices@Windows@@PE$AAVBluetoothLEAdvertisementReceivedEventArgs@5678@@Z 0000000180029f80 f i _nodert_generated.obj
 0001:00028f90       ?Invoke@?$__abi_FunctorCapture@V<lambda_7027264ebf1117594dd4155ebab65c3d>@@XPE$AAVBluetoothLEAdvertisementWatcher@Advertisement@Bluetooth@Devices@Windows@@PE$AAVBluetoothLEAdvertisementWatcherStoppedEventArgs@3456@@Details@Platform@@UEAAXPE$AAVBluetoothLEAdvertisementWatcher@Advertisement@Bluetooth@Devices@Windows@@PE$AAVBluetoothLEAdvertisementWatcherStoppedEventArgs@5678@@Z 0000000180029f90 f i _nodert_generated.obj
 0001:00028fa0       ?Invoke@?$__abi_FunctorCapture@V<lambda_73d2589d6f7f5ba1a0f6aa6530cd3b8a>@@XPE$AAVBluetoothLEAdvertisementPublisher@Advertisement@Bluetooth@Devices@Windows@@PE$AAVBluetoothLEAdvertisementPublisherStatusChangedEventArgs@3456@@Details@Platform@@UEAAXPE$AAVBluetoothLEAdvertisementPublisher@Advertisement@Bluetooth@Devices@Windows@@PE$AAVBluetoothLEAdvertisementPublisherStatusChangedEventArgs@5678@@Z 0000000180029fa0 f i _nodert_generated.obj
 0001:00028fb0       ?Invoke@__abi_IDelegate@?$TypedEventHandler@PE$AAVBluetoothLEAdvertisementPublisher@Advertisement@Bluetooth@Devices@Windows@@PE$AAVBluetoothLEAdvertisementPublisherStatusChangedEventArgs@2345@@Foundation@Windows@@UE$AAAXPE$AAVBluetoothLEAdvertisementPublisher@Advertisement@Bluetooth@Devices@4@PE$AAVBluetoothLEAdvertisementPublisherStatusChangedEventArgs@6784@@Z 0000000180029fb0 f i _nodert_generated.obj
 0001:00028fe0       ?Invoke@__abi_IDelegate@?$TypedEventHandler@PE$AAVBluetoothLEAdvertisementWatcher@Advertisement@Bluetooth@Devices@Windows@@PE$AAVBluetoothLEAdvertisementReceivedEventArgs@2345@@Foundation@Windows@@UE$AAAXPE$AAVBluetoothLEAdvertisementWatcher@Advertisement@Bluetooth@Devices@4@PE$AAVBluetoothLEAdvertisementReceivedEventArgs@6784@@Z 0000000180029fe0 f i _nodert_generated.obj
 0001:00029010       ?Invoke@__abi_IDelegate@?$TypedEventHandler@PE$AAVBluetoothLEAdvertisementWatcher@Advertisement@Bluetooth@Devices@Windows@@PE$AAVBluetoothLEAdvertisementWatcherStoppedEventArgs@2345@@Foundation@Windows@@UE$AAAXPE$AAVBluetoothLEAdvertisementWatcher@Advertisement@Bluetooth@Devices@4@PE$AAVBluetoothLEAdvertisementWatcherStoppedEventArgs@6784@@Z 000000018002a010 f i _nodert_generated.obj
 0001:00029040       ?IsOpaqueWrapper@OpaqueWrapper@NodeRT@@SA_NV?$Local@VValue@v8@@@v8@@@Z 000000018002a040 f i _nodert_generated.obj
 0001:00029110       ?LocalNameGetter@BluetoothLEAdvertisement@Advertisement@Bluetooth@Devices@Windows@NodeRT@@CAXV?$Local@VString@v8@@@v8@@AEBV?$PropertyCallbackInfo@VValue@v8@@@Nan@@@Z 000000018002a110 f i _nodert_generated.obj
 0001:00029250       ?LocalNameSetter@BluetoothLEAdvertisement@Advertisement@Bluetooth@Devices@Windows@NodeRT@@CAXV?$Local@VString@v8@@@v8@@V?$Local@VValue@v8@@@8@AEBV?$PropertyCallbackInfo@X@Nan@@@Z 000000018002a250 f i _nodert_generated.obj
 0001:00029430       ?ManufacturerDataGetter@BluetoothLEAdvertisement@Advertisement@Bluetooth@Devices@Windows@NodeRT@@CAXV?$Local@VString@v8@@@v8@@AEBV?$PropertyCallbackInfo@VValue@v8@@@Nan@@@Z 000000018002a430 f i _nodert_generated.obj
 0001:000296d0       ?ManufacturerSpecificDataGetter@BluetoothLEAdvertisementDataTypes@Advertisement@Bluetooth@Devices@Windows@NodeRT@@CAXV?$Local@VString@v8@@@v8@@AEBV?$PropertyCallbackInfo@VValue@v8@@@Nan@@@Z 000000018002a6d0 f i _nodert_generated.obj
 0001:000297a0       ?MaxOutOfRangeTimeoutGetter@BluetoothLEAdvertisementWatcher@Advertisement@Bluetooth@Devices@Windows@NodeRT@@CAXV?$Local@VString@v8@@@v8@@AEBV?$PropertyCallbackInfo@VValue@v8@@@Nan@@@Z 000000018002a7a0 f i _nodert_generated.obj
 0001:000298c0       ?MaxSamplingIntervalGetter@BluetoothLEAdvertisementWatcher@Advertisement@Bluetooth@Devices@Windows@NodeRT@@CAXV?$Local@VString@v8@@@v8@@AEBV?$PropertyCallbackInfo@VValue@v8@@@Nan@@@Z 000000018002a8c0 f i _nodert_generated.obj
 0001:000299e0       ?MinOutOfRangeTimeoutGetter@BluetoothLEAdvertisementWatcher@Advertisement@Bluetooth@Devices@Windows@NodeRT@@CAXV?$Local@VString@v8@@@v8@@AEBV?$PropertyCallbackInfo@VValue@v8@@@Nan@@@Z 000000018002a9e0 f i _nodert_generated.obj
 0001:00029b00       ?MinSamplingIntervalGetter@BluetoothLEAdvertisementWatcher@Advertisement@Bluetooth@Devices@Windows@NodeRT@@CAXV?$Local@VString@v8@@@v8@@AEBV?$PropertyCallbackInfo@VValue@v8@@@Nan@@@Z 000000018002ab00 f i _nodert_generated.obj
 0001:00029c20       ?MoveNext@?$IIterator@PE$AAVBluetoothLEAdvertisementBytePattern@Advertisement@Bluetooth@Devices@Windows@@@Collections@Foundation@Windows@@UE$AAA_NXZ 000000018002ac20 f i _nodert_generated.obj
 0001:00029c50       ?MoveNext@?$IIterator@PE$AAVBluetoothLEAdvertisementDataSection@Advertisement@Bluetooth@Devices@Windows@@@Collections@Foundation@Windows@@UE$AAA_NXZ 000000018002ac50 f i _nodert_generated.obj
 0001:00029c80       ?MoveNext@?$IIterator@PE$AAVBluetoothLEManufacturerData@Advertisement@Bluetooth@Devices@Windows@@@Collections@Foundation@Windows@@UE$AAA_NXZ 000000018002ac80 f i _nodert_generated.obj
 0001:00029cb0       ?MoveNext@?$IIterator@VGuid@Platform@@@Collections@Foundation@Windows@@UE$AAA_NXZ 000000018002acb0 f i _nodert_generated.obj
 0001:00029ce0       ?MoveNext@?$IteratorWrapper@PE$AAVBluetoothLEAdvertisementBytePattern@Advertisement@Bluetooth@Devices@Windows@@@Collections@NodeRT@@CAXAEBV?$FunctionCallbackInfo@VValue@v8@@@Nan@@@Z 000000018002ace0 f i _nodert_generated.obj
 0001:00029e30       ?MoveNext@?$IteratorWrapper@PE$AAVBluetoothLEAdvertisementDataSection@Advertisement@Bluetooth@Devices@Windows@@@Collections@NodeRT@@CAXAEBV?$FunctionCallbackInfo@VValue@v8@@@Nan@@@Z 000000018002ae30 f i _nodert_generated.obj
 0001:00029f80       ?MoveNext@?$IteratorWrapper@PE$AAVBluetoothLEManufacturerData@Advertisement@Bluetooth@Devices@Windows@@@Collections@NodeRT@@CAXAEBV?$FunctionCallbackInfo@VValue@v8@@@Nan@@@Z 000000018002af80 f i _nodert_generated.obj
 0001:0002a0d0       ?MoveNext@?$IteratorWrapper@VGuid@Platform@@@Collections@NodeRT@@CAXAEBV?$FunctionCallbackInfo@VValue@v8@@@Nan@@@Z 000000018002b0d0 f i _nodert_generated.obj
 0001:0002a220       ?New@?$Factory@VFunctionTemplate@v8@@@imp@Nan@@SA?AV?$Local@VFunctionTemplate@v8@@@v8@@P6AXAEBV?$FunctionCallbackInfo@VValue@v8@@@3@@ZV?$Local@VValue@v8@@@5@V?$Local@VSignature@v8@@@5@@Z 000000018002b220 f i _nodert_generated.obj
 0001:0002a410       ?New@?$IteratorWrapper@PE$AAVBluetoothLEAdvertisementBytePattern@Advertisement@Bluetooth@Devices@Windows@@@Collections@NodeRT@@CAXAEBV?$FunctionCallbackInfo@VValue@v8@@@Nan@@@Z 000000018002b410 f i _nodert_generated.obj
 0001:0002a4e0       ?New@?$IteratorWrapper@PE$AAVBluetoothLEAdvertisementDataSection@Advertisement@Bluetooth@Devices@Windows@@@Collections@NodeRT@@CAXAEBV?$FunctionCallbackInfo@VValue@v8@@@Nan@@@Z 000000018002b4e0 f i _nodert_generated.obj
 0001:0002a5b0       ?New@?$IteratorWrapper@PE$AAVBluetoothLEManufacturerData@Advertisement@Bluetooth@Devices@Windows@@@Collections@NodeRT@@CAXAEBV?$FunctionCallbackInfo@VValue@v8@@@Nan@@@Z 000000018002b5b0 f i _nodert_generated.obj
 0001:0002a680       ?New@?$IteratorWrapper@VGuid@Platform@@@Collections@NodeRT@@CAXAEBV?$FunctionCallbackInfo@VValue@v8@@@Nan@@@Z 000000018002b680 f i _nodert_generated.obj
 0001:0002a750       ?New@?$VectorViewWrapper@PE$AAVBluetoothLEAdvertisementBytePattern@Advertisement@Bluetooth@Devices@Windows@@@Collections@NodeRT@@CAXAEBV?$FunctionCallbackInfo@VValue@v8@@@Nan@@@Z 000000018002b750 f i _nodert_generated.obj
 0001:0002a820       ?New@?$VectorViewWrapper@PE$AAVBluetoothLEAdvertisementDataSection@Advertisement@Bluetooth@Devices@Windows@@@Collections@NodeRT@@CAXAEBV?$FunctionCallbackInfo@VValue@v8@@@Nan@@@Z 000000018002b820 f i _nodert_generated.obj
 0001:0002a8f0       ?New@?$VectorViewWrapper@PE$AAVBluetoothLEManufacturerData@Advertisement@Bluetooth@Devices@Windows@@@Collections@NodeRT@@CAXAEBV?$FunctionCallbackInfo@VValue@v8@@@Nan@@@Z 000000018002b8f0 f i _nodert_generated.obj
 0001:0002a9c0       ?New@?$VectorViewWrapper@VGuid@Platform@@@Collections@NodeRT@@CAXAEBV?$FunctionCallbackInfo@VValue@v8@@@Nan@@@Z 000000018002b9c0 f i _nodert_generated.obj
 0001:0002aa90       ?New@?$VectorWrapper@PE$AAVBluetoothLEAdvertisementBytePattern@Advertisement@Bluetooth@Devices@Windows@@@Collections@NodeRT@@CAXAEBV?$FunctionCallbackInfo@VValue@v8@@@Nan@@@Z 000000018002ba90 f i _nodert_generated.obj
 0001:0002ab60       ?New@?$VectorWrapper@PE$AAVBluetoothLEAdvertisementDataSection@Advertisement@Bluetooth@Devices@Windows@@@Collections@NodeRT@@CAXAEBV?$FunctionCallbackInfo@VValue@v8@@@Nan@@@Z 000000018002bb60 f i _nodert_generated.obj
 0001:0002ac30       ?New@?$VectorWrapper@PE$AAVBluetoothLEManufacturerData@Advertisement@Bluetooth@Devices@Windows@@@Collections@NodeRT@@CAXAEBV?$FunctionCallbackInfo@VValue@v8@@@Nan@@@Z 000000018002bc30 f i _nodert_generated.obj
 0001:0002ad00       ?New@?$VectorWrapper@VGuid@Platform@@@Collections@NodeRT@@CAXAEBV?$FunctionCallbackInfo@VValue@v8@@@Nan@@@Z 000000018002bd00 f i _nodert_generated.obj
 0001:0002add0       ?New@BluetoothLEAdvertisement@Advertisement@Bluetooth@Devices@Windows@NodeRT@@CAXAEBV?$FunctionCallbackInfo@VValue@v8@@@Nan@@@Z 000000018002bdd0 f i _nodert_generated.obj
 0001:0002b370       ?New@BluetoothLEAdvertisementBytePattern@Advertisement@Bluetooth@Devices@Windows@NodeRT@@CAXAEBV?$FunctionCallbackInfo@VValue@v8@@@Nan@@@Z 000000018002c370 f i _nodert_generated.obj
 0001:0002bba0       ?New@BluetoothLEAdvertisementDataSection@Advertisement@Bluetooth@Devices@Windows@NodeRT@@CAXAEBV?$FunctionCallbackInfo@VValue@v8@@@Nan@@@Z 000000018002cba0 f i _nodert_generated.obj
 0001:0002c340       ?New@BluetoothLEAdvertisementDataTypes@Advertisement@Bluetooth@Devices@Windows@NodeRT@@CAXAEBV?$FunctionCallbackInfo@VValue@v8@@@Nan@@@Z 000000018002d340 f i _nodert_generated.obj
 0001:0002c870       ?New@BluetoothLEAdvertisementFilter@Advertisement@Bluetooth@Devices@Windows@NodeRT@@CAXAEBV?$FunctionCallbackInfo@VValue@v8@@@Nan@@@Z 000000018002d870 f i _nodert_generated.obj
 0001:0002ce10       ?New@BluetoothLEAdvertisementPublisher@Advertisement@Bluetooth@Devices@Windows@NodeRT@@CAXAEBV?$FunctionCallbackInfo@VValue@v8@@@Nan@@@Z 000000018002de10 f i _nodert_generated.obj
 0001:0002d4b0       ?New@BluetoothLEAdvertisementPublisherStatusChangedEventArgs@Advertisement@Bluetooth@Devices@Windows@NodeRT@@CAXAEBV?$FunctionCallbackInfo@VValue@v8@@@Nan@@@Z 000000018002e4b0 f i _nodert_generated.obj
 0001:0002d9e0       ?New@BluetoothLEAdvertisementReceivedEventArgs@Advertisement@Bluetooth@Devices@Windows@NodeRT@@CAXAEBV?$FunctionCallbackInfo@VValue@v8@@@Nan@@@Z 000000018002e9e0 f i _nodert_generated.obj
 0001:0002df10       ?New@BluetoothLEAdvertisementWatcher@Advertisement@Bluetooth@Devices@Windows@NodeRT@@CAXAEBV?$FunctionCallbackInfo@VValue@v8@@@Nan@@@Z 000000018002ef10 f i _nodert_generated.obj
 0001:0002e5b0       ?New@BluetoothLEAdvertisementWatcherStoppedEventArgs@Advertisement@Bluetooth@Devices@Windows@NodeRT@@CAXAEBV?$FunctionCallbackInfo@VValue@v8@@@Nan@@@Z 000000018002f5b0 f i _nodert_generated.obj
 0001:0002eae0       ?New@BluetoothLEManufacturerData@Advertisement@Bluetooth@Devices@Windows@NodeRT@@CAXAEBV?$FunctionCallbackInfo@VValue@v8@@@Nan@@@Z 000000018002fae0 f i _nodert_generated.obj
 0001:0002f280       ?NewAsyncToken@TokenData@Async@NodeUtils@@SAPEAUuv_async_s@@XZ 0000000180030280 f i _nodert_generated.obj
 0001:0002f310       ?NewInstance@Nan@@YA?AV?$MaybeLocal@VObject@v8@@@v8@@V?$Local@VFunction@v8@@@3@HQEAV?$Local@VValue@v8@@@3@@Z 0000000180030310 f i _nodert_generated.obj
 0001:0002f3e0       ?NewInstance@Nan@@YA?AV?$MaybeLocal@VObject@v8@@@v8@@V?$Local@VObjectTemplate@v8@@@3@@Z 00000001800303e0 f i _nodert_generated.obj
 0001:0002f480       ?OffsetGetter@BluetoothLEAdvertisementBytePattern@Advertisement@Bluetooth@Devices@Windows@NodeRT@@CAXV?$Local@VString@v8@@@v8@@AEBV?$PropertyCallbackInfo@VValue@v8@@@Nan@@@Z 0000000180030480 f i _nodert_generated.obj
 0001:0002f5a0       ?OffsetSetter@BluetoothLEAdvertisementBytePattern@Advertisement@Bluetooth@Devices@Windows@NodeRT@@CAXV?$Local@VString@v8@@@v8@@V?$Local@VValue@v8@@@8@AEBV?$PropertyCallbackInfo@X@Nan@@@Z 00000001800305a0 f i _nodert_generated.obj
 0001:0002f6d0       ?PlacementFree@Heap@Details@Platform@@SAXPEAX0@Z 00000001800306d0 f i _nodert_generated.obj
 0001:0002f6e0       ?PublicTargetAddressGetter@BluetoothLEAdvertisementDataTypes@Advertisement@Bluetooth@Devices@Windows@NodeRT@@CAXV?$Local@VString@v8@@@v8@@AEBV?$PropertyCallbackInfo@VValue@v8@@@Nan@@@Z 00000001800306e0 f i _nodert_generated.obj
 0001:0002f7b0       ?RandomTargetAddressGetter@BluetoothLEAdvertisementDataTypes@Advertisement@Bluetooth@Devices@Windows@NodeRT@@CAXV?$Local@VString@v8@@@v8@@AEBV?$PropertyCallbackInfo@VValue@v8@@@Nan@@@Z 00000001800307b0 f i _nodert_generated.obj
 0001:0002f880       ?RawSignalStrengthInDBmGetter@BluetoothLEAdvertisementReceivedEventArgs@Advertisement@Bluetooth@Devices@Windows@NodeRT@@CAXV?$Local@VString@v8@@@v8@@AEBV?$PropertyCallbackInfo@VValue@v8@@@Nan@@@Z 0000000180030880 f i _nodert_generated.obj
 0001:0002f9a0       ?Ref@ObjectWrap@Nan@@MEAAXXZ 00000001800309a0 f i _nodert_generated.obj
 0001:0002f9f0       ?RemoveAt@?$IVector@PE$AAVBluetoothLEAdvertisementBytePattern@Advertisement@Bluetooth@Devices@Windows@@@Collections@Foundation@Windows@@UE$AAAXI@Z 00000001800309f0 f i _nodert_generated.obj
 0001:0002fa20       ?RemoveAt@?$IVector@PE$AAVBluetoothLEAdvertisementDataSection@Advertisement@Bluetooth@Devices@Windows@@@Collections@Foundation@Windows@@UE$AAAXI@Z 0000000180030a20 f i _nodert_generated.obj
 0001:0002fa50       ?RemoveAt@?$IVector@PE$AAVBluetoothLEManufacturerData@Advertisement@Bluetooth@Devices@Windows@@@Collections@Foundation@Windows@@UE$AAAXI@Z 0000000180030a50 f i _nodert_generated.obj
 0001:0002fa80       ?RemoveAt@?$IVector@VGuid@Platform@@@Collections@Foundation@Windows@@UE$AAAXI@Z 0000000180030a80 f i _nodert_generated.obj
 0001:0002fab0       ?RemoveAt@?$VectorWrapper@PE$AAVBluetoothLEAdvertisementBytePattern@Advertisement@Bluetooth@Devices@Windows@@@Collections@NodeRT@@CAXAEBV?$FunctionCallbackInfo@VValue@v8@@@Nan@@@Z 0000000180030ab0 f i _nodert_generated.obj
 0001:0002fc20       ?RemoveAt@?$VectorWrapper@PE$AAVBluetoothLEAdvertisementDataSection@Advertisement@Bluetooth@Devices@Windows@@@Collections@NodeRT@@CAXAEBV?$FunctionCallbackInfo@VValue@v8@@@Nan@@@Z 0000000180030c20 f i _nodert_generated.obj
 0001:0002fd90       ?RemoveAt@?$VectorWrapper@PE$AAVBluetoothLEManufacturerData@Advertisement@Bluetooth@Devices@Windows@@@Collections@NodeRT@@CAXAEBV?$FunctionCallbackInfo@VValue@v8@@@Nan@@@Z 0000000180030d90 f i _nodert_generated.obj
 0001:0002ff00       ?RemoveAt@?$VectorWrapper@VGuid@Platform@@@Collections@NodeRT@@CAXAEBV?$FunctionCallbackInfo@VValue@v8@@@Nan@@@Z 0000000180030f00 f i _nodert_generated.obj
 0001:00030070       ?RemoveAtEnd@?$IVector@PE$AAVBluetoothLEAdvertisementBytePattern@Advertisement@Bluetooth@Devices@Windows@@@Collections@Foundation@Windows@@UE$AAAXXZ 0000000180031070 f i _nodert_generated.obj
 0001:000300a0       ?RemoveAtEnd@?$IVector@PE$AAVBluetoothLEAdvertisementDataSection@Advertisement@Bluetooth@Devices@Windows@@@Collections@Foundation@Windows@@UE$AAAXXZ 00000001800310a0 f i _nodert_generated.obj
 0001:000300d0       ?RemoveAtEnd@?$IVector@PE$AAVBluetoothLEManufacturerData@Advertisement@Bluetooth@Devices@Windows@@@Collections@Foundation@Windows@@UE$AAAXXZ 00000001800310d0 f i _nodert_generated.obj
 0001:00030100       ?RemoveAtEnd@?$IVector@VGuid@Platform@@@Collections@Foundation@Windows@@UE$AAAXXZ 0000000180031100 f i _nodert_generated.obj
 0001:00030130       ?RemoveAtEnd@?$VectorWrapper@PE$AAVBluetoothLEAdvertisementBytePattern@Advertisement@Bluetooth@Devices@Windows@@@Collections@NodeRT@@CAXAEBV?$FunctionCallbackInfo@VValue@v8@@@Nan@@@Z 0000000180031130 f i _nodert_generated.obj
 0001:00030230       ?RemoveAtEnd@?$VectorWrapper@PE$AAVBluetoothLEAdvertisementDataSection@Advertisement@Bluetooth@Devices@Windows@@@Collections@NodeRT@@CAXAEBV?$FunctionCallbackInfo@VValue@v8@@@Nan@@@Z 0000000180031230 f i _nodert_generated.obj
 0001:00030330       ?RemoveAtEnd@?$VectorWrapper@PE$AAVBluetoothLEManufacturerData@Advertisement@Bluetooth@Devices@Windows@@@Collections@NodeRT@@CAXAEBV?$FunctionCallbackInfo@VValue@v8@@@Nan@@@Z 0000000180031330 f i _nodert_generated.obj
 0001:00030430       ?RemoveAtEnd@?$VectorWrapper@VGuid@Platform@@@Collections@NodeRT@@CAXAEBV?$FunctionCallbackInfo@VValue@v8@@@Nan@@@Z 0000000180031430 f i _nodert_generated.obj
 0001:00030530       ?RemoveListener@BluetoothLEAdvertisementPublisher@Advertisement@Bluetooth@Devices@Windows@NodeRT@@CAXAEBV?$FunctionCallbackInfo@VValue@v8@@@Nan@@@Z 0000000180031530 f i _nodert_generated.obj
 0001:00030ac0       ?RemoveListener@BluetoothLEAdvertisementWatcher@Advertisement@Bluetooth@Devices@Windows@NodeRT@@CAXAEBV?$FunctionCallbackInfo@VValue@v8@@@Nan@@@Z 0000000180031ac0 f i _nodert_generated.obj
 0001:00031130       ?ReplaceAll@?$IVector@PE$AAVBluetoothLEAdvertisementBytePattern@Advertisement@Bluetooth@Devices@Windows@@@Collections@Foundation@Windows@@UE$AAAXP$01E$ABV?$Array@PE$AAVBluetoothLEAdvertisementBytePattern@Advertisement@Bluetooth@Devices@Windows@@$00@Platform@@@Z 0000000180032130 f i _nodert_generated.obj
 0001:00031180       ?ReplaceAll@?$IVector@PE$AAVBluetoothLEAdvertisementDataSection@Advertisement@Bluetooth@Devices@Windows@@@Collections@Foundation@Windows@@UE$AAAXP$01E$ABV?$Array@PE$AAVBluetoothLEAdvertisementDataSection@Advertisement@Bluetooth@Devices@Windows@@$00@Platform@@@Z 0000000180032180 f i _nodert_generated.obj
 0001:000311d0       ?ReplaceAll@?$IVector@PE$AAVBluetoothLEManufacturerData@Advertisement@Bluetooth@Devices@Windows@@@Collections@Foundation@Windows@@UE$AAAXP$01E$ABV?$Array@PE$AAVBluetoothLEManufacturerData@Advertisement@Bluetooth@Devices@Windows@@$00@Platform@@@Z 00000001800321d0 f i _nodert_generated.obj
 0001:00031220       ?ReplaceAll@?$IVector@VGuid@Platform@@@Collections@Foundation@Windows@@UE$AAAXP$01E$ABV?$Array@VGuid@Platform@@$00@Platform@@@Z 0000000180032220 f i _nodert_generated.obj
 0001:00031270       ?ReplaceAll@?$VectorWrapper@PE$AAVBluetoothLEAdvertisementBytePattern@Advertisement@Bluetooth@Devices@Windows@@@Collections@NodeRT@@CAXAEBV?$FunctionCallbackInfo@VValue@v8@@@Nan@@@Z 0000000180032270 f i _nodert_generated.obj
 0001:000314d0       ?ReplaceAll@?$VectorWrapper@PE$AAVBluetoothLEAdvertisementDataSection@Advertisement@Bluetooth@Devices@Windows@@@Collections@NodeRT@@CAXAEBV?$FunctionCallbackInfo@VValue@v8@@@Nan@@@Z 00000001800324d0 f i _nodert_generated.obj
 0001:00031730       ?ReplaceAll@?$VectorWrapper@PE$AAVBluetoothLEManufacturerData@Advertisement@Bluetooth@Devices@Windows@@@Collections@NodeRT@@CAXAEBV?$FunctionCallbackInfo@VValue@v8@@@Nan@@@Z 0000000180032730 f i _nodert_generated.obj
 0001:00031990       ?ReplaceAll@?$VectorWrapper@VGuid@Platform@@@Collections@NodeRT@@CAXAEBV?$FunctionCallbackInfo@VValue@v8@@@Nan@@@Z 0000000180032990 f i _nodert_generated.obj
 0001:00031bf0       ?RunOnMain@Async@NodeUtils@@SAXV?$function@$$A6AXXZ@std@@@Z 0000000180032bf0 f i _nodert_generated.obj
 0001:00031cf0       ?ScanningModeGetter@BluetoothLEAdvertisementWatcher@Advertisement@Bluetooth@Devices@Windows@NodeRT@@CAXV?$Local@VString@v8@@@v8@@AEBV?$PropertyCallbackInfo@VValue@v8@@@Nan@@@Z 0000000180032cf0 f i _nodert_generated.obj
 0001:00031e10       ?ScanningModeSetter@BluetoothLEAdvertisementWatcher@Advertisement@Bluetooth@Devices@Windows@NodeRT@@CAXV?$Local@VString@v8@@@v8@@V?$Local@VValue@v8@@@8@AEBV?$PropertyCallbackInfo@X@Nan@@@Z 0000000180032e10 f i _nodert_generated.obj
 0001:00031f40       ?ServiceData128BitUuidsGetter@BluetoothLEAdvertisementDataTypes@Advertisement@Bluetooth@Devices@Windows@NodeRT@@CAXV?$Local@VString@v8@@@v8@@AEBV?$PropertyCallbackInfo@VValue@v8@@@Nan@@@Z 0000000180032f40 f i _nodert_generated.obj
 0001:00032010       ?ServiceData16BitUuidsGetter@BluetoothLEAdvertisementDataTypes@Advertisement@Bluetooth@Devices@Windows@NodeRT@@CAXV?$Local@VString@v8@@@v8@@AEBV?$PropertyCallbackInfo@VValue@v8@@@Nan@@@Z 0000000180033010 f i _nodert_generated.obj
 0001:000320e0       ?ServiceData32BitUuidsGetter@BluetoothLEAdvertisementDataTypes@Advertisement@Bluetooth@Devices@Windows@NodeRT@@CAXV?$Local@VString@v8@@@v8@@AEBV?$PropertyCallbackInfo@VValue@v8@@@Nan@@@Z 00000001800330e0 f i _nodert_generated.obj
 0001:000321b0       ?ServiceSolicitation128BitUuidsGetter@BluetoothLEAdvertisementDataTypes@Advertisement@Bluetooth@Devices@Windows@NodeRT@@CAXV?$Local@VString@v8@@@v8@@AEBV?$PropertyCallbackInfo@VValue@v8@@@Nan@@@Z 00000001800331b0 f i _nodert_generated.obj
 0001:00032280       ?ServiceSolicitation16BitUuidsGetter@BluetoothLEAdvertisementDataTypes@Advertisement@Bluetooth@Devices@Windows@NodeRT@@CAXV?$Local@VString@v8@@@v8@@AEBV?$PropertyCallbackInfo@VValue@v8@@@Nan@@@Z 0000000180033280 f i _nodert_generated.obj
 0001:00032350       ?ServiceSolicitation32BitUuidsGetter@BluetoothLEAdvertisementDataTypes@Advertisement@Bluetooth@Devices@Windows@NodeRT@@CAXV?$Local@VString@v8@@@v8@@AEBV?$PropertyCallbackInfo@VValue@v8@@@Nan@@@Z 0000000180033350 f i _nodert_generated.obj
 0001:00032420       ?ServiceUuidsGetter@BluetoothLEAdvertisement@Advertisement@Bluetooth@Devices@Windows@NodeRT@@CAXV?$Local@VString@v8@@@v8@@AEBV?$PropertyCallbackInfo@VValue@v8@@@Nan@@@Z 0000000180033420 f i _nodert_generated.obj
 0001:000326c0       ?Set@?$VectorWrapper@PE$AAVBluetoothLEAdvertisementBytePattern@Advertisement@Bluetooth@Devices@Windows@@@Collections@NodeRT@@CAXIV?$Local@VValue@v8@@@v8@@AEBV?$PropertyCallbackInfo@VValue@v8@@@Nan@@@Z 00000001800336c0 f i _nodert_generated.obj
 0001:000328c0       ?Set@?$VectorWrapper@PE$AAVBluetoothLEAdvertisementDataSection@Advertisement@Bluetooth@Devices@Windows@@@Collections@NodeRT@@CAXIV?$Local@VValue@v8@@@v8@@AEBV?$PropertyCallbackInfo@VValue@v8@@@Nan@@@Z 00000001800338c0 f i _nodert_generated.obj
 0001:00032ac0       ?Set@?$VectorWrapper@PE$AAVBluetoothLEManufacturerData@Advertisement@Bluetooth@Devices@Windows@@@Collections@NodeRT@@CAXIV?$Local@VValue@v8@@@v8@@AEBV?$PropertyCallbackInfo@VValue@v8@@@Nan@@@Z 0000000180033ac0 f i _nodert_generated.obj
 0001:00032cc0       ?Set@?$VectorWrapper@VGuid@Platform@@@Collections@NodeRT@@CAXIV?$Local@VValue@v8@@@v8@@AEBV?$PropertyCallbackInfo@VValue@v8@@@Nan@@@Z 0000000180033cc0 f i _nodert_generated.obj
 0001:00032e70       ?Set@Nan@@YA?AV?$Maybe@_N@v8@@V?$Local@VObject@v8@@@3@V?$Local@VValue@v8@@@3@1@Z 0000000180033e70 f i _nodert_generated.obj
 0001:00032f20       ?SetAccessor@Nan@@YAXV?$Local@VObjectTemplate@v8@@@v8@@V?$Local@VString@v8@@@3@P6AX1AEBV?$PropertyCallbackInfo@VValue@v8@@@1@@ZP6AX1V?$Local@VValue@v8@@@3@AEBV?$PropertyCallbackInfo@X@1@@Z4W4AccessControl@3@W4PropertyAttribute@3@V?$Local@VAccessorSignature@v8@@@3@@Z 0000000180033f20 f i _nodert_generated.obj
 0001:00033100       ?SetAccessor@Nan@@YA_NV?$Local@VObject@v8@@@v8@@V?$Local@VString@v8@@@3@P6AX1AEBV?$PropertyCallbackInfo@VValue@v8@@@1@@ZP6AX1V?$Local@VValue@v8@@@3@AEBV?$PropertyCallbackInfo@X@1@@Z4W4AccessControl@3@W4PropertyAttribute@3@@Z 0000000180034100 f i _nodert_generated.obj
 0001:00033320       ?SetAt@?$IVector@PE$AAVBluetoothLEAdvertisementBytePattern@Advertisement@Bluetooth@Devices@Windows@@@Collections@Foundation@Windows@@UE$AAAXIPE$AAVBluetoothLEAdvertisementBytePattern@Advertisement@Bluetooth@Devices@4@@Z 0000000180034320 f i _nodert_generated.obj
 0001:00033350       ?SetAt@?$IVector@PE$AAVBluetoothLEAdvertisementDataSection@Advertisement@Bluetooth@Devices@Windows@@@Collections@Foundation@Windows@@UE$AAAXIPE$AAVBluetoothLEAdvertisementDataSection@Advertisement@Bluetooth@Devices@4@@Z 0000000180034350 f i _nodert_generated.obj
 0001:00033380       ?SetAt@?$IVector@PE$AAVBluetoothLEManufacturerData@Advertisement@Bluetooth@Devices@Windows@@@Collections@Foundation@Windows@@UE$AAAXIPE$AAVBluetoothLEManufacturerData@Advertisement@Bluetooth@Devices@4@@Z 0000000180034380 f i _nodert_generated.obj
 0001:000333b0       ?SetAt@?$IVector@VGuid@Platform@@@Collections@Foundation@Windows@@UE$AAAXIVGuid@Platform@@@Z 00000001800343b0 f i _nodert_generated.obj
 0001:000333f0       ?SetAt@?$VectorWrapper@PE$AAVBluetoothLEAdvertisementBytePattern@Advertisement@Bluetooth@Devices@Windows@@@Collections@NodeRT@@CAXAEBV?$FunctionCallbackInfo@VValue@v8@@@Nan@@@Z 00000001800343f0 f i _nodert_generated.obj
 0001:00033660       ?SetAt@?$VectorWrapper@PE$AAVBluetoothLEAdvertisementDataSection@Advertisement@Bluetooth@Devices@Windows@@@Collections@NodeRT@@CAXAEBV?$FunctionCallbackInfo@VValue@v8@@@Nan@@@Z 0000000180034660 f i _nodert_generated.obj
 0001:000338d0       ?SetAt@?$VectorWrapper@PE$AAVBluetoothLEManufacturerData@Advertisement@Bluetooth@Devices@Windows@@@Collections@NodeRT@@CAXAEBV?$FunctionCallbackInfo@VValue@v8@@@Nan@@@Z 00000001800348d0 f i _nodert_generated.obj
 0001:00033b40       ?SetAt@?$VectorWrapper@VGuid@Platform@@@Collections@NodeRT@@CAXAEBV?$FunctionCallbackInfo@VValue@v8@@@Nan@@@Z 0000000180034b40 f i _nodert_generated.obj
 0001:00033dc0       ?SetPrototypeMethod@Nan@@YAXV?$Local@VFunctionTemplate@v8@@@v8@@PEBDP6AXAEBV?$FunctionCallbackInfo@VValue@v8@@@1@@Z@Z 0000000180034dc0 f i _nodert_generated.obj
 0001:00034020       ?ShortenedLocalNameGetter@BluetoothLEAdvertisementDataTypes@Advertisement@Bluetooth@Devices@Windows@NodeRT@@CAXV?$Local@VString@v8@@@v8@@AEBV?$PropertyCallbackInfo@VValue@v8@@@Nan@@@Z 0000000180035020 f i _nodert_generated.obj
 0001:000340f0       ?SignalStrengthFilterGetter@BluetoothLEAdvertisementWatcher@Advertisement@Bluetooth@Devices@Windows@NodeRT@@CAXV?$Local@VString@v8@@@v8@@AEBV?$PropertyCallbackInfo@VValue@v8@@@Nan@@@Z 00000001800350f0 f i _nodert_generated.obj
 0001:00034250       ?SignalStrengthFilterSetter@BluetoothLEAdvertisementWatcher@Advertisement@Bluetooth@Devices@Windows@NodeRT@@CAXV?$Local@VString@v8@@@v8@@V?$Local@VValue@v8@@@8@AEBV?$PropertyCallbackInfo@X@Nan@@@Z 0000000180035250 f i _nodert_generated.obj
 0001:00034420       ?SizeGetter@?$VectorViewWrapper@PE$AAVBluetoothLEAdvertisementBytePattern@Advertisement@Bluetooth@Devices@Windows@@@Collections@NodeRT@@CAXV?$Local@VString@v8@@@v8@@AEBV?$PropertyCallbackInfo@VValue@v8@@@Nan@@@Z 0000000180035420 f i _nodert_generated.obj
 0001:00034530       ?SizeGetter@?$VectorViewWrapper@PE$AAVBluetoothLEAdvertisementDataSection@Advertisement@Bluetooth@Devices@Windows@@@Collections@NodeRT@@CAXV?$Local@VString@v8@@@v8@@AEBV?$PropertyCallbackInfo@VValue@v8@@@Nan@@@Z 0000000180035530 f i _nodert_generated.obj
 0001:00034640       ?SizeGetter@?$VectorViewWrapper@PE$AAVBluetoothLEManufacturerData@Advertisement@Bluetooth@Devices@Windows@@@Collections@NodeRT@@CAXV?$Local@VString@v8@@@v8@@AEBV?$PropertyCallbackInfo@VValue@v8@@@Nan@@@Z 0000000180035640 f i _nodert_generated.obj
 0001:00034750       ?SizeGetter@?$VectorViewWrapper@VGuid@Platform@@@Collections@NodeRT@@CAXV?$Local@VString@v8@@@v8@@AEBV?$PropertyCallbackInfo@VValue@v8@@@Nan@@@Z 0000000180035750 f i _nodert_generated.obj
 0001:00034860       ?SizeGetter@?$VectorWrapper@PE$AAVBluetoothLEAdvertisementBytePattern@Advertisement@Bluetooth@Devices@Windows@@@Collections@NodeRT@@CAXV?$Local@VString@v8@@@v8@@AEBV?$PropertyCallbackInfo@VValue@v8@@@Nan@@@Z 0000000180035860 f i _nodert_generated.obj
 0001:00034970       ?SizeGetter@?$VectorWrapper@PE$AAVBluetoothLEAdvertisementDataSection@Advertisement@Bluetooth@Devices@Windows@@@Collections@NodeRT@@CAXV?$Local@VString@v8@@@v8@@AEBV?$PropertyCallbackInfo@VValue@v8@@@Nan@@@Z 0000000180035970 f i _nodert_generated.obj
 0001:00034a80       ?SizeGetter@?$VectorWrapper@PE$AAVBluetoothLEManufacturerData@Advertisement@Bluetooth@Devices@Windows@@@Collections@NodeRT@@CAXV?$Local@VString@v8@@@v8@@AEBV?$PropertyCallbackInfo@VValue@v8@@@Nan@@@Z 0000000180035a80 f i _nodert_generated.obj
 0001:00034b90       ?SizeGetter@?$VectorWrapper@VGuid@Platform@@@Collections@NodeRT@@CAXV?$Local@VString@v8@@@v8@@AEBV?$PropertyCallbackInfo@VValue@v8@@@Nan@@@Z 0000000180035b90 f i _nodert_generated.obj
 0001:00034ca0       ?SlaveConnectionIntervalRangeGetter@BluetoothLEAdvertisementDataTypes@Advertisement@Bluetooth@Devices@Windows@NodeRT@@CAXV?$Local@VString@v8@@@v8@@AEBV?$PropertyCallbackInfo@VValue@v8@@@Nan@@@Z 0000000180035ca0 f i _nodert_generated.obj
 0001:00034d70       ?Start@BluetoothLEAdvertisementPublisher@Advertisement@Bluetooth@Devices@Windows@NodeRT@@CAXAEBV?$FunctionCallbackInfo@VValue@v8@@@Nan@@@Z 0000000180035d70 f i _nodert_generated.obj
 0001:00034e70       ?Start@BluetoothLEAdvertisementWatcher@Advertisement@Bluetooth@Devices@Windows@NodeRT@@CAXAEBV?$FunctionCallbackInfo@VValue@v8@@@Nan@@@Z 0000000180035e70 f i _nodert_generated.obj
 0001:00034f70       ?Start@IBluetoothLEAdvertisementPublisher@Advertisement@Bluetooth@Devices@Windows@@UE$AAAXXZ 0000000180035f70 f i _nodert_generated.obj
 0001:00034fa0       ?Start@IBluetoothLEAdvertisementWatcher@Advertisement@Bluetooth@Devices@Windows@@UE$AAAXXZ 0000000180035fa0 f i _nodert_generated.obj
 0001:00034fd0       ?StatusGetter@BluetoothLEAdvertisementPublisher@Advertisement@Bluetooth@Devices@Windows@NodeRT@@CAXV?$Local@VString@v8@@@v8@@AEBV?$PropertyCallbackInfo@VValue@v8@@@Nan@@@Z 0000000180035fd0 f i _nodert_generated.obj
 0001:000350f0       ?StatusGetter@BluetoothLEAdvertisementPublisherStatusChangedEventArgs@Advertisement@Bluetooth@Devices@Windows@NodeRT@@CAXV?$Local@VString@v8@@@v8@@AEBV?$PropertyCallbackInfo@VValue@v8@@@Nan@@@Z 00000001800360f0 f i _nodert_generated.obj
 0001:00035210       ?StatusGetter@BluetoothLEAdvertisementWatcher@Advertisement@Bluetooth@Devices@Windows@NodeRT@@CAXV?$Local@VString@v8@@@v8@@AEBV?$PropertyCallbackInfo@VValue@v8@@@Nan@@@Z 0000000180036210 f i _nodert_generated.obj
 0001:00035330       ?Stop@BluetoothLEAdvertisementPublisher@Advertisement@Bluetooth@Devices@Windows@NodeRT@@CAXAEBV?$FunctionCallbackInfo@VValue@v8@@@Nan@@@Z 0000000180036330 f i _nodert_generated.obj
 0001:00035430       ?Stop@BluetoothLEAdvertisementWatcher@Advertisement@Bluetooth@Devices@Windows@NodeRT@@CAXAEBV?$FunctionCallbackInfo@VValue@v8@@@Nan@@@Z 0000000180036430 f i _nodert_generated.obj
 0001:00035530       ?Stop@IBluetoothLEAdvertisementPublisher@Advertisement@Bluetooth@Devices@Windows@@UE$AAAXXZ 0000000180036530 f i _nodert_generated.obj
 0001:00035560       ?Stop@IBluetoothLEAdvertisementWatcher@Advertisement@Bluetooth@Devices@Windows@@UE$AAAXXZ 0000000180036560 f i _nodert_generated.obj
 0001:00035590       ?ThrowError@Nan@@YAXV?$Local@VValue@v8@@@v8@@@Z 0000000180036590 f i _nodert_generated.obj
 0001:000355c0       ?TimestampGetter@BluetoothLEAdvertisementReceivedEventArgs@Advertisement@Bluetooth@Devices@Windows@NodeRT@@CAXV?$Local@VString@v8@@@v8@@AEBV?$PropertyCallbackInfo@VValue@v8@@@Nan@@@Z 00000001800365c0 f i _nodert_generated.obj
 0001:000356b0       ?ToString@?$CustomBox@VGuid@Platform@@@Details@Platform@@UE$AAAPE$AAVString@3@XZ 00000001800366b0 f i _nodert_generated.obj
 0001:00035710       ?ToString@?$CustomBox@VGuid@Platform@@@Details@Platform@@WBA@E$AAAPE$AAVString@3@XZ 0000000180036710 f i _nodert_generated.obj
 0001:00035720       ?ToString@?$CustomBox@W4BluetoothLEAdvertisementFlags@Advertisement@Bluetooth@Devices@Windows@@@Details@Platform@@UE$AAAPE$AAVString@3@XZ 0000000180036720 f i _nodert_generated.obj
 0001:00035764       ?ToString@?$CustomBox@W4BluetoothLEAdvertisementFlags@Advertisement@Bluetooth@Devices@Windows@@@Details@Platform@@WBA@E$AAAPE$AAVString@3@XZ 0000000180036764 f i _nodert_generated.obj
 0001:00035770       ?TxPowerLevelGetter@BluetoothLEAdvertisementDataTypes@Advertisement@Bluetooth@Devices@Windows@NodeRT@@CAXV?$Local@VString@v8@@@v8@@AEBV?$PropertyCallbackInfo@VValue@v8@@@Nan@@@Z 0000000180036770 f i _nodert_generated.obj
 0001:00035840       ?Unref@ObjectWrap@Nan@@MEAAXXZ 0000000180036840 f i _nodert_generated.obj
 0001:00035910       ?UnwrapBluetoothLEAdvertisement@Advertisement@Bluetooth@Devices@Windows@NodeRT@@YAPE$AAVBluetoothLEAdvertisement@1234@V?$Local@VValue@v8@@@v8@@@Z 0000000180036910 f   _nodert_generated.obj
 0001:00035970       ?UnwrapBluetoothLEAdvertisementBytePattern@Advertisement@Bluetooth@Devices@Windows@NodeRT@@YAPE$AAVBluetoothLEAdvertisementBytePattern@1234@V?$Local@VValue@v8@@@v8@@@Z 0000000180036970 f   _nodert_generated.obj
 0001:000359d0       ?UnwrapBluetoothLEAdvertisementDataSection@Advertisement@Bluetooth@Devices@Windows@NodeRT@@YAPE$AAVBluetoothLEAdvertisementDataSection@1234@V?$Local@VValue@v8@@@v8@@@Z 00000001800369d0 f   _nodert_generated.obj
 0001:00035a30       ?UnwrapBluetoothLEAdvertisementDataTypes@Advertisement@Bluetooth@Devices@Windows@NodeRT@@YAPE$AAVBluetoothLEAdvertisementDataTypes@1234@V?$Local@VValue@v8@@@v8@@@Z 0000000180036a30 f   _nodert_generated.obj
 0001:00035a90       ?UnwrapBluetoothLEAdvertisementFilter@Advertisement@Bluetooth@Devices@Windows@NodeRT@@YAPE$AAVBluetoothLEAdvertisementFilter@1234@V?$Local@VValue@v8@@@v8@@@Z 0000000180036a90 f   _nodert_generated.obj
 0001:00035af0       ?UnwrapBluetoothLEAdvertisementPublisher@Advertisement@Bluetooth@Devices@Windows@NodeRT@@YAPE$AAVBluetoothLEAdvertisementPublisher@1234@V?$Local@VValue@v8@@@v8@@@Z 0000000180036af0 f   _nodert_generated.obj
 0001:00035b50       ?UnwrapBluetoothLEAdvertisementPublisherStatusChangedEventArgs@Advertisement@Bluetooth@Devices@Windows@NodeRT@@YAPE$AAVBluetoothLEAdvertisementPublisherStatusChangedEventArgs@1234@V?$Local@VValue@v8@@@v8@@@Z 0000000180036b50 f   _nodert_generated.obj
 0001:00035bb0       ?UnwrapBluetoothLEAdvertisementReceivedEventArgs@Advertisement@Bluetooth@Devices@Windows@NodeRT@@YAPE$AAVBluetoothLEAdvertisementReceivedEventArgs@1234@V?$Local@VValue@v8@@@v8@@@Z 0000000180036bb0 f   _nodert_generated.obj
 0001:00035c10       ?UnwrapBluetoothLEAdvertisementWatcher@Advertisement@Bluetooth@Devices@Windows@NodeRT@@YAPE$AAVBluetoothLEAdvertisementWatcher@1234@V?$Local@VValue@v8@@@v8@@@Z 0000000180036c10 f   _nodert_generated.obj
 0001:00035c70       ?UnwrapBluetoothLEAdvertisementWatcherStoppedEventArgs@Advertisement@Bluetooth@Devices@Windows@NodeRT@@YAPE$AAVBluetoothLEAdvertisementWatcherStoppedEventArgs@1234@V?$Local@VValue@v8@@@v8@@@Z 0000000180036c70 f   _nodert_generated.obj
 0001:00035cd0       ?UnwrapBluetoothLEManufacturerData@Advertisement@Bluetooth@Devices@Windows@NodeRT@@YAPE$AAVBluetoothLEManufacturerData@1234@V?$Local@VValue@v8@@@v8@@@Z 0000000180036cd0 f   _nodert_generated.obj
 0001:00035d30       ?WeakCallback@ObjectWrap@Nan@@CAXAEBV?$WeakCallbackInfo@VObjectWrap@Nan@@@v8@@@Z 0000000180036d30 f i _nodert_generated.obj
 0001:00035de0       ?Wrap@ObjectWrap@Nan@@IEAAXV?$Local@VObject@v8@@@v8@@@Z 0000000180036de0 f i _nodert_generated.obj
 0001:00035ee0       ?WrapBluetoothLEAdvertisement@Advertisement@Bluetooth@Devices@Windows@NodeRT@@YA?AV?$Local@VValue@v8@@@v8@@PE$AAVBluetoothLEAdvertisement@1234@@Z 0000000180036ee0 f   _nodert_generated.obj
 0001:00036000       ?WrapBluetoothLEAdvertisementBytePattern@Advertisement@Bluetooth@Devices@Windows@NodeRT@@YA?AV?$Local@VValue@v8@@@v8@@PE$AAVBluetoothLEAdvertisementBytePattern@1234@@Z 0000000180037000 f   _nodert_generated.obj
 0001:00036120       ?WrapBluetoothLEAdvertisementDataSection@Advertisement@Bluetooth@Devices@Windows@NodeRT@@YA?AV?$Local@VValue@v8@@@v8@@PE$AAVBluetoothLEAdvertisementDataSection@1234@@Z 0000000180037120 f   _nodert_generated.obj
 0001:00036240       ?WrapBluetoothLEAdvertisementDataTypes@Advertisement@Bluetooth@Devices@Windows@NodeRT@@YA?AV?$Local@VValue@v8@@@v8@@PE$AAVBluetoothLEAdvertisementDataTypes@1234@@Z 0000000180037240 f   _nodert_generated.obj
 0001:00036360       ?WrapBluetoothLEAdvertisementFilter@Advertisement@Bluetooth@Devices@Windows@NodeRT@@YA?AV?$Local@VValue@v8@@@v8@@PE$AAVBluetoothLEAdvertisementFilter@1234@@Z 0000000180037360 f   _nodert_generated.obj
 0001:00036480       ?WrapBluetoothLEAdvertisementPublisher@Advertisement@Bluetooth@Devices@Windows@NodeRT@@YA?AV?$Local@VValue@v8@@@v8@@PE$AAVBluetoothLEAdvertisementPublisher@1234@@Z 0000000180037480 f   _nodert_generated.obj
 0001:000365a0       ?WrapBluetoothLEAdvertisementPublisherStatusChangedEventArgs@Advertisement@Bluetooth@Devices@Windows@NodeRT@@YA?AV?$Local@VValue@v8@@@v8@@PE$AAVBluetoothLEAdvertisementPublisherStatusChangedEventArgs@1234@@Z 00000001800375a0 f   _nodert_generated.obj
 0001:000366c0       ?WrapBluetoothLEAdvertisementReceivedEventArgs@Advertisement@Bluetooth@Devices@Windows@NodeRT@@YA?AV?$Local@VValue@v8@@@v8@@PE$AAVBluetoothLEAdvertisementReceivedEventArgs@1234@@Z 00000001800376c0 f   _nodert_generated.obj
 0001:000367e0       ?WrapBluetoothLEAdvertisementWatcher@Advertisement@Bluetooth@Devices@Windows@NodeRT@@YA?AV?$Local@VValue@v8@@@v8@@PE$AAVBluetoothLEAdvertisementWatcher@1234@@Z 00000001800377e0 f   _nodert_generated.obj
 0001:00036900       ?WrapBluetoothLEAdvertisementWatcherStoppedEventArgs@Advertisement@Bluetooth@Devices@Windows@NodeRT@@YA?AV?$Local@VValue@v8@@@v8@@PE$AAVBluetoothLEAdvertisementWatcherStoppedEventArgs@1234@@Z 0000000180037900 f   _nodert_generated.obj
 0001:00036a20       ?WrapBluetoothLEManufacturerData@Advertisement@Bluetooth@Devices@Windows@NodeRT@@YA?AV?$Local@VValue@v8@@@v8@@PE$AAVBluetoothLEManufacturerData@1234@@Z 0000000180037a20 f   _nodert_generated.obj
 0001:00036b40       ?_Copy@?$_Func_impl@V<lambda_013992709166ead2505d475e5a25b16a>@@V?$allocator@H@std@@_NV?$Local@VValue@v8@@@v8@@@std@@EEBAPEAV?$_Func_base@_NV?$Local@VValue@v8@@@v8@@@2@PEAX@Z 0000000180037b40 f i _nodert_generated.obj
 0001:00036b60       ?_Copy@?$_Func_impl@V<lambda_04fdbd7d4e116aa97aa0f582c1e08d98>@@V?$allocator@H@std@@_NV?$Local@VValue@v8@@@v8@@@std@@EEBAPEAV?$_Func_base@_NV?$Local@VValue@v8@@@v8@@@2@PEAX@Z 0000000180037b60 f i _nodert_generated.obj
 0001:00036b80       ?_Copy@?$_Func_impl@V<lambda_102d3b0b16f73d4fb66b83542007fa91>@@V?$allocator@H@std@@X$$V@std@@EEBAPEAV?$_Func_base@X$$V@2@PEAX@Z 0000000180037b80 f i _nodert_generated.obj
 0001:00036bc0       ?_Copy@?$_Func_impl@V<lambda_1a6f8a59d0e38e894945875c44afcbdb>@@V?$allocator@H@std@@_NV?$Local@VValue@v8@@@v8@@@std@@EEBAPEAV?$_Func_base@_NV?$Local@VValue@v8@@@v8@@@2@PEAX@Z 0000000180037bc0 f i _nodert_generated.obj
 0001:00036be0       ?_Copy@?$_Func_impl@V<lambda_274ebad6e66cd704c8f9f6a92063cf98>@@V?$allocator@H@std@@PE$AAVBluetoothLEManufacturerData@Advertisement@Bluetooth@Devices@Windows@@V?$Local@VValue@v8@@@v8@@@std@@EEBAPEAV?$_Func_base@PE$AAVBluetoothLEManufacturerData@Advertisement@Bluetooth@Devices@Windows@@V?$Local@VValue@v8@@@v8@@@2@PEAX@Z 0000000180037be0 f i _nodert_generated.obj
 0001:00036c00       ?_Copy@?$_Func_impl@V<lambda_2a9ef30eb72dc05ade045c5168f16b94>@@V?$allocator@H@std@@PE$AAVBluetoothLEManufacturerData@Advertisement@Bluetooth@Devices@Windows@@V?$Local@VValue@v8@@@v8@@@std@@EEBAPEAV?$_Func_base@PE$AAVBluetoothLEManufacturerData@Advertisement@Bluetooth@Devices@Windows@@V?$Local@VValue@v8@@@v8@@@2@PEAX@Z 0000000180037c00 f i _nodert_generated.obj
 0001:00036c20       ?_Copy@?$_Func_impl@V<lambda_3a0606817f39b94faab8540da408fab9>@@V?$allocator@H@std@@V?$Local@VValue@v8@@@v8@@PE$AAVBluetoothLEManufacturerData@Advertisement@Bluetooth@Devices@Windows@@@std@@EEBAPEAV?$_Func_base@V?$Local@VValue@v8@@@v8@@PE$AAVBluetoothLEManufacturerData@Advertisement@Bluetooth@Devices@Windows@@@2@PEAX@Z 0000000180037c20 f i _nodert_generated.obj
 0001:00036c40       ?_Copy@?$_Func_impl@V<lambda_3c996b405b8cc8a209562ce80b23026e>@@V?$allocator@H@std@@X$$V@std@@EEBAPEAV?$_Func_base@X$$V@2@PEAX@Z 0000000180037c40 f i _nodert_generated.obj
 0001:00036c80       ?_Copy@?$_Func_impl@V<lambda_4463207407c68c7d36ca12cd70016193>@@V?$allocator@H@std@@PE$AAVBluetoothLEAdvertisementBytePattern@Advertisement@Bluetooth@Devices@Windows@@V?$Local@VValue@v8@@@v8@@@std@@EEBAPEAV?$_Func_base@PE$AAVBluetoothLEAdvertisementBytePattern@Advertisement@Bluetooth@Devices@Windows@@V?$Local@VValue@v8@@@v8@@@2@PEAX@Z 0000000180037c80 f i _nodert_generated.obj
 0001:00036ca0       ?_Copy@?$_Func_impl@V<lambda_49d6e2ff8539ece0b85a60ab4fb489c6>@@V?$allocator@H@std@@V?$Local@VValue@v8@@@v8@@PE$AAVBluetoothLEAdvertisementDataSection@Advertisement@Bluetooth@Devices@Windows@@@std@@EEBAPEAV?$_Func_base@V?$Local@VValue@v8@@@v8@@PE$AAVBluetoothLEAdvertisementDataSection@Advertisement@Bluetooth@Devices@Windows@@@2@PEAX@Z 0000000180037ca0 f i _nodert_generated.obj
 0001:00036cc0       ?_Copy@?$_Func_impl@V<lambda_4a77cc3c1f6d91593283ce05d7b55130>@@V?$allocator@H@std@@X$$V@std@@EEBAPEAV?$_Func_base@X$$V@2@PEAX@Z 0000000180037cc0 f i _nodert_generated.obj
 0001:00036cf0       ?_Copy@?$_Func_impl@V<lambda_7292f98887d13268d0b715d1a170bb93>@@V?$allocator@H@std@@X$$V@std@@EEBAPEAV?$_Func_base@X$$V@2@PEAX@Z 0000000180037cf0 f i _nodert_generated.obj
 0001:00036d20       ?_Copy@?$_Func_impl@V<lambda_7516bda444720a47d3c71bc53ec85eb5>@@V?$allocator@H@std@@_NV?$Local@VValue@v8@@@v8@@@std@@EEBAPEAV?$_Func_base@_NV?$Local@VValue@v8@@@v8@@@2@PEAX@Z 0000000180037d20 f i _nodert_generated.obj
 0001:00036d40       ?_Copy@?$_Func_impl@V<lambda_7aaa91a6be1124741277c55b1bacbfd2>@@V?$allocator@H@std@@V?$Local@VValue@v8@@@v8@@PE$AAVBluetoothLEAdvertisementDataSection@Advertisement@Bluetooth@Devices@Windows@@@std@@EEBAPEAV?$_Func_base@V?$Local@VValue@v8@@@v8@@PE$AAVBluetoothLEAdvertisementDataSection@Advertisement@Bluetooth@Devices@Windows@@@2@PEAX@Z 0000000180037d40 f i _nodert_generated.obj
 0001:00036d60       ?_Copy@?$_Func_impl@V<lambda_86d7928fb6c5f8a9281d5c6e660c8883>@@V?$allocator@H@std@@X$$V@std@@EEBAPEAV?$_Func_base@X$$V@2@PEAX@Z 0000000180037d60 f i _nodert_generated.obj
 0001:00036da0       ?_Copy@?$_Func_impl@V<lambda_94049ef9f1f64cd5072df65dc2648f93>@@V?$allocator@H@std@@X$$V@std@@EEBAPEAV?$_Func_base@X$$V@2@PEAX@Z 0000000180037da0 f i _nodert_generated.obj
 0001:00036dd0       ?_Copy@?$_Func_impl@V<lambda_a39bdbf0e8057f7b0c96bdfc3287b81c>@@V?$allocator@H@std@@_NV?$Local@VValue@v8@@@v8@@@std@@EEBAPEAV?$_Func_base@_NV?$Local@VValue@v8@@@v8@@@2@PEAX@Z 0000000180037dd0 f i _nodert_generated.obj
 0001:00036df0       ?_Copy@?$_Func_impl@V<lambda_ac17bd2cadf98042e21e07a1caf6a194>@@V?$allocator@H@std@@PE$AAVBluetoothLEAdvertisementDataSection@Advertisement@Bluetooth@Devices@Windows@@V?$Local@VValue@v8@@@v8@@@std@@EEBAPEAV?$_Func_base@PE$AAVBluetoothLEAdvertisementDataSection@Advertisement@Bluetooth@Devices@Windows@@V?$Local@VValue@v8@@@v8@@@2@PEAX@Z 0000000180037df0 f i _nodert_generated.obj
 0001:00036e10       ?_Copy@?$_Func_impl@V<lambda_af13fab2ff329fbb1afa2c694c896418>@@V?$allocator@H@std@@VGuid@Platform@@V?$Local@VValue@v8@@@v8@@@std@@EEBAPEAV?$_Func_base@VGuid@Platform@@V?$Local@VValue@v8@@@v8@@@2@PEAX@Z 0000000180037e10 f i _nodert_generated.obj
 0001:00036e30       ?_Copy@?$_Func_impl@V<lambda_b6433205f39a1688a6792e010d587afb>@@V?$allocator@H@std@@V?$Local@VValue@v8@@@v8@@VGuid@Platform@@@std@@EEBAPEAV?$_Func_base@V?$Local@VValue@v8@@@v8@@VGuid@Platform@@@2@PEAX@Z 0000000180037e30 f i _nodert_generated.obj
 0001:00036e50       ?_Copy@?$_Func_impl@V<lambda_d8d33de05d7b79e795a8008ef007f86e>@@V?$allocator@H@std@@PE$AAVBluetoothLEAdvertisementDataSection@Advertisement@Bluetooth@Devices@Windows@@V?$Local@VValue@v8@@@v8@@@std@@EEBAPEAV?$_Func_base@PE$AAVBluetoothLEAdvertisementDataSection@Advertisement@Bluetooth@Devices@Windows@@V?$Local@VValue@v8@@@v8@@@2@PEAX@Z 0000000180037e50 f i _nodert_generated.obj
 0001:00036e70       ?_Copy@?$_Func_impl@V<lambda_ec539e6463b3f1202fb0d6101075ecab>@@V?$allocator@H@std@@V?$Local@VValue@v8@@@v8@@PE$AAVBluetoothLEManufacturerData@Advertisement@Bluetooth@Devices@Windows@@@std@@EEBAPEAV?$_Func_base@V?$Local@VValue@v8@@@v8@@PE$AAVBluetoothLEManufacturerData@Advertisement@Bluetooth@Devices@Windows@@@2@PEAX@Z 0000000180037e70 f i _nodert_generated.obj
 0001:00036e90       ?_Copy@?$_Func_impl@V<lambda_f09380b2c039d8ffdb71cd42a6a83a51>@@V?$allocator@H@std@@_NV?$Local@VValue@v8@@@v8@@@std@@EEBAPEAV?$_Func_base@_NV?$Local@VValue@v8@@@v8@@@2@PEAX@Z 0000000180037e90 f i _nodert_generated.obj
 0001:00036eb0       ?_Copy@?$_Func_impl@V<lambda_f456c6d47215cffadf04a48e00285ffe>@@V?$allocator@H@std@@V?$Local@VValue@v8@@@v8@@PE$AAVBluetoothLEAdvertisementBytePattern@Advertisement@Bluetooth@Devices@Windows@@@std@@EEBAPEAV?$_Func_base@V?$Local@VValue@v8@@@v8@@PE$AAVBluetoothLEAdvertisementBytePattern@Advertisement@Bluetooth@Devices@Windows@@@2@PEAX@Z 0000000180037eb0 f i _nodert_generated.obj
 0001:00036ed0       ?_Delete_this@?$_Func_impl@V<lambda_013992709166ead2505d475e5a25b16a>@@V?$allocator@H@std@@_NV?$Local@VValue@v8@@@v8@@@std@@EEAAX_N@Z 0000000180037ed0 f i _nodert_generated.obj
 0001:00036ef0       ?_Delete_this@?$_Func_impl@V<lambda_04fdbd7d4e116aa97aa0f582c1e08d98>@@V?$allocator@H@std@@_NV?$Local@VValue@v8@@@v8@@@std@@EEAAX_N@Z 0000000180037ef0 f i _nodert_generated.obj
 0001:00036f10       ?_Delete_this@?$_Func_impl@V<lambda_102d3b0b16f73d4fb66b83542007fa91>@@V?$allocator@H@std@@X$$V@std@@EEAAX_N@Z 0000000180037f10 f i _nodert_generated.obj
 0001:00036f70       ?_Delete_this@?$_Func_impl@V<lambda_1a6f8a59d0e38e894945875c44afcbdb>@@V?$allocator@H@std@@_NV?$Local@VValue@v8@@@v8@@@std@@EEAAX_N@Z 0000000180037f70 f i _nodert_generated.obj
 0001:00036f90       ?_Delete_this@?$_Func_impl@V<lambda_274ebad6e66cd704c8f9f6a92063cf98>@@V?$allocator@H@std@@PE$AAVBluetoothLEManufacturerData@Advertisement@Bluetooth@Devices@Windows@@V?$Local@VValue@v8@@@v8@@@std@@EEAAX_N@Z 0000000180037f90 f i _nodert_generated.obj
 0001:00036fb0       ?_Delete_this@?$_Func_impl@V<lambda_2a9ef30eb72dc05ade045c5168f16b94>@@V?$allocator@H@std@@PE$AAVBluetoothLEManufacturerData@Advertisement@Bluetooth@Devices@Windows@@V?$Local@VValue@v8@@@v8@@@std@@EEAAX_N@Z 0000000180037fb0 f i _nodert_generated.obj
 0001:00036fd0       ?_Delete_this@?$_Func_impl@V<lambda_3a0606817f39b94faab8540da408fab9>@@V?$allocator@H@std@@V?$Local@VValue@v8@@@v8@@PE$AAVBluetoothLEManufacturerData@Advertisement@Bluetooth@Devices@Windows@@@std@@EEAAX_N@Z 0000000180037fd0 f i _nodert_generated.obj
 0001:00036ff0       ?_Delete_this@?$_Func_impl@V<lambda_3c996b405b8cc8a209562ce80b23026e>@@V?$allocator@H@std@@X$$V@std@@EEAAX_N@Z 0000000180037ff0 f i _nodert_generated.obj
 0001:00037050       ?_Delete_this@?$_Func_impl@V<lambda_4463207407c68c7d36ca12cd70016193>@@V?$allocator@H@std@@PE$AAVBluetoothLEAdvertisementBytePattern@Advertisement@Bluetooth@Devices@Windows@@V?$Local@VValue@v8@@@v8@@@std@@EEAAX_N@Z 0000000180038050 f i _nodert_generated.obj
 0001:00037070       ?_Delete_this@?$_Func_impl@V<lambda_49d6e2ff8539ece0b85a60ab4fb489c6>@@V?$allocator@H@std@@V?$Local@VValue@v8@@@v8@@PE$AAVBluetoothLEAdvertisementDataSection@Advertisement@Bluetooth@Devices@Windows@@@std@@EEAAX_N@Z 0000000180038070 f i _nodert_generated.obj
 0001:00037090       ?_Delete_this@?$_Func_impl@V<lambda_4a77cc3c1f6d91593283ce05d7b55130>@@V?$allocator@H@std@@X$$V@std@@EEAAX_N@Z 0000000180038090 f i _nodert_generated.obj
 0001:000370b0       ?_Delete_this@?$_Func_impl@V<lambda_7292f98887d13268d0b715d1a170bb93>@@V?$allocator@H@std@@X$$V@std@@EEAAX_N@Z 00000001800380b0 f i _nodert_generated.obj
 0001:000370d0       ?_Delete_this@?$_Func_impl@V<lambda_7516bda444720a47d3c71bc53ec85eb5>@@V?$allocator@H@std@@_NV?$Local@VValue@v8@@@v8@@@std@@EEAAX_N@Z 00000001800380d0 f i _nodert_generated.obj
 0001:000370f0       ?_Delete_this@?$_Func_impl@V<lambda_7aaa91a6be1124741277c55b1bacbfd2>@@V?$allocator@H@std@@V?$Local@VValue@v8@@@v8@@PE$AAVBluetoothLEAdvertisementDataSection@Advertisement@Bluetooth@Devices@Windows@@@std@@EEAAX_N@Z 00000001800380f0 f i _nodert_generated.obj
 0001:00037110       ?_Delete_this@?$_Func_impl@V<lambda_86d7928fb6c5f8a9281d5c6e660c8883>@@V?$allocator@H@std@@X$$V@std@@EEAAX_N@Z 0000000180038110 f i _nodert_generated.obj
 0001:00037170       ?_Delete_this@?$_Func_impl@V<lambda_94049ef9f1f64cd5072df65dc2648f93>@@V?$allocator@H@std@@X$$V@std@@EEAAX_N@Z 0000000180038170 f i _nodert_generated.obj
 0001:00037190       ?_Delete_this@?$_Func_impl@V<lambda_a39bdbf0e8057f7b0c96bdfc3287b81c>@@V?$allocator@H@std@@_NV?$Local@VValue@v8@@@v8@@@std@@EEAAX_N@Z 0000000180038190 f i _nodert_generated.obj
 0001:000371b0       ?_Delete_this@?$_Func_impl@V<lambda_ac17bd2cadf98042e21e07a1caf6a194>@@V?$allocator@H@std@@PE$AAVBluetoothLEAdvertisementDataSection@Advertisement@Bluetooth@Devices@Windows@@V?$Local@VValue@v8@@@v8@@@std@@EEAAX_N@Z 00000001800381b0 f i _nodert_generated.obj
 0001:000371d0       ?_Delete_this@?$_Func_impl@V<lambda_af13fab2ff329fbb1afa2c694c896418>@@V?$allocator@H@std@@VGuid@Platform@@V?$Local@VValue@v8@@@v8@@@std@@EEAAX_N@Z 00000001800381d0 f i _nodert_generated.obj
 0001:000371f0       ?_Delete_this@?$_Func_impl@V<lambda_b6433205f39a1688a6792e010d587afb>@@V?$allocator@H@std@@V?$Local@VValue@v8@@@v8@@VGuid@Platform@@@std@@EEAAX_N@Z 00000001800381f0 f i _nodert_generated.obj
 0001:00037210       ?_Delete_this@?$_Func_impl@V<lambda_d8d33de05d7b79e795a8008ef007f86e>@@V?$allocator@H@std@@PE$AAVBluetoothLEAdvertisementDataSection@Advertisement@Bluetooth@Devices@Windows@@V?$Local@VValue@v8@@@v8@@@std@@EEAAX_N@Z 0000000180038210 f i _nodert_generated.obj
 0001:00037230       ?_Delete_this@?$_Func_impl@V<lambda_ec539e6463b3f1202fb0d6101075ecab>@@V?$allocator@H@std@@V?$Local@VValue@v8@@@v8@@PE$AAVBluetoothLEManufacturerData@Advertisement@Bluetooth@Devices@Windows@@@std@@EEAAX_N@Z 0000000180038230 f i _nodert_generated.obj
 0001:00037250       ?_Delete_this@?$_Func_impl@V<lambda_f09380b2c039d8ffdb71cd42a6a83a51>@@V?$allocator@H@std@@_NV?$Local@VValue@v8@@@v8@@@std@@EEAAX_N@Z 0000000180038250 f i _nodert_generated.obj
 0001:00037270       ?_Delete_this@?$_Func_impl@V<lambda_f456c6d47215cffadf04a48e00285ffe>@@V?$allocator@H@std@@V?$Local@VValue@v8@@@v8@@PE$AAVBluetoothLEAdvertisementBytePattern@Advertisement@Bluetooth@Devices@Windows@@@std@@EEAAX_N@Z 0000000180038270 f i _nodert_generated.obj
 0001:00037290       ?_Delete_this@?$_Ref_count_del@V?$Persistent@VObject@v8@@V?$NonCopyablePersistentTraits@VObject@v8@@@2@@Nan@@V<lambda_04ac22ce5b42da517f675f8337af0c15>@@@std@@EEAAXXZ 0000000180038290 f i _nodert_generated.obj
 0001:000372b0       ?_Delete_this@?$_Ref_count_del@V?$Persistent@VObject@v8@@V?$NonCopyablePersistentTraits@VObject@v8@@@2@@Nan@@V<lambda_53f15f71c0d076d50b21ae82008508cf>@@@std@@EEAAXXZ 00000001800382b0 f i _nodert_generated.obj
 0001:000372d0       ?_Delete_this@?$_Ref_count_del@V?$Persistent@VObject@v8@@V?$NonCopyablePersistentTraits@VObject@v8@@@2@@Nan@@V<lambda_8d95b5316acffedb3360aa6562c31600>@@@std@@EEAAXXZ 00000001800382d0 f i _nodert_generated.obj
 0001:000372f0       ?_Destroy@?$_Ref_count_del@V?$Persistent@VObject@v8@@V?$NonCopyablePersistentTraits@VObject@v8@@@2@@Nan@@V<lambda_04ac22ce5b42da517f675f8337af0c15>@@@std@@EEAAXXZ 00000001800382f0 f i _nodert_generated.obj
 0001:00037330       ?_Destroy@?$_Ref_count_del@V?$Persistent@VObject@v8@@V?$NonCopyablePersistentTraits@VObject@v8@@@2@@Nan@@V<lambda_53f15f71c0d076d50b21ae82008508cf>@@@std@@EEAAXXZ 0000000180038330 f i _nodert_generated.obj
 0001:00037370       ?_Destroy@?$_Ref_count_del@V?$Persistent@VObject@v8@@V?$NonCopyablePersistentTraits@VObject@v8@@@2@@Nan@@V<lambda_8d95b5316acffedb3360aa6562c31600>@@@std@@EEAAXXZ 0000000180038370 f i _nodert_generated.obj
 0001:000373b0       ?_Do_call@?$_Func_impl@V<lambda_013992709166ead2505d475e5a25b16a>@@V?$allocator@H@std@@_NV?$Local@VValue@v8@@@v8@@@std@@EEAA_N$$QEAV?$Local@VValue@v8@@@v8@@@Z 00000001800383b0 f i _nodert_generated.obj
 0001:000373c0       ?_Do_call@?$_Func_impl@V<lambda_04fdbd7d4e116aa97aa0f582c1e08d98>@@V?$allocator@H@std@@_NV?$Local@VValue@v8@@@v8@@@std@@EEAA_N$$QEAV?$Local@VValue@v8@@@v8@@@Z 00000001800383c0 f i _nodert_generated.obj
 0001:000373d0       ?_Do_call@?$_Func_impl@V<lambda_102d3b0b16f73d4fb66b83542007fa91>@@V?$allocator@H@std@@X$$V@std@@EEAAXXZ 00000001800383d0 f i _nodert_generated.obj
 0001:000373e0       ?_Do_call@?$_Func_impl@V<lambda_1a6f8a59d0e38e894945875c44afcbdb>@@V?$allocator@H@std@@_NV?$Local@VValue@v8@@@v8@@@std@@EEAA_N$$QEAV?$Local@VValue@v8@@@v8@@@Z 00000001800383e0 f i _nodert_generated.obj
 0001:000373f0       ?_Do_call@?$_Func_impl@V<lambda_274ebad6e66cd704c8f9f6a92063cf98>@@V?$allocator@H@std@@PE$AAVBluetoothLEManufacturerData@Advertisement@Bluetooth@Devices@Windows@@V?$Local@VValue@v8@@@v8@@@std@@EEAAPE$AAVBluetoothLEManufacturerData@Advertisement@Bluetooth@Devices@Windows@@$$QEAV?$Local@VValue@v8@@@v8@@@Z 00000001800383f0 f i _nodert_generated.obj
 0001:00037430       ?_Do_call@?$_Func_impl@V<lambda_2a9ef30eb72dc05ade045c5168f16b94>@@V?$allocator@H@std@@PE$AAVBluetoothLEManufacturerData@Advertisement@Bluetooth@Devices@Windows@@V?$Local@VValue@v8@@@v8@@@std@@EEAAPE$AAVBluetoothLEManufacturerData@Advertisement@Bluetooth@Devices@Windows@@$$QEAV?$Local@VValue@v8@@@v8@@@Z 0000000180038430 f i _nodert_generated.obj
 0001:00037470       ?_Do_call@?$_Func_impl@V<lambda_3a0606817f39b94faab8540da408fab9>@@V?$allocator@H@std@@V?$Local@VValue@v8@@@v8@@PE$AAVBluetoothLEManufacturerData@Advertisement@Bluetooth@Devices@Windows@@@std@@EEAA?AV?$Local@VValue@v8@@@v8@@$$QEAPE$AAVBluetoothLEManufacturerData@Advertisement@Bluetooth@Devices@Windows@@@Z 0000000180038470 f i _nodert_generated.obj
 0001:000374a0       ?_Do_call@?$_Func_impl@V<lambda_3c996b405b8cc8a209562ce80b23026e>@@V?$allocator@H@std@@X$$V@std@@EEAAXXZ 00000001800384a0 f i _nodert_generated.obj
 0001:000374b0       ?_Do_call@?$_Func_impl@V<lambda_4463207407c68c7d36ca12cd70016193>@@V?$allocator@H@std@@PE$AAVBluetoothLEAdvertisementBytePattern@Advertisement@Bluetooth@Devices@Windows@@V?$Local@VValue@v8@@@v8@@@std@@EEAAPE$AAVBluetoothLEAdvertisementBytePattern@Advertisement@Bluetooth@Devices@Windows@@$$QEAV?$Local@VValue@v8@@@v8@@@Z 00000001800384b0 f i _nodert_generated.obj
 0001:000374f0       ?_Do_call@?$_Func_impl@V<lambda_49d6e2ff8539ece0b85a60ab4fb489c6>@@V?$allocator@H@std@@V?$Local@VValue@v8@@@v8@@PE$AAVBluetoothLEAdvertisementDataSection@Advertisement@Bluetooth@Devices@Windows@@@std@@EEAA?AV?$Local@VValue@v8@@@v8@@$$QEAPE$AAVBluetoothLEAdvertisementDataSection@Advertisement@Bluetooth@Devices@Windows@@@Z 00000001800384f0 f i _nodert_generated.obj
 0001:00037520       ?_Do_call@?$_Func_impl@V<lambda_4a77cc3c1f6d91593283ce05d7b55130>@@V?$allocator@H@std@@X$$V@std@@EEAAXXZ 0000000180038520 f i _nodert_generated.obj
 0001:00037590       ?_Do_call@?$_Func_impl@V<lambda_7292f98887d13268d0b715d1a170bb93>@@V?$allocator@H@std@@X$$V@std@@EEAAXXZ 0000000180038590 f i _nodert_generated.obj
 0001:00037600       ?_Do_call@?$_Func_impl@V<lambda_7516bda444720a47d3c71bc53ec85eb5>@@V?$allocator@H@std@@_NV?$Local@VValue@v8@@@v8@@@std@@EEAA_N$$QEAV?$Local@VValue@v8@@@v8@@@Z 0000000180038600 f i _nodert_generated.obj
 0001:00037610       ?_Do_call@?$_Func_impl@V<lambda_7aaa91a6be1124741277c55b1bacbfd2>@@V?$allocator@H@std@@V?$Local@VValue@v8@@@v8@@PE$AAVBluetoothLEAdvertisementDataSection@Advertisement@Bluetooth@Devices@Windows@@@std@@EEAA?AV?$Local@VValue@v8@@@v8@@$$QEAPE$AAVBluetoothLEAdvertisementDataSection@Advertisement@Bluetooth@Devices@Windows@@@Z 0000000180038610 f i _nodert_generated.obj
 0001:00037640       ?_Do_call@?$_Func_impl@V<lambda_86d7928fb6c5f8a9281d5c6e660c8883>@@V?$allocator@H@std@@X$$V@std@@EEAAXXZ 0000000180038640 f i _nodert_generated.obj
 0001:00037650       ?_Do_call@?$_Func_impl@V<lambda_94049ef9f1f64cd5072df65dc2648f93>@@V?$allocator@H@std@@X$$V@std@@EEAAXXZ 0000000180038650 f i _nodert_generated.obj
 0001:000376c0       ?_Do_call@?$_Func_impl@V<lambda_a39bdbf0e8057f7b0c96bdfc3287b81c>@@V?$allocator@H@std@@_NV?$Local@VValue@v8@@@v8@@@std@@EEAA_N$$QEAV?$Local@VValue@v8@@@v8@@@Z 00000001800386c0 f i _nodert_generated.obj
 0001:000376d0       ?_Do_call@?$_Func_impl@V<lambda_ac17bd2cadf98042e21e07a1caf6a194>@@V?$allocator@H@std@@PE$AAVBluetoothLEAdvertisementDataSection@Advertisement@Bluetooth@Devices@Windows@@V?$Local@VValue@v8@@@v8@@@std@@EEAAPE$AAVBluetoothLEAdvertisementDataSection@Advertisement@Bluetooth@Devices@Windows@@$$QEAV?$Local@VValue@v8@@@v8@@@Z 00000001800386d0 f i _nodert_generated.obj
 0001:00037710       ?_Do_call@?$_Func_impl@V<lambda_af13fab2ff329fbb1afa2c694c896418>@@V?$allocator@H@std@@VGuid@Platform@@V?$Local@VValue@v8@@@v8@@@std@@EEAA?AVGuid@Platform@@$$QEAV?$Local@VValue@v8@@@v8@@@Z 0000000180038710 f i _nodert_generated.obj
 0001:00037740       ?_Do_call@?$_Func_impl@V<lambda_b6433205f39a1688a6792e010d587afb>@@V?$allocator@H@std@@V?$Local@VValue@v8@@@v8@@VGuid@Platform@@@std@@EEAA?AV?$Local@VValue@v8@@@v8@@$$QEAVGuid@Platform@@@Z 0000000180038740 f i _nodert_generated.obj
 0001:00037780       ?_Do_call@?$_Func_impl@V<lambda_d8d33de05d7b79e795a8008ef007f86e>@@V?$allocator@H@std@@PE$AAVBluetoothLEAdvertisementDataSection@Advertisement@Bluetooth@Devices@Windows@@V?$Local@VValue@v8@@@v8@@@std@@EEAAPE$AAVBluetoothLEAdvertisementDataSection@Advertisement@Bluetooth@Devices@Windows@@$$QEAV?$Local@VValue@v8@@@v8@@@Z 0000000180038780 f i _nodert_generated.obj
 0001:000377c0       ?_Do_call@?$_Func_impl@V<lambda_ec539e6463b3f1202fb0d6101075ecab>@@V?$allocator@H@std@@V?$Local@VValue@v8@@@v8@@PE$AAVBluetoothLEManufacturerData@Advertisement@Bluetooth@Devices@Windows@@@std@@EEAA?AV?$Local@VValue@v8@@@v8@@$$QEAPE$AAVBluetoothLEManufacturerData@Advertisement@Bluetooth@Devices@Windows@@@Z 00000001800387c0 f i _nodert_generated.obj
 0001:000377f0       ?_Do_call@?$_Func_impl@V<lambda_f09380b2c039d8ffdb71cd42a6a83a51>@@V?$allocator@H@std@@_NV?$Local@VValue@v8@@@v8@@@std@@EEAA_N$$QEAV?$Local@VValue@v8@@@v8@@@Z 00000001800387f0 f i _nodert_generated.obj
 0001:00037800       ?_Do_call@?$_Func_impl@V<lambda_f456c6d47215cffadf04a48e00285ffe>@@V?$allocator@H@std@@V?$Local@VValue@v8@@@v8@@PE$AAVBluetoothLEAdvertisementBytePattern@Advertisement@Bluetooth@Devices@Windows@@@std@@EEAA?AV?$Local@VValue@v8@@@v8@@$$QEAPE$AAVBluetoothLEAdvertisementBytePattern@Advertisement@Bluetooth@Devices@Windows@@@Z 0000000180038800 f i _nodert_generated.obj
 0001:00037830       ?_Get@?$_Func_impl@V<lambda_013992709166ead2505d475e5a25b16a>@@V?$allocator@H@std@@_NV?$Local@VValue@v8@@@v8@@@std@@EEBAPEBXXZ 0000000180038830 f i _nodert_generated.obj
 0001:00037840       ?_Get@?$_Func_impl@V<lambda_04fdbd7d4e116aa97aa0f582c1e08d98>@@V?$allocator@H@std@@_NV?$Local@VValue@v8@@@v8@@@std@@EEBAPEBXXZ 0000000180038840 f i _nodert_generated.obj
 0001:00037850       ?_Get@?$_Func_impl@V<lambda_102d3b0b16f73d4fb66b83542007fa91>@@V?$allocator@H@std@@X$$V@std@@EEBAPEBXXZ 0000000180038850 f i _nodert_generated.obj
 0001:00037860       ?_Get@?$_Func_impl@V<lambda_1a6f8a59d0e38e894945875c44afcbdb>@@V?$allocator@H@std@@_NV?$Local@VValue@v8@@@v8@@@std@@EEBAPEBXXZ 0000000180038860 f i _nodert_generated.obj
 0001:00037870       ?_Get@?$_Func_impl@V<lambda_274ebad6e66cd704c8f9f6a92063cf98>@@V?$allocator@H@std@@PE$AAVBluetoothLEManufacturerData@Advertisement@Bluetooth@Devices@Windows@@V?$Local@VValue@v8@@@v8@@@std@@EEBAPEBXXZ 0000000180038870 f i _nodert_generated.obj
 0001:00037880       ?_Get@?$_Func_impl@V<lambda_2a9ef30eb72dc05ade045c5168f16b94>@@V?$allocator@H@std@@PE$AAVBluetoothLEManufacturerData@Advertisement@Bluetooth@Devices@Windows@@V?$Local@VValue@v8@@@v8@@@std@@EEBAPEBXXZ 0000000180038880 f i _nodert_generated.obj
 0001:00037890       ?_Get@?$_Func_impl@V<lambda_3a0606817f39b94faab8540da408fab9>@@V?$allocator@H@std@@V?$Local@VValue@v8@@@v8@@PE$AAVBluetoothLEManufacturerData@Advertisement@Bluetooth@Devices@Windows@@@std@@EEBAPEBXXZ 0000000180038890 f i _nodert_generated.obj
 0001:000378a0       ?_Get@?$_Func_impl@V<lambda_3c996b405b8cc8a209562ce80b23026e>@@V?$allocator@H@std@@X$$V@std@@EEBAPEBXXZ 00000001800388a0 f i _nodert_generated.obj
 0001:000378b0       ?_Get@?$_Func_impl@V<lambda_4463207407c68c7d36ca12cd70016193>@@V?$allocator@H@std@@PE$AAVBluetoothLEAdvertisementBytePattern@Advertisement@Bluetooth@Devices@Windows@@V?$Local@VValue@v8@@@v8@@@std@@EEBAPEBXXZ 00000001800388b0 f i _nodert_generated.obj
 0001:000378c0       ?_Get@?$_Func_impl@V<lambda_49d6e2ff8539ece0b85a60ab4fb489c6>@@V?$allocator@H@std@@V?$Local@VValue@v8@@@v8@@PE$AAVBluetoothLEAdvertisementDataSection@Advertisement@Bluetooth@Devices@Windows@@@std@@EEBAPEBXXZ 00000001800388c0 f i _nodert_generated.obj
 0001:000378d0       ?_Get@?$_Func_impl@V<lambda_4a77cc3c1f6d91593283ce05d7b55130>@@V?$allocator@H@std@@X$$V@std@@EEBAPEBXXZ 00000001800388d0 f i _nodert_generated.obj
 0001:000378e0       ?_Get@?$_Func_impl@V<lambda_7292f98887d13268d0b715d1a170bb93>@@V?$allocator@H@std@@X$$V@std@@EEBAPEBXXZ 00000001800388e0 f i _nodert_generated.obj
 0001:000378f0       ?_Get@?$_Func_impl@V<lambda_7516bda444720a47d3c71bc53ec85eb5>@@V?$allocator@H@std@@_NV?$Local@VValue@v8@@@v8@@@std@@EEBAPEBXXZ 00000001800388f0 f i _nodert_generated.obj
 0001:00037900       ?_Get@?$_Func_impl@V<lambda_7aaa91a6be1124741277c55b1bacbfd2>@@V?$allocator@H@std@@V?$Local@VValue@v8@@@v8@@PE$AAVBluetoothLEAdvertisementDataSection@Advertisement@Bluetooth@Devices@Windows@@@std@@EEBAPEBXXZ 0000000180038900 f i _nodert_generated.obj
 0001:00037910       ?_Get@?$_Func_impl@V<lambda_86d7928fb6c5f8a9281d5c6e660c8883>@@V?$allocator@H@std@@X$$V@std@@EEBAPEBXXZ 0000000180038910 f i _nodert_generated.obj
 0001:00037920       ?_Get@?$_Func_impl@V<lambda_94049ef9f1f64cd5072df65dc2648f93>@@V?$allocator@H@std@@X$$V@std@@EEBAPEBXXZ 0000000180038920 f i _nodert_generated.obj
 0001:00037930       ?_Get@?$_Func_impl@V<lambda_a39bdbf0e8057f7b0c96bdfc3287b81c>@@V?$allocator@H@std@@_NV?$Local@VValue@v8@@@v8@@@std@@EEBAPEBXXZ 0000000180038930 f i _nodert_generated.obj
 0001:00037940       ?_Get@?$_Func_impl@V<lambda_ac17bd2cadf98042e21e07a1caf6a194>@@V?$allocator@H@std@@PE$AAVBluetoothLEAdvertisementDataSection@Advertisement@Bluetooth@Devices@Windows@@V?$Local@VValue@v8@@@v8@@@std@@EEBAPEBXXZ 0000000180038940 f i _nodert_generated.obj
 0001:00037950       ?_Get@?$_Func_impl@V<lambda_af13fab2ff329fbb1afa2c694c896418>@@V?$allocator@H@std@@VGuid@Platform@@V?$Local@VValue@v8@@@v8@@@std@@EEBAPEBXXZ 0000000180038950 f i _nodert_generated.obj
 0001:00037960       ?_Get@?$_Func_impl@V<lambda_b6433205f39a1688a6792e010d587afb>@@V?$allocator@H@std@@V?$Local@VValue@v8@@@v8@@VGuid@Platform@@@std@@EEBAPEBXXZ 0000000180038960 f i _nodert_generated.obj
 0001:00037970       ?_Get@?$_Func_impl@V<lambda_d8d33de05d7b79e795a8008ef007f86e>@@V?$allocator@H@std@@PE$AAVBluetoothLEAdvertisementDataSection@Advertisement@Bluetooth@Devices@Windows@@V?$Local@VValue@v8@@@v8@@@std@@EEBAPEBXXZ 0000000180038970 f i _nodert_generated.obj
 0001:00037980       ?_Get@?$_Func_impl@V<lambda_ec539e6463b3f1202fb0d6101075ecab>@@V?$allocator@H@std@@V?$Local@VValue@v8@@@v8@@PE$AAVBluetoothLEManufacturerData@Advertisement@Bluetooth@Devices@Windows@@@std@@EEBAPEBXXZ 0000000180038980 f i _nodert_generated.obj
 0001:00037990       ?_Get@?$_Func_impl@V<lambda_f09380b2c039d8ffdb71cd42a6a83a51>@@V?$allocator@H@std@@_NV?$Local@VValue@v8@@@v8@@@std@@EEBAPEBXXZ 0000000180038990 f i _nodert_generated.obj
 0001:000379a0       ?_Get@?$_Func_impl@V<lambda_f456c6d47215cffadf04a48e00285ffe>@@V?$allocator@H@std@@V?$Local@VValue@v8@@@v8@@PE$AAVBluetoothLEAdvertisementBytePattern@Advertisement@Bluetooth@Devices@Windows@@@std@@EEBAPEBXXZ 00000001800389a0 f i _nodert_generated.obj
 0001:000379b0       ?_Get_deleter@?$_Ref_count_del@V?$Persistent@VObject@v8@@V?$NonCopyablePersistentTraits@VObject@v8@@@2@@Nan@@V<lambda_04ac22ce5b42da517f675f8337af0c15>@@@std@@UEBAPEAXAEBVtype_info@@@Z 00000001800389b0 f i _nodert_generated.obj
 0001:000379f0       ?_Get_deleter@?$_Ref_count_del@V?$Persistent@VObject@v8@@V?$NonCopyablePersistentTraits@VObject@v8@@@2@@Nan@@V<lambda_53f15f71c0d076d50b21ae82008508cf>@@@std@@UEBAPEAXAEBVtype_info@@@Z 00000001800389f0 f i _nodert_generated.obj
 0001:00037a30       ?_Get_deleter@?$_Ref_count_del@V?$Persistent@VObject@v8@@V?$NonCopyablePersistentTraits@VObject@v8@@@2@@Nan@@V<lambda_8d95b5316acffedb3360aa6562c31600>@@@std@@UEBAPEAXAEBVtype_info@@@Z 0000000180038a30 f i _nodert_generated.obj
 0001:00037a70       ?_Get_deleter@_Ref_count_base@std@@UEBAPEAXAEBVtype_info@@@Z 0000000180038a70 f i _nodert_generated.obj
 0001:00037a80       ?_Move@?$_Func_impl@V<lambda_013992709166ead2505d475e5a25b16a>@@V?$allocator@H@std@@_NV?$Local@VValue@v8@@@v8@@@std@@EEAAPEAV?$_Func_base@_NV?$Local@VValue@v8@@@v8@@@2@PEAX@Z 0000000180038a80 f i _nodert_generated.obj
 0001:00037aa0       ?_Move@?$_Func_impl@V<lambda_04fdbd7d4e116aa97aa0f582c1e08d98>@@V?$allocator@H@std@@_NV?$Local@VValue@v8@@@v8@@@std@@EEAAPEAV?$_Func_base@_NV?$Local@VValue@v8@@@v8@@@2@PEAX@Z 0000000180038aa0 f i _nodert_generated.obj
 0001:00037ac0       ?_Move@?$_Func_impl@V<lambda_102d3b0b16f73d4fb66b83542007fa91>@@V?$allocator@H@std@@X$$V@std@@EEAAPEAV?$_Func_base@X$$V@2@PEAX@Z 0000000180038ac0 f i _nodert_generated.obj
 0001:00037b00       ?_Move@?$_Func_impl@V<lambda_1a6f8a59d0e38e894945875c44afcbdb>@@V?$allocator@H@std@@_NV?$Local@VValue@v8@@@v8@@@std@@EEAAPEAV?$_Func_base@_NV?$Local@VValue@v8@@@v8@@@2@PEAX@Z 0000000180038b00 f i _nodert_generated.obj
 0001:00037b20       ?_Move@?$_Func_impl@V<lambda_274ebad6e66cd704c8f9f6a92063cf98>@@V?$allocator@H@std@@PE$AAVBluetoothLEManufacturerData@Advertisement@Bluetooth@Devices@Windows@@V?$Local@VValue@v8@@@v8@@@std@@EEAAPEAV?$_Func_base@PE$AAVBluetoothLEManufacturerData@Advertisement@Bluetooth@Devices@Windows@@V?$Local@VValue@v8@@@v8@@@2@PEAX@Z 0000000180038b20 f i _nodert_generated.obj
 0001:00037b40       ?_Move@?$_Func_impl@V<lambda_2a9ef30eb72dc05ade045c5168f16b94>@@V?$allocator@H@std@@PE$AAVBluetoothLEManufacturerData@Advertisement@Bluetooth@Devices@Windows@@V?$Local@VValue@v8@@@v8@@@std@@EEAAPEAV?$_Func_base@PE$AAVBluetoothLEManufacturerData@Advertisement@Bluetooth@Devices@Windows@@V?$Local@VValue@v8@@@v8@@@2@PEAX@Z 0000000180038b40 f i _nodert_generated.obj
 0001:00037b60       ?_Move@?$_Func_impl@V<lambda_3a0606817f39b94faab8540da408fab9>@@V?$allocator@H@std@@V?$Local@VValue@v8@@@v8@@PE$AAVBluetoothLEManufacturerData@Advertisement@Bluetooth@Devices@Windows@@@std@@EEAAPEAV?$_Func_base@V?$Local@VValue@v8@@@v8@@PE$AAVBluetoothLEManufacturerData@Advertisement@Bluetooth@Devices@Windows@@@2@PEAX@Z 0000000180038b60 f i _nodert_generated.obj
 0001:00037b80       ?_Move@?$_Func_impl@V<lambda_3c996b405b8cc8a209562ce80b23026e>@@V?$allocator@H@std@@X$$V@std@@EEAAPEAV?$_Func_base@X$$V@2@PEAX@Z 0000000180038b80 f i _nodert_generated.obj
 0001:00037bc0       ?_Move@?$_Func_impl@V<lambda_4463207407c68c7d36ca12cd70016193>@@V?$allocator@H@std@@PE$AAVBluetoothLEAdvertisementBytePattern@Advertisement@Bluetooth@Devices@Windows@@V?$Local@VValue@v8@@@v8@@@std@@EEAAPEAV?$_Func_base@PE$AAVBluetoothLEAdvertisementBytePattern@Advertisement@Bluetooth@Devices@Windows@@V?$Local@VValue@v8@@@v8@@@2@PEAX@Z 0000000180038bc0 f i _nodert_generated.obj
 0001:00037be0       ?_Move@?$_Func_impl@V<lambda_49d6e2ff8539ece0b85a60ab4fb489c6>@@V?$allocator@H@std@@V?$Local@VValue@v8@@@v8@@PE$AAVBluetoothLEAdvertisementDataSection@Advertisement@Bluetooth@Devices@Windows@@@std@@EEAAPEAV?$_Func_base@V?$Local@VValue@v8@@@v8@@PE$AAVBluetoothLEAdvertisementDataSection@Advertisement@Bluetooth@Devices@Windows@@@2@PEAX@Z 0000000180038be0 f i _nodert_generated.obj
 0001:00037c00       ?_Move@?$_Func_impl@V<lambda_4a77cc3c1f6d91593283ce05d7b55130>@@V?$allocator@H@std@@X$$V@std@@EEAAPEAV?$_Func_base@X$$V@2@PEAX@Z 0000000180038c00 f i _nodert_generated.obj
 0001:00037c30       ?_Move@?$_Func_impl@V<lambda_7292f98887d13268d0b715d1a170bb93>@@V?$allocator@H@std@@X$$V@std@@EEAAPEAV?$_Func_base@X$$V@2@PEAX@Z 0000000180038c30 f i _nodert_generated.obj
 0001:00037c60       ?_Move@?$_Func_impl@V<lambda_7516bda444720a47d3c71bc53ec85eb5>@@V?$allocator@H@std@@_NV?$Local@VValue@v8@@@v8@@@std@@EEAAPEAV?$_Func_base@_NV?$Local@VValue@v8@@@v8@@@2@PEAX@Z 0000000180038c60 f i _nodert_generated.obj
 0001:00037c80       ?_Move@?$_Func_impl@V<lambda_7aaa91a6be1124741277c55b1bacbfd2>@@V?$allocator@H@std@@V?$Local@VValue@v8@@@v8@@PE$AAVBluetoothLEAdvertisementDataSection@Advertisement@Bluetooth@Devices@Windows@@@std@@EEAAPEAV?$_Func_base@V?$Local@VValue@v8@@@v8@@PE$AAVBluetoothLEAdvertisementDataSection@Advertisement@Bluetooth@Devices@Windows@@@2@PEAX@Z 0000000180038c80 f i _nodert_generated.obj
 0001:00037ca0       ?_Move@?$_Func_impl@V<lambda_86d7928fb6c5f8a9281d5c6e660c8883>@@V?$allocator@H@std@@X$$V@std@@EEAAPEAV?$_Func_base@X$$V@2@PEAX@Z 0000000180038ca0 f i _nodert_generated.obj
 0001:00037ce0       ?_Move@?$_Func_impl@V<lambda_94049ef9f1f64cd5072df65dc2648f93>@@V?$allocator@H@std@@X$$V@std@@EEAAPEAV?$_Func_base@X$$V@2@PEAX@Z 0000000180038ce0 f i _nodert_generated.obj
 0001:00037d10       ?_Move@?$_Func_impl@V<lambda_a39bdbf0e8057f7b0c96bdfc3287b81c>@@V?$allocator@H@std@@_NV?$Local@VValue@v8@@@v8@@@std@@EEAAPEAV?$_Func_base@_NV?$Local@VValue@v8@@@v8@@@2@PEAX@Z 0000000180038d10 f i _nodert_generated.obj
 0001:00037d30       ?_Move@?$_Func_impl@V<lambda_ac17bd2cadf98042e21e07a1caf6a194>@@V?$allocator@H@std@@PE$AAVBluetoothLEAdvertisementDataSection@Advertisement@Bluetooth@Devices@Windows@@V?$Local@VValue@v8@@@v8@@@std@@EEAAPEAV?$_Func_base@PE$AAVBluetoothLEAdvertisementDataSection@Advertisement@Bluetooth@Devices@Windows@@V?$Local@VValue@v8@@@v8@@@2@PEAX@Z 0000000180038d30 f i _nodert_generated.obj
 0001:00037d50       ?_Move@?$_Func_impl@V<lambda_af13fab2ff329fbb1afa2c694c896418>@@V?$allocator@H@std@@VGuid@Platform@@V?$Local@VValue@v8@@@v8@@@std@@EEAAPEAV?$_Func_base@VGuid@Platform@@V?$Local@VValue@v8@@@v8@@@2@PEAX@Z 0000000180038d50 f i _nodert_generated.obj
 0001:00037d70       ?_Move@?$_Func_impl@V<lambda_b6433205f39a1688a6792e010d587afb>@@V?$allocator@H@std@@V?$Local@VValue@v8@@@v8@@VGuid@Platform@@@std@@EEAAPEAV?$_Func_base@V?$Local@VValue@v8@@@v8@@VGuid@Platform@@@2@PEAX@Z 0000000180038d70 f i _nodert_generated.obj
 0001:00037d90       ?_Move@?$_Func_impl@V<lambda_d8d33de05d7b79e795a8008ef007f86e>@@V?$allocator@H@std@@PE$AAVBluetoothLEAdvertisementDataSection@Advertisement@Bluetooth@Devices@Windows@@V?$Local@VValue@v8@@@v8@@@std@@EEAAPEAV?$_Func_base@PE$AAVBluetoothLEAdvertisementDataSection@Advertisement@Bluetooth@Devices@Windows@@V?$Local@VValue@v8@@@v8@@@2@PEAX@Z 0000000180038d90 f i _nodert_generated.obj
 0001:00037db0       ?_Move@?$_Func_impl@V<lambda_ec539e6463b3f1202fb0d6101075ecab>@@V?$allocator@H@std@@V?$Local@VValue@v8@@@v8@@PE$AAVBluetoothLEManufacturerData@Advertisement@Bluetooth@Devices@Windows@@@std@@EEAAPEAV?$_Func_base@V?$Local@VValue@v8@@@v8@@PE$AAVBluetoothLEManufacturerData@Advertisement@Bluetooth@Devices@Windows@@@2@PEAX@Z 0000000180038db0 f i _nodert_generated.obj
 0001:00037dd0       ?_Move@?$_Func_impl@V<lambda_f09380b2c039d8ffdb71cd42a6a83a51>@@V?$allocator@H@std@@_NV?$Local@VValue@v8@@@v8@@@std@@EEAAPEAV?$_Func_base@_NV?$Local@VValue@v8@@@v8@@@2@PEAX@Z 0000000180038dd0 f i _nodert_generated.obj
 0001:00037df0       ?_Move@?$_Func_impl@V<lambda_f456c6d47215cffadf04a48e00285ffe>@@V?$allocator@H@std@@V?$Local@VValue@v8@@@v8@@PE$AAVBluetoothLEAdvertisementBytePattern@Advertisement@Bluetooth@Devices@Windows@@@std@@EEAAPEAV?$_Func_base@V?$Local@VValue@v8@@@v8@@PE$AAVBluetoothLEAdvertisementBytePattern@Advertisement@Bluetooth@Devices@Windows@@@2@PEAX@Z 0000000180038df0 f i _nodert_generated.obj
 0001:00037e10       ?_Reset0@?$_Ptr_base@V?$Persistent@VObject@v8@@V?$NonCopyablePersistentTraits@VObject@v8@@@2@@Nan@@@std@@QEAAXPEAV?$Persistent@VObject@v8@@V?$NonCopyablePersistentTraits@VObject@v8@@@2@@Nan@@PEAV_Ref_count_base@2@@Z 0000000180038e10 f i _nodert_generated.obj
 0001:00037ec0       ?_Reset_move@?$_Func_class@X$$V@std@@IEAAX$$QEAV12@@Z 0000000180038ec0 f i _nodert_generated.obj
 0001:00037f50       ?_Swap@?$_Func_class@X$$V@std@@IEAAXAEAV12@@Z 0000000180038f50 f i _nodert_generated.obj
 0001:00038080       ?_Target_type@?$_Func_impl@V<lambda_013992709166ead2505d475e5a25b16a>@@V?$allocator@H@std@@_NV?$Local@VValue@v8@@@v8@@@std@@EEBAAEBVtype_info@@XZ 0000000180039080 f i _nodert_generated.obj
 0001:00038090       ?_Target_type@?$_Func_impl@V<lambda_04fdbd7d4e116aa97aa0f582c1e08d98>@@V?$allocator@H@std@@_NV?$Local@VValue@v8@@@v8@@@std@@EEBAAEBVtype_info@@XZ 0000000180039090 f i _nodert_generated.obj
 0001:000380a0       ?_Target_type@?$_Func_impl@V<lambda_102d3b0b16f73d4fb66b83542007fa91>@@V?$allocator@H@std@@X$$V@std@@EEBAAEBVtype_info@@XZ 00000001800390a0 f i _nodert_generated.obj
 0001:000380b0       ?_Target_type@?$_Func_impl@V<lambda_1a6f8a59d0e38e894945875c44afcbdb>@@V?$allocator@H@std@@_NV?$Local@VValue@v8@@@v8@@@std@@EEBAAEBVtype_info@@XZ 00000001800390b0 f i _nodert_generated.obj
 0001:000380c0       ?_Target_type@?$_Func_impl@V<lambda_274ebad6e66cd704c8f9f6a92063cf98>@@V?$allocator@H@std@@PE$AAVBluetoothLEManufacturerData@Advertisement@Bluetooth@Devices@Windows@@V?$Local@VValue@v8@@@v8@@@std@@EEBAAEBVtype_info@@XZ 00000001800390c0 f i _nodert_generated.obj
 0001:000380d0       ?_Target_type@?$_Func_impl@V<lambda_2a9ef30eb72dc05ade045c5168f16b94>@@V?$allocator@H@std@@PE$AAVBluetoothLEManufacturerData@Advertisement@Bluetooth@Devices@Windows@@V?$Local@VValue@v8@@@v8@@@std@@EEBAAEBVtype_info@@XZ 00000001800390d0 f i _nodert_generated.obj
 0001:000380e0       ?_Target_type@?$_Func_impl@V<lambda_3a0606817f39b94faab8540da408fab9>@@V?$allocator@H@std@@V?$Local@VValue@v8@@@v8@@PE$AAVBluetoothLEManufacturerData@Advertisement@Bluetooth@Devices@Windows@@@std@@EEBAAEBVtype_info@@XZ 00000001800390e0 f i _nodert_generated.obj
 0001:000380f0       ?_Target_type@?$_Func_impl@V<lambda_3c996b405b8cc8a209562ce80b23026e>@@V?$allocator@H@std@@X$$V@std@@EEBAAEBVtype_info@@XZ 00000001800390f0 f i _nodert_generated.obj
 0001:00038100       ?_Target_type@?$_Func_impl@V<lambda_4463207407c68c7d36ca12cd70016193>@@V?$allocator@H@std@@PE$AAVBluetoothLEAdvertisementBytePattern@Advertisement@Bluetooth@Devices@Windows@@V?$Local@VValue@v8@@@v8@@@std@@EEBAAEBVtype_info@@XZ 0000000180039100 f i _nodert_generated.obj
 0001:00038110       ?_Target_type@?$_Func_impl@V<lambda_49d6e2ff8539ece0b85a60ab4fb489c6>@@V?$allocator@H@std@@V?$Local@VValue@v8@@@v8@@PE$AAVBluetoothLEAdvertisementDataSection@Advertisement@Bluetooth@Devices@Windows@@@std@@EEBAAEBVtype_info@@XZ 0000000180039110 f i _nodert_generated.obj
 0001:00038120       ?_Target_type@?$_Func_impl@V<lambda_4a77cc3c1f6d91593283ce05d7b55130>@@V?$allocator@H@std@@X$$V@std@@EEBAAEBVtype_info@@XZ 0000000180039120 f i _nodert_generated.obj
 0001:00038130       ?_Target_type@?$_Func_impl@V<lambda_7292f98887d13268d0b715d1a170bb93>@@V?$allocator@H@std@@X$$V@std@@EEBAAEBVtype_info@@XZ 0000000180039130 f i _nodert_generated.obj
 0001:00038140       ?_Target_type@?$_Func_impl@V<lambda_7516bda444720a47d3c71bc53ec85eb5>@@V?$allocator@H@std@@_NV?$Local@VValue@v8@@@v8@@@std@@EEBAAEBVtype_info@@XZ 0000000180039140 f i _nodert_generated.obj
 0001:00038150       ?_Target_type@?$_Func_impl@V<lambda_7aaa91a6be1124741277c55b1bacbfd2>@@V?$allocator@H@std@@V?$Local@VValue@v8@@@v8@@PE$AAVBluetoothLEAdvertisementDataSection@Advertisement@Bluetooth@Devices@Windows@@@std@@EEBAAEBVtype_info@@XZ 0000000180039150 f i _nodert_generated.obj
 0001:00038160       ?_Target_type@?$_Func_impl@V<lambda_86d7928fb6c5f8a9281d5c6e660c8883>@@V?$allocator@H@std@@X$$V@std@@EEBAAEBVtype_info@@XZ 0000000180039160 f i _nodert_generated.obj
 0001:00038170       ?_Target_type@?$_Func_impl@V<lambda_94049ef9f1f64cd5072df65dc2648f93>@@V?$allocator@H@std@@X$$V@std@@EEBAAEBVtype_info@@XZ 0000000180039170 f i _nodert_generated.obj
 0001:00038180       ?_Target_type@?$_Func_impl@V<lambda_a39bdbf0e8057f7b0c96bdfc3287b81c>@@V?$allocator@H@std@@_NV?$Local@VValue@v8@@@v8@@@std@@EEBAAEBVtype_info@@XZ 0000000180039180 f i _nodert_generated.obj
 0001:00038190       ?_Target_type@?$_Func_impl@V<lambda_ac17bd2cadf98042e21e07a1caf6a194>@@V?$allocator@H@std@@PE$AAVBluetoothLEAdvertisementDataSection@Advertisement@Bluetooth@Devices@Windows@@V?$Local@VValue@v8@@@v8@@@std@@EEBAAEBVtype_info@@XZ 0000000180039190 f i _nodert_generated.obj
 0001:000381a0       ?_Target_type@?$_Func_impl@V<lambda_af13fab2ff329fbb1afa2c694c896418>@@V?$allocator@H@std@@VGuid@Platform@@V?$Local@VValue@v8@@@v8@@@std@@EEBAAEBVtype_info@@XZ 00000001800391a0 f i _nodert_generated.obj
 0001:000381b0       ?_Target_type@?$_Func_impl@V<lambda_b6433205f39a1688a6792e010d587afb>@@V?$allocator@H@std@@V?$Local@VValue@v8@@@v8@@VGuid@Platform@@@std@@EEBAAEBVtype_info@@XZ 00000001800391b0 f i _nodert_generated.obj
 0001:000381c0       ?_Target_type@?$_Func_impl@V<lambda_d8d33de05d7b79e795a8008ef007f86e>@@V?$allocator@H@std@@PE$AAVBluetoothLEAdvertisementDataSection@Advertisement@Bluetooth@Devices@Windows@@V?$Local@VValue@v8@@@v8@@@std@@EEBAAEBVtype_info@@XZ 00000001800391c0 f i _nodert_generated.obj
 0001:000381d0       ?_Target_type@?$_Func_impl@V<lambda_ec539e6463b3f1202fb0d6101075ecab>@@V?$allocator@H@std@@V?$Local@VValue@v8@@@v8@@PE$AAVBluetoothLEManufacturerData@Advertisement@Bluetooth@Devices@Windows@@@std@@EEBAAEBVtype_info@@XZ 00000001800391d0 f i _nodert_generated.obj
 0001:000381e0       ?_Target_type@?$_Func_impl@V<lambda_f09380b2c039d8ffdb71cd42a6a83a51>@@V?$allocator@H@std@@_NV?$Local@VValue@v8@@@v8@@@std@@EEBAAEBVtype_info@@XZ 00000001800391e0 f i _nodert_generated.obj
 0001:000381f0       ?_Target_type@?$_Func_impl@V<lambda_f456c6d47215cffadf04a48e00285ffe>@@V?$allocator@H@std@@V?$Local@VValue@v8@@@v8@@PE$AAVBluetoothLEAdvertisementBytePattern@Advertisement@Bluetooth@Devices@Windows@@@std@@EEBAAEBVtype_info@@XZ 00000001800391f0 f i _nodert_generated.obj
 0001:00038200       ?__abi_AddRef@?$TypedEventHandler@PE$AAVBluetoothLEAdvertisementPublisher@Advertisement@Bluetooth@Devices@Windows@@PE$AAVBluetoothLEAdvertisementPublisherStatusChangedEventArgs@2345@@Foundation@Windows@@UE$AAAKXZ 0000000180039200 f i _nodert_generated.obj
 0001:00038234       ?__abi_AddRef@?$TypedEventHandler@PE$AAVBluetoothLEAdvertisementPublisher@Advertisement@Bluetooth@Devices@Windows@@PE$AAVBluetoothLEAdvertisementPublisherStatusChangedEventArgs@2345@@Foundation@Windows@@W7E$AAAKXZ 0000000180039234 f i _nodert_generated.obj
 0001:00038240       ?__abi_AddRef@?$TypedEventHandler@PE$AAVBluetoothLEAdvertisementPublisher@Advertisement@Bluetooth@Devices@Windows@@PE$AAVBluetoothLEAdvertisementPublisherStatusChangedEventArgs@2345@@Foundation@Windows@@WBA@E$AAAKXZ 0000000180039240 f i _nodert_generated.obj
 0001:00038250       ?__abi_AddRef@?$TypedEventHandler@PE$AAVBluetoothLEAdvertisementWatcher@Advertisement@Bluetooth@Devices@Windows@@PE$AAVBluetoothLEAdvertisementReceivedEventArgs@2345@@Foundation@Windows@@UE$AAAKXZ 0000000180039250 f i _nodert_generated.obj
 0001:00038284       ?__abi_AddRef@?$TypedEventHandler@PE$AAVBluetoothLEAdvertisementWatcher@Advertisement@Bluetooth@Devices@Windows@@PE$AAVBluetoothLEAdvertisementReceivedEventArgs@2345@@Foundation@Windows@@W7E$AAAKXZ 0000000180039284 f i _nodert_generated.obj
 0001:00038290       ?__abi_AddRef@?$TypedEventHandler@PE$AAVBluetoothLEAdvertisementWatcher@Advertisement@Bluetooth@Devices@Windows@@PE$AAVBluetoothLEAdvertisementReceivedEventArgs@2345@@Foundation@Windows@@WBA@E$AAAKXZ 0000000180039290 f i _nodert_generated.obj
 0001:000382a0       ?__abi_AddRef@?$TypedEventHandler@PE$AAVBluetoothLEAdvertisementWatcher@Advertisement@Bluetooth@Devices@Windows@@PE$AAVBluetoothLEAdvertisementWatcherStoppedEventArgs@2345@@Foundation@Windows@@UE$AAAKXZ 00000001800392a0 f i _nodert_generated.obj
 0001:000382d4       ?__abi_AddRef@?$TypedEventHandler@PE$AAVBluetoothLEAdvertisementWatcher@Advertisement@Bluetooth@Devices@Windows@@PE$AAVBluetoothLEAdvertisementWatcherStoppedEventArgs@2345@@Foundation@Windows@@W7E$AAAKXZ 00000001800392d4 f i _nodert_generated.obj
 0001:000382e0       ?__abi_AddRef@?$TypedEventHandler@PE$AAVBluetoothLEAdvertisementWatcher@Advertisement@Bluetooth@Devices@Windows@@PE$AAVBluetoothLEAdvertisementWatcherStoppedEventArgs@2345@@Foundation@Windows@@WBA@E$AAAKXZ 00000001800392e0 f i _nodert_generated.obj
 0001:000382f0       ?__abi_AddRef@?QObject@Platform@@?$Array@PE$AAVBluetoothLEAdvertisementBytePattern@Advertisement@Bluetooth@Devices@Windows@@$00@2@UE$AAAKXZ 00000001800392f0 f i _nodert_generated.obj
 0001:00038324       ?__abi_AddRef@?QObject@Platform@@?$Array@PE$AAVBluetoothLEAdvertisementBytePattern@Advertisement@Bluetooth@Devices@Windows@@$00@2@W7E$AAAKXZ 0000000180039324 f i _nodert_generated.obj
 0001:00038330       ?__abi_AddRef@?QObject@Platform@@?$Array@PE$AAVBluetoothLEAdvertisementBytePattern@Advertisement@Bluetooth@Devices@Windows@@$00@2@WBA@E$AAAKXZ 0000000180039330 f i _nodert_generated.obj
 0001:0003833c       ?__abi_AddRef@?QObject@Platform@@?$Array@PE$AAVBluetoothLEAdvertisementBytePattern@Advertisement@Bluetooth@Devices@Windows@@$00@2@WBI@E$AAAKXZ 000000018003933c f i _nodert_generated.obj
 0001:00038348       ?__abi_AddRef@?QObject@Platform@@?$Array@PE$AAVBluetoothLEAdvertisementBytePattern@Advertisement@Bluetooth@Devices@Windows@@$00@2@WCA@E$AAAKXZ 0000000180039348 f i _nodert_generated.obj
 0001:00038354       ?__abi_AddRef@?QObject@Platform@@?$Array@PE$AAVBluetoothLEAdvertisementBytePattern@Advertisement@Bluetooth@Devices@Windows@@$00@2@WCI@E$AAAKXZ 0000000180039354 f i _nodert_generated.obj
 0001:00038360       ?__abi_AddRef@?QObject@Platform@@?$Array@PE$AAVBluetoothLEAdvertisementBytePattern@Advertisement@Bluetooth@Devices@Windows@@$00@2@WDA@E$AAAKXZ 0000000180039360 f i _nodert_generated.obj
 0001:0003836c       ?__abi_AddRef@?QObject@Platform@@?$Array@PE$AAVBluetoothLEAdvertisementBytePattern@Advertisement@Bluetooth@Devices@Windows@@$00@2@WDI@E$AAAKXZ 000000018003936c f i _nodert_generated.obj
 0001:00038378       ?__abi_AddRef@?QObject@Platform@@?$Array@PE$AAVBluetoothLEAdvertisementBytePattern@Advertisement@Bluetooth@Devices@Windows@@$00@2@WEA@E$AAAKXZ 0000000180039378 f i _nodert_generated.obj
 0001:00038384       ?__abi_AddRef@?QObject@Platform@@?$Array@PE$AAVBluetoothLEAdvertisementBytePattern@Advertisement@Bluetooth@Devices@Windows@@$00@2@WHA@E$AAAKXZ 0000000180039384 f i _nodert_generated.obj
 0001:00038390       ?__abi_AddRef@?QObject@Platform@@?$Array@PE$AAVBluetoothLEAdvertisementBytePattern@Advertisement@Bluetooth@Devices@Windows@@$00@2@WHI@E$AAAKXZ 0000000180039390 f i _nodert_generated.obj
 0001:000383a0       ?__abi_AddRef@?QObject@Platform@@?$Array@PE$AAVBluetoothLEAdvertisementDataSection@Advertisement@Bluetooth@Devices@Windows@@$00@2@UE$AAAKXZ 00000001800393a0 f i _nodert_generated.obj
 0001:000383d4       ?__abi_AddRef@?QObject@Platform@@?$Array@PE$AAVBluetoothLEAdvertisementDataSection@Advertisement@Bluetooth@Devices@Windows@@$00@2@W7E$AAAKXZ 00000001800393d4 f i _nodert_generated.obj
 0001:000383e0       ?__abi_AddRef@?QObject@Platform@@?$Array@PE$AAVBluetoothLEAdvertisementDataSection@Advertisement@Bluetooth@Devices@Windows@@$00@2@WBA@E$AAAKXZ 00000001800393e0 f i _nodert_generated.obj
 0001:000383ec       ?__abi_AddRef@?QObject@Platform@@?$Array@PE$AAVBluetoothLEAdvertisementDataSection@Advertisement@Bluetooth@Devices@Windows@@$00@2@WBI@E$AAAKXZ 00000001800393ec f i _nodert_generated.obj
 0001:000383f8       ?__abi_AddRef@?QObject@Platform@@?$Array@PE$AAVBluetoothLEAdvertisementDataSection@Advertisement@Bluetooth@Devices@Windows@@$00@2@WCA@E$AAAKXZ 00000001800393f8 f i _nodert_generated.obj
 0001:00038404       ?__abi_AddRef@?QObject@Platform@@?$Array@PE$AAVBluetoothLEAdvertisementDataSection@Advertisement@Bluetooth@Devices@Windows@@$00@2@WCI@E$AAAKXZ 0000000180039404 f i _nodert_generated.obj
 0001:00038410       ?__abi_AddRef@?QObject@Platform@@?$Array@PE$AAVBluetoothLEAdvertisementDataSection@Advertisement@Bluetooth@Devices@Windows@@$00@2@WDA@E$AAAKXZ 0000000180039410 f i _nodert_generated.obj
 0001:0003841c       ?__abi_AddRef@?QObject@Platform@@?$Array@PE$AAVBluetoothLEAdvertisementDataSection@Advertisement@Bluetooth@Devices@Windows@@$00@2@WDI@E$AAAKXZ 000000018003941c f i _nodert_generated.obj
 0001:00038428       ?__abi_AddRef@?QObject@Platform@@?$Array@PE$AAVBluetoothLEAdvertisementDataSection@Advertisement@Bluetooth@Devices@Windows@@$00@2@WEA@E$AAAKXZ 0000000180039428 f i _nodert_generated.obj
 0001:00038434       ?__abi_AddRef@?QObject@Platform@@?$Array@PE$AAVBluetoothLEAdvertisementDataSection@Advertisement@Bluetooth@Devices@Windows@@$00@2@WHA@E$AAAKXZ 0000000180039434 f i _nodert_generated.obj
 0001:00038440       ?__abi_AddRef@?QObject@Platform@@?$Array@PE$AAVBluetoothLEAdvertisementDataSection@Advertisement@Bluetooth@Devices@Windows@@$00@2@WHI@E$AAAKXZ 0000000180039440 f i _nodert_generated.obj
 0001:00038450       ?__abi_AddRef@?QObject@Platform@@?$Array@PE$AAVBluetoothLEManufacturerData@Advertisement@Bluetooth@Devices@Windows@@$00@2@UE$AAAKXZ 0000000180039450 f i _nodert_generated.obj
 0001:00038484       ?__abi_AddRef@?QObject@Platform@@?$Array@PE$AAVBluetoothLEManufacturerData@Advertisement@Bluetooth@Devices@Windows@@$00@2@W7E$AAAKXZ 0000000180039484 f i _nodert_generated.obj
 0001:00038490       ?__abi_AddRef@?QObject@Platform@@?$Array@PE$AAVBluetoothLEManufacturerData@Advertisement@Bluetooth@Devices@Windows@@$00@2@WBA@E$AAAKXZ 0000000180039490 f i _nodert_generated.obj
 0001:0003849c       ?__abi_AddRef@?QObject@Platform@@?$Array@PE$AAVBluetoothLEManufacturerData@Advertisement@Bluetooth@Devices@Windows@@$00@2@WBI@E$AAAKXZ 000000018003949c f i _nodert_generated.obj
 0001:000384a8       ?__abi_AddRef@?QObject@Platform@@?$Array@PE$AAVBluetoothLEManufacturerData@Advertisement@Bluetooth@Devices@Windows@@$00@2@WCA@E$AAAKXZ 00000001800394a8 f i _nodert_generated.obj
 0001:000384b4       ?__abi_AddRef@?QObject@Platform@@?$Array@PE$AAVBluetoothLEManufacturerData@Advertisement@Bluetooth@Devices@Windows@@$00@2@WCI@E$AAAKXZ 00000001800394b4 f i _nodert_generated.obj
 0001:000384c0       ?__abi_AddRef@?QObject@Platform@@?$Array@PE$AAVBluetoothLEManufacturerData@Advertisement@Bluetooth@Devices@Windows@@$00@2@WDA@E$AAAKXZ 00000001800394c0 f i _nodert_generated.obj
 0001:000384cc       ?__abi_AddRef@?QObject@Platform@@?$Array@PE$AAVBluetoothLEManufacturerData@Advertisement@Bluetooth@Devices@Windows@@$00@2@WDI@E$AAAKXZ 00000001800394cc f i _nodert_generated.obj
 0001:000384d8       ?__abi_AddRef@?QObject@Platform@@?$Array@PE$AAVBluetoothLEManufacturerData@Advertisement@Bluetooth@Devices@Windows@@$00@2@WEA@E$AAAKXZ 00000001800394d8 f i _nodert_generated.obj
 0001:000384e4       ?__abi_AddRef@?QObject@Platform@@?$Array@PE$AAVBluetoothLEManufacturerData@Advertisement@Bluetooth@Devices@Windows@@$00@2@WHA@E$AAAKXZ 00000001800394e4 f i _nodert_generated.obj
 0001:000384f0       ?__abi_AddRef@?QObject@Platform@@?$Array@PE$AAVBluetoothLEManufacturerData@Advertisement@Bluetooth@Devices@Windows@@$00@2@WHI@E$AAAKXZ 00000001800394f0 f i _nodert_generated.obj
 0001:00038500       ?__abi_AddRef@?QObject@Platform@@?$Array@VGuid@Platform@@$00@2@UE$AAAKXZ 0000000180039500 f i _nodert_generated.obj
 0001:00038534       ?__abi_AddRef@?QObject@Platform@@?$Array@VGuid@Platform@@$00@2@W7E$AAAKXZ 0000000180039534 f i _nodert_generated.obj
 0001:00038540       ?__abi_AddRef@?QObject@Platform@@?$Array@VGuid@Platform@@$00@2@WBA@E$AAAKXZ 0000000180039540 f i _nodert_generated.obj
 0001:0003854c       ?__abi_AddRef@?QObject@Platform@@?$Array@VGuid@Platform@@$00@2@WBI@E$AAAKXZ 000000018003954c f i _nodert_generated.obj
 0001:00038558       ?__abi_AddRef@?QObject@Platform@@?$Array@VGuid@Platform@@$00@2@WCA@E$AAAKXZ 0000000180039558 f i _nodert_generated.obj
 0001:00038564       ?__abi_AddRef@?QObject@Platform@@?$Array@VGuid@Platform@@$00@2@WCI@E$AAAKXZ 0000000180039564 f i _nodert_generated.obj
 0001:00038570       ?__abi_AddRef@?QObject@Platform@@?$Array@VGuid@Platform@@$00@2@WDA@E$AAAKXZ 0000000180039570 f i _nodert_generated.obj
 0001:0003857c       ?__abi_AddRef@?QObject@Platform@@?$Array@VGuid@Platform@@$00@2@WDI@E$AAAKXZ 000000018003957c f i _nodert_generated.obj
 0001:00038588       ?__abi_AddRef@?QObject@Platform@@?$Array@VGuid@Platform@@$00@2@WEA@E$AAAKXZ 0000000180039588 f i _nodert_generated.obj
 0001:00038594       ?__abi_AddRef@?QObject@Platform@@?$Array@VGuid@Platform@@$00@2@WHA@E$AAAKXZ 0000000180039594 f i _nodert_generated.obj
 0001:000385a0       ?__abi_AddRef@?QObject@Platform@@?$Array@VGuid@Platform@@$00@2@WHI@E$AAAKXZ 00000001800395a0 f i _nodert_generated.obj
 0001:000385b0       ?__abi_AddRef@?QObject@Platform@@?$CustomBox@VGuid@Platform@@@Details@2@UE$AAAKXZ 00000001800395b0 f i _nodert_generated.obj
 0001:000385e4       ?__abi_AddRef@?QObject@Platform@@?$CustomBox@VGuid@Platform@@@Details@2@W7E$AAAKXZ 00000001800395e4 f i _nodert_generated.obj
 0001:000385f0       ?__abi_AddRef@?QObject@Platform@@?$CustomBox@VGuid@Platform@@@Details@2@WBA@E$AAAKXZ 00000001800395f0 f i _nodert_generated.obj
 0001:000385fc       ?__abi_AddRef@?QObject@Platform@@?$CustomBox@VGuid@Platform@@@Details@2@WBI@E$AAAKXZ 00000001800395fc f i _nodert_generated.obj
 0001:00038608       ?__abi_AddRef@?QObject@Platform@@?$CustomBox@VGuid@Platform@@@Details@2@WCA@E$AAAKXZ 0000000180039608 f i _nodert_generated.obj
 0001:00038614       ?__abi_AddRef@?QObject@Platform@@?$CustomBox@VGuid@Platform@@@Details@2@WCI@E$AAAKXZ 0000000180039614 f i _nodert_generated.obj
 0001:00038620       ?__abi_AddRef@?QObject@Platform@@?$CustomBox@W4BluetoothLEAdvertisementFlags@Advertisement@Bluetooth@Devices@Windows@@@Details@2@UE$AAAKXZ 0000000180039620 f i _nodert_generated.obj
 0001:00038654       ?__abi_AddRef@?QObject@Platform@@?$CustomBox@W4BluetoothLEAdvertisementFlags@Advertisement@Bluetooth@Devices@Windows@@@Details@2@W7E$AAAKXZ 0000000180039654 f i _nodert_generated.obj
 0001:00038660       ?__abi_AddRef@?QObject@Platform@@?$CustomBox@W4BluetoothLEAdvertisementFlags@Advertisement@Bluetooth@Devices@Windows@@@Details@2@WBA@E$AAAKXZ 0000000180039660 f i _nodert_generated.obj
 0001:0003866c       ?__abi_AddRef@?QObject@Platform@@?$CustomBox@W4BluetoothLEAdvertisementFlags@Advertisement@Bluetooth@Devices@Windows@@@Details@2@WBI@E$AAAKXZ 000000018003966c f i _nodert_generated.obj
 0001:00038678       ?__abi_AddRef@?QObject@Platform@@?$CustomBox@W4BluetoothLEAdvertisementFlags@Advertisement@Bluetooth@Devices@Windows@@@Details@2@WCA@E$AAAKXZ 0000000180039678 f i _nodert_generated.obj
 0001:00038684       ?__abi_AddRef@?QObject@Platform@@?$CustomBox@W4BluetoothLEAdvertisementFlags@Advertisement@Bluetooth@Devices@Windows@@@Details@2@WCI@E$AAAKXZ 0000000180039684 f i _nodert_generated.obj
 0001:00038690       ?__abi_AddRef@?QObject@Platform@@?$WriteOnlyArray@PE$AAVBluetoothLEAdvertisementBytePattern@Advertisement@Bluetooth@Devices@Windows@@$00@2@UE$AAAKXZ 0000000180039690 f i _nodert_generated.obj
 0001:000386c4       ?__abi_AddRef@?QObject@Platform@@?$WriteOnlyArray@PE$AAVBluetoothLEAdvertisementBytePattern@Advertisement@Bluetooth@Devices@Windows@@$00@2@W7E$AAAKXZ 00000001800396c4 f i _nodert_generated.obj
 0001:000386d0       ?__abi_AddRef@?QObject@Platform@@?$WriteOnlyArray@PE$AAVBluetoothLEAdvertisementBytePattern@Advertisement@Bluetooth@Devices@Windows@@$00@2@WBA@E$AAAKXZ 00000001800396d0 f i _nodert_generated.obj
 0001:000386dc       ?__abi_AddRef@?QObject@Platform@@?$WriteOnlyArray@PE$AAVBluetoothLEAdvertisementBytePattern@Advertisement@Bluetooth@Devices@Windows@@$00@2@WBI@E$AAAKXZ 00000001800396dc f i _nodert_generated.obj
 0001:000386e8       ?__abi_AddRef@?QObject@Platform@@?$WriteOnlyArray@PE$AAVBluetoothLEAdvertisementBytePattern@Advertisement@Bluetooth@Devices@Windows@@$00@2@WCA@E$AAAKXZ 00000001800396e8 f i _nodert_generated.obj
 0001:00038700       ?__abi_AddRef@?QObject@Platform@@?$WriteOnlyArray@PE$AAVBluetoothLEAdvertisementDataSection@Advertisement@Bluetooth@Devices@Windows@@$00@2@UE$AAAKXZ 0000000180039700 f i _nodert_generated.obj
 0001:00038734       ?__abi_AddRef@?QObject@Platform@@?$WriteOnlyArray@PE$AAVBluetoothLEAdvertisementDataSection@Advertisement@Bluetooth@Devices@Windows@@$00@2@W7E$AAAKXZ 0000000180039734 f i _nodert_generated.obj
 0001:00038740       ?__abi_AddRef@?QObject@Platform@@?$WriteOnlyArray@PE$AAVBluetoothLEAdvertisementDataSection@Advertisement@Bluetooth@Devices@Windows@@$00@2@WBA@E$AAAKXZ 0000000180039740 f i _nodert_generated.obj
 0001:0003874c       ?__abi_AddRef@?QObject@Platform@@?$WriteOnlyArray@PE$AAVBluetoothLEAdvertisementDataSection@Advertisement@Bluetooth@Devices@Windows@@$00@2@WBI@E$AAAKXZ 000000018003974c f i _nodert_generated.obj
 0001:00038758       ?__abi_AddRef@?QObject@Platform@@?$WriteOnlyArray@PE$AAVBluetoothLEAdvertisementDataSection@Advertisement@Bluetooth@Devices@Windows@@$00@2@WCA@E$AAAKXZ 0000000180039758 f i _nodert_generated.obj
 0001:00038770       ?__abi_AddRef@?QObject@Platform@@?$WriteOnlyArray@PE$AAVBluetoothLEManufacturerData@Advertisement@Bluetooth@Devices@Windows@@$00@2@UE$AAAKXZ 0000000180039770 f i _nodert_generated.obj
 0001:000387a4       ?__abi_AddRef@?QObject@Platform@@?$WriteOnlyArray@PE$AAVBluetoothLEManufacturerData@Advertisement@Bluetooth@Devices@Windows@@$00@2@W7E$AAAKXZ 00000001800397a4 f i _nodert_generated.obj
 0001:000387b0       ?__abi_AddRef@?QObject@Platform@@?$WriteOnlyArray@PE$AAVBluetoothLEManufacturerData@Advertisement@Bluetooth@Devices@Windows@@$00@2@WBA@E$AAAKXZ 00000001800397b0 f i _nodert_generated.obj
 0001:000387bc       ?__abi_AddRef@?QObject@Platform@@?$WriteOnlyArray@PE$AAVBluetoothLEManufacturerData@Advertisement@Bluetooth@Devices@Windows@@$00@2@WBI@E$AAAKXZ 00000001800397bc f i _nodert_generated.obj
 0001:000387c8       ?__abi_AddRef@?QObject@Platform@@?$WriteOnlyArray@PE$AAVBluetoothLEManufacturerData@Advertisement@Bluetooth@Devices@Windows@@$00@2@WCA@E$AAAKXZ 00000001800397c8 f i _nodert_generated.obj
 0001:000387e0       ?__abi_AddRef@?QObject@Platform@@?$WriteOnlyArray@VGuid@Platform@@$00@2@UE$AAAKXZ 00000001800397e0 f i _nodert_generated.obj
 0001:00038814       ?__abi_AddRef@?QObject@Platform@@?$WriteOnlyArray@VGuid@Platform@@$00@2@W7E$AAAKXZ 0000000180039814 f i _nodert_generated.obj
 0001:00038820       ?__abi_AddRef@?QObject@Platform@@?$WriteOnlyArray@VGuid@Platform@@$00@2@WBA@E$AAAKXZ 0000000180039820 f i _nodert_generated.obj
 0001:0003882c       ?__abi_AddRef@?QObject@Platform@@?$WriteOnlyArray@VGuid@Platform@@$00@2@WBI@E$AAAKXZ 000000018003982c f i _nodert_generated.obj
 0001:00038838       ?__abi_AddRef@?QObject@Platform@@?$WriteOnlyArray@VGuid@Platform@@$00@2@WCA@E$AAAKXZ 0000000180039838 f i _nodert_generated.obj
 0001:00038850       ?__abi_CustomToString@@YAPE$AAVString@Platform@@PEAW4BluetoothLEAdvertisementFlags@Advertisement@Bluetooth@Devices@Windows@@@Z 0000000180039850 f i _nodert_generated.obj
 0001:00038ab0       ?__abi_GetIids@?$TypedEventHandler@PE$AAVBluetoothLEAdvertisementPublisher@Advertisement@Bluetooth@Devices@Windows@@PE$AAVBluetoothLEAdvertisementPublisherStatusChangedEventArgs@2345@@Foundation@Windows@@UE$AAAJPEAKPEAPEAVGuid@Platform@@@Z 0000000180039ab0 f i _nodert_generated.obj
 0001:00038b1c       ?__abi_GetIids@?$TypedEventHandler@PE$AAVBluetoothLEAdvertisementPublisher@Advertisement@Bluetooth@Devices@Windows@@PE$AAVBluetoothLEAdvertisementPublisherStatusChangedEventArgs@2345@@Foundation@Windows@@W7E$AAAJPEAKPEAPEAVGuid@Platform@@@Z 0000000180039b1c f i _nodert_generated.obj
 0001:00038b28       ?__abi_GetIids@?$TypedEventHandler@PE$AAVBluetoothLEAdvertisementPublisher@Advertisement@Bluetooth@Devices@Windows@@PE$AAVBluetoothLEAdvertisementPublisherStatusChangedEventArgs@2345@@Foundation@Windows@@WBA@E$AAAJPEAKPEAPEAVGuid@Platform@@@Z 0000000180039b28 f i _nodert_generated.obj
 0001:00038b40       ?__abi_GetIids@?$TypedEventHandler@PE$AAVBluetoothLEAdvertisementWatcher@Advertisement@Bluetooth@Devices@Windows@@PE$AAVBluetoothLEAdvertisementReceivedEventArgs@2345@@Foundation@Windows@@UE$AAAJPEAKPEAPEAVGuid@Platform@@@Z 0000000180039b40 f i _nodert_generated.obj
 0001:00038bac       ?__abi_GetIids@?$TypedEventHandler@PE$AAVBluetoothLEAdvertisementWatcher@Advertisement@Bluetooth@Devices@Windows@@PE$AAVBluetoothLEAdvertisementReceivedEventArgs@2345@@Foundation@Windows@@W7E$AAAJPEAKPEAPEAVGuid@Platform@@@Z 0000000180039bac f i _nodert_generated.obj
 0001:00038bb8       ?__abi_GetIids@?$TypedEventHandler@PE$AAVBluetoothLEAdvertisementWatcher@Advertisement@Bluetooth@Devices@Windows@@PE$AAVBluetoothLEAdvertisementReceivedEventArgs@2345@@Foundation@Windows@@WBA@E$AAAJPEAKPEAPEAVGuid@Platform@@@Z 0000000180039bb8 f i _nodert_generated.obj
 0001:00038bd0       ?__abi_GetIids@?$TypedEventHandler@PE$AAVBluetoothLEAdvertisementWatcher@Advertisement@Bluetooth@Devices@Windows@@PE$AAVBluetoothLEAdvertisementWatcherStoppedEventArgs@2345@@Foundation@Windows@@UE$AAAJPEAKPEAPEAVGuid@Platform@@@Z 0000000180039bd0 f i _nodert_generated.obj
 0001:00038c3c       ?__abi_GetIids@?$TypedEventHandler@PE$AAVBluetoothLEAdvertisementWatcher@Advertisement@Bluetooth@Devices@Windows@@PE$AAVBluetoothLEAdvertisementWatcherStoppedEventArgs@2345@@Foundation@Windows@@W7E$AAAJPEAKPEAPEAVGuid@Platform@@@Z 0000000180039c3c f i _nodert_generated.obj
 0001:00038c48       ?__abi_GetIids@?$TypedEventHandler@PE$AAVBluetoothLEAdvertisementWatcher@Advertisement@Bluetooth@Devices@Windows@@PE$AAVBluetoothLEAdvertisementWatcherStoppedEventArgs@2345@@Foundation@Windows@@WBA@E$AAAJPEAKPEAPEAVGuid@Platform@@@Z 0000000180039c48 f i _nodert_generated.obj
 0001:00038c60       ?__abi_GetIids@?QObject@Platform@@?$Array@PE$AAVBluetoothLEAdvertisementBytePattern@Advertisement@Bluetooth@Devices@Windows@@$00@2@UE$AAAJPEAKPEAPEAVGuid@2@@Z 0000000180039c60 f i _nodert_generated.obj
 0001:00038d30       ?__abi_GetIids@?QObject@Platform@@?$Array@PE$AAVBluetoothLEAdvertisementBytePattern@Advertisement@Bluetooth@Devices@Windows@@$00@2@W7E$AAAJPEAKPEAPEAVGuid@2@@Z 0000000180039d30 f i _nodert_generated.obj
 0001:00038d3c       ?__abi_GetIids@?QObject@Platform@@?$Array@PE$AAVBluetoothLEAdvertisementBytePattern@Advertisement@Bluetooth@Devices@Windows@@$00@2@WBA@E$AAAJPEAKPEAPEAVGuid@2@@Z 0000000180039d3c f i _nodert_generated.obj
 0001:00038d48       ?__abi_GetIids@?QObject@Platform@@?$Array@PE$AAVBluetoothLEAdvertisementBytePattern@Advertisement@Bluetooth@Devices@Windows@@$00@2@WBI@E$AAAJPEAKPEAPEAVGuid@2@@Z 0000000180039d48 f i _nodert_generated.obj
 0001:00038d54       ?__abi_GetIids@?QObject@Platform@@?$Array@PE$AAVBluetoothLEAdvertisementBytePattern@Advertisement@Bluetooth@Devices@Windows@@$00@2@WCA@E$AAAJPEAKPEAPEAVGuid@2@@Z 0000000180039d54 f i _nodert_generated.obj
 0001:00038d60       ?__abi_GetIids@?QObject@Platform@@?$Array@PE$AAVBluetoothLEAdvertisementBytePattern@Advertisement@Bluetooth@Devices@Windows@@$00@2@WCI@E$AAAJPEAKPEAPEAVGuid@2@@Z 0000000180039d60 f i _nodert_generated.obj
 0001:00038d6c       ?__abi_GetIids@?QObject@Platform@@?$Array@PE$AAVBluetoothLEAdvertisementBytePattern@Advertisement@Bluetooth@Devices@Windows@@$00@2@WDA@E$AAAJPEAKPEAPEAVGuid@2@@Z 0000000180039d6c f i _nodert_generated.obj
 0001:00038d78       ?__abi_GetIids@?QObject@Platform@@?$Array@PE$AAVBluetoothLEAdvertisementBytePattern@Advertisement@Bluetooth@Devices@Windows@@$00@2@WEA@E$AAAJPEAKPEAPEAVGuid@2@@Z 0000000180039d78 f i _nodert_generated.obj
 0001:00038d84       ?__abi_GetIids@?QObject@Platform@@?$Array@PE$AAVBluetoothLEAdvertisementBytePattern@Advertisement@Bluetooth@Devices@Windows@@$00@2@WHI@E$AAAJPEAKPEAPEAVGuid@2@@Z 0000000180039d84 f i _nodert_generated.obj
 0001:00038d90       ?__abi_GetIids@?QObject@Platform@@?$Array@PE$AAVBluetoothLEAdvertisementDataSection@Advertisement@Bluetooth@Devices@Windows@@$00@2@UE$AAAJPEAKPEAPEAVGuid@2@@Z 0000000180039d90 f i _nodert_generated.obj
 0001:00038e60       ?__abi_GetIids@?QObject@Platform@@?$Array@PE$AAVBluetoothLEAdvertisementDataSection@Advertisement@Bluetooth@Devices@Windows@@$00@2@W7E$AAAJPEAKPEAPEAVGuid@2@@Z 0000000180039e60 f i _nodert_generated.obj
 0001:00038e6c       ?__abi_GetIids@?QObject@Platform@@?$Array@PE$AAVBluetoothLEAdvertisementDataSection@Advertisement@Bluetooth@Devices@Windows@@$00@2@WBA@E$AAAJPEAKPEAPEAVGuid@2@@Z 0000000180039e6c f i _nodert_generated.obj
 0001:00038e78       ?__abi_GetIids@?QObject@Platform@@?$Array@PE$AAVBluetoothLEAdvertisementDataSection@Advertisement@Bluetooth@Devices@Windows@@$00@2@WBI@E$AAAJPEAKPEAPEAVGuid@2@@Z 0000000180039e78 f i _nodert_generated.obj
 0001:00038e84       ?__abi_GetIids@?QObject@Platform@@?$Array@PE$AAVBluetoothLEAdvertisementDataSection@Advertisement@Bluetooth@Devices@Windows@@$00@2@WCA@E$AAAJPEAKPEAPEAVGuid@2@@Z 0000000180039e84 f i _nodert_generated.obj
 0001:00038e90       ?__abi_GetIids@?QObject@Platform@@?$Array@PE$AAVBluetoothLEAdvertisementDataSection@Advertisement@Bluetooth@Devices@Windows@@$00@2@WCI@E$AAAJPEAKPEAPEAVGuid@2@@Z 0000000180039e90 f i _nodert_generated.obj
 0001:00038e9c       ?__abi_GetIids@?QObject@Platform@@?$Array@PE$AAVBluetoothLEAdvertisementDataSection@Advertisement@Bluetooth@Devices@Windows@@$00@2@WDA@E$AAAJPEAKPEAPEAVGuid@2@@Z 0000000180039e9c f i _nodert_generated.obj
 0001:00038ea8       ?__abi_GetIids@?QObject@Platform@@?$Array@PE$AAVBluetoothLEAdvertisementDataSection@Advertisement@Bluetooth@Devices@Windows@@$00@2@WEA@E$AAAJPEAKPEAPEAVGuid@2@@Z 0000000180039ea8 f i _nodert_generated.obj
 0001:00038eb4       ?__abi_GetIids@?QObject@Platform@@?$Array@PE$AAVBluetoothLEAdvertisementDataSection@Advertisement@Bluetooth@Devices@Windows@@$00@2@WHI@E$AAAJPEAKPEAPEAVGuid@2@@Z 0000000180039eb4 f i _nodert_generated.obj
 0001:00038ec0       ?__abi_GetIids@?QObject@Platform@@?$Array@PE$AAVBluetoothLEManufacturerData@Advertisement@Bluetooth@Devices@Windows@@$00@2@UE$AAAJPEAKPEAPEAVGuid@2@@Z 0000000180039ec0 f i _nodert_generated.obj
 0001:00038f90       ?__abi_GetIids@?QObject@Platform@@?$Array@PE$AAVBluetoothLEManufacturerData@Advertisement@Bluetooth@Devices@Windows@@$00@2@W7E$AAAJPEAKPEAPEAVGuid@2@@Z 0000000180039f90 f i _nodert_generated.obj
 0001:00038f9c       ?__abi_GetIids@?QObject@Platform@@?$Array@PE$AAVBluetoothLEManufacturerData@Advertisement@Bluetooth@Devices@Windows@@$00@2@WBA@E$AAAJPEAKPEAPEAVGuid@2@@Z 0000000180039f9c f i _nodert_generated.obj
 0001:00038fa8       ?__abi_GetIids@?QObject@Platform@@?$Array@PE$AAVBluetoothLEManufacturerData@Advertisement@Bluetooth@Devices@Windows@@$00@2@WBI@E$AAAJPEAKPEAPEAVGuid@2@@Z 0000000180039fa8 f i _nodert_generated.obj
 0001:00038fb4       ?__abi_GetIids@?QObject@Platform@@?$Array@PE$AAVBluetoothLEManufacturerData@Advertisement@Bluetooth@Devices@Windows@@$00@2@WCA@E$AAAJPEAKPEAPEAVGuid@2@@Z 0000000180039fb4 f i _nodert_generated.obj
 0001:00038fc0       ?__abi_GetIids@?QObject@Platform@@?$Array@PE$AAVBluetoothLEManufacturerData@Advertisement@Bluetooth@Devices@Windows@@$00@2@WCI@E$AAAJPEAKPEAPEAVGuid@2@@Z 0000000180039fc0 f i _nodert_generated.obj
 0001:00038fcc       ?__abi_GetIids@?QObject@Platform@@?$Array@PE$AAVBluetoothLEManufacturerData@Advertisement@Bluetooth@Devices@Windows@@$00@2@WDA@E$AAAJPEAKPEAPEAVGuid@2@@Z 0000000180039fcc f i _nodert_generated.obj
 0001:00038fd8       ?__abi_GetIids@?QObject@Platform@@?$Array@PE$AAVBluetoothLEManufacturerData@Advertisement@Bluetooth@Devices@Windows@@$00@2@WEA@E$AAAJPEAKPEAPEAVGuid@2@@Z 0000000180039fd8 f i _nodert_generated.obj
 0001:00038fe4       ?__abi_GetIids@?QObject@Platform@@?$Array@PE$AAVBluetoothLEManufacturerData@Advertisement@Bluetooth@Devices@Windows@@$00@2@WHI@E$AAAJPEAKPEAPEAVGuid@2@@Z 0000000180039fe4 f i _nodert_generated.obj
 0001:00038ff0       ?__abi_GetIids@?QObject@Platform@@?$Array@VGuid@Platform@@$00@2@UE$AAAJPEAKPEAPEAVGuid@2@@Z 0000000180039ff0 f i _nodert_generated.obj
 0001:000390c0       ?__abi_GetIids@?QObject@Platform@@?$Array@VGuid@Platform@@$00@2@W7E$AAAJPEAKPEAPEAVGuid@2@@Z 000000018003a0c0 f i _nodert_generated.obj
 0001:000390cc       ?__abi_GetIids@?QObject@Platform@@?$Array@VGuid@Platform@@$00@2@WBA@E$AAAJPEAKPEAPEAVGuid@2@@Z 000000018003a0cc f i _nodert_generated.obj
 0001:000390d8       ?__abi_GetIids@?QObject@Platform@@?$Array@VGuid@Platform@@$00@2@WBI@E$AAAJPEAKPEAPEAVGuid@2@@Z 000000018003a0d8 f i _nodert_generated.obj
 0001:000390e4       ?__abi_GetIids@?QObject@Platform@@?$Array@VGuid@Platform@@$00@2@WCA@E$AAAJPEAKPEAPEAVGuid@2@@Z 000000018003a0e4 f i _nodert_generated.obj
 0001:000390f0       ?__abi_GetIids@?QObject@Platform@@?$Array@VGuid@Platform@@$00@2@WCI@E$AAAJPEAKPEAPEAVGuid@2@@Z 000000018003a0f0 f i _nodert_generated.obj
 0001:000390fc       ?__abi_GetIids@?QObject@Platform@@?$Array@VGuid@Platform@@$00@2@WDA@E$AAAJPEAKPEAPEAVGuid@2@@Z 000000018003a0fc f i _nodert_generated.obj
 0001:00039108       ?__abi_GetIids@?QObject@Platform@@?$Array@VGuid@Platform@@$00@2@WEA@E$AAAJPEAKPEAPEAVGuid@2@@Z 000000018003a108 f i _nodert_generated.obj
 0001:00039114       ?__abi_GetIids@?QObject@Platform@@?$Array@VGuid@Platform@@$00@2@WHI@E$AAAJPEAKPEAPEAVGuid@2@@Z 000000018003a114 f i _nodert_generated.obj
 0001:00039120       ?__abi_GetIids@?QObject@Platform@@?$CustomBox@VGuid@Platform@@@Details@2@UE$AAAJPEAKPEAPEAVGuid@2@@Z 000000018003a120 f i _nodert_generated.obj
 0001:000391cc       ?__abi_GetIids@?QObject@Platform@@?$CustomBox@VGuid@Platform@@@Details@2@W7E$AAAJPEAKPEAPEAVGuid@2@@Z 000000018003a1cc f i _nodert_generated.obj
 0001:000391d8       ?__abi_GetIids@?QObject@Platform@@?$CustomBox@VGuid@Platform@@@Details@2@WBA@E$AAAJPEAKPEAPEAVGuid@2@@Z 000000018003a1d8 f i _nodert_generated.obj
 0001:000391e4       ?__abi_GetIids@?QObject@Platform@@?$CustomBox@VGuid@Platform@@@Details@2@WBI@E$AAAJPEAKPEAPEAVGuid@2@@Z 000000018003a1e4 f i _nodert_generated.obj
 0001:000391f0       ?__abi_GetIids@?QObject@Platform@@?$CustomBox@VGuid@Platform@@@Details@2@WCI@E$AAAJPEAKPEAPEAVGuid@2@@Z 000000018003a1f0 f i _nodert_generated.obj
 0001:00039200       ?__abi_GetIids@?QObject@Platform@@?$CustomBox@W4BluetoothLEAdvertisementFlags@Advertisement@Bluetooth@Devices@Windows@@@Details@2@UE$AAAJPEAKPEAPEAVGuid@2@@Z 000000018003a200 f i _nodert_generated.obj
 0001:000392ac       ?__abi_GetIids@?QObject@Platform@@?$CustomBox@W4BluetoothLEAdvertisementFlags@Advertisement@Bluetooth@Devices@Windows@@@Details@2@W7E$AAAJPEAKPEAPEAVGuid@2@@Z 000000018003a2ac f i _nodert_generated.obj
 0001:000392b8       ?__abi_GetIids@?QObject@Platform@@?$CustomBox@W4BluetoothLEAdvertisementFlags@Advertisement@Bluetooth@Devices@Windows@@@Details@2@WBA@E$AAAJPEAKPEAPEAVGuid@2@@Z 000000018003a2b8 f i _nodert_generated.obj
 0001:000392c4       ?__abi_GetIids@?QObject@Platform@@?$CustomBox@W4BluetoothLEAdvertisementFlags@Advertisement@Bluetooth@Devices@Windows@@@Details@2@WBI@E$AAAJPEAKPEAPEAVGuid@2@@Z 000000018003a2c4 f i _nodert_generated.obj
 0001:000392d0       ?__abi_GetIids@?QObject@Platform@@?$CustomBox@W4BluetoothLEAdvertisementFlags@Advertisement@Bluetooth@Devices@Windows@@@Details@2@WCI@E$AAAJPEAKPEAPEAVGuid@2@@Z 000000018003a2d0 f i _nodert_generated.obj
 0001:000392e0       ?__abi_GetIids@?QObject@Platform@@?$WriteOnlyArray@PE$AAVBluetoothLEAdvertisementBytePattern@Advertisement@Bluetooth@Devices@Windows@@$00@2@UE$AAAJPEAKPEAPEAVGuid@2@@Z 000000018003a2e0 f i _nodert_generated.obj
 0001:0003938c       ?__abi_GetIids@?QObject@Platform@@?$WriteOnlyArray@PE$AAVBluetoothLEAdvertisementBytePattern@Advertisement@Bluetooth@Devices@Windows@@$00@2@W7E$AAAJPEAKPEAPEAVGuid@2@@Z 000000018003a38c f i _nodert_generated.obj
 0001:00039398       ?__abi_GetIids@?QObject@Platform@@?$WriteOnlyArray@PE$AAVBluetoothLEAdvertisementBytePattern@Advertisement@Bluetooth@Devices@Windows@@$00@2@WBA@E$AAAJPEAKPEAPEAVGuid@2@@Z 000000018003a398 f i _nodert_generated.obj
 0001:000393a4       ?__abi_GetIids@?QObject@Platform@@?$WriteOnlyArray@PE$AAVBluetoothLEAdvertisementBytePattern@Advertisement@Bluetooth@Devices@Windows@@$00@2@WCA@E$AAAJPEAKPEAPEAVGuid@2@@Z 000000018003a3a4 f i _nodert_generated.obj
 0001:000393b0       ?__abi_GetIids@?QObject@Platform@@?$WriteOnlyArray@PE$AAVBluetoothLEAdvertisementDataSection@Advertisement@Bluetooth@Devices@Windows@@$00@2@UE$AAAJPEAKPEAPEAVGuid@2@@Z 000000018003a3b0 f i _nodert_generated.obj
 0001:0003945c       ?__abi_GetIids@?QObject@Platform@@?$WriteOnlyArray@PE$AAVBluetoothLEAdvertisementDataSection@Advertisement@Bluetooth@Devices@Windows@@$00@2@W7E$AAAJPEAKPEAPEAVGuid@2@@Z 000000018003a45c f i _nodert_generated.obj
 0001:00039468       ?__abi_GetIids@?QObject@Platform@@?$WriteOnlyArray@PE$AAVBluetoothLEAdvertisementDataSection@Advertisement@Bluetooth@Devices@Windows@@$00@2@WBA@E$AAAJPEAKPEAPEAVGuid@2@@Z 000000018003a468 f i _nodert_generated.obj
 0001:00039474       ?__abi_GetIids@?QObject@Platform@@?$WriteOnlyArray@PE$AAVBluetoothLEAdvertisementDataSection@Advertisement@Bluetooth@Devices@Windows@@$00@2@WCA@E$AAAJPEAKPEAPEAVGuid@2@@Z 000000018003a474 f i _nodert_generated.obj
 0001:00039480       ?__abi_GetIids@?QObject@Platform@@?$WriteOnlyArray@PE$AAVBluetoothLEManufacturerData@Advertisement@Bluetooth@Devices@Windows@@$00@2@UE$AAAJPEAKPEAPEAVGuid@2@@Z 000000018003a480 f i _nodert_generated.obj
 0001:0003952c       ?__abi_GetIids@?QObject@Platform@@?$WriteOnlyArray@PE$AAVBluetoothLEManufacturerData@Advertisement@Bluetooth@Devices@Windows@@$00@2@W7E$AAAJPEAKPEAPEAVGuid@2@@Z 000000018003a52c f i _nodert_generated.obj
 0001:00039538       ?__abi_GetIids@?QObject@Platform@@?$WriteOnlyArray@PE$AAVBluetoothLEManufacturerData@Advertisement@Bluetooth@Devices@Windows@@$00@2@WBA@E$AAAJPEAKPEAPEAVGuid@2@@Z 000000018003a538 f i _nodert_generated.obj
 0001:00039544       ?__abi_GetIids@?QObject@Platform@@?$WriteOnlyArray@PE$AAVBluetoothLEManufacturerData@Advertisement@Bluetooth@Devices@Windows@@$00@2@WCA@E$AAAJPEAKPEAPEAVGuid@2@@Z 000000018003a544 f i _nodert_generated.obj
 0001:00039550       ?__abi_GetIids@?QObject@Platform@@?$WriteOnlyArray@VGuid@Platform@@$00@2@UE$AAAJPEAKPEAPEAVGuid@2@@Z 000000018003a550 f i _nodert_generated.obj
 0001:000395fc       ?__abi_GetIids@?QObject@Platform@@?$WriteOnlyArray@VGuid@Platform@@$00@2@W7E$AAAJPEAKPEAPEAVGuid@2@@Z 000000018003a5fc f i _nodert_generated.obj
 0001:00039608       ?__abi_GetIids@?QObject@Platform@@?$WriteOnlyArray@VGuid@Platform@@$00@2@WBA@E$AAAJPEAKPEAPEAVGuid@2@@Z 000000018003a608 f i _nodert_generated.obj
 0001:00039614       ?__abi_GetIids@?QObject@Platform@@?$WriteOnlyArray@VGuid@Platform@@$00@2@WCA@E$AAAJPEAKPEAPEAVGuid@2@@Z 000000018003a614 f i _nodert_generated.obj
 0001:00039620       ?__abi_GetRuntimeClassName@?$TypedEventHandler@PE$AAVBluetoothLEAdvertisementPublisher@Advertisement@Bluetooth@Devices@Windows@@PE$AAVBluetoothLEAdvertisementPublisherStatusChangedEventArgs@2345@@Foundation@Windows@@UE$AAAJPEAPEAUHSTRING__@@@Z 000000018003a620 f i _nodert_generated.obj
 0001:0003963c       ?__abi_GetRuntimeClassName@?$TypedEventHandler@PE$AAVBluetoothLEAdvertisementPublisher@Advertisement@Bluetooth@Devices@Windows@@PE$AAVBluetoothLEAdvertisementPublisherStatusChangedEventArgs@2345@@Foundation@Windows@@W7E$AAAJPEAPEAUHSTRING__@@@Z 000000018003a63c f i _nodert_generated.obj
 0001:00039648       ?__abi_GetRuntimeClassName@?$TypedEventHandler@PE$AAVBluetoothLEAdvertisementPublisher@Advertisement@Bluetooth@Devices@Windows@@PE$AAVBluetoothLEAdvertisementPublisherStatusChangedEventArgs@2345@@Foundation@Windows@@WBA@E$AAAJPEAPEAUHSTRING__@@@Z 000000018003a648 f i _nodert_generated.obj
 0001:00039660       ?__abi_GetRuntimeClassName@?$TypedEventHandler@PE$AAVBluetoothLEAdvertisementWatcher@Advertisement@Bluetooth@Devices@Windows@@PE$AAVBluetoothLEAdvertisementReceivedEventArgs@2345@@Foundation@Windows@@UE$AAAJPEAPEAUHSTRING__@@@Z 000000018003a660 f i _nodert_generated.obj
 0001:0003967c       ?__abi_GetRuntimeClassName@?$TypedEventHandler@PE$AAVBluetoothLEAdvertisementWatcher@Advertisement@Bluetooth@Devices@Windows@@PE$AAVBluetoothLEAdvertisementReceivedEventArgs@2345@@Foundation@Windows@@W7E$AAAJPEAPEAUHSTRING__@@@Z 000000018003a67c f i _nodert_generated.obj
 0001:00039688       ?__abi_GetRuntimeClassName@?$TypedEventHandler@PE$AAVBluetoothLEAdvertisementWatcher@Advertisement@Bluetooth@Devices@Windows@@PE$AAVBluetoothLEAdvertisementReceivedEventArgs@2345@@Foundation@Windows@@WBA@E$AAAJPEAPEAUHSTRING__@@@Z 000000018003a688 f i _nodert_generated.obj
 0001:000396a0       ?__abi_GetRuntimeClassName@?$TypedEventHandler@PE$AAVBluetoothLEAdvertisementWatcher@Advertisement@Bluetooth@Devices@Windows@@PE$AAVBluetoothLEAdvertisementWatcherStoppedEventArgs@2345@@Foundation@Windows@@UE$AAAJPEAPEAUHSTRING__@@@Z 000000018003a6a0 f i _nodert_generated.obj
 0001:000396bc       ?__abi_GetRuntimeClassName@?$TypedEventHandler@PE$AAVBluetoothLEAdvertisementWatcher@Advertisement@Bluetooth@Devices@Windows@@PE$AAVBluetoothLEAdvertisementWatcherStoppedEventArgs@2345@@Foundation@Windows@@W7E$AAAJPEAPEAUHSTRING__@@@Z 000000018003a6bc f i _nodert_generated.obj
 0001:000396c8       ?__abi_GetRuntimeClassName@?$TypedEventHandler@PE$AAVBluetoothLEAdvertisementWatcher@Advertisement@Bluetooth@Devices@Windows@@PE$AAVBluetoothLEAdvertisementWatcherStoppedEventArgs@2345@@Foundation@Windows@@WBA@E$AAAJPEAPEAUHSTRING__@@@Z 000000018003a6c8 f i _nodert_generated.obj
 0001:000396e0       ?__abi_GetRuntimeClassName@?QObject@Platform@@?$Array@PE$AAVBluetoothLEAdvertisementBytePattern@Advertisement@Bluetooth@Devices@Windows@@$00@2@UE$AAAJPEAPEAUHSTRING__@@@Z 000000018003a6e0 f i _nodert_generated.obj
 0001:000396fc       ?__abi_GetRuntimeClassName@?QObject@Platform@@?$Array@PE$AAVBluetoothLEAdvertisementBytePattern@Advertisement@Bluetooth@Devices@Windows@@$00@2@W7E$AAAJPEAPEAUHSTRING__@@@Z 000000018003a6fc f i _nodert_generated.obj
 0001:00039708       ?__abi_GetRuntimeClassName@?QObject@Platform@@?$Array@PE$AAVBluetoothLEAdvertisementBytePattern@Advertisement@Bluetooth@Devices@Windows@@$00@2@WBA@E$AAAJPEAPEAUHSTRING__@@@Z 000000018003a708 f i _nodert_generated.obj
 0001:00039714       ?__abi_GetRuntimeClassName@?QObject@Platform@@?$Array@PE$AAVBluetoothLEAdvertisementBytePattern@Advertisement@Bluetooth@Devices@Windows@@$00@2@WBI@E$AAAJPEAPEAUHSTRING__@@@Z 000000018003a714 f i _nodert_generated.obj
 0001:00039720       ?__abi_GetRuntimeClassName@?QObject@Platform@@?$Array@PE$AAVBluetoothLEAdvertisementBytePattern@Advertisement@Bluetooth@Devices@Windows@@$00@2@WCA@E$AAAJPEAPEAUHSTRING__@@@Z 000000018003a720 f i _nodert_generated.obj
 0001:0003972c       ?__abi_GetRuntimeClassName@?QObject@Platform@@?$Array@PE$AAVBluetoothLEAdvertisementBytePattern@Advertisement@Bluetooth@Devices@Windows@@$00@2@WCI@E$AAAJPEAPEAUHSTRING__@@@Z 000000018003a72c f i _nodert_generated.obj
 0001:00039738       ?__abi_GetRuntimeClassName@?QObject@Platform@@?$Array@PE$AAVBluetoothLEAdvertisementBytePattern@Advertisement@Bluetooth@Devices@Windows@@$00@2@WDA@E$AAAJPEAPEAUHSTRING__@@@Z 000000018003a738 f i _nodert_generated.obj
 0001:00039744       ?__abi_GetRuntimeClassName@?QObject@Platform@@?$Array@PE$AAVBluetoothLEAdvertisementBytePattern@Advertisement@Bluetooth@Devices@Windows@@$00@2@WEA@E$AAAJPEAPEAUHSTRING__@@@Z 000000018003a744 f i _nodert_generated.obj
 0001:00039750       ?__abi_GetRuntimeClassName@?QObject@Platform@@?$Array@PE$AAVBluetoothLEAdvertisementBytePattern@Advertisement@Bluetooth@Devices@Windows@@$00@2@WHI@E$AAAJPEAPEAUHSTRING__@@@Z 000000018003a750 f i _nodert_generated.obj
 0001:00039760       ?__abi_GetRuntimeClassName@?QObject@Platform@@?$Array@PE$AAVBluetoothLEAdvertisementDataSection@Advertisement@Bluetooth@Devices@Windows@@$00@2@UE$AAAJPEAPEAUHSTRING__@@@Z 000000018003a760 f i _nodert_generated.obj
 0001:0003977c       ?__abi_GetRuntimeClassName@?QObject@Platform@@?$Array@PE$AAVBluetoothLEAdvertisementDataSection@Advertisement@Bluetooth@Devices@Windows@@$00@2@W7E$AAAJPEAPEAUHSTRING__@@@Z 000000018003a77c f i _nodert_generated.obj
 0001:00039788       ?__abi_GetRuntimeClassName@?QObject@Platform@@?$Array@PE$AAVBluetoothLEAdvertisementDataSection@Advertisement@Bluetooth@Devices@Windows@@$00@2@WBA@E$AAAJPEAPEAUHSTRING__@@@Z 000000018003a788 f i _nodert_generated.obj
 0001:00039794       ?__abi_GetRuntimeClassName@?QObject@Platform@@?$Array@PE$AAVBluetoothLEAdvertisementDataSection@Advertisement@Bluetooth@Devices@Windows@@$00@2@WBI@E$AAAJPEAPEAUHSTRING__@@@Z 000000018003a794 f i _nodert_generated.obj
 0001:000397a0       ?__abi_GetRuntimeClassName@?QObject@Platform@@?$Array@PE$AAVBluetoothLEAdvertisementDataSection@Advertisement@Bluetooth@Devices@Windows@@$00@2@WCA@E$AAAJPEAPEAUHSTRING__@@@Z 000000018003a7a0 f i _nodert_generated.obj
 0001:000397ac       ?__abi_GetRuntimeClassName@?QObject@Platform@@?$Array@PE$AAVBluetoothLEAdvertisementDataSection@Advertisement@Bluetooth@Devices@Windows@@$00@2@WCI@E$AAAJPEAPEAUHSTRING__@@@Z 000000018003a7ac f i _nodert_generated.obj
 0001:000397b8       ?__abi_GetRuntimeClassName@?QObject@Platform@@?$Array@PE$AAVBluetoothLEAdvertisementDataSection@Advertisement@Bluetooth@Devices@Windows@@$00@2@WDA@E$AAAJPEAPEAUHSTRING__@@@Z 000000018003a7b8 f i _nodert_generated.obj
 0001:000397c4       ?__abi_GetRuntimeClassName@?QObject@Platform@@?$Array@PE$AAVBluetoothLEAdvertisementDataSection@Advertisement@Bluetooth@Devices@Windows@@$00@2@WEA@E$AAAJPEAPEAUHSTRING__@@@Z 000000018003a7c4 f i _nodert_generated.obj
 0001:000397d0       ?__abi_GetRuntimeClassName@?QObject@Platform@@?$Array@PE$AAVBluetoothLEAdvertisementDataSection@Advertisement@Bluetooth@Devices@Windows@@$00@2@WHI@E$AAAJPEAPEAUHSTRING__@@@Z 000000018003a7d0 f i _nodert_generated.obj
 0001:000397e0       ?__abi_GetRuntimeClassName@?QObject@Platform@@?$Array@PE$AAVBluetoothLEManufacturerData@Advertisement@Bluetooth@Devices@Windows@@$00@2@UE$AAAJPEAPEAUHSTRING__@@@Z 000000018003a7e0 f i _nodert_generated.obj
 0001:000397fc       ?__abi_GetRuntimeClassName@?QObject@Platform@@?$Array@PE$AAVBluetoothLEManufacturerData@Advertisement@Bluetooth@Devices@Windows@@$00@2@W7E$AAAJPEAPEAUHSTRING__@@@Z 000000018003a7fc f i _nodert_generated.obj
 0001:00039808       ?__abi_GetRuntimeClassName@?QObject@Platform@@?$Array@PE$AAVBluetoothLEManufacturerData@Advertisement@Bluetooth@Devices@Windows@@$00@2@WBA@E$AAAJPEAPEAUHSTRING__@@@Z 000000018003a808 f i _nodert_generated.obj
 0001:00039814       ?__abi_GetRuntimeClassName@?QObject@Platform@@?$Array@PE$AAVBluetoothLEManufacturerData@Advertisement@Bluetooth@Devices@Windows@@$00@2@WBI@E$AAAJPEAPEAUHSTRING__@@@Z 000000018003a814 f i _nodert_generated.obj
 0001:00039820       ?__abi_GetRuntimeClassName@?QObject@Platform@@?$Array@PE$AAVBluetoothLEManufacturerData@Advertisement@Bluetooth@Devices@Windows@@$00@2@WCA@E$AAAJPEAPEAUHSTRING__@@@Z 000000018003a820 f i _nodert_generated.obj
 0001:0003982c       ?__abi_GetRuntimeClassName@?QObject@Platform@@?$Array@PE$AAVBluetoothLEManufacturerData@Advertisement@Bluetooth@Devices@Windows@@$00@2@WCI@E$AAAJPEAPEAUHSTRING__@@@Z 000000018003a82c f i _nodert_generated.obj
 0001:00039838       ?__abi_GetRuntimeClassName@?QObject@Platform@@?$Array@PE$AAVBluetoothLEManufacturerData@Advertisement@Bluetooth@Devices@Windows@@$00@2@WDA@E$AAAJPEAPEAUHSTRING__@@@Z 000000018003a838 f i _nodert_generated.obj
 0001:00039844       ?__abi_GetRuntimeClassName@?QObject@Platform@@?$Array@PE$AAVBluetoothLEManufacturerData@Advertisement@Bluetooth@Devices@Windows@@$00@2@WEA@E$AAAJPEAPEAUHSTRING__@@@Z 000000018003a844 f i _nodert_generated.obj
 0001:00039850       ?__abi_GetRuntimeClassName@?QObject@Platform@@?$Array@PE$AAVBluetoothLEManufacturerData@Advertisement@Bluetooth@Devices@Windows@@$00@2@WHI@E$AAAJPEAPEAUHSTRING__@@@Z 000000018003a850 f i _nodert_generated.obj
 0001:00039860       ?__abi_GetRuntimeClassName@?QObject@Platform@@?$Array@VGuid@Platform@@$00@2@UE$AAAJPEAPEAUHSTRING__@@@Z 000000018003a860 f i _nodert_generated.obj
 0001:0003987c       ?__abi_GetRuntimeClassName@?QObject@Platform@@?$Array@VGuid@Platform@@$00@2@W7E$AAAJPEAPEAUHSTRING__@@@Z 000000018003a87c f i _nodert_generated.obj
 0001:00039888       ?__abi_GetRuntimeClassName@?QObject@Platform@@?$Array@VGuid@Platform@@$00@2@WBA@E$AAAJPEAPEAUHSTRING__@@@Z 000000018003a888 f i _nodert_generated.obj
 0001:00039894       ?__abi_GetRuntimeClassName@?QObject@Platform@@?$Array@VGuid@Platform@@$00@2@WBI@E$AAAJPEAPEAUHSTRING__@@@Z 000000018003a894 f i _nodert_generated.obj
 0001:000398a0       ?__abi_GetRuntimeClassName@?QObject@Platform@@?$Array@VGuid@Platform@@$00@2@WCA@E$AAAJPEAPEAUHSTRING__@@@Z 000000018003a8a0 f i _nodert_generated.obj
 0001:000398ac       ?__abi_GetRuntimeClassName@?QObject@Platform@@?$Array@VGuid@Platform@@$00@2@WCI@E$AAAJPEAPEAUHSTRING__@@@Z 000000018003a8ac f i _nodert_generated.obj
 0001:000398b8       ?__abi_GetRuntimeClassName@?QObject@Platform@@?$Array@VGuid@Platform@@$00@2@WDA@E$AAAJPEAPEAUHSTRING__@@@Z 000000018003a8b8 f i _nodert_generated.obj
 0001:000398c4       ?__abi_GetRuntimeClassName@?QObject@Platform@@?$Array@VGuid@Platform@@$00@2@WEA@E$AAAJPEAPEAUHSTRING__@@@Z 000000018003a8c4 f i _nodert_generated.obj
 0001:000398d0       ?__abi_GetRuntimeClassName@?QObject@Platform@@?$Array@VGuid@Platform@@$00@2@WHI@E$AAAJPEAPEAUHSTRING__@@@Z 000000018003a8d0 f i _nodert_generated.obj
 0001:000398e0       ?__abi_GetRuntimeClassName@?QObject@Platform@@?$CustomBox@VGuid@Platform@@@Details@2@UE$AAAJPEAPEAUHSTRING__@@@Z 000000018003a8e0 f i _nodert_generated.obj
 0001:000398fc       ?__abi_GetRuntimeClassName@?QObject@Platform@@?$CustomBox@VGuid@Platform@@@Details@2@W7E$AAAJPEAPEAUHSTRING__@@@Z 000000018003a8fc f i _nodert_generated.obj
 0001:00039908       ?__abi_GetRuntimeClassName@?QObject@Platform@@?$CustomBox@VGuid@Platform@@@Details@2@WBA@E$AAAJPEAPEAUHSTRING__@@@Z 000000018003a908 f i _nodert_generated.obj
 0001:00039914       ?__abi_GetRuntimeClassName@?QObject@Platform@@?$CustomBox@VGuid@Platform@@@Details@2@WBI@E$AAAJPEAPEAUHSTRING__@@@Z 000000018003a914 f i _nodert_generated.obj
 0001:00039920       ?__abi_GetRuntimeClassName@?QObject@Platform@@?$CustomBox@VGuid@Platform@@@Details@2@WCI@E$AAAJPEAPEAUHSTRING__@@@Z 000000018003a920 f i _nodert_generated.obj
 0001:00039930       ?__abi_GetRuntimeClassName@?QObject@Platform@@?$CustomBox@W4BluetoothLEAdvertisementFlags@Advertisement@Bluetooth@Devices@Windows@@@Details@2@UE$AAAJPEAPEAUHSTRING__@@@Z 000000018003a930 f i _nodert_generated.obj
 0001:0003994c       ?__abi_GetRuntimeClassName@?QObject@Platform@@?$CustomBox@W4BluetoothLEAdvertisementFlags@Advertisement@Bluetooth@Devices@Windows@@@Details@2@W7E$AAAJPEAPEAUHSTRING__@@@Z 000000018003a94c f i _nodert_generated.obj
 0001:00039958       ?__abi_GetRuntimeClassName@?QObject@Platform@@?$CustomBox@W4BluetoothLEAdvertisementFlags@Advertisement@Bluetooth@Devices@Windows@@@Details@2@WBA@E$AAAJPEAPEAUHSTRING__@@@Z 000000018003a958 f i _nodert_generated.obj
 0001:00039964       ?__abi_GetRuntimeClassName@?QObject@Platform@@?$CustomBox@W4BluetoothLEAdvertisementFlags@Advertisement@Bluetooth@Devices@Windows@@@Details@2@WBI@E$AAAJPEAPEAUHSTRING__@@@Z 000000018003a964 f i _nodert_generated.obj
 0001:00039970       ?__abi_GetRuntimeClassName@?QObject@Platform@@?$CustomBox@W4BluetoothLEAdvertisementFlags@Advertisement@Bluetooth@Devices@Windows@@@Details@2@WCI@E$AAAJPEAPEAUHSTRING__@@@Z 000000018003a970 f i _nodert_generated.obj
 0001:00039980       ?__abi_GetRuntimeClassName@?QObject@Platform@@?$WriteOnlyArray@PE$AAVBluetoothLEAdvertisementBytePattern@Advertisement@Bluetooth@Devices@Windows@@$00@2@UE$AAAJPEAPEAUHSTRING__@@@Z 000000018003a980 f i _nodert_generated.obj
 0001:0003999c       ?__abi_GetRuntimeClassName@?QObject@Platform@@?$WriteOnlyArray@PE$AAVBluetoothLEAdvertisementBytePattern@Advertisement@Bluetooth@Devices@Windows@@$00@2@W7E$AAAJPEAPEAUHSTRING__@@@Z 000000018003a99c f i _nodert_generated.obj
 0001:000399a8       ?__abi_GetRuntimeClassName@?QObject@Platform@@?$WriteOnlyArray@PE$AAVBluetoothLEAdvertisementBytePattern@Advertisement@Bluetooth@Devices@Windows@@$00@2@WBA@E$AAAJPEAPEAUHSTRING__@@@Z 000000018003a9a8 f i _nodert_generated.obj
 0001:000399b4       ?__abi_GetRuntimeClassName@?QObject@Platform@@?$WriteOnlyArray@PE$AAVBluetoothLEAdvertisementBytePattern@Advertisement@Bluetooth@Devices@Windows@@$00@2@WCA@E$AAAJPEAPEAUHSTRING__@@@Z 000000018003a9b4 f i _nodert_generated.obj
 0001:000399c0       ?__abi_GetRuntimeClassName@?QObject@Platform@@?$WriteOnlyArray@PE$AAVBluetoothLEAdvertisementDataSection@Advertisement@Bluetooth@Devices@Windows@@$00@2@UE$AAAJPEAPEAUHSTRING__@@@Z 000000018003a9c0 f i _nodert_generated.obj
 0001:000399dc       ?__abi_GetRuntimeClassName@?QObject@Platform@@?$WriteOnlyArray@PE$AAVBluetoothLEAdvertisementDataSection@Advertisement@Bluetooth@Devices@Windows@@$00@2@W7E$AAAJPEAPEAUHSTRING__@@@Z 000000018003a9dc f i _nodert_generated.obj
 0001:000399e8       ?__abi_GetRuntimeClassName@?QObject@Platform@@?$WriteOnlyArray@PE$AAVBluetoothLEAdvertisementDataSection@Advertisement@Bluetooth@Devices@Windows@@$00@2@WBA@E$AAAJPEAPEAUHSTRING__@@@Z 000000018003a9e8 f i _nodert_generated.obj
 0001:000399f4       ?__abi_GetRuntimeClassName@?QObject@Platform@@?$WriteOnlyArray@PE$AAVBluetoothLEAdvertisementDataSection@Advertisement@Bluetooth@Devices@Windows@@$00@2@WCA@E$AAAJPEAPEAUHSTRING__@@@Z 000000018003a9f4 f i _nodert_generated.obj
 0001:00039a00       ?__abi_GetRuntimeClassName@?QObject@Platform@@?$WriteOnlyArray@PE$AAVBluetoothLEManufacturerData@Advertisement@Bluetooth@Devices@Windows@@$00@2@UE$AAAJPEAPEAUHSTRING__@@@Z 000000018003aa00 f i _nodert_generated.obj
 0001:00039a1c       ?__abi_GetRuntimeClassName@?QObject@Platform@@?$WriteOnlyArray@PE$AAVBluetoothLEManufacturerData@Advertisement@Bluetooth@Devices@Windows@@$00@2@W7E$AAAJPEAPEAUHSTRING__@@@Z 000000018003aa1c f i _nodert_generated.obj
 0001:00039a28       ?__abi_GetRuntimeClassName@?QObject@Platform@@?$WriteOnlyArray@PE$AAVBluetoothLEManufacturerData@Advertisement@Bluetooth@Devices@Windows@@$00@2@WBA@E$AAAJPEAPEAUHSTRING__@@@Z 000000018003aa28 f i _nodert_generated.obj
 0001:00039a34       ?__abi_GetRuntimeClassName@?QObject@Platform@@?$WriteOnlyArray@PE$AAVBluetoothLEManufacturerData@Advertisement@Bluetooth@Devices@Windows@@$00@2@WCA@E$AAAJPEAPEAUHSTRING__@@@Z 000000018003aa34 f i _nodert_generated.obj
 0001:00039a40       ?__abi_GetRuntimeClassName@?QObject@Platform@@?$WriteOnlyArray@VGuid@Platform@@$00@2@UE$AAAJPEAPEAUHSTRING__@@@Z 000000018003aa40 f i _nodert_generated.obj
 0001:00039a5c       ?__abi_GetRuntimeClassName@?QObject@Platform@@?$WriteOnlyArray@VGuid@Platform@@$00@2@W7E$AAAJPEAPEAUHSTRING__@@@Z 000000018003aa5c f i _nodert_generated.obj
 0001:00039a68       ?__abi_GetRuntimeClassName@?QObject@Platform@@?$WriteOnlyArray@VGuid@Platform@@$00@2@WBA@E$AAAJPEAPEAUHSTRING__@@@Z 000000018003aa68 f i _nodert_generated.obj
 0001:00039a74       ?__abi_GetRuntimeClassName@?QObject@Platform@@?$WriteOnlyArray@VGuid@Platform@@$00@2@WCA@E$AAAJPEAPEAUHSTRING__@@@Z 000000018003aa74 f i _nodert_generated.obj
 0001:00039a80       ?__abi_GetTrustLevel@?$TypedEventHandler@PE$AAVBluetoothLEAdvertisementPublisher@Advertisement@Bluetooth@Devices@Windows@@PE$AAVBluetoothLEAdvertisementPublisherStatusChangedEventArgs@2345@@Foundation@Windows@@UE$AAAJPEAW4__abi_TrustLevel@@@Z 000000018003aa80 f i _nodert_generated.obj
 0001:00039a8c       ?__abi_GetTrustLevel@?$TypedEventHandler@PE$AAVBluetoothLEAdvertisementPublisher@Advertisement@Bluetooth@Devices@Windows@@PE$AAVBluetoothLEAdvertisementPublisherStatusChangedEventArgs@2345@@Foundation@Windows@@W7E$AAAJPEAW4__abi_TrustLevel@@@Z 000000018003aa8c f i _nodert_generated.obj
 0001:00039a98       ?__abi_GetTrustLevel@?$TypedEventHandler@PE$AAVBluetoothLEAdvertisementPublisher@Advertisement@Bluetooth@Devices@Windows@@PE$AAVBluetoothLEAdvertisementPublisherStatusChangedEventArgs@2345@@Foundation@Windows@@WBA@E$AAAJPEAW4__abi_TrustLevel@@@Z 000000018003aa98 f i _nodert_generated.obj
 0001:00039ab0       ?__abi_GetTrustLevel@?$TypedEventHandler@PE$AAVBluetoothLEAdvertisementWatcher@Advertisement@Bluetooth@Devices@Windows@@PE$AAVBluetoothLEAdvertisementReceivedEventArgs@2345@@Foundation@Windows@@UE$AAAJPEAW4__abi_TrustLevel@@@Z 000000018003aab0 f i _nodert_generated.obj
 0001:00039abc       ?__abi_GetTrustLevel@?$TypedEventHandler@PE$AAVBluetoothLEAdvertisementWatcher@Advertisement@Bluetooth@Devices@Windows@@PE$AAVBluetoothLEAdvertisementReceivedEventArgs@2345@@Foundation@Windows@@W7E$AAAJPEAW4__abi_TrustLevel@@@Z 000000018003aabc f i _nodert_generated.obj
 0001:00039ac8       ?__abi_GetTrustLevel@?$TypedEventHandler@PE$AAVBluetoothLEAdvertisementWatcher@Advertisement@Bluetooth@Devices@Windows@@PE$AAVBluetoothLEAdvertisementReceivedEventArgs@2345@@Foundation@Windows@@WBA@E$AAAJPEAW4__abi_TrustLevel@@@Z 000000018003aac8 f i _nodert_generated.obj
 0001:00039ae0       ?__abi_GetTrustLevel@?$TypedEventHandler@PE$AAVBluetoothLEAdvertisementWatcher@Advertisement@Bluetooth@Devices@Windows@@PE$AAVBluetoothLEAdvertisementWatcherStoppedEventArgs@2345@@Foundation@Windows@@UE$AAAJPEAW4__abi_TrustLevel@@@Z 000000018003aae0 f i _nodert_generated.obj
 0001:00039aec       ?__abi_GetTrustLevel@?$TypedEventHandler@PE$AAVBluetoothLEAdvertisementWatcher@Advertisement@Bluetooth@Devices@Windows@@PE$AAVBluetoothLEAdvertisementWatcherStoppedEventArgs@2345@@Foundation@Windows@@W7E$AAAJPEAW4__abi_TrustLevel@@@Z 000000018003aaec f i _nodert_generated.obj
 0001:00039af8       ?__abi_GetTrustLevel@?$TypedEventHandler@PE$AAVBluetoothLEAdvertisementWatcher@Advertisement@Bluetooth@Devices@Windows@@PE$AAVBluetoothLEAdvertisementWatcherStoppedEventArgs@2345@@Foundation@Windows@@WBA@E$AAAJPEAW4__abi_TrustLevel@@@Z 000000018003aaf8 f i _nodert_generated.obj
 0001:00039b10       ?__abi_GetTrustLevel@?QObject@Platform@@?$Array@PE$AAVBluetoothLEAdvertisementBytePattern@Advertisement@Bluetooth@Devices@Windows@@$00@2@UE$AAAJPEAW4__abi_TrustLevel@@@Z 000000018003ab10 f i _nodert_generated.obj
 0001:00039b1c       ?__abi_GetTrustLevel@?QObject@Platform@@?$Array@PE$AAVBluetoothLEAdvertisementBytePattern@Advertisement@Bluetooth@Devices@Windows@@$00@2@W7E$AAAJPEAW4__abi_TrustLevel@@@Z 000000018003ab1c f i _nodert_generated.obj
 0001:00039b28       ?__abi_GetTrustLevel@?QObject@Platform@@?$Array@PE$AAVBluetoothLEAdvertisementBytePattern@Advertisement@Bluetooth@Devices@Windows@@$00@2@WBA@E$AAAJPEAW4__abi_TrustLevel@@@Z 000000018003ab28 f i _nodert_generated.obj
 0001:00039b34       ?__abi_GetTrustLevel@?QObject@Platform@@?$Array@PE$AAVBluetoothLEAdvertisementBytePattern@Advertisement@Bluetooth@Devices@Windows@@$00@2@WBI@E$AAAJPEAW4__abi_TrustLevel@@@Z 000000018003ab34 f i _nodert_generated.obj
 0001:00039b40       ?__abi_GetTrustLevel@?QObject@Platform@@?$Array@PE$AAVBluetoothLEAdvertisementBytePattern@Advertisement@Bluetooth@Devices@Windows@@$00@2@WCA@E$AAAJPEAW4__abi_TrustLevel@@@Z 000000018003ab40 f i _nodert_generated.obj
 0001:00039b4c       ?__abi_GetTrustLevel@?QObject@Platform@@?$Array@PE$AAVBluetoothLEAdvertisementBytePattern@Advertisement@Bluetooth@Devices@Windows@@$00@2@WCI@E$AAAJPEAW4__abi_TrustLevel@@@Z 000000018003ab4c f i _nodert_generated.obj
 0001:00039b58       ?__abi_GetTrustLevel@?QObject@Platform@@?$Array@PE$AAVBluetoothLEAdvertisementBytePattern@Advertisement@Bluetooth@Devices@Windows@@$00@2@WDA@E$AAAJPEAW4__abi_TrustLevel@@@Z 000000018003ab58 f i _nodert_generated.obj
 0001:00039b64       ?__abi_GetTrustLevel@?QObject@Platform@@?$Array@PE$AAVBluetoothLEAdvertisementBytePattern@Advertisement@Bluetooth@Devices@Windows@@$00@2@WEA@E$AAAJPEAW4__abi_TrustLevel@@@Z 000000018003ab64 f i _nodert_generated.obj
 0001:00039b70       ?__abi_GetTrustLevel@?QObject@Platform@@?$Array@PE$AAVBluetoothLEAdvertisementBytePattern@Advertisement@Bluetooth@Devices@Windows@@$00@2@WHI@E$AAAJPEAW4__abi_TrustLevel@@@Z 000000018003ab70 f i _nodert_generated.obj
 0001:00039b80       ?__abi_GetTrustLevel@?QObject@Platform@@?$Array@PE$AAVBluetoothLEAdvertisementDataSection@Advertisement@Bluetooth@Devices@Windows@@$00@2@UE$AAAJPEAW4__abi_TrustLevel@@@Z 000000018003ab80 f i _nodert_generated.obj
 0001:00039b8c       ?__abi_GetTrustLevel@?QObject@Platform@@?$Array@PE$AAVBluetoothLEAdvertisementDataSection@Advertisement@Bluetooth@Devices@Windows@@$00@2@W7E$AAAJPEAW4__abi_TrustLevel@@@Z 000000018003ab8c f i _nodert_generated.obj
 0001:00039b98       ?__abi_GetTrustLevel@?QObject@Platform@@?$Array@PE$AAVBluetoothLEAdvertisementDataSection@Advertisement@Bluetooth@Devices@Windows@@$00@2@WBA@E$AAAJPEAW4__abi_TrustLevel@@@Z 000000018003ab98 f i _nodert_generated.obj
 0001:00039ba4       ?__abi_GetTrustLevel@?QObject@Platform@@?$Array@PE$AAVBluetoothLEAdvertisementDataSection@Advertisement@Bluetooth@Devices@Windows@@$00@2@WBI@E$AAAJPEAW4__abi_TrustLevel@@@Z 000000018003aba4 f i _nodert_generated.obj
 0001:00039bb0       ?__abi_GetTrustLevel@?QObject@Platform@@?$Array@PE$AAVBluetoothLEAdvertisementDataSection@Advertisement@Bluetooth@Devices@Windows@@$00@2@WCA@E$AAAJPEAW4__abi_TrustLevel@@@Z 000000018003abb0 f i _nodert_generated.obj
 0001:00039bbc       ?__abi_GetTrustLevel@?QObject@Platform@@?$Array@PE$AAVBluetoothLEAdvertisementDataSection@Advertisement@Bluetooth@Devices@Windows@@$00@2@WCI@E$AAAJPEAW4__abi_TrustLevel@@@Z 000000018003abbc f i _nodert_generated.obj
 0001:00039bc8       ?__abi_GetTrustLevel@?QObject@Platform@@?$Array@PE$AAVBluetoothLEAdvertisementDataSection@Advertisement@Bluetooth@Devices@Windows@@$00@2@WDA@E$AAAJPEAW4__abi_TrustLevel@@@Z 000000018003abc8 f i _nodert_generated.obj
 0001:00039bd4       ?__abi_GetTrustLevel@?QObject@Platform@@?$Array@PE$AAVBluetoothLEAdvertisementDataSection@Advertisement@Bluetooth@Devices@Windows@@$00@2@WEA@E$AAAJPEAW4__abi_TrustLevel@@@Z 000000018003abd4 f i _nodert_generated.obj
 0001:00039be0       ?__abi_GetTrustLevel@?QObject@Platform@@?$Array@PE$AAVBluetoothLEAdvertisementDataSection@Advertisement@Bluetooth@Devices@Windows@@$00@2@WHI@E$AAAJPEAW4__abi_TrustLevel@@@Z 000000018003abe0 f i _nodert_generated.obj
 0001:00039bf0       ?__abi_GetTrustLevel@?QObject@Platform@@?$Array@PE$AAVBluetoothLEManufacturerData@Advertisement@Bluetooth@Devices@Windows@@$00@2@UE$AAAJPEAW4__abi_TrustLevel@@@Z 000000018003abf0 f i _nodert_generated.obj
 0001:00039bfc       ?__abi_GetTrustLevel@?QObject@Platform@@?$Array@PE$AAVBluetoothLEManufacturerData@Advertisement@Bluetooth@Devices@Windows@@$00@2@W7E$AAAJPEAW4__abi_TrustLevel@@@Z 000000018003abfc f i _nodert_generated.obj
 0001:00039c08       ?__abi_GetTrustLevel@?QObject@Platform@@?$Array@PE$AAVBluetoothLEManufacturerData@Advertisement@Bluetooth@Devices@Windows@@$00@2@WBA@E$AAAJPEAW4__abi_TrustLevel@@@Z 000000018003ac08 f i _nodert_generated.obj
 0001:00039c14       ?__abi_GetTrustLevel@?QObject@Platform@@?$Array@PE$AAVBluetoothLEManufacturerData@Advertisement@Bluetooth@Devices@Windows@@$00@2@WBI@E$AAAJPEAW4__abi_TrustLevel@@@Z 000000018003ac14 f i _nodert_generated.obj
 0001:00039c20       ?__abi_GetTrustLevel@?QObject@Platform@@?$Array@PE$AAVBluetoothLEManufacturerData@Advertisement@Bluetooth@Devices@Windows@@$00@2@WCA@E$AAAJPEAW4__abi_TrustLevel@@@Z 000000018003ac20 f i _nodert_generated.obj
 0001:00039c2c       ?__abi_GetTrustLevel@?QObject@Platform@@?$Array@PE$AAVBluetoothLEManufacturerData@Advertisement@Bluetooth@Devices@Windows@@$00@2@WCI@E$AAAJPEAW4__abi_TrustLevel@@@Z 000000018003ac2c f i _nodert_generated.obj
 0001:00039c38       ?__abi_GetTrustLevel@?QObject@Platform@@?$Array@PE$AAVBluetoothLEManufacturerData@Advertisement@Bluetooth@Devices@Windows@@$00@2@WDA@E$AAAJPEAW4__abi_TrustLevel@@@Z 000000018003ac38 f i _nodert_generated.obj
 0001:00039c44       ?__abi_GetTrustLevel@?QObject@Platform@@?$Array@PE$AAVBluetoothLEManufacturerData@Advertisement@Bluetooth@Devices@Windows@@$00@2@WEA@E$AAAJPEAW4__abi_TrustLevel@@@Z 000000018003ac44 f i _nodert_generated.obj
 0001:00039c50       ?__abi_GetTrustLevel@?QObject@Platform@@?$Array@PE$AAVBluetoothLEManufacturerData@Advertisement@Bluetooth@Devices@Windows@@$00@2@WHI@E$AAAJPEAW4__abi_TrustLevel@@@Z 000000018003ac50 f i _nodert_generated.obj
 0001:00039c60       ?__abi_GetTrustLevel@?QObject@Platform@@?$Array@VGuid@Platform@@$00@2@UE$AAAJPEAW4__abi_TrustLevel@@@Z 000000018003ac60 f i _nodert_generated.obj
 0001:00039c6c       ?__abi_GetTrustLevel@?QObject@Platform@@?$Array@VGuid@Platform@@$00@2@W7E$AAAJPEAW4__abi_TrustLevel@@@Z 000000018003ac6c f i _nodert_generated.obj
 0001:00039c78       ?__abi_GetTrustLevel@?QObject@Platform@@?$Array@VGuid@Platform@@$00@2@WBA@E$AAAJPEAW4__abi_TrustLevel@@@Z 000000018003ac78 f i _nodert_generated.obj
 0001:00039c84       ?__abi_GetTrustLevel@?QObject@Platform@@?$Array@VGuid@Platform@@$00@2@WBI@E$AAAJPEAW4__abi_TrustLevel@@@Z 000000018003ac84 f i _nodert_generated.obj
 0001:00039c90       ?__abi_GetTrustLevel@?QObject@Platform@@?$Array@VGuid@Platform@@$00@2@WCA@E$AAAJPEAW4__abi_TrustLevel@@@Z 000000018003ac90 f i _nodert_generated.obj
 0001:00039c9c       ?__abi_GetTrustLevel@?QObject@Platform@@?$Array@VGuid@Platform@@$00@2@WCI@E$AAAJPEAW4__abi_TrustLevel@@@Z 000000018003ac9c f i _nodert_generated.obj
 0001:00039ca8       ?__abi_GetTrustLevel@?QObject@Platform@@?$Array@VGuid@Platform@@$00@2@WDA@E$AAAJPEAW4__abi_TrustLevel@@@Z 000000018003aca8 f i _nodert_generated.obj
 0001:00039cb4       ?__abi_GetTrustLevel@?QObject@Platform@@?$Array@VGuid@Platform@@$00@2@WEA@E$AAAJPEAW4__abi_TrustLevel@@@Z 000000018003acb4 f i _nodert_generated.obj
 0001:00039cc0       ?__abi_GetTrustLevel@?QObject@Platform@@?$Array@VGuid@Platform@@$00@2@WHI@E$AAAJPEAW4__abi_TrustLevel@@@Z 000000018003acc0 f i _nodert_generated.obj
 0001:00039cd0       ?__abi_GetTrustLevel@?QObject@Platform@@?$CustomBox@VGuid@Platform@@@Details@2@UE$AAAJPEAW4__abi_TrustLevel@@@Z 000000018003acd0 f i _nodert_generated.obj
 0001:00039cdc       ?__abi_GetTrustLevel@?QObject@Platform@@?$CustomBox@VGuid@Platform@@@Details@2@W7E$AAAJPEAW4__abi_TrustLevel@@@Z 000000018003acdc f i _nodert_generated.obj
 0001:00039ce8       ?__abi_GetTrustLevel@?QObject@Platform@@?$CustomBox@VGuid@Platform@@@Details@2@WBA@E$AAAJPEAW4__abi_TrustLevel@@@Z 000000018003ace8 f i _nodert_generated.obj
 0001:00039cf4       ?__abi_GetTrustLevel@?QObject@Platform@@?$CustomBox@VGuid@Platform@@@Details@2@WBI@E$AAAJPEAW4__abi_TrustLevel@@@Z 000000018003acf4 f i _nodert_generated.obj
 0001:00039d00       ?__abi_GetTrustLevel@?QObject@Platform@@?$CustomBox@VGuid@Platform@@@Details@2@WCI@E$AAAJPEAW4__abi_TrustLevel@@@Z 000000018003ad00 f i _nodert_generated.obj
 0001:00039d10       ?__abi_GetTrustLevel@?QObject@Platform@@?$CustomBox@W4BluetoothLEAdvertisementFlags@Advertisement@Bluetooth@Devices@Windows@@@Details@2@UE$AAAJPEAW4__abi_TrustLevel@@@Z 000000018003ad10 f i _nodert_generated.obj
 0001:00039d1c       ?__abi_GetTrustLevel@?QObject@Platform@@?$CustomBox@W4BluetoothLEAdvertisementFlags@Advertisement@Bluetooth@Devices@Windows@@@Details@2@W7E$AAAJPEAW4__abi_TrustLevel@@@Z 000000018003ad1c f i _nodert_generated.obj
 0001:00039d28       ?__abi_GetTrustLevel@?QObject@Platform@@?$CustomBox@W4BluetoothLEAdvertisementFlags@Advertisement@Bluetooth@Devices@Windows@@@Details@2@WBA@E$AAAJPEAW4__abi_TrustLevel@@@Z 000000018003ad28 f i _nodert_generated.obj
 0001:00039d34       ?__abi_GetTrustLevel@?QObject@Platform@@?$CustomBox@W4BluetoothLEAdvertisementFlags@Advertisement@Bluetooth@Devices@Windows@@@Details@2@WBI@E$AAAJPEAW4__abi_TrustLevel@@@Z 000000018003ad34 f i _nodert_generated.obj
 0001:00039d40       ?__abi_GetTrustLevel@?QObject@Platform@@?$CustomBox@W4BluetoothLEAdvertisementFlags@Advertisement@Bluetooth@Devices@Windows@@@Details@2@WCI@E$AAAJPEAW4__abi_TrustLevel@@@Z 000000018003ad40 f i _nodert_generated.obj
 0001:00039d50       ?__abi_GetTrustLevel@?QObject@Platform@@?$WriteOnlyArray@PE$AAVBluetoothLEAdvertisementBytePattern@Advertisement@Bluetooth@Devices@Windows@@$00@2@UE$AAAJPEAW4__abi_TrustLevel@@@Z 000000018003ad50 f i _nodert_generated.obj
 0001:00039d5c       ?__abi_GetTrustLevel@?QObject@Platform@@?$WriteOnlyArray@PE$AAVBluetoothLEAdvertisementBytePattern@Advertisement@Bluetooth@Devices@Windows@@$00@2@W7E$AAAJPEAW4__abi_TrustLevel@@@Z 000000018003ad5c f i _nodert_generated.obj
 0001:00039d68       ?__abi_GetTrustLevel@?QObject@Platform@@?$WriteOnlyArray@PE$AAVBluetoothLEAdvertisementBytePattern@Advertisement@Bluetooth@Devices@Windows@@$00@2@WBA@E$AAAJPEAW4__abi_TrustLevel@@@Z 000000018003ad68 f i _nodert_generated.obj
 0001:00039d74       ?__abi_GetTrustLevel@?QObject@Platform@@?$WriteOnlyArray@PE$AAVBluetoothLEAdvertisementBytePattern@Advertisement@Bluetooth@Devices@Windows@@$00@2@WCA@E$AAAJPEAW4__abi_TrustLevel@@@Z 000000018003ad74 f i _nodert_generated.obj
 0001:00039d80       ?__abi_GetTrustLevel@?QObject@Platform@@?$WriteOnlyArray@PE$AAVBluetoothLEAdvertisementDataSection@Advertisement@Bluetooth@Devices@Windows@@$00@2@UE$AAAJPEAW4__abi_TrustLevel@@@Z 000000018003ad80 f i _nodert_generated.obj
 0001:00039d8c       ?__abi_GetTrustLevel@?QObject@Platform@@?$WriteOnlyArray@PE$AAVBluetoothLEAdvertisementDataSection@Advertisement@Bluetooth@Devices@Windows@@$00@2@W7E$AAAJPEAW4__abi_TrustLevel@@@Z 000000018003ad8c f i _nodert_generated.obj
 0001:00039d98       ?__abi_GetTrustLevel@?QObject@Platform@@?$WriteOnlyArray@PE$AAVBluetoothLEAdvertisementDataSection@Advertisement@Bluetooth@Devices@Windows@@$00@2@WBA@E$AAAJPEAW4__abi_TrustLevel@@@Z 000000018003ad98 f i _nodert_generated.obj
 0001:00039da4       ?__abi_GetTrustLevel@?QObject@Platform@@?$WriteOnlyArray@PE$AAVBluetoothLEAdvertisementDataSection@Advertisement@Bluetooth@Devices@Windows@@$00@2@WCA@E$AAAJPEAW4__abi_TrustLevel@@@Z 000000018003ada4 f i _nodert_generated.obj
 0001:00039db0       ?__abi_GetTrustLevel@?QObject@Platform@@?$WriteOnlyArray@PE$AAVBluetoothLEManufacturerData@Advertisement@Bluetooth@Devices@Windows@@$00@2@UE$AAAJPEAW4__abi_TrustLevel@@@Z 000000018003adb0 f i _nodert_generated.obj
 0001:00039dbc       ?__abi_GetTrustLevel@?QObject@Platform@@?$WriteOnlyArray@PE$AAVBluetoothLEManufacturerData@Advertisement@Bluetooth@Devices@Windows@@$00@2@W7E$AAAJPEAW4__abi_TrustLevel@@@Z 000000018003adbc f i _nodert_generated.obj
 0001:00039dc8       ?__abi_GetTrustLevel@?QObject@Platform@@?$WriteOnlyArray@PE$AAVBluetoothLEManufacturerData@Advertisement@Bluetooth@Devices@Windows@@$00@2@WBA@E$AAAJPEAW4__abi_TrustLevel@@@Z 000000018003adc8 f i _nodert_generated.obj
 0001:00039dd4       ?__abi_GetTrustLevel@?QObject@Platform@@?$WriteOnlyArray@PE$AAVBluetoothLEManufacturerData@Advertisement@Bluetooth@Devices@Windows@@$00@2@WCA@E$AAAJPEAW4__abi_TrustLevel@@@Z 000000018003add4 f i _nodert_generated.obj
 0001:00039de0       ?__abi_GetTrustLevel@?QObject@Platform@@?$WriteOnlyArray@VGuid@Platform@@$00@2@UE$AAAJPEAW4__abi_TrustLevel@@@Z 000000018003ade0 f i _nodert_generated.obj
 0001:00039dec       ?__abi_GetTrustLevel@?QObject@Platform@@?$WriteOnlyArray@VGuid@Platform@@$00@2@W7E$AAAJPEAW4__abi_TrustLevel@@@Z 000000018003adec f i _nodert_generated.obj
 0001:00039df8       ?__abi_GetTrustLevel@?QObject@Platform@@?$WriteOnlyArray@VGuid@Platform@@$00@2@WBA@E$AAAJPEAW4__abi_TrustLevel@@@Z 000000018003adf8 f i _nodert_generated.obj
 0001:00039e04       ?__abi_GetTrustLevel@?QObject@Platform@@?$WriteOnlyArray@VGuid@Platform@@$00@2@WCA@E$AAAJPEAW4__abi_TrustLevel@@@Z 000000018003ae04 f i _nodert_generated.obj
 0001:00039e10       ?__abi_Platform_?$IBox@VGuid@Platform@@____abi_get_Value@?Q?$IBox@VGuid@Platform@@@Platform@@?$CustomBox@VGuid@Platform@@@Details@2@UE$AAAJPEAVGuid@2@@Z 000000018003ae10 f i _nodert_generated.obj
 0001:00039eb0       ?__abi_Platform_?$IBox@W4BluetoothLEAdvertisementFlags@Advertisement@Bluetooth@Devices@Windows@@____abi_get_Value@?Q?$IBox@W4BluetoothLEAdvertisementFlags@Advertisement@Bluetooth@Devices@Windows@@@Platform@@?$CustomBox@W4BluetoothLEAdvertisementFlags@Advertisement@Bluetooth@Devices@Windows@@@Details@2@UE$AAAJPEAW4BluetoothLEAdvertisementFlags@Advertisement@Bluetooth@Devices@Windows@@@Z 000000018003aeb0 f i _nodert_generated.obj
 0001:00039ef0       ?__abi_Platform_?$IBoxArray@PE$AAVBluetoothLEAdvertisementBytePattern@Advertisement@Bluetooth@Devices@Windows@@____abi_get_Value@?Q?$IBoxArray@PE$AAVBluetoothLEAdvertisementBytePattern@Advertisement@Bluetooth@Devices@Windows@@@Platform@@?$Array@PE$AAVBluetoothLEAdvertisementBytePattern@Advertisement@Bluetooth@Devices@Windows@@$00@2@UE$AAAJPEAIPEAPEAPE$AAVBluetoothLEAdvertisementBytePattern@Advertisement@Bluetooth@Devices@Windows@@@Z 000000018003aef0 f i _nodert_generated.obj
 0001:00039fa0       ?__abi_Platform_?$IBoxArray@PE$AAVBluetoothLEAdvertisementDataSection@Advertisement@Bluetooth@Devices@Windows@@____abi_get_Value@?Q?$IBoxArray@PE$AAVBluetoothLEAdvertisementDataSection@Advertisement@Bluetooth@Devices@Windows@@@Platform@@?$Array@PE$AAVBluetoothLEAdvertisementDataSection@Advertisement@Bluetooth@Devices@Windows@@$00@2@UE$AAAJPEAIPEAPEAPE$AAVBluetoothLEAdvertisementDataSection@Advertisement@Bluetooth@Devices@Windows@@@Z 000000018003afa0 f i _nodert_generated.obj
 0001:0003a050       ?__abi_Platform_?$IBoxArray@PE$AAVBluetoothLEManufacturerData@Advertisement@Bluetooth@Devices@Windows@@____abi_get_Value@?Q?$IBoxArray@PE$AAVBluetoothLEManufacturerData@Advertisement@Bluetooth@Devices@Windows@@@Platform@@?$Array@PE$AAVBluetoothLEManufacturerData@Advertisement@Bluetooth@Devices@Windows@@$00@2@UE$AAAJPEAIPEAPEAPE$AAVBluetoothLEManufacturerData@Advertisement@Bluetooth@Devices@Windows@@@Z 000000018003b050 f i _nodert_generated.obj
 0001:0003a100       ?__abi_Platform_?$IBoxArray@VGuid@Platform@@____abi_get_Value@?Q?$IBoxArray@VGuid@Platform@@@Platform@@?$Array@VGuid@Platform@@$00@2@UE$AAAJPEAIPEAPEAVGuid@2@@Z 000000018003b100 f i _nodert_generated.obj
 0001:0003a1b0       ?__abi_Platform_Details_IPrintable____abi_ToString@?QIPrintable@Details@Platform@@?$CustomBox@VGuid@Platform@@@23@UE$AAAJPEAPE$AAVString@3@@Z 000000018003b1b0 f i _nodert_generated.obj
 0001:0003a288       ?__abi_Platform_Details_IPrintable____abi_ToString@?QIPrintable@Details@Platform@@?$CustomBox@VGuid@Platform@@@23@WBA@E$AAAJPEAPE$AAVString@3@@Z 000000018003b288 f i _nodert_generated.obj
 0001:0003a2a0       ?__abi_Platform_Details_IPrintable____abi_ToString@?QIPrintable@Details@Platform@@?$CustomBox@W4BluetoothLEAdvertisementFlags@Advertisement@Bluetooth@Devices@Windows@@@23@UE$AAAJPEAPE$AAVString@3@@Z 000000018003b2a0 f i _nodert_generated.obj
 0001:0003a334       ?__abi_Platform_Details_IPrintable____abi_ToString@?QIPrintable@Details@Platform@@?$CustomBox@W4BluetoothLEAdvertisementFlags@Advertisement@Bluetooth@Devices@Windows@@@23@WBA@E$AAAJPEAPE$AAVString@3@@Z 000000018003b334 f i _nodert_generated.obj
 0001:0003a340       ?__abi_Platform_Details_IWeakReferenceSource____abi_GetWeakReference@?QIWeakReferenceSource@Details@Platform@@?$Array@PE$AAVBluetoothLEAdvertisementBytePattern@Advertisement@Bluetooth@Devices@Windows@@$00@3@UE$AAAJPEAPE$AAUIWeakReference@23@@Z 000000018003b340 f i _nodert_generated.obj
 0001:0003a3e0       ?__abi_Platform_Details_IWeakReferenceSource____abi_GetWeakReference@?QIWeakReferenceSource@Details@Platform@@?$Array@PE$AAVBluetoothLEAdvertisementBytePattern@Advertisement@Bluetooth@Devices@Windows@@$00@3@WDI@E$AAAJPEAPE$AAUIWeakReference@23@@Z 000000018003b3e0 f i _nodert_generated.obj
 0001:0003a3ec       ?__abi_Platform_Details_IWeakReferenceSource____abi_GetWeakReference@?QIWeakReferenceSource@Details@Platform@@?$Array@PE$AAVBluetoothLEAdvertisementBytePattern@Advertisement@Bluetooth@Devices@Windows@@$00@3@WHA@E$AAAJPEAPE$AAUIWeakReference@23@@Z 000000018003b3ec f i _nodert_generated.obj
 0001:0003a400       ?__abi_Platform_Details_IWeakReferenceSource____abi_GetWeakReference@?QIWeakReferenceSource@Details@Platform@@?$Array@PE$AAVBluetoothLEAdvertisementDataSection@Advertisement@Bluetooth@Devices@Windows@@$00@3@UE$AAAJPEAPE$AAUIWeakReference@23@@Z 000000018003b400 f i _nodert_generated.obj
 0001:0003a4a0       ?__abi_Platform_Details_IWeakReferenceSource____abi_GetWeakReference@?QIWeakReferenceSource@Details@Platform@@?$Array@PE$AAVBluetoothLEAdvertisementDataSection@Advertisement@Bluetooth@Devices@Windows@@$00@3@WDI@E$AAAJPEAPE$AAUIWeakReference@23@@Z 000000018003b4a0 f i _nodert_generated.obj
 0001:0003a4ac       ?__abi_Platform_Details_IWeakReferenceSource____abi_GetWeakReference@?QIWeakReferenceSource@Details@Platform@@?$Array@PE$AAVBluetoothLEAdvertisementDataSection@Advertisement@Bluetooth@Devices@Windows@@$00@3@WHA@E$AAAJPEAPE$AAUIWeakReference@23@@Z 000000018003b4ac f i _nodert_generated.obj
 0001:0003a4c0       ?__abi_Platform_Details_IWeakReferenceSource____abi_GetWeakReference@?QIWeakReferenceSource@Details@Platform@@?$Array@PE$AAVBluetoothLEManufacturerData@Advertisement@Bluetooth@Devices@Windows@@$00@3@UE$AAAJPEAPE$AAUIWeakReference@23@@Z 000000018003b4c0 f i _nodert_generated.obj
 0001:0003a560       ?__abi_Platform_Details_IWeakReferenceSource____abi_GetWeakReference@?QIWeakReferenceSource@Details@Platform@@?$Array@PE$AAVBluetoothLEManufacturerData@Advertisement@Bluetooth@Devices@Windows@@$00@3@WDI@E$AAAJPEAPE$AAUIWeakReference@23@@Z 000000018003b560 f i _nodert_generated.obj
 0001:0003a56c       ?__abi_Platform_Details_IWeakReferenceSource____abi_GetWeakReference@?QIWeakReferenceSource@Details@Platform@@?$Array@PE$AAVBluetoothLEManufacturerData@Advertisement@Bluetooth@Devices@Windows@@$00@3@WHA@E$AAAJPEAPE$AAUIWeakReference@23@@Z 000000018003b56c f i _nodert_generated.obj
 0001:0003a580       ?__abi_Platform_Details_IWeakReferenceSource____abi_GetWeakReference@?QIWeakReferenceSource@Details@Platform@@?$Array@VGuid@Platform@@$00@3@UE$AAAJPEAPE$AAUIWeakReference@23@@Z 000000018003b580 f i _nodert_generated.obj
 0001:0003a620       ?__abi_Platform_Details_IWeakReferenceSource____abi_GetWeakReference@?QIWeakReferenceSource@Details@Platform@@?$Array@VGuid@Platform@@$00@3@WDI@E$AAAJPEAPE$AAUIWeakReference@23@@Z 000000018003b620 f i _nodert_generated.obj
 0001:0003a62c       ?__abi_Platform_Details_IWeakReferenceSource____abi_GetWeakReference@?QIWeakReferenceSource@Details@Platform@@?$Array@VGuid@Platform@@$00@3@WHA@E$AAAJPEAPE$AAUIWeakReference@23@@Z 000000018003b62c f i _nodert_generated.obj
 0001:0003a640       ?__abi_Platform_Details_IWeakReferenceSource____abi_GetWeakReference@?QIWeakReferenceSource@Details@Platform@@?$CustomBox@VGuid@Platform@@@23@UE$AAAJPEAPE$AAUIWeakReference@23@@Z 000000018003b640 f i _nodert_generated.obj
 0001:0003a6c4       ?__abi_Platform_Details_IWeakReferenceSource____abi_GetWeakReference@?QIWeakReferenceSource@Details@Platform@@?$CustomBox@VGuid@Platform@@@23@WCA@E$AAAJPEAPE$AAUIWeakReference@23@@Z 000000018003b6c4 f i _nodert_generated.obj
 0001:0003a6d0       ?__abi_Platform_Details_IWeakReferenceSource____abi_GetWeakReference@?QIWeakReferenceSource@Details@Platform@@?$CustomBox@W4BluetoothLEAdvertisementFlags@Advertisement@Bluetooth@Devices@Windows@@@23@UE$AAAJPEAPE$AAUIWeakReference@23@@Z 000000018003b6d0 f i _nodert_generated.obj
 0001:0003a754       ?__abi_Platform_Details_IWeakReferenceSource____abi_GetWeakReference@?QIWeakReferenceSource@Details@Platform@@?$CustomBox@W4BluetoothLEAdvertisementFlags@Advertisement@Bluetooth@Devices@Windows@@@23@WCA@E$AAAJPEAPE$AAUIWeakReference@23@@Z 000000018003b754 f i _nodert_generated.obj
 0001:0003a760       ?__abi_Platform_Details_IWeakReferenceSource____abi_GetWeakReference@?QIWeakReferenceSource@Details@Platform@@?$WriteOnlyArray@PE$AAVBluetoothLEAdvertisementBytePattern@Advertisement@Bluetooth@Devices@Windows@@$00@3@UE$AAAJPEAPE$AAUIWeakReference@23@@Z 000000018003b760 f i _nodert_generated.obj
 0001:0003a7bc       ?__abi_Platform_Details_IWeakReferenceSource____abi_GetWeakReference@?QIWeakReferenceSource@Details@Platform@@?$WriteOnlyArray@PE$AAVBluetoothLEAdvertisementBytePattern@Advertisement@Bluetooth@Devices@Windows@@$00@3@WBI@E$AAAJPEAPE$AAUIWeakReference@23@@Z 000000018003b7bc f i _nodert_generated.obj
 0001:0003a7d0       ?__abi_Platform_Details_IWeakReferenceSource____abi_GetWeakReference@?QIWeakReferenceSource@Details@Platform@@?$WriteOnlyArray@PE$AAVBluetoothLEAdvertisementDataSection@Advertisement@Bluetooth@Devices@Windows@@$00@3@UE$AAAJPEAPE$AAUIWeakReference@23@@Z 000000018003b7d0 f i _nodert_generated.obj
 0001:0003a82c       ?__abi_Platform_Details_IWeakReferenceSource____abi_GetWeakReference@?QIWeakReferenceSource@Details@Platform@@?$WriteOnlyArray@PE$AAVBluetoothLEAdvertisementDataSection@Advertisement@Bluetooth@Devices@Windows@@$00@3@WBI@E$AAAJPEAPE$AAUIWeakReference@23@@Z 000000018003b82c f i _nodert_generated.obj
 0001:0003a840       ?__abi_Platform_Details_IWeakReferenceSource____abi_GetWeakReference@?QIWeakReferenceSource@Details@Platform@@?$WriteOnlyArray@PE$AAVBluetoothLEManufacturerData@Advertisement@Bluetooth@Devices@Windows@@$00@3@UE$AAAJPEAPE$AAUIWeakReference@23@@Z 000000018003b840 f i _nodert_generated.obj
 0001:0003a89c       ?__abi_Platform_Details_IWeakReferenceSource____abi_GetWeakReference@?QIWeakReferenceSource@Details@Platform@@?$WriteOnlyArray@PE$AAVBluetoothLEManufacturerData@Advertisement@Bluetooth@Devices@Windows@@$00@3@WBI@E$AAAJPEAPE$AAUIWeakReference@23@@Z 000000018003b89c f i _nodert_generated.obj
 0001:0003a8b0       ?__abi_Platform_Details_IWeakReferenceSource____abi_GetWeakReference@?QIWeakReferenceSource@Details@Platform@@?$WriteOnlyArray@VGuid@Platform@@$00@3@UE$AAAJPEAPE$AAUIWeakReference@23@@Z 000000018003b8b0 f i _nodert_generated.obj
 0001:0003a90c       ?__abi_Platform_Details_IWeakReferenceSource____abi_GetWeakReference@?QIWeakReferenceSource@Details@Platform@@?$WriteOnlyArray@VGuid@Platform@@$00@3@WBI@E$AAAJPEAPE$AAUIWeakReference@23@@Z 000000018003b90c f i _nodert_generated.obj
 0001:0003a920       ?__abi_Platform_IDisposable____abi_<Dispose>@?QIDisposable@Platform@@?$Array@PE$AAVBluetoothLEAdvertisementBytePattern@Advertisement@Bluetooth@Devices@Windows@@$00@2@UE$AAAJXZ 000000018003b920 f i _nodert_generated.obj
 0001:0003a970       ?__abi_Platform_IDisposable____abi_<Dispose>@?QIDisposable@Platform@@?$Array@PE$AAVBluetoothLEAdvertisementBytePattern@Advertisement@Bluetooth@Devices@Windows@@$00@2@WBI@E$AAAJXZ 000000018003b970 f i _nodert_generated.obj
 0001:0003a97c       ?__abi_Platform_IDisposable____abi_<Dispose>@?QIDisposable@Platform@@?$Array@PE$AAVBluetoothLEAdvertisementBytePattern@Advertisement@Bluetooth@Devices@Windows@@$00@2@WCI@E$AAAJXZ 000000018003b97c f i _nodert_generated.obj
 0001:0003a990       ?__abi_Platform_IDisposable____abi_<Dispose>@?QIDisposable@Platform@@?$Array@PE$AAVBluetoothLEAdvertisementDataSection@Advertisement@Bluetooth@Devices@Windows@@$00@2@UE$AAAJXZ 000000018003b990 f i _nodert_generated.obj
 0001:0003a9e0       ?__abi_Platform_IDisposable____abi_<Dispose>@?QIDisposable@Platform@@?$Array@PE$AAVBluetoothLEAdvertisementDataSection@Advertisement@Bluetooth@Devices@Windows@@$00@2@WBI@E$AAAJXZ 000000018003b9e0 f i _nodert_generated.obj
 0001:0003a9ec       ?__abi_Platform_IDisposable____abi_<Dispose>@?QIDisposable@Platform@@?$Array@PE$AAVBluetoothLEAdvertisementDataSection@Advertisement@Bluetooth@Devices@Windows@@$00@2@WCI@E$AAAJXZ 000000018003b9ec f i _nodert_generated.obj
 0001:0003aa00       ?__abi_Platform_IDisposable____abi_<Dispose>@?QIDisposable@Platform@@?$Array@PE$AAVBluetoothLEManufacturerData@Advertisement@Bluetooth@Devices@Windows@@$00@2@UE$AAAJXZ 000000018003ba00 f i _nodert_generated.obj
 0001:0003aa50       ?__abi_Platform_IDisposable____abi_<Dispose>@?QIDisposable@Platform@@?$Array@PE$AAVBluetoothLEManufacturerData@Advertisement@Bluetooth@Devices@Windows@@$00@2@WBI@E$AAAJXZ 000000018003ba50 f i _nodert_generated.obj
 0001:0003aa5c       ?__abi_Platform_IDisposable____abi_<Dispose>@?QIDisposable@Platform@@?$Array@PE$AAVBluetoothLEManufacturerData@Advertisement@Bluetooth@Devices@Windows@@$00@2@WCI@E$AAAJXZ 000000018003ba5c f i _nodert_generated.obj
 0001:0003aa70       ?__abi_Platform_IDisposable____abi_<Dispose>@?QIDisposable@Platform@@?$Array@VGuid@Platform@@$00@2@UE$AAAJXZ 000000018003ba70 f i _nodert_generated.obj
 0001:0003aaf0       ?__abi_Platform_IDisposable____abi_<Dispose>@?QIDisposable@Platform@@?$Array@VGuid@Platform@@$00@2@WBI@E$AAAJXZ 000000018003baf0 f i _nodert_generated.obj
 0001:0003aafc       ?__abi_Platform_IDisposable____abi_<Dispose>@?QIDisposable@Platform@@?$Array@VGuid@Platform@@$00@2@WCI@E$AAAJXZ 000000018003bafc f i _nodert_generated.obj
 0001:0003ab10       ?__abi_Platform_IDisposable____abi_<Dispose>@?QIDisposable@Platform@@?$WriteOnlyArray@PE$AAVBluetoothLEAdvertisementBytePattern@Advertisement@Bluetooth@Devices@Windows@@$00@2@UE$AAAJXZ 000000018003bb10 f i _nodert_generated.obj
 0001:0003ab40       ?__abi_Platform_IDisposable____abi_<Dispose>@?QIDisposable@Platform@@?$WriteOnlyArray@PE$AAVBluetoothLEAdvertisementBytePattern@Advertisement@Bluetooth@Devices@Windows@@$00@2@W7E$AAAJXZ 000000018003bb40 f i _nodert_generated.obj
 0001:0003ab50       ?__abi_Platform_IDisposable____abi_<Dispose>@?QIDisposable@Platform@@?$WriteOnlyArray@PE$AAVBluetoothLEAdvertisementDataSection@Advertisement@Bluetooth@Devices@Windows@@$00@2@UE$AAAJXZ 000000018003bb50 f i _nodert_generated.obj
 0001:0003ab80       ?__abi_Platform_IDisposable____abi_<Dispose>@?QIDisposable@Platform@@?$WriteOnlyArray@PE$AAVBluetoothLEAdvertisementDataSection@Advertisement@Bluetooth@Devices@Windows@@$00@2@W7E$AAAJXZ 000000018003bb80 f i _nodert_generated.obj
 0001:0003ab90       ?__abi_Platform_IDisposable____abi_<Dispose>@?QIDisposable@Platform@@?$WriteOnlyArray@PE$AAVBluetoothLEManufacturerData@Advertisement@Bluetooth@Devices@Windows@@$00@2@UE$AAAJXZ 000000018003bb90 f i _nodert_generated.obj
 0001:0003abc0       ?__abi_Platform_IDisposable____abi_<Dispose>@?QIDisposable@Platform@@?$WriteOnlyArray@PE$AAVBluetoothLEManufacturerData@Advertisement@Bluetooth@Devices@Windows@@$00@2@W7E$AAAJXZ 000000018003bbc0 f i _nodert_generated.obj
 0001:0003abd0       ?__abi_Platform_IDisposable____abi_<Dispose>@?QIDisposable@Platform@@?$WriteOnlyArray@VGuid@Platform@@$00@2@UE$AAAJXZ 000000018003bbd0 f i _nodert_generated.obj
 0001:0003ac00       ?__abi_Platform_IDisposable____abi_<Dispose>@?QIDisposable@Platform@@?$WriteOnlyArray@VGuid@Platform@@$00@2@W7E$AAAJXZ 000000018003bc00 f i _nodert_generated.obj
 0001:0003ac10       ?__abi_QueryInterface@?$TypedEventHandler@PE$AAVBluetoothLEAdvertisementPublisher@Advertisement@Bluetooth@Devices@Windows@@PE$AAVBluetoothLEAdvertisementPublisherStatusChangedEventArgs@2345@@Foundation@Windows@@UE$AAAJAEAVGuid@Platform@@PEAPEAX@Z 000000018003bc10 f i _nodert_generated.obj
 0001:0003ad88       ?__abi_QueryInterface@?$TypedEventHandler@PE$AAVBluetoothLEAdvertisementPublisher@Advertisement@Bluetooth@Devices@Windows@@PE$AAVBluetoothLEAdvertisementPublisherStatusChangedEventArgs@2345@@Foundation@Windows@@W7E$AAAJAEAVGuid@Platform@@PEAPEAX@Z 000000018003bd88 f i _nodert_generated.obj
 0001:0003ad94       ?__abi_QueryInterface@?$TypedEventHandler@PE$AAVBluetoothLEAdvertisementPublisher@Advertisement@Bluetooth@Devices@Windows@@PE$AAVBluetoothLEAdvertisementPublisherStatusChangedEventArgs@2345@@Foundation@Windows@@WBA@E$AAAJAEAVGuid@Platform@@PEAPEAX@Z 000000018003bd94 f i _nodert_generated.obj
 0001:0003ada0       ?__abi_QueryInterface@?$TypedEventHandler@PE$AAVBluetoothLEAdvertisementWatcher@Advertisement@Bluetooth@Devices@Windows@@PE$AAVBluetoothLEAdvertisementReceivedEventArgs@2345@@Foundation@Windows@@UE$AAAJAEAVGuid@Platform@@PEAPEAX@Z 000000018003bda0 f i _nodert_generated.obj
 0001:0003af18       ?__abi_QueryInterface@?$TypedEventHandler@PE$AAVBluetoothLEAdvertisementWatcher@Advertisement@Bluetooth@Devices@Windows@@PE$AAVBluetoothLEAdvertisementReceivedEventArgs@2345@@Foundation@Windows@@W7E$AAAJAEAVGuid@Platform@@PEAPEAX@Z 000000018003bf18 f i _nodert_generated.obj
 0001:0003af24       ?__abi_QueryInterface@?$TypedEventHandler@PE$AAVBluetoothLEAdvertisementWatcher@Advertisement@Bluetooth@Devices@Windows@@PE$AAVBluetoothLEAdvertisementReceivedEventArgs@2345@@Foundation@Windows@@WBA@E$AAAJAEAVGuid@Platform@@PEAPEAX@Z 000000018003bf24 f i _nodert_generated.obj
 0001:0003af30       ?__abi_QueryInterface@?$TypedEventHandler@PE$AAVBluetoothLEAdvertisementWatcher@Advertisement@Bluetooth@Devices@Windows@@PE$AAVBluetoothLEAdvertisementWatcherStoppedEventArgs@2345@@Foundation@Windows@@UE$AAAJAEAVGuid@Platform@@PEAPEAX@Z 000000018003bf30 f i _nodert_generated.obj
 0001:0003b0a8       ?__abi_QueryInterface@?$TypedEventHandler@PE$AAVBluetoothLEAdvertisementWatcher@Advertisement@Bluetooth@Devices@Windows@@PE$AAVBluetoothLEAdvertisementWatcherStoppedEventArgs@2345@@Foundation@Windows@@W7E$AAAJAEAVGuid@Platform@@PEAPEAX@Z 000000018003c0a8 f i _nodert_generated.obj
 0001:0003b0b4       ?__abi_QueryInterface@?$TypedEventHandler@PE$AAVBluetoothLEAdvertisementWatcher@Advertisement@Bluetooth@Devices@Windows@@PE$AAVBluetoothLEAdvertisementWatcherStoppedEventArgs@2345@@Foundation@Windows@@WBA@E$AAAJAEAVGuid@Platform@@PEAPEAX@Z 000000018003c0b4 f i _nodert_generated.obj
 0001:0003b0c0       ?__abi_QueryInterface@?QObject@Platform@@?$Array@PE$AAVBluetoothLEAdvertisementBytePattern@Advertisement@Bluetooth@Devices@Windows@@$00@2@UE$AAAJAEAVGuid@2@PEAPEAX@Z 000000018003c0c0 f i _nodert_generated.obj
 0001:0003b3ac       ?__abi_QueryInterface@?QObject@Platform@@?$Array@PE$AAVBluetoothLEAdvertisementBytePattern@Advertisement@Bluetooth@Devices@Windows@@$00@2@W7E$AAAJAEAVGuid@2@PEAPEAX@Z 000000018003c3ac f i _nodert_generated.obj
 0001:0003b3b8       ?__abi_QueryInterface@?QObject@Platform@@?$Array@PE$AAVBluetoothLEAdvertisementBytePattern@Advertisement@Bluetooth@Devices@Windows@@$00@2@WBA@E$AAAJAEAVGuid@2@PEAPEAX@Z 000000018003c3b8 f i _nodert_generated.obj
 0001:0003b3c4       ?__abi_QueryInterface@?QObject@Platform@@?$Array@PE$AAVBluetoothLEAdvertisementBytePattern@Advertisement@Bluetooth@Devices@Windows@@$00@2@WBI@E$AAAJAEAVGuid@2@PEAPEAX@Z 000000018003c3c4 f i _nodert_generated.obj
 0001:0003b3d0       ?__abi_QueryInterface@?QObject@Platform@@?$Array@PE$AAVBluetoothLEAdvertisementBytePattern@Advertisement@Bluetooth@Devices@Windows@@$00@2@WCA@E$AAAJAEAVGuid@2@PEAPEAX@Z 000000018003c3d0 f i _nodert_generated.obj
 0001:0003b3dc       ?__abi_QueryInterface@?QObject@Platform@@?$Array@PE$AAVBluetoothLEAdvertisementBytePattern@Advertisement@Bluetooth@Devices@Windows@@$00@2@WCI@E$AAAJAEAVGuid@2@PEAPEAX@Z 000000018003c3dc f i _nodert_generated.obj
 0001:0003b3e8       ?__abi_QueryInterface@?QObject@Platform@@?$Array@PE$AAVBluetoothLEAdvertisementBytePattern@Advertisement@Bluetooth@Devices@Windows@@$00@2@WDA@E$AAAJAEAVGuid@2@PEAPEAX@Z 000000018003c3e8 f i _nodert_generated.obj
 0001:0003b3f4       ?__abi_QueryInterface@?QObject@Platform@@?$Array@PE$AAVBluetoothLEAdvertisementBytePattern@Advertisement@Bluetooth@Devices@Windows@@$00@2@WDI@E$AAAJAEAVGuid@2@PEAPEAX@Z 000000018003c3f4 f i _nodert_generated.obj
 0001:0003b400       ?__abi_QueryInterface@?QObject@Platform@@?$Array@PE$AAVBluetoothLEAdvertisementBytePattern@Advertisement@Bluetooth@Devices@Windows@@$00@2@WEA@E$AAAJAEAVGuid@2@PEAPEAX@Z 000000018003c400 f i _nodert_generated.obj
 0001:0003b40c       ?__abi_QueryInterface@?QObject@Platform@@?$Array@PE$AAVBluetoothLEAdvertisementBytePattern@Advertisement@Bluetooth@Devices@Windows@@$00@2@WHA@E$AAAJAEAVGuid@2@PEAPEAX@Z 000000018003c40c f i _nodert_generated.obj
 0001:0003b418       ?__abi_QueryInterface@?QObject@Platform@@?$Array@PE$AAVBluetoothLEAdvertisementBytePattern@Advertisement@Bluetooth@Devices@Windows@@$00@2@WHI@E$AAAJAEAVGuid@2@PEAPEAX@Z 000000018003c418 f i _nodert_generated.obj
 0001:0003b430       ?__abi_QueryInterface@?QObject@Platform@@?$Array@PE$AAVBluetoothLEAdvertisementDataSection@Advertisement@Bluetooth@Devices@Windows@@$00@2@UE$AAAJAEAVGuid@2@PEAPEAX@Z 000000018003c430 f i _nodert_generated.obj
 0001:0003b71c       ?__abi_QueryInterface@?QObject@Platform@@?$Array@PE$AAVBluetoothLEAdvertisementDataSection@Advertisement@Bluetooth@Devices@Windows@@$00@2@W7E$AAAJAEAVGuid@2@PEAPEAX@Z 000000018003c71c f i _nodert_generated.obj
 0001:0003b728       ?__abi_QueryInterface@?QObject@Platform@@?$Array@PE$AAVBluetoothLEAdvertisementDataSection@Advertisement@Bluetooth@Devices@Windows@@$00@2@WBA@E$AAAJAEAVGuid@2@PEAPEAX@Z 000000018003c728 f i _nodert_generated.obj
 0001:0003b734       ?__abi_QueryInterface@?QObject@Platform@@?$Array@PE$AAVBluetoothLEAdvertisementDataSection@Advertisement@Bluetooth@Devices@Windows@@$00@2@WBI@E$AAAJAEAVGuid@2@PEAPEAX@Z 000000018003c734 f i _nodert_generated.obj
 0001:0003b740       ?__abi_QueryInterface@?QObject@Platform@@?$Array@PE$AAVBluetoothLEAdvertisementDataSection@Advertisement@Bluetooth@Devices@Windows@@$00@2@WCA@E$AAAJAEAVGuid@2@PEAPEAX@Z 000000018003c740 f i _nodert_generated.obj
 0001:0003b74c       ?__abi_QueryInterface@?QObject@Platform@@?$Array@PE$AAVBluetoothLEAdvertisementDataSection@Advertisement@Bluetooth@Devices@Windows@@$00@2@WCI@E$AAAJAEAVGuid@2@PEAPEAX@Z 000000018003c74c f i _nodert_generated.obj
 0001:0003b758       ?__abi_QueryInterface@?QObject@Platform@@?$Array@PE$AAVBluetoothLEAdvertisementDataSection@Advertisement@Bluetooth@Devices@Windows@@$00@2@WDA@E$AAAJAEAVGuid@2@PEAPEAX@Z 000000018003c758 f i _nodert_generated.obj
 0001:0003b764       ?__abi_QueryInterface@?QObject@Platform@@?$Array@PE$AAVBluetoothLEAdvertisementDataSection@Advertisement@Bluetooth@Devices@Windows@@$00@2@WDI@E$AAAJAEAVGuid@2@PEAPEAX@Z 000000018003c764 f i _nodert_generated.obj
 0001:0003b770       ?__abi_QueryInterface@?QObject@Platform@@?$Array@PE$AAVBluetoothLEAdvertisementDataSection@Advertisement@Bluetooth@Devices@Windows@@$00@2@WEA@E$AAAJAEAVGuid@2@PEAPEAX@Z 000000018003c770 f i _nodert_generated.obj
 0001:0003b77c       ?__abi_QueryInterface@?QObject@Platform@@?$Array@PE$AAVBluetoothLEAdvertisementDataSection@Advertisement@Bluetooth@Devices@Windows@@$00@2@WHA@E$AAAJAEAVGuid@2@PEAPEAX@Z 000000018003c77c f i _nodert_generated.obj
 0001:0003b788       ?__abi_QueryInterface@?QObject@Platform@@?$Array@PE$AAVBluetoothLEAdvertisementDataSection@Advertisement@Bluetooth@Devices@Windows@@$00@2@WHI@E$AAAJAEAVGuid@2@PEAPEAX@Z 000000018003c788 f i _nodert_generated.obj
 0001:0003b7a0       ?__abi_QueryInterface@?QObject@Platform@@?$Array@PE$AAVBluetoothLEManufacturerData@Advertisement@Bluetooth@Devices@Windows@@$00@2@UE$AAAJAEAVGuid@2@PEAPEAX@Z 000000018003c7a0 f i _nodert_generated.obj
 0001:0003ba8c       ?__abi_QueryInterface@?QObject@Platform@@?$Array@PE$AAVBluetoothLEManufacturerData@Advertisement@Bluetooth@Devices@Windows@@$00@2@W7E$AAAJAEAVGuid@2@PEAPEAX@Z 000000018003ca8c f i _nodert_generated.obj
 0001:0003ba98       ?__abi_QueryInterface@?QObject@Platform@@?$Array@PE$AAVBluetoothLEManufacturerData@Advertisement@Bluetooth@Devices@Windows@@$00@2@WBA@E$AAAJAEAVGuid@2@PEAPEAX@Z 000000018003ca98 f i _nodert_generated.obj
 0001:0003baa4       ?__abi_QueryInterface@?QObject@Platform@@?$Array@PE$AAVBluetoothLEManufacturerData@Advertisement@Bluetooth@Devices@Windows@@$00@2@WBI@E$AAAJAEAVGuid@2@PEAPEAX@Z 000000018003caa4 f i _nodert_generated.obj
 0001:0003bab0       ?__abi_QueryInterface@?QObject@Platform@@?$Array@PE$AAVBluetoothLEManufacturerData@Advertisement@Bluetooth@Devices@Windows@@$00@2@WCA@E$AAAJAEAVGuid@2@PEAPEAX@Z 000000018003cab0 f i _nodert_generated.obj
 0001:0003babc       ?__abi_QueryInterface@?QObject@Platform@@?$Array@PE$AAVBluetoothLEManufacturerData@Advertisement@Bluetooth@Devices@Windows@@$00@2@WCI@E$AAAJAEAVGuid@2@PEAPEAX@Z 000000018003cabc f i _nodert_generated.obj
 0001:0003bac8       ?__abi_QueryInterface@?QObject@Platform@@?$Array@PE$AAVBluetoothLEManufacturerData@Advertisement@Bluetooth@Devices@Windows@@$00@2@WDA@E$AAAJAEAVGuid@2@PEAPEAX@Z 000000018003cac8 f i _nodert_generated.obj
 0001:0003bad4       ?__abi_QueryInterface@?QObject@Platform@@?$Array@PE$AAVBluetoothLEManufacturerData@Advertisement@Bluetooth@Devices@Windows@@$00@2@WDI@E$AAAJAEAVGuid@2@PEAPEAX@Z 000000018003cad4 f i _nodert_generated.obj
 0001:0003bae0       ?__abi_QueryInterface@?QObject@Platform@@?$Array@PE$AAVBluetoothLEManufacturerData@Advertisement@Bluetooth@Devices@Windows@@$00@2@WEA@E$AAAJAEAVGuid@2@PEAPEAX@Z 000000018003cae0 f i _nodert_generated.obj
 0001:0003baec       ?__abi_QueryInterface@?QObject@Platform@@?$Array@PE$AAVBluetoothLEManufacturerData@Advertisement@Bluetooth@Devices@Windows@@$00@2@WHA@E$AAAJAEAVGuid@2@PEAPEAX@Z 000000018003caec f i _nodert_generated.obj
 0001:0003baf8       ?__abi_QueryInterface@?QObject@Platform@@?$Array@PE$AAVBluetoothLEManufacturerData@Advertisement@Bluetooth@Devices@Windows@@$00@2@WHI@E$AAAJAEAVGuid@2@PEAPEAX@Z 000000018003caf8 f i _nodert_generated.obj
 0001:0003bb10       ?__abi_QueryInterface@?QObject@Platform@@?$Array@VGuid@Platform@@$00@2@UE$AAAJAEAVGuid@2@PEAPEAX@Z 000000018003cb10 f i _nodert_generated.obj
 0001:0003bdfc       ?__abi_QueryInterface@?QObject@Platform@@?$Array@VGuid@Platform@@$00@2@W7E$AAAJAEAVGuid@2@PEAPEAX@Z 000000018003cdfc f i _nodert_generated.obj
 0001:0003be08       ?__abi_QueryInterface@?QObject@Platform@@?$Array@VGuid@Platform@@$00@2@WBA@E$AAAJAEAVGuid@2@PEAPEAX@Z 000000018003ce08 f i _nodert_generated.obj
 0001:0003be14       ?__abi_QueryInterface@?QObject@Platform@@?$Array@VGuid@Platform@@$00@2@WBI@E$AAAJAEAVGuid@2@PEAPEAX@Z 000000018003ce14 f i _nodert_generated.obj
 0001:0003be20       ?__abi_QueryInterface@?QObject@Platform@@?$Array@VGuid@Platform@@$00@2@WCA@E$AAAJAEAVGuid@2@PEAPEAX@Z 000000018003ce20 f i _nodert_generated.obj
 0001:0003be2c       ?__abi_QueryInterface@?QObject@Platform@@?$Array@VGuid@Platform@@$00@2@WCI@E$AAAJAEAVGuid@2@PEAPEAX@Z 000000018003ce2c f i _nodert_generated.obj
 0001:0003be38       ?__abi_QueryInterface@?QObject@Platform@@?$Array@VGuid@Platform@@$00@2@WDA@E$AAAJAEAVGuid@2@PEAPEAX@Z 000000018003ce38 f i _nodert_generated.obj
 0001:0003be44       ?__abi_QueryInterface@?QObject@Platform@@?$Array@VGuid@Platform@@$00@2@WDI@E$AAAJAEAVGuid@2@PEAPEAX@Z 000000018003ce44 f i _nodert_generated.obj
 0001:0003be50       ?__abi_QueryInterface@?QObject@Platform@@?$Array@VGuid@Platform@@$00@2@WEA@E$AAAJAEAVGuid@2@PEAPEAX@Z 000000018003ce50 f i _nodert_generated.obj
 0001:0003be5c       ?__abi_QueryInterface@?QObject@Platform@@?$Array@VGuid@Platform@@$00@2@WHA@E$AAAJAEAVGuid@2@PEAPEAX@Z 000000018003ce5c f i _nodert_generated.obj
 0001:0003be68       ?__abi_QueryInterface@?QObject@Platform@@?$Array@VGuid@Platform@@$00@2@WHI@E$AAAJAEAVGuid@2@PEAPEAX@Z 000000018003ce68 f i _nodert_generated.obj
 0001:0003be80       ?__abi_QueryInterface@?QObject@Platform@@?$CustomBox@VGuid@Platform@@@Details@2@UE$AAAJAEAVGuid@2@PEAPEAX@Z 000000018003ce80 f i _nodert_generated.obj
 0001:0003c0e4       ?__abi_QueryInterface@?QObject@Platform@@?$CustomBox@VGuid@Platform@@@Details@2@W7E$AAAJAEAVGuid@2@PEAPEAX@Z 000000018003d0e4 f i _nodert_generated.obj
 0001:0003c0f0       ?__abi_QueryInterface@?QObject@Platform@@?$CustomBox@VGuid@Platform@@@Details@2@WBA@E$AAAJAEAVGuid@2@PEAPEAX@Z 000000018003d0f0 f i _nodert_generated.obj
 0001:0003c0fc       ?__abi_QueryInterface@?QObject@Platform@@?$CustomBox@VGuid@Platform@@@Details@2@WBI@E$AAAJAEAVGuid@2@PEAPEAX@Z 000000018003d0fc f i _nodert_generated.obj
 0001:0003c108       ?__abi_QueryInterface@?QObject@Platform@@?$CustomBox@VGuid@Platform@@@Details@2@WCA@E$AAAJAEAVGuid@2@PEAPEAX@Z 000000018003d108 f i _nodert_generated.obj
 0001:0003c114       ?__abi_QueryInterface@?QObject@Platform@@?$CustomBox@VGuid@Platform@@@Details@2@WCI@E$AAAJAEAVGuid@2@PEAPEAX@Z 000000018003d114 f i _nodert_generated.obj
 0001:0003c120       ?__abi_QueryInterface@?QObject@Platform@@?$CustomBox@W4BluetoothLEAdvertisementFlags@Advertisement@Bluetooth@Devices@Windows@@@Details@2@UE$AAAJAEAVGuid@2@PEAPEAX@Z 000000018003d120 f i _nodert_generated.obj
 0001:0003c384       ?__abi_QueryInterface@?QObject@Platform@@?$CustomBox@W4BluetoothLEAdvertisementFlags@Advertisement@Bluetooth@Devices@Windows@@@Details@2@W7E$AAAJAEAVGuid@2@PEAPEAX@Z 000000018003d384 f i _nodert_generated.obj
 0001:0003c390       ?__abi_QueryInterface@?QObject@Platform@@?$CustomBox@W4BluetoothLEAdvertisementFlags@Advertisement@Bluetooth@Devices@Windows@@@Details@2@WBA@E$AAAJAEAVGuid@2@PEAPEAX@Z 000000018003d390 f i _nodert_generated.obj
 0001:0003c39c       ?__abi_QueryInterface@?QObject@Platform@@?$CustomBox@W4BluetoothLEAdvertisementFlags@Advertisement@Bluetooth@Devices@Windows@@@Details@2@WBI@E$AAAJAEAVGuid@2@PEAPEAX@Z 000000018003d39c f i _nodert_generated.obj
 0001:0003c3a8       ?__abi_QueryInterface@?QObject@Platform@@?$CustomBox@W4BluetoothLEAdvertisementFlags@Advertisement@Bluetooth@Devices@Windows@@@Details@2@WCA@E$AAAJAEAVGuid@2@PEAPEAX@Z 000000018003d3a8 f i _nodert_generated.obj
 0001:0003c3b4       ?__abi_QueryInterface@?QObject@Platform@@?$CustomBox@W4BluetoothLEAdvertisementFlags@Advertisement@Bluetooth@Devices@Windows@@@Details@2@WCI@E$AAAJAEAVGuid@2@PEAPEAX@Z 000000018003d3b4 f i _nodert_generated.obj
 0001:0003c3c0       ?__abi_QueryInterface@?QObject@Platform@@?$WriteOnlyArray@PE$AAVBluetoothLEAdvertisementBytePattern@Advertisement@Bluetooth@Devices@Windows@@$00@2@UE$AAAJAEAVGuid@2@PEAPEAX@Z 000000018003d3c0 f i _nodert_generated.obj
 0001:0003c5c8       ?__abi_QueryInterface@?QObject@Platform@@?$WriteOnlyArray@PE$AAVBluetoothLEAdvertisementBytePattern@Advertisement@Bluetooth@Devices@Windows@@$00@2@W7E$AAAJAEAVGuid@2@PEAPEAX@Z 000000018003d5c8 f i _nodert_generated.obj
 0001:0003c5d4       ?__abi_QueryInterface@?QObject@Platform@@?$WriteOnlyArray@PE$AAVBluetoothLEAdvertisementBytePattern@Advertisement@Bluetooth@Devices@Windows@@$00@2@WBA@E$AAAJAEAVGuid@2@PEAPEAX@Z 000000018003d5d4 f i _nodert_generated.obj
 0001:0003c5e0       ?__abi_QueryInterface@?QObject@Platform@@?$WriteOnlyArray@PE$AAVBluetoothLEAdvertisementBytePattern@Advertisement@Bluetooth@Devices@Windows@@$00@2@WBI@E$AAAJAEAVGuid@2@PEAPEAX@Z 000000018003d5e0 f i _nodert_generated.obj
 0001:0003c5ec       ?__abi_QueryInterface@?QObject@Platform@@?$WriteOnlyArray@PE$AAVBluetoothLEAdvertisementBytePattern@Advertisement@Bluetooth@Devices@Windows@@$00@2@WCA@E$AAAJAEAVGuid@2@PEAPEAX@Z 000000018003d5ec f i _nodert_generated.obj
 0001:0003c600       ?__abi_QueryInterface@?QObject@Platform@@?$WriteOnlyArray@PE$AAVBluetoothLEAdvertisementDataSection@Advertisement@Bluetooth@Devices@Windows@@$00@2@UE$AAAJAEAVGuid@2@PEAPEAX@Z 000000018003d600 f i _nodert_generated.obj
 0001:0003c808       ?__abi_QueryInterface@?QObject@Platform@@?$WriteOnlyArray@PE$AAVBluetoothLEAdvertisementDataSection@Advertisement@Bluetooth@Devices@Windows@@$00@2@W7E$AAAJAEAVGuid@2@PEAPEAX@Z 000000018003d808 f i _nodert_generated.obj
 0001:0003c814       ?__abi_QueryInterface@?QObject@Platform@@?$WriteOnlyArray@PE$AAVBluetoothLEAdvertisementDataSection@Advertisement@Bluetooth@Devices@Windows@@$00@2@WBA@E$AAAJAEAVGuid@2@PEAPEAX@Z 000000018003d814 f i _nodert_generated.obj
 0001:0003c820       ?__abi_QueryInterface@?QObject@Platform@@?$WriteOnlyArray@PE$AAVBluetoothLEAdvertisementDataSection@Advertisement@Bluetooth@Devices@Windows@@$00@2@WBI@E$AAAJAEAVGuid@2@PEAPEAX@Z 000000018003d820 f i _nodert_generated.obj
 0001:0003c82c       ?__abi_QueryInterface@?QObject@Platform@@?$WriteOnlyArray@PE$AAVBluetoothLEAdvertisementDataSection@Advertisement@Bluetooth@Devices@Windows@@$00@2@WCA@E$AAAJAEAVGuid@2@PEAPEAX@Z 000000018003d82c f i _nodert_generated.obj
 0001:0003c840       ?__abi_QueryInterface@?QObject@Platform@@?$WriteOnlyArray@PE$AAVBluetoothLEManufacturerData@Advertisement@Bluetooth@Devices@Windows@@$00@2@UE$AAAJAEAVGuid@2@PEAPEAX@Z 000000018003d840 f i _nodert_generated.obj
 0001:0003ca48       ?__abi_QueryInterface@?QObject@Platform@@?$WriteOnlyArray@PE$AAVBluetoothLEManufacturerData@Advertisement@Bluetooth@Devices@Windows@@$00@2@W7E$AAAJAEAVGuid@2@PEAPEAX@Z 000000018003da48 f i _nodert_generated.obj
 0001:0003ca54       ?__abi_QueryInterface@?QObject@Platform@@?$WriteOnlyArray@PE$AAVBluetoothLEManufacturerData@Advertisement@Bluetooth@Devices@Windows@@$00@2@WBA@E$AAAJAEAVGuid@2@PEAPEAX@Z 000000018003da54 f i _nodert_generated.obj
 0001:0003ca60       ?__abi_QueryInterface@?QObject@Platform@@?$WriteOnlyArray@PE$AAVBluetoothLEManufacturerData@Advertisement@Bluetooth@Devices@Windows@@$00@2@WBI@E$AAAJAEAVGuid@2@PEAPEAX@Z 000000018003da60 f i _nodert_generated.obj
 0001:0003ca6c       ?__abi_QueryInterface@?QObject@Platform@@?$WriteOnlyArray@PE$AAVBluetoothLEManufacturerData@Advertisement@Bluetooth@Devices@Windows@@$00@2@WCA@E$AAAJAEAVGuid@2@PEAPEAX@Z 000000018003da6c f i _nodert_generated.obj
 0001:0003ca80       ?__abi_QueryInterface@?QObject@Platform@@?$WriteOnlyArray@VGuid@Platform@@$00@2@UE$AAAJAEAVGuid@2@PEAPEAX@Z 000000018003da80 f i _nodert_generated.obj
 0001:0003cc88       ?__abi_QueryInterface@?QObject@Platform@@?$WriteOnlyArray@VGuid@Platform@@$00@2@W7E$AAAJAEAVGuid@2@PEAPEAX@Z 000000018003dc88 f i _nodert_generated.obj
 0001:0003cc94       ?__abi_QueryInterface@?QObject@Platform@@?$WriteOnlyArray@VGuid@Platform@@$00@2@WBA@E$AAAJAEAVGuid@2@PEAPEAX@Z 000000018003dc94 f i _nodert_generated.obj
 0001:0003cca0       ?__abi_QueryInterface@?QObject@Platform@@?$WriteOnlyArray@VGuid@Platform@@$00@2@WBI@E$AAAJAEAVGuid@2@PEAPEAX@Z 000000018003dca0 f i _nodert_generated.obj
 0001:0003ccac       ?__abi_QueryInterface@?QObject@Platform@@?$WriteOnlyArray@VGuid@Platform@@$00@2@WCA@E$AAAJAEAVGuid@2@PEAPEAX@Z 000000018003dcac f i _nodert_generated.obj
 0001:0003ccc0       ?__abi_QueryInterface@__abi_FTMWeakRefData@@QEAAJAEAVGuid@Platform@@PEAPEAX@Z 000000018003dcc0 f i _nodert_generated.obj
 0001:0003cdc0       ?__abi_Release@?$TypedEventHandler@PE$AAVBluetoothLEAdvertisementPublisher@Advertisement@Bluetooth@Devices@Windows@@PE$AAVBluetoothLEAdvertisementPublisherStatusChangedEventArgs@2345@@Foundation@Windows@@UE$AAAKXZ 000000018003ddc0 f i _nodert_generated.obj
 0001:0003ce84       ?__abi_Release@?$TypedEventHandler@PE$AAVBluetoothLEAdvertisementPublisher@Advertisement@Bluetooth@Devices@Windows@@PE$AAVBluetoothLEAdvertisementPublisherStatusChangedEventArgs@2345@@Foundation@Windows@@W7E$AAAKXZ 000000018003de84 f i _nodert_generated.obj
 0001:0003ce90       ?__abi_Release@?$TypedEventHandler@PE$AAVBluetoothLEAdvertisementPublisher@Advertisement@Bluetooth@Devices@Windows@@PE$AAVBluetoothLEAdvertisementPublisherStatusChangedEventArgs@2345@@Foundation@Windows@@WBA@E$AAAKXZ 000000018003de90 f i _nodert_generated.obj
 0001:0003cea0       ?__abi_Release@?$TypedEventHandler@PE$AAVBluetoothLEAdvertisementWatcher@Advertisement@Bluetooth@Devices@Windows@@PE$AAVBluetoothLEAdvertisementReceivedEventArgs@2345@@Foundation@Windows@@UE$AAAKXZ 000000018003dea0 f i _nodert_generated.obj
 0001:0003cf64       ?__abi_Release@?$TypedEventHandler@PE$AAVBluetoothLEAdvertisementWatcher@Advertisement@Bluetooth@Devices@Windows@@PE$AAVBluetoothLEAdvertisementReceivedEventArgs@2345@@Foundation@Windows@@W7E$AAAKXZ 000000018003df64 f i _nodert_generated.obj
 0001:0003cf70       ?__abi_Release@?$TypedEventHandler@PE$AAVBluetoothLEAdvertisementWatcher@Advertisement@Bluetooth@Devices@Windows@@PE$AAVBluetoothLEAdvertisementReceivedEventArgs@2345@@Foundation@Windows@@WBA@E$AAAKXZ 000000018003df70 f i _nodert_generated.obj
 0001:0003cf80       ?__abi_Release@?$TypedEventHandler@PE$AAVBluetoothLEAdvertisementWatcher@Advertisement@Bluetooth@Devices@Windows@@PE$AAVBluetoothLEAdvertisementWatcherStoppedEventArgs@2345@@Foundation@Windows@@UE$AAAKXZ 000000018003df80 f i _nodert_generated.obj
 0001:0003d044       ?__abi_Release@?$TypedEventHandler@PE$AAVBluetoothLEAdvertisementWatcher@Advertisement@Bluetooth@Devices@Windows@@PE$AAVBluetoothLEAdvertisementWatcherStoppedEventArgs@2345@@Foundation@Windows@@W7E$AAAKXZ 000000018003e044 f i _nodert_generated.obj
 0001:0003d050       ?__abi_Release@?$TypedEventHandler@PE$AAVBluetoothLEAdvertisementWatcher@Advertisement@Bluetooth@Devices@Windows@@PE$AAVBluetoothLEAdvertisementWatcherStoppedEventArgs@2345@@Foundation@Windows@@WBA@E$AAAKXZ 000000018003e050 f i _nodert_generated.obj
 0001:0003d060       ?__abi_Release@?QObject@Platform@@?$Array@PE$AAVBluetoothLEAdvertisementBytePattern@Advertisement@Bluetooth@Devices@Windows@@$00@2@UE$AAAKXZ 000000018003e060 f i _nodert_generated.obj
 0001:0003d11c       ?__abi_Release@?QObject@Platform@@?$Array@PE$AAVBluetoothLEAdvertisementBytePattern@Advertisement@Bluetooth@Devices@Windows@@$00@2@W7E$AAAKXZ 000000018003e11c f i _nodert_generated.obj
 0001:0003d128       ?__abi_Release@?QObject@Platform@@?$Array@PE$AAVBluetoothLEAdvertisementBytePattern@Advertisement@Bluetooth@Devices@Windows@@$00@2@WBA@E$AAAKXZ 000000018003e128 f i _nodert_generated.obj
 0001:0003d134       ?__abi_Release@?QObject@Platform@@?$Array@PE$AAVBluetoothLEAdvertisementBytePattern@Advertisement@Bluetooth@Devices@Windows@@$00@2@WBI@E$AAAKXZ 000000018003e134 f i _nodert_generated.obj
 0001:0003d140       ?__abi_Release@?QObject@Platform@@?$Array@PE$AAVBluetoothLEAdvertisementBytePattern@Advertisement@Bluetooth@Devices@Windows@@$00@2@WCA@E$AAAKXZ 000000018003e140 f i _nodert_generated.obj
 0001:0003d14c       ?__abi_Release@?QObject@Platform@@?$Array@PE$AAVBluetoothLEAdvertisementBytePattern@Advertisement@Bluetooth@Devices@Windows@@$00@2@WCI@E$AAAKXZ 000000018003e14c f i _nodert_generated.obj
 0001:0003d158       ?__abi_Release@?QObject@Platform@@?$Array@PE$AAVBluetoothLEAdvertisementBytePattern@Advertisement@Bluetooth@Devices@Windows@@$00@2@WDA@E$AAAKXZ 000000018003e158 f i _nodert_generated.obj
 0001:0003d164       ?__abi_Release@?QObject@Platform@@?$Array@PE$AAVBluetoothLEAdvertisementBytePattern@Advertisement@Bluetooth@Devices@Windows@@$00@2@WDI@E$AAAKXZ 000000018003e164 f i _nodert_generated.obj
 0001:0003d170       ?__abi_Release@?QObject@Platform@@?$Array@PE$AAVBluetoothLEAdvertisementBytePattern@Advertisement@Bluetooth@Devices@Windows@@$00@2@WEA@E$AAAKXZ 000000018003e170 f i _nodert_generated.obj
 0001:0003d17c       ?__abi_Release@?QObject@Platform@@?$Array@PE$AAVBluetoothLEAdvertisementBytePattern@Advertisement@Bluetooth@Devices@Windows@@$00@2@WHA@E$AAAKXZ 000000018003e17c f i _nodert_generated.obj
 0001:0003d188       ?__abi_Release@?QObject@Platform@@?$Array@PE$AAVBluetoothLEAdvertisementBytePattern@Advertisement@Bluetooth@Devices@Windows@@$00@2@WHI@E$AAAKXZ 000000018003e188 f i _nodert_generated.obj
 0001:0003d1a0       ?__abi_Release@?QObject@Platform@@?$Array@PE$AAVBluetoothLEAdvertisementDataSection@Advertisement@Bluetooth@Devices@Windows@@$00@2@UE$AAAKXZ 000000018003e1a0 f i _nodert_generated.obj
 0001:0003d25c       ?__abi_Release@?QObject@Platform@@?$Array@PE$AAVBluetoothLEAdvertisementDataSection@Advertisement@Bluetooth@Devices@Windows@@$00@2@W7E$AAAKXZ 000000018003e25c f i _nodert_generated.obj
 0001:0003d268       ?__abi_Release@?QObject@Platform@@?$Array@PE$AAVBluetoothLEAdvertisementDataSection@Advertisement@Bluetooth@Devices@Windows@@$00@2@WBA@E$AAAKXZ 000000018003e268 f i _nodert_generated.obj
 0001:0003d274       ?__abi_Release@?QObject@Platform@@?$Array@PE$AAVBluetoothLEAdvertisementDataSection@Advertisement@Bluetooth@Devices@Windows@@$00@2@WBI@E$AAAKXZ 000000018003e274 f i _nodert_generated.obj
 0001:0003d280       ?__abi_Release@?QObject@Platform@@?$Array@PE$AAVBluetoothLEAdvertisementDataSection@Advertisement@Bluetooth@Devices@Windows@@$00@2@WCA@E$AAAKXZ 000000018003e280 f i _nodert_generated.obj
 0001:0003d28c       ?__abi_Release@?QObject@Platform@@?$Array@PE$AAVBluetoothLEAdvertisementDataSection@Advertisement@Bluetooth@Devices@Windows@@$00@2@WCI@E$AAAKXZ 000000018003e28c f i _nodert_generated.obj
 0001:0003d298       ?__abi_Release@?QObject@Platform@@?$Array@PE$AAVBluetoothLEAdvertisementDataSection@Advertisement@Bluetooth@Devices@Windows@@$00@2@WDA@E$AAAKXZ 000000018003e298 f i _nodert_generated.obj
 0001:0003d2a4       ?__abi_Release@?QObject@Platform@@?$Array@PE$AAVBluetoothLEAdvertisementDataSection@Advertisement@Bluetooth@Devices@Windows@@$00@2@WDI@E$AAAKXZ 000000018003e2a4 f i _nodert_generated.obj
 0001:0003d2b0       ?__abi_Release@?QObject@Platform@@?$Array@PE$AAVBluetoothLEAdvertisementDataSection@Advertisement@Bluetooth@Devices@Windows@@$00@2@WEA@E$AAAKXZ 000000018003e2b0 f i _nodert_generated.obj
 0001:0003d2bc       ?__abi_Release@?QObject@Platform@@?$Array@PE$AAVBluetoothLEAdvertisementDataSection@Advertisement@Bluetooth@Devices@Windows@@$00@2@WHA@E$AAAKXZ 000000018003e2bc f i _nodert_generated.obj
 0001:0003d2c8       ?__abi_Release@?QObject@Platform@@?$Array@PE$AAVBluetoothLEAdvertisementDataSection@Advertisement@Bluetooth@Devices@Windows@@$00@2@WHI@E$AAAKXZ 000000018003e2c8 f i _nodert_generated.obj
 0001:0003d2e0       ?__abi_Release@?QObject@Platform@@?$Array@PE$AAVBluetoothLEManufacturerData@Advertisement@Bluetooth@Devices@Windows@@$00@2@UE$AAAKXZ 000000018003e2e0 f i _nodert_generated.obj
 0001:0003d39c       ?__abi_Release@?QObject@Platform@@?$Array@PE$AAVBluetoothLEManufacturerData@Advertisement@Bluetooth@Devices@Windows@@$00@2@W7E$AAAKXZ 000000018003e39c f i _nodert_generated.obj
 0001:0003d3a8       ?__abi_Release@?QObject@Platform@@?$Array@PE$AAVBluetoothLEManufacturerData@Advertisement@Bluetooth@Devices@Windows@@$00@2@WBA@E$AAAKXZ 000000018003e3a8 f i _nodert_generated.obj
 0001:0003d3b4       ?__abi_Release@?QObject@Platform@@?$Array@PE$AAVBluetoothLEManufacturerData@Advertisement@Bluetooth@Devices@Windows@@$00@2@WBI@E$AAAKXZ 000000018003e3b4 f i _nodert_generated.obj
 0001:0003d3c0       ?__abi_Release@?QObject@Platform@@?$Array@PE$AAVBluetoothLEManufacturerData@Advertisement@Bluetooth@Devices@Windows@@$00@2@WCA@E$AAAKXZ 000000018003e3c0 f i _nodert_generated.obj
 0001:0003d3cc       ?__abi_Release@?QObject@Platform@@?$Array@PE$AAVBluetoothLEManufacturerData@Advertisement@Bluetooth@Devices@Windows@@$00@2@WCI@E$AAAKXZ 000000018003e3cc f i _nodert_generated.obj
 0001:0003d3d8       ?__abi_Release@?QObject@Platform@@?$Array@PE$AAVBluetoothLEManufacturerData@Advertisement@Bluetooth@Devices@Windows@@$00@2@WDA@E$AAAKXZ 000000018003e3d8 f i _nodert_generated.obj
 0001:0003d3e4       ?__abi_Release@?QObject@Platform@@?$Array@PE$AAVBluetoothLEManufacturerData@Advertisement@Bluetooth@Devices@Windows@@$00@2@WDI@E$AAAKXZ 000000018003e3e4 f i _nodert_generated.obj
 0001:0003d3f0       ?__abi_Release@?QObject@Platform@@?$Array@PE$AAVBluetoothLEManufacturerData@Advertisement@Bluetooth@Devices@Windows@@$00@2@WEA@E$AAAKXZ 000000018003e3f0 f i _nodert_generated.obj
 0001:0003d3fc       ?__abi_Release@?QObject@Platform@@?$Array@PE$AAVBluetoothLEManufacturerData@Advertisement@Bluetooth@Devices@Windows@@$00@2@WHA@E$AAAKXZ 000000018003e3fc f i _nodert_generated.obj
 0001:0003d408       ?__abi_Release@?QObject@Platform@@?$Array@PE$AAVBluetoothLEManufacturerData@Advertisement@Bluetooth@Devices@Windows@@$00@2@WHI@E$AAAKXZ 000000018003e408 f i _nodert_generated.obj
 0001:0003d420       ?__abi_Release@?QObject@Platform@@?$Array@VGuid@Platform@@$00@2@UE$AAAKXZ 000000018003e420 f i _nodert_generated.obj
 0001:0003d4dc       ?__abi_Release@?QObject@Platform@@?$Array@VGuid@Platform@@$00@2@W7E$AAAKXZ 000000018003e4dc f i _nodert_generated.obj
 0001:0003d4e8       ?__abi_Release@?QObject@Platform@@?$Array@VGuid@Platform@@$00@2@WBA@E$AAAKXZ 000000018003e4e8 f i _nodert_generated.obj
 0001:0003d4f4       ?__abi_Release@?QObject@Platform@@?$Array@VGuid@Platform@@$00@2@WBI@E$AAAKXZ 000000018003e4f4 f i _nodert_generated.obj
 0001:0003d500       ?__abi_Release@?QObject@Platform@@?$Array@VGuid@Platform@@$00@2@WCA@E$AAAKXZ 000000018003e500 f i _nodert_generated.obj
 0001:0003d50c       ?__abi_Release@?QObject@Platform@@?$Array@VGuid@Platform@@$00@2@WCI@E$AAAKXZ 000000018003e50c f i _nodert_generated.obj
 0001:0003d518       ?__abi_Release@?QObject@Platform@@?$Array@VGuid@Platform@@$00@2@WDA@E$AAAKXZ 000000018003e518 f i _nodert_generated.obj
 0001:0003d524       ?__abi_Release@?QObject@Platform@@?$Array@VGuid@Platform@@$00@2@WDI@E$AAAKXZ 000000018003e524 f i _nodert_generated.obj
 0001:0003d530       ?__abi_Release@?QObject@Platform@@?$Array@VGuid@Platform@@$00@2@WEA@E$AAAKXZ 000000018003e530 f i _nodert_generated.obj
 0001:0003d53c       ?__abi_Release@?QObject@Platform@@?$Array@VGuid@Platform@@$00@2@WHA@E$AAAKXZ 000000018003e53c f i _nodert_generated.obj
 0001:0003d548       ?__abi_Release@?QObject@Platform@@?$Array@VGuid@Platform@@$00@2@WHI@E$AAAKXZ 000000018003e548 f i _nodert_generated.obj
 0001:0003d560       ?__abi_Release@?QObject@Platform@@?$CustomBox@VGuid@Platform@@@Details@2@UE$AAAKXZ 000000018003e560 f i _nodert_generated.obj
 0001:0003d5dc       ?__abi_Release@?QObject@Platform@@?$CustomBox@VGuid@Platform@@@Details@2@W7E$AAAKXZ 000000018003e5dc f i _nodert_generated.obj
 0001:0003d5e8       ?__abi_Release@?QObject@Platform@@?$CustomBox@VGuid@Platform@@@Details@2@WBA@E$AAAKXZ 000000018003e5e8 f i _nodert_generated.obj
 0001:0003d5f4       ?__abi_Release@?QObject@Platform@@?$CustomBox@VGuid@Platform@@@Details@2@WBI@E$AAAKXZ 000000018003e5f4 f i _nodert_generated.obj
 0001:0003d600       ?__abi_Release@?QObject@Platform@@?$CustomBox@VGuid@Platform@@@Details@2@WCA@E$AAAKXZ 000000018003e600 f i _nodert_generated.obj
 0001:0003d60c       ?__abi_Release@?QObject@Platform@@?$CustomBox@VGuid@Platform@@@Details@2@WCI@E$AAAKXZ 000000018003e60c f i _nodert_generated.obj
 0001:0003d620       ?__abi_Release@?QObject@Platform@@?$CustomBox@W4BluetoothLEAdvertisementFlags@Advertisement@Bluetooth@Devices@Windows@@@Details@2@UE$AAAKXZ 000000018003e620 f i _nodert_generated.obj
 0001:0003d69c       ?__abi_Release@?QObject@Platform@@?$CustomBox@W4BluetoothLEAdvertisementFlags@Advertisement@Bluetooth@Devices@Windows@@@Details@2@W7E$AAAKXZ 000000018003e69c f i _nodert_generated.obj
 0001:0003d6a8       ?__abi_Release@?QObject@Platform@@?$CustomBox@W4BluetoothLEAdvertisementFlags@Advertisement@Bluetooth@Devices@Windows@@@Details@2@WBA@E$AAAKXZ 000000018003e6a8 f i _nodert_generated.obj
 0001:0003d6b4       ?__abi_Release@?QObject@Platform@@?$CustomBox@W4BluetoothLEAdvertisementFlags@Advertisement@Bluetooth@Devices@Windows@@@Details@2@WBI@E$AAAKXZ 000000018003e6b4 f i _nodert_generated.obj
 0001:0003d6c0       ?__abi_Release@?QObject@Platform@@?$CustomBox@W4BluetoothLEAdvertisementFlags@Advertisement@Bluetooth@Devices@Windows@@@Details@2@WCA@E$AAAKXZ 000000018003e6c0 f i _nodert_generated.obj
 0001:0003d6cc       ?__abi_Release@?QObject@Platform@@?$CustomBox@W4BluetoothLEAdvertisementFlags@Advertisement@Bluetooth@Devices@Windows@@@Details@2@WCI@E$AAAKXZ 000000018003e6cc f i _nodert_generated.obj
 0001:0003d6e0       ?__abi_Release@?QObject@Platform@@?$WriteOnlyArray@PE$AAVBluetoothLEAdvertisementBytePattern@Advertisement@Bluetooth@Devices@Windows@@$00@2@UE$AAAKXZ 000000018003e6e0 f i _nodert_generated.obj
 0001:0003d79c       ?__abi_Release@?QObject@Platform@@?$WriteOnlyArray@PE$AAVBluetoothLEAdvertisementBytePattern@Advertisement@Bluetooth@Devices@Windows@@$00@2@W7E$AAAKXZ 000000018003e79c f i _nodert_generated.obj
 0001:0003d7a8       ?__abi_Release@?QObject@Platform@@?$WriteOnlyArray@PE$AAVBluetoothLEAdvertisementBytePattern@Advertisement@Bluetooth@Devices@Windows@@$00@2@WBA@E$AAAKXZ 000000018003e7a8 f i _nodert_generated.obj
 0001:0003d7b4       ?__abi_Release@?QObject@Platform@@?$WriteOnlyArray@PE$AAVBluetoothLEAdvertisementBytePattern@Advertisement@Bluetooth@Devices@Windows@@$00@2@WBI@E$AAAKXZ 000000018003e7b4 f i _nodert_generated.obj
 0001:0003d7c0       ?__abi_Release@?QObject@Platform@@?$WriteOnlyArray@PE$AAVBluetoothLEAdvertisementBytePattern@Advertisement@Bluetooth@Devices@Windows@@$00@2@WCA@E$AAAKXZ 000000018003e7c0 f i _nodert_generated.obj
 0001:0003d7d0       ?__abi_Release@?QObject@Platform@@?$WriteOnlyArray@PE$AAVBluetoothLEAdvertisementDataSection@Advertisement@Bluetooth@Devices@Windows@@$00@2@UE$AAAKXZ 000000018003e7d0 f i _nodert_generated.obj
 0001:0003d88c       ?__abi_Release@?QObject@Platform@@?$WriteOnlyArray@PE$AAVBluetoothLEAdvertisementDataSection@Advertisement@Bluetooth@Devices@Windows@@$00@2@W7E$AAAKXZ 000000018003e88c f i _nodert_generated.obj
 0001:0003d898       ?__abi_Release@?QObject@Platform@@?$WriteOnlyArray@PE$AAVBluetoothLEAdvertisementDataSection@Advertisement@Bluetooth@Devices@Windows@@$00@2@WBA@E$AAAKXZ 000000018003e898 f i _nodert_generated.obj
 0001:0003d8a4       ?__abi_Release@?QObject@Platform@@?$WriteOnlyArray@PE$AAVBluetoothLEAdvertisementDataSection@Advertisement@Bluetooth@Devices@Windows@@$00@2@WBI@E$AAAKXZ 000000018003e8a4 f i _nodert_generated.obj
 0001:0003d8b0       ?__abi_Release@?QObject@Platform@@?$WriteOnlyArray@PE$AAVBluetoothLEAdvertisementDataSection@Advertisement@Bluetooth@Devices@Windows@@$00@2@WCA@E$AAAKXZ 000000018003e8b0 f i _nodert_generated.obj
 0001:0003d8c0       ?__abi_Release@?QObject@Platform@@?$WriteOnlyArray@PE$AAVBluetoothLEManufacturerData@Advertisement@Bluetooth@Devices@Windows@@$00@2@UE$AAAKXZ 000000018003e8c0 f i _nodert_generated.obj
 0001:0003d97c       ?__abi_Release@?QObject@Platform@@?$WriteOnlyArray@PE$AAVBluetoothLEManufacturerData@Advertisement@Bluetooth@Devices@Windows@@$00@2@W7E$AAAKXZ 000000018003e97c f i _nodert_generated.obj
 0001:0003d988       ?__abi_Release@?QObject@Platform@@?$WriteOnlyArray@PE$AAVBluetoothLEManufacturerData@Advertisement@Bluetooth@Devices@Windows@@$00@2@WBA@E$AAAKXZ 000000018003e988 f i _nodert_generated.obj
 0001:0003d994       ?__abi_Release@?QObject@Platform@@?$WriteOnlyArray@PE$AAVBluetoothLEManufacturerData@Advertisement@Bluetooth@Devices@Windows@@$00@2@WBI@E$AAAKXZ 000000018003e994 f i _nodert_generated.obj
 0001:0003d9a0       ?__abi_Release@?QObject@Platform@@?$WriteOnlyArray@PE$AAVBluetoothLEManufacturerData@Advertisement@Bluetooth@Devices@Windows@@$00@2@WCA@E$AAAKXZ 000000018003e9a0 f i _nodert_generated.obj
 0001:0003d9b0       ?__abi_Release@?QObject@Platform@@?$WriteOnlyArray@VGuid@Platform@@$00@2@UE$AAAKXZ 000000018003e9b0 f i _nodert_generated.obj
 0001:0003da6c       ?__abi_Release@?QObject@Platform@@?$WriteOnlyArray@VGuid@Platform@@$00@2@W7E$AAAKXZ 000000018003ea6c f i _nodert_generated.obj
 0001:0003da78       ?__abi_Release@?QObject@Platform@@?$WriteOnlyArray@VGuid@Platform@@$00@2@WBA@E$AAAKXZ 000000018003ea78 f i _nodert_generated.obj
 0001:0003da84       ?__abi_Release@?QObject@Platform@@?$WriteOnlyArray@VGuid@Platform@@$00@2@WBI@E$AAAKXZ 000000018003ea84 f i _nodert_generated.obj
 0001:0003da90       ?__abi_Release@?QObject@Platform@@?$WriteOnlyArray@VGuid@Platform@@$00@2@WCA@E$AAAKXZ 000000018003ea90 f i _nodert_generated.obj
 0001:0003daa0       ?__abi_Release@ControlBlock@Details@Platform@@UEAAKXZ 000000018003eaa0 f i _nodert_generated.obj
 0001:0003dae0       ?__abi_WinRTraiseException@@YAXJ@Z 000000018003eae0 f i _nodert_generated.obj
 0001:0003dc00       ?__abi_Windows_Foundation_?$TypedEventHandler@PE$AAVBluetoothLEAdvertisementPublisher@Advertisement@Bluetooth@Devices@Windows@@PE$AAVBluetoothLEAdvertisementPublisherStatusChangedEventArgs@2345@___abi_IDelegate____abi_Invoke@?Q__abi_IDelegate@?$TypedEventHandler@PE$AAVBluetoothLEAdvertisementPublisher@Advertisement@Bluetooth@Devices@Windows@@PE$AAVBluetoothLEAdvertisementPublisherStatusChangedEventArgs@2345@@Foundation@Windows@@234@UE$AAAJPE$AAVBluetoothLEAdvertisementPublisher@Advertisement@Bluetooth@Devices@4@PE$AAVBluetoothLEAdvertisementPublisherStatusChangedEventArgs@6784@@Z 000000018003ec00 f i _nodert_generated.obj
 0001:0003dc70       ?__abi_Windows_Foundation_?$TypedEventHandler@PE$AAVBluetoothLEAdvertisementWatcher@Advertisement@Bluetooth@Devices@Windows@@PE$AAVBluetoothLEAdvertisementReceivedEventArgs@2345@___abi_IDelegate____abi_Invoke@?Q__abi_IDelegate@?$TypedEventHandler@PE$AAVBluetoothLEAdvertisementWatcher@Advertisement@Bluetooth@Devices@Windows@@PE$AAVBluetoothLEAdvertisementReceivedEventArgs@2345@@Foundation@Windows@@234@UE$AAAJPE$AAVBluetoothLEAdvertisementWatcher@Advertisement@Bluetooth@Devices@4@PE$AAVBluetoothLEAdvertisementReceivedEventArgs@6784@@Z 000000018003ec70 f i _nodert_generated.obj
 0001:0003dce0       ?__abi_Windows_Foundation_?$TypedEventHandler@PE$AAVBluetoothLEAdvertisementWatcher@Advertisement@Bluetooth@Devices@Windows@@PE$AAVBluetoothLEAdvertisementWatcherStoppedEventArgs@2345@___abi_IDelegate____abi_Invoke@?Q__abi_IDelegate@?$TypedEventHandler@PE$AAVBluetoothLEAdvertisementWatcher@Advertisement@Bluetooth@Devices@Windows@@PE$AAVBluetoothLEAdvertisementWatcherStoppedEventArgs@2345@@Foundation@Windows@@234@UE$AAAJPE$AAVBluetoothLEAdvertisementWatcher@Advertisement@Bluetooth@Devices@4@PE$AAVBluetoothLEAdvertisementWatcherStoppedEventArgs@6784@@Z 000000018003ece0 f i _nodert_generated.obj
 0001:0003dd50       ?__abi_dtor@__abi_FTMWeakRefData@@QEAAXXZ 000000018003ed50 f i _nodert_generated.obj
 0001:0003de20       ?__abi_winrt_ptr_dtor@@YAXQE$ADVObject@Platform@@@Z 000000018003ee20 f i _nodert_generated.obj
 0001:0003de30       ?__abi_winrt_ptrto_string_ctor@@YAPEAXPE$ADVString@Platform@@@Z 000000018003ee30 f i _nodert_generated.obj
 0001:0003de70       ?__abi_winrt_ptrto_string_dtor@@YAXQE$ADVString@Platform@@@Z 000000018003ee70 f i _nodert_generated.obj
 0001:0003de80       ?add@Received@IBluetoothLEAdvertisementWatcher@Advertisement@Bluetooth@Devices@Windows@@UE$AAA?AVEventRegistrationToken@Foundation@6@PE$AAV?$TypedEventHandler@PE$AAVBluetoothLEAdvertisementWatcher@Advertisement@Bluetooth@Devices@Windows@@PE$AAVBluetoothLEAdvertisementReceivedEventArgs@2345@@86@@Z 000000018003ee80 f i _nodert_generated.obj
 0001:0003ded0       ?add@StatusChanged@IBluetoothLEAdvertisementPublisher@Advertisement@Bluetooth@Devices@Windows@@UE$AAA?AVEventRegistrationToken@Foundation@6@PE$AAV?$TypedEventHandler@PE$AAVBluetoothLEAdvertisementPublisher@Advertisement@Bluetooth@Devices@Windows@@PE$AAVBluetoothLEAdvertisementPublisherStatusChangedEventArgs@2345@@86@@Z 000000018003eed0 f i _nodert_generated.obj
 0001:0003df10       ?add@Stopped@IBluetoothLEAdvertisementWatcher@Advertisement@Bluetooth@Devices@Windows@@UE$AAA?AVEventRegistrationToken@Foundation@6@PE$AAV?$TypedEventHandler@PE$AAVBluetoothLEAdvertisementWatcher@Advertisement@Bluetooth@Devices@Windows@@PE$AAVBluetoothLEAdvertisementWatcherStoppedEventArgs@2345@@86@@Z 000000018003ef10 f i _nodert_generated.obj
 0001:0003df60       ?convert@?$ToFactory@H@imp@Nan@@SA?AV?$Maybe@H@v8@@V?$Local@VValue@v8@@@5@@Z 000000018003ef60 f i _nodert_generated.obj
 0001:0003e000       ?convert@?$ToFactory@VInteger@v8@@@imp@Nan@@SA?AV?$MaybeLocal@VInteger@v8@@@v8@@V?$Local@VValue@v8@@@5@@Z 000000018003f000 f i _nodert_generated.obj
 0001:0003e0a0       ?convert@?$ToFactory@VObject@v8@@@imp@Nan@@SA?AV?$MaybeLocal@VObject@v8@@@v8@@V?$Local@VValue@v8@@@5@@Z 000000018003f0a0 f i _nodert_generated.obj
 0001:0003e140       ?convert@?$ToFactory@VString@v8@@@imp@Nan@@SA?AV?$MaybeLocal@VString@v8@@@v8@@V?$Local@VValue@v8@@@5@@Z 000000018003f140 f i _nodert_generated.obj
 0001:0003e1e0       ?get@?Q?$IBox@VGuid@Platform@@@Platform@@Value@?$CustomBox@VGuid@Platform@@@Details@2@UE$AAA?AVGuid@2@XZ 000000018003f1e0 f i _nodert_generated.obj
 0001:0003e1f0       ?get@?Q?$IBox@W4BluetoothLEAdvertisementFlags@Advertisement@Bluetooth@Devices@Windows@@@Platform@@Value@?$CustomBox@W4BluetoothLEAdvertisementFlags@Advertisement@Bluetooth@Devices@Windows@@@Details@2@UE$AAA?AW4BluetoothLEAdvertisementFlags@Advertisement@Bluetooth@Devices@Windows@@XZ 000000018003f1f0 f i _nodert_generated.obj
 0001:0003e200       ?get@?Q?$IBoxArray@PE$AAVBluetoothLEAdvertisementBytePattern@Advertisement@Bluetooth@Devices@Windows@@@Platform@@Value@?$Array@PE$AAVBluetoothLEAdvertisementBytePattern@Advertisement@Bluetooth@Devices@Windows@@$00@2@UE$AAAP$01E$AAV42@XZ 000000018003f200 f i _nodert_generated.obj
 0001:0003e270       ?get@?Q?$IBoxArray@PE$AAVBluetoothLEAdvertisementDataSection@Advertisement@Bluetooth@Devices@Windows@@@Platform@@Value@?$Array@PE$AAVBluetoothLEAdvertisementDataSection@Advertisement@Bluetooth@Devices@Windows@@$00@2@UE$AAAP$01E$AAV42@XZ 000000018003f270 f i _nodert_generated.obj
 0001:0003e2e0       ?get@?Q?$IBoxArray@PE$AAVBluetoothLEManufacturerData@Advertisement@Bluetooth@Devices@Windows@@@Platform@@Value@?$Array@PE$AAVBluetoothLEManufacturerData@Advertisement@Bluetooth@Devices@Windows@@$00@2@UE$AAAP$01E$AAV42@XZ 000000018003f2e0 f i _nodert_generated.obj
 0001:0003e350       ?get@?Q?$IBoxArray@VGuid@Platform@@@Platform@@Value@?$Array@VGuid@Platform@@$00@2@UE$AAAP$01E$AAV42@XZ 000000018003f350 f i _nodert_generated.obj
 0001:0003e3c0       ?get@Advertisement@IBluetoothLEAdvertisementFilter@1Bluetooth@Devices@Windows@@UE$AAAPE$AAVBluetoothLEAdvertisement@1345@XZ 000000018003f3c0 f i _nodert_generated.obj
 0001:0003e440       ?get@Advertisement@IBluetoothLEAdvertisementPublisher@1Bluetooth@Devices@Windows@@UE$AAAPE$AAVBluetoothLEAdvertisement@1345@XZ 000000018003f440 f i _nodert_generated.obj
 0001:0003e4c0       ?get@Advertisement@IBluetoothLEAdvertisementReceivedEventArgs@1Bluetooth@Devices@Windows@@UE$AAAPE$AAVBluetoothLEAdvertisement@1345@XZ 000000018003f4c0 f i _nodert_generated.obj
 0001:0003e540       ?get@AdvertisementFilter@IBluetoothLEAdvertisementWatcher@Advertisement@Bluetooth@Devices@Windows@@UE$AAAPE$AAVBluetoothLEAdvertisementFilter@3456@XZ 000000018003f540 f i _nodert_generated.obj
 0001:0003e5c0       ?get@AdvertisementType@IBluetoothLEAdvertisementReceivedEventArgs@Advertisement@Bluetooth@Devices@Windows@@UE$AAA?AW4BluetoothLEAdvertisementType@3456@XZ 000000018003f5c0 f i _nodert_generated.obj
 0001:0003e600       ?get@AdvertisingInterval@BluetoothLEAdvertisementDataTypes@Advertisement@Bluetooth@Devices@Windows@@SAEXZ 000000018003f600 f i _nodert_generated.obj
 0001:0003e6b0       ?get@AdvertisingInterval@IBluetoothLEAdvertisementDataTypesStatics@Advertisement@Bluetooth@Devices@Windows@@UE$AAAEXZ 000000018003f6b0 f i _nodert_generated.obj
 0001:0003e6f0       ?get@Appearance@BluetoothLEAdvertisementDataTypes@Advertisement@Bluetooth@Devices@Windows@@SAEXZ 000000018003f6f0 f i _nodert_generated.obj
 0001:0003e7a0       ?get@Appearance@IBluetoothLEAdvertisementDataTypesStatics@Advertisement@Bluetooth@Devices@Windows@@UE$AAAEXZ 000000018003f7a0 f i _nodert_generated.obj
 0001:0003e7e0       ?get@BluetoothAddress@IBluetoothLEAdvertisementReceivedEventArgs@Advertisement@Bluetooth@Devices@Windows@@UE$AAA_KXZ 000000018003f7e0 f i _nodert_generated.obj
 0001:0003e810       ?get@BytePatterns@IBluetoothLEAdvertisementFilter@Advertisement@Bluetooth@Devices@Windows@@UE$AAAPE$AAU?$IVector@PE$AAVBluetoothLEAdvertisementBytePattern@Advertisement@Bluetooth@Devices@Windows@@@Collections@Foundation@6@XZ 000000018003f810 f i _nodert_generated.obj
 0001:0003e890       ?get@CompanyId@IBluetoothLEManufacturerData@Advertisement@Bluetooth@Devices@Windows@@UE$AAAGXZ 000000018003f890 f i _nodert_generated.obj
 0001:0003e8c0       ?get@CompleteLocalName@BluetoothLEAdvertisementDataTypes@Advertisement@Bluetooth@Devices@Windows@@SAEXZ 000000018003f8c0 f i _nodert_generated.obj
 0001:0003e970       ?get@CompleteLocalName@IBluetoothLEAdvertisementDataTypesStatics@Advertisement@Bluetooth@Devices@Windows@@UE$AAAEXZ 000000018003f970 f i _nodert_generated.obj
 0001:0003e9a0       ?get@CompleteService128BitUuids@BluetoothLEAdvertisementDataTypes@Advertisement@Bluetooth@Devices@Windows@@SAEXZ 000000018003f9a0 f i _nodert_generated.obj
 0001:0003ea50       ?get@CompleteService128BitUuids@IBluetoothLEAdvertisementDataTypesStatics@Advertisement@Bluetooth@Devices@Windows@@UE$AAAEXZ 000000018003fa50 f i _nodert_generated.obj
 0001:0003ea80       ?get@CompleteService16BitUuids@BluetoothLEAdvertisementDataTypes@Advertisement@Bluetooth@Devices@Windows@@SAEXZ 000000018003fa80 f i _nodert_generated.obj
 0001:0003eb30       ?get@CompleteService16BitUuids@IBluetoothLEAdvertisementDataTypesStatics@Advertisement@Bluetooth@Devices@Windows@@UE$AAAEXZ 000000018003fb30 f i _nodert_generated.obj
 0001:0003eb60       ?get@CompleteService32BitUuids@BluetoothLEAdvertisementDataTypes@Advertisement@Bluetooth@Devices@Windows@@SAEXZ 000000018003fb60 f i _nodert_generated.obj
 0001:0003ec10       ?get@CompleteService32BitUuids@IBluetoothLEAdvertisementDataTypesStatics@Advertisement@Bluetooth@Devices@Windows@@UE$AAAEXZ 000000018003fc10 f i _nodert_generated.obj
 0001:0003ec40       ?get@Current@?$IIterator@PE$AAVBluetoothLEAdvertisementBytePattern@Advertisement@Bluetooth@Devices@Windows@@@Collections@Foundation@Windows@@UE$AAAPE$AAVBluetoothLEAdvertisementBytePattern@Advertisement@Bluetooth@Devices@5@XZ 000000018003fc40 f i _nodert_generated.obj
 0001:0003ecc0       ?get@Current@?$IIterator@PE$AAVBluetoothLEAdvertisementDataSection@Advertisement@Bluetooth@Devices@Windows@@@Collections@Foundation@Windows@@UE$AAAPE$AAVBluetoothLEAdvertisementDataSection@Advertisement@Bluetooth@Devices@5@XZ 000000018003fcc0 f i _nodert_generated.obj
 0001:0003ed40       ?get@Current@?$IIterator@PE$AAVBluetoothLEManufacturerData@Advertisement@Bluetooth@Devices@Windows@@@Collections@Foundation@Windows@@UE$AAAPE$AAVBluetoothLEManufacturerData@Advertisement@Bluetooth@Devices@5@XZ 000000018003fd40 f i _nodert_generated.obj
 0001:0003edc0       ?get@Current@?$IIterator@VGuid@Platform@@@Collections@Foundation@Windows@@UE$AAA?AVGuid@Platform@@XZ 000000018003fdc0 f i _nodert_generated.obj
 0001:0003ee00       ?get@Data@IBluetoothLEAdvertisementBytePattern@Advertisement@Bluetooth@Devices@Windows@@UE$AAAPE$AAUIBuffer@Streams@Storage@6@XZ 000000018003fe00 f i _nodert_generated.obj
 0001:0003ee80       ?get@Data@IBluetoothLEAdvertisementDataSection@Advertisement@Bluetooth@Devices@Windows@@UE$AAAPE$AAUIBuffer@Streams@Storage@6@XZ 000000018003fe80 f i _nodert_generated.obj
 0001:0003ef00       ?get@Data@IBluetoothLEManufacturerData@Advertisement@Bluetooth@Devices@Windows@@UE$AAAPE$AAUIBuffer@Streams@Storage@6@XZ 000000018003ff00 f i _nodert_generated.obj
 0001:0003ef80       ?get@DataSections@IBluetoothLEAdvertisement@Advertisement@Bluetooth@Devices@Windows@@UE$AAAPE$AAU?$IVector@PE$AAVBluetoothLEAdvertisementDataSection@Advertisement@Bluetooth@Devices@Windows@@@Collections@Foundation@6@XZ 000000018003ff80 f i _nodert_generated.obj
 0001:0003f000       ?get@DataType@IBluetoothLEAdvertisementBytePattern@Advertisement@Bluetooth@Devices@Windows@@UE$AAAEXZ 0000000180040000 f i _nodert_generated.obj
 0001:0003f030       ?get@DataType@IBluetoothLEAdvertisementDataSection@Advertisement@Bluetooth@Devices@Windows@@UE$AAAEXZ 0000000180040030 f i _nodert_generated.obj
 0001:0003f060       ?get@Error@IBluetoothLEAdvertisementPublisherStatusChangedEventArgs@Advertisement@Bluetooth@Devices@Windows@@UE$AAA?AW4BluetoothError@456@XZ 0000000180040060 f i _nodert_generated.obj
 0001:0003f0a0       ?get@Error@IBluetoothLEAdvertisementWatcherStoppedEventArgs@Advertisement@Bluetooth@Devices@Windows@@UE$AAA?AW4BluetoothError@456@XZ 00000001800400a0 f i _nodert_generated.obj
 0001:0003f0e0       ?get@Flags@BluetoothLEAdvertisementDataTypes@Advertisement@Bluetooth@Devices@Windows@@SAEXZ 00000001800400e0 f i _nodert_generated.obj
 0001:0003f190       ?get@Flags@IBluetoothLEAdvertisement@Advertisement@Bluetooth@Devices@Windows@@UE$AAAPE$AAU?$IBox@W4BluetoothLEAdvertisementFlags@Advertisement@Bluetooth@Devices@Windows@@@Platform@@XZ 0000000180040190 f i _nodert_generated.obj
 0001:0003f210       ?get@Flags@IBluetoothLEAdvertisementDataTypesStatics@Advertisement@Bluetooth@Devices@Windows@@UE$AAAEXZ 0000000180040210 f i _nodert_generated.obj
 0001:0003f240       ?get@HasCurrent@?$IIterator@PE$AAVBluetoothLEAdvertisementBytePattern@Advertisement@Bluetooth@Devices@Windows@@@Collections@Foundation@Windows@@UE$AAA_NXZ 0000000180040240 f i _nodert_generated.obj
 0001:0003f270       ?get@HasCurrent@?$IIterator@PE$AAVBluetoothLEAdvertisementDataSection@Advertisement@Bluetooth@Devices@Windows@@@Collections@Foundation@Windows@@UE$AAA_NXZ 0000000180040270 f i _nodert_generated.obj
 0001:0003f2a0       ?get@HasCurrent@?$IIterator@PE$AAVBluetoothLEManufacturerData@Advertisement@Bluetooth@Devices@Windows@@@Collections@Foundation@Windows@@UE$AAA_NXZ 00000001800402a0 f i _nodert_generated.obj
 0001:0003f2d0       ?get@HasCurrent@?$IIterator@VGuid@Platform@@@Collections@Foundation@Windows@@UE$AAA_NXZ 00000001800402d0 f i _nodert_generated.obj
 0001:0003f300       ?get@IncompleteService128BitUuids@BluetoothLEAdvertisementDataTypes@Advertisement@Bluetooth@Devices@Windows@@SAEXZ 0000000180040300 f i _nodert_generated.obj
 0001:0003f3b0       ?get@IncompleteService128BitUuids@IBluetoothLEAdvertisementDataTypesStatics@Advertisement@Bluetooth@Devices@Windows@@UE$AAAEXZ 00000001800403b0 f i _nodert_generated.obj
 0001:0003f3e0       ?get@IncompleteService16BitUuids@BluetoothLEAdvertisementDataTypes@Advertisement@Bluetooth@Devices@Windows@@SAEXZ 00000001800403e0 f i _nodert_generated.obj
 0001:0003f490       ?get@IncompleteService16BitUuids@IBluetoothLEAdvertisementDataTypesStatics@Advertisement@Bluetooth@Devices@Windows@@UE$AAAEXZ 0000000180040490 f i _nodert_generated.obj
 0001:0003f4c0       ?get@IncompleteService32BitUuids@BluetoothLEAdvertisementDataTypes@Advertisement@Bluetooth@Devices@Windows@@SAEXZ 00000001800404c0 f i _nodert_generated.obj
 0001:0003f570       ?get@IncompleteService32BitUuids@IBluetoothLEAdvertisementDataTypesStatics@Advertisement@Bluetooth@Devices@Windows@@UE$AAAEXZ 0000000180040570 f i _nodert_generated.obj
 0001:0003f5a0       ?get@LocalName@IBluetoothLEAdvertisement@Advertisement@Bluetooth@Devices@Windows@@UE$AAAPE$AAVString@Platform@@XZ 00000001800405a0 f i _nodert_generated.obj
 0001:0003f620       ?get@ManufacturerData@IBluetoothLEAdvertisement@Advertisement@Bluetooth@Devices@Windows@@UE$AAAPE$AAU?$IVector@PE$AAVBluetoothLEManufacturerData@Advertisement@Bluetooth@Devices@Windows@@@Collections@Foundation@6@XZ 0000000180040620 f i _nodert_generated.obj
 0001:0003f6a0       ?get@ManufacturerSpecificData@BluetoothLEAdvertisementDataTypes@Advertisement@Bluetooth@Devices@Windows@@SAEXZ 00000001800406a0 f i _nodert_generated.obj
 0001:0003f750       ?get@ManufacturerSpecificData@IBluetoothLEAdvertisementDataTypesStatics@Advertisement@Bluetooth@Devices@Windows@@UE$AAAEXZ 0000000180040750 f i _nodert_generated.obj
 0001:0003f790       ?get@MaxOutOfRangeTimeout@IBluetoothLEAdvertisementWatcher@Advertisement@Bluetooth@Devices@Windows@@UE$AAA?AVTimeSpan@Foundation@6@XZ 0000000180040790 f i _nodert_generated.obj
 0001:0003f7d0       ?get@MaxSamplingInterval@IBluetoothLEAdvertisementWatcher@Advertisement@Bluetooth@Devices@Windows@@UE$AAA?AVTimeSpan@Foundation@6@XZ 00000001800407d0 f i _nodert_generated.obj
 0001:0003f810       ?get@MinOutOfRangeTimeout@IBluetoothLEAdvertisementWatcher@Advertisement@Bluetooth@Devices@Windows@@UE$AAA?AVTimeSpan@Foundation@6@XZ 0000000180040810 f i _nodert_generated.obj
 0001:0003f850       ?get@MinSamplingInterval@IBluetoothLEAdvertisementWatcher@Advertisement@Bluetooth@Devices@Windows@@UE$AAA?AVTimeSpan@Foundation@6@XZ 0000000180040850 f i _nodert_generated.obj
 0001:0003f890       ?get@Offset@IBluetoothLEAdvertisementBytePattern@Advertisement@Bluetooth@Devices@Windows@@UE$AAAFXZ 0000000180040890 f i _nodert_generated.obj
 0001:0003f8c0       ?get@PublicTargetAddress@BluetoothLEAdvertisementDataTypes@Advertisement@Bluetooth@Devices@Windows@@SAEXZ 00000001800408c0 f i _nodert_generated.obj
 0001:0003f970       ?get@PublicTargetAddress@IBluetoothLEAdvertisementDataTypesStatics@Advertisement@Bluetooth@Devices@Windows@@UE$AAAEXZ 0000000180040970 f i _nodert_generated.obj
 0001:0003f9b0       ?get@RandomTargetAddress@BluetoothLEAdvertisementDataTypes@Advertisement@Bluetooth@Devices@Windows@@SAEXZ 00000001800409b0 f i _nodert_generated.obj
 0001:0003fa60       ?get@RandomTargetAddress@IBluetoothLEAdvertisementDataTypesStatics@Advertisement@Bluetooth@Devices@Windows@@UE$AAAEXZ 0000000180040a60 f i _nodert_generated.obj
 0001:0003faa0       ?get@RawSignalStrengthInDBm@IBluetoothLEAdvertisementReceivedEventArgs@Advertisement@Bluetooth@Devices@Windows@@UE$AAAFXZ 0000000180040aa0 f i _nodert_generated.obj
 0001:0003fad0       ?get@ScanningMode@IBluetoothLEAdvertisementWatcher@Advertisement@Bluetooth@Devices@Windows@@UE$AAA?AW4BluetoothLEScanningMode@3456@XZ 0000000180040ad0 f i _nodert_generated.obj
 0001:0003fb10       ?get@ServiceData128BitUuids@BluetoothLEAdvertisementDataTypes@Advertisement@Bluetooth@Devices@Windows@@SAEXZ 0000000180040b10 f i _nodert_generated.obj
 0001:0003fbc0       ?get@ServiceData128BitUuids@IBluetoothLEAdvertisementDataTypesStatics@Advertisement@Bluetooth@Devices@Windows@@UE$AAAEXZ 0000000180040bc0 f i _nodert_generated.obj
 0001:0003fc00       ?get@ServiceData16BitUuids@BluetoothLEAdvertisementDataTypes@Advertisement@Bluetooth@Devices@Windows@@SAEXZ 0000000180040c00 f i _nodert_generated.obj
 0001:0003fcb0       ?get@ServiceData16BitUuids@IBluetoothLEAdvertisementDataTypesStatics@Advertisement@Bluetooth@Devices@Windows@@UE$AAAEXZ 0000000180040cb0 f i _nodert_generated.obj
 0001:0003fcf0       ?get@ServiceData32BitUuids@BluetoothLEAdvertisementDataTypes@Advertisement@Bluetooth@Devices@Windows@@SAEXZ 0000000180040cf0 f i _nodert_generated.obj
 0001:0003fda0       ?get@ServiceData32BitUuids@IBluetoothLEAdvertisementDataTypesStatics@Advertisement@Bluetooth@Devices@Windows@@UE$AAAEXZ 0000000180040da0 f i _nodert_generated.obj
 0001:0003fde0       ?get@ServiceSolicitation128BitUuids@BluetoothLEAdvertisementDataTypes@Advertisement@Bluetooth@Devices@Windows@@SAEXZ 0000000180040de0 f i _nodert_generated.obj
 0001:0003fe90       ?get@ServiceSolicitation128BitUuids@IBluetoothLEAdvertisementDataTypesStatics@Advertisement@Bluetooth@Devices@Windows@@UE$AAAEXZ 0000000180040e90 f i _nodert_generated.obj
 0001:0003fed0       ?get@ServiceSolicitation16BitUuids@BluetoothLEAdvertisementDataTypes@Advertisement@Bluetooth@Devices@Windows@@SAEXZ 0000000180040ed0 f i _nodert_generated.obj
 0001:0003ff80       ?get@ServiceSolicitation16BitUuids@IBluetoothLEAdvertisementDataTypesStatics@Advertisement@Bluetooth@Devices@Windows@@UE$AAAEXZ 0000000180040f80 f i _nodert_generated.obj
 0001:0003ffc0       ?get@ServiceSolicitation32BitUuids@BluetoothLEAdvertisementDataTypes@Advertisement@Bluetooth@Devices@Windows@@SAEXZ 0000000180040fc0 f i _nodert_generated.obj
 0001:00040070       ?get@ServiceSolicitation32BitUuids@IBluetoothLEAdvertisementDataTypesStatics@Advertisement@Bluetooth@Devices@Windows@@UE$AAAEXZ 0000000180041070 f i _nodert_generated.obj
 0001:000400b0       ?get@ServiceUuids@IBluetoothLEAdvertisement@Advertisement@Bluetooth@Devices@Windows@@UE$AAAPE$AAU?$IVector@VGuid@Platform@@@Collections@Foundation@6@XZ 00000001800410b0 f i _nodert_generated.obj
 0001:00040130       ?get@ShortenedLocalName@BluetoothLEAdvertisementDataTypes@Advertisement@Bluetooth@Devices@Windows@@SAEXZ 0000000180041130 f i _nodert_generated.obj
 0001:000401e0       ?get@ShortenedLocalName@IBluetoothLEAdvertisementDataTypesStatics@Advertisement@Bluetooth@Devices@Windows@@UE$AAAEXZ 00000001800411e0 f i _nodert_generated.obj
 0001:00040210       ?get@SignalStrengthFilter@IBluetoothLEAdvertisementWatcher@Advertisement@Bluetooth@Devices@Windows@@UE$AAAPE$AAVBluetoothSignalStrengthFilter@456@XZ 0000000180041210 f i _nodert_generated.obj
 0001:00040290       ?get@Size@?$IVector@PE$AAVBluetoothLEAdvertisementBytePattern@Advertisement@Bluetooth@Devices@Windows@@@Collections@Foundation@Windows@@UE$AAAIXZ 0000000180041290 f i _nodert_generated.obj
 0001:000402c0       ?get@Size@?$IVector@PE$AAVBluetoothLEAdvertisementDataSection@Advertisement@Bluetooth@Devices@Windows@@@Collections@Foundation@Windows@@UE$AAAIXZ 00000001800412c0 f i _nodert_generated.obj
 0001:000402f0       ?get@Size@?$IVector@PE$AAVBluetoothLEManufacturerData@Advertisement@Bluetooth@Devices@Windows@@@Collections@Foundation@Windows@@UE$AAAIXZ 00000001800412f0 f i _nodert_generated.obj
 0001:00040320       ?get@Size@?$IVector@VGuid@Platform@@@Collections@Foundation@Windows@@UE$AAAIXZ 0000000180041320 f i _nodert_generated.obj
 0001:00040350       ?get@Size@?$IVectorView@PE$AAVBluetoothLEAdvertisementBytePattern@Advertisement@Bluetooth@Devices@Windows@@@Collections@Foundation@Windows@@UE$AAAIXZ 0000000180041350 f i _nodert_generated.obj
 0001:00040380       ?get@Size@?$IVectorView@PE$AAVBluetoothLEAdvertisementDataSection@Advertisement@Bluetooth@Devices@Windows@@@Collections@Foundation@Windows@@UE$AAAIXZ 0000000180041380 f i _nodert_generated.obj
 0001:000403b0       ?get@Size@?$IVectorView@PE$AAVBluetoothLEManufacturerData@Advertisement@Bluetooth@Devices@Windows@@@Collections@Foundation@Windows@@UE$AAAIXZ 00000001800413b0 f i _nodert_generated.obj
 0001:000403e0       ?get@Size@?$IVectorView@VGuid@Platform@@@Collections@Foundation@Windows@@UE$AAAIXZ 00000001800413e0 f i _nodert_generated.obj
 0001:00040410       ?get@SlaveConnectionIntervalRange@BluetoothLEAdvertisementDataTypes@Advertisement@Bluetooth@Devices@Windows@@SAEXZ 0000000180041410 f i _nodert_generated.obj
 0001:000404c0       ?get@SlaveConnectionIntervalRange@IBluetoothLEAdvertisementDataTypesStatics@Advertisement@Bluetooth@Devices@Windows@@UE$AAAEXZ 00000001800414c0 f i _nodert_generated.obj
 0001:00040500       ?get@Status@IBluetoothLEAdvertisementPublisher@Advertisement@Bluetooth@Devices@Windows@@UE$AAA?AW4BluetoothLEAdvertisementPublisherStatus@3456@XZ 0000000180041500 f i _nodert_generated.obj
 0001:00040540       ?get@Status@IBluetoothLEAdvertisementPublisherStatusChangedEventArgs@Advertisement@Bluetooth@Devices@Windows@@UE$AAA?AW4BluetoothLEAdvertisementPublisherStatus@3456@XZ 0000000180041540 f i _nodert_generated.obj
 0001:00040580       ?get@Status@IBluetoothLEAdvertisementWatcher@Advertisement@Bluetooth@Devices@Windows@@UE$AAA?AW4BluetoothLEAdvertisementWatcherStatus@3456@XZ 0000000180041580 f i _nodert_generated.obj
 0001:000405c0       ?get@Timestamp@IBluetoothLEAdvertisementReceivedEventArgs@Advertisement@Bluetooth@Devices@Windows@@UE$AAA?AVDateTime@Foundation@6@XZ 00000001800415c0 f i _nodert_generated.obj
 0001:00040600       ?get@TxPowerLevel@BluetoothLEAdvertisementDataTypes@Advertisement@Bluetooth@Devices@Windows@@SAEXZ 0000000180041600 f i _nodert_generated.obj
 0001:000406b0       ?get@TxPowerLevel@IBluetoothLEAdvertisementDataTypesStatics@Advertisement@Bluetooth@Devices@Windows@@UE$AAAEXZ 00000001800416b0 f i _nodert_generated.obj
 0001:000406e0       ?get@Value@?$IBox@W4BluetoothLEAdvertisementFlags@Advertisement@Bluetooth@Devices@Windows@@@Platform@@UE$AAA?AW4BluetoothLEAdvertisementFlags@Advertisement@Bluetooth@Devices@Windows@@XZ 00000001800416e0 f i _nodert_generated.obj
 0001:00040720       ?get@Value@?$IBox@_J@Platform@@UE$AAA_JXZ 0000000180041720 f i _nodert_generated.obj
 0001:00040750       ?remove@Received@IBluetoothLEAdvertisementWatcher@Advertisement@Bluetooth@Devices@Windows@@UE$AAAXVEventRegistrationToken@Foundation@6@@Z 0000000180041750 f i _nodert_generated.obj
 0001:00040780       ?remove@StatusChanged@IBluetoothLEAdvertisementPublisher@Advertisement@Bluetooth@Devices@Windows@@UE$AAAXVEventRegistrationToken@Foundation@6@@Z 0000000180041780 f i _nodert_generated.obj
 0001:000407b0       ?remove@Stopped@IBluetoothLEAdvertisementWatcher@Advertisement@Bluetooth@Devices@Windows@@UE$AAAXVEventRegistrationToken@Foundation@6@@Z 00000001800417b0 f i _nodert_generated.obj
 0001:000407e0       ?set@Advertisement@IBluetoothLEAdvertisementFilter@1Bluetooth@Devices@Windows@@UE$AAAXPE$AAVBluetoothLEAdvertisement@1345@@Z 00000001800417e0 f i _nodert_generated.obj
 0001:00040810       ?set@AdvertisementFilter@IBluetoothLEAdvertisementWatcher@Advertisement@Bluetooth@Devices@Windows@@UE$AAAXPE$AAVBluetoothLEAdvertisementFilter@3456@@Z 0000000180041810 f i _nodert_generated.obj
 0001:00040840       ?set@CompanyId@IBluetoothLEManufacturerData@Advertisement@Bluetooth@Devices@Windows@@UE$AAAXG@Z 0000000180041840 f i _nodert_generated.obj
 0001:00040870       ?set@Data@IBluetoothLEAdvertisementBytePattern@Advertisement@Bluetooth@Devices@Windows@@UE$AAAXPE$AAUIBuffer@Streams@Storage@6@@Z 0000000180041870 f i _nodert_generated.obj
 0001:000408a0       ?set@Data@IBluetoothLEAdvertisementDataSection@Advertisement@Bluetooth@Devices@Windows@@UE$AAAXPE$AAUIBuffer@Streams@Storage@6@@Z 00000001800418a0 f i _nodert_generated.obj
 0001:000408d0       ?set@Data@IBluetoothLEManufacturerData@Advertisement@Bluetooth@Devices@Windows@@UE$AAAXPE$AAUIBuffer@Streams@Storage@6@@Z 00000001800418d0 f i _nodert_generated.obj
 0001:00040900       ?set@DataType@IBluetoothLEAdvertisementBytePattern@Advertisement@Bluetooth@Devices@Windows@@UE$AAAXE@Z 0000000180041900 f i _nodert_generated.obj
 0001:00040930       ?set@DataType@IBluetoothLEAdvertisementDataSection@Advertisement@Bluetooth@Devices@Windows@@UE$AAAXE@Z 0000000180041930 f i _nodert_generated.obj
 0001:00040960       ?set@Flags@IBluetoothLEAdvertisement@Advertisement@Bluetooth@Devices@Windows@@UE$AAAXPE$AAU?$IBox@W4BluetoothLEAdvertisementFlags@Advertisement@Bluetooth@Devices@Windows@@@Platform@@@Z 0000000180041960 f i _nodert_generated.obj
 0001:00040990       ?set@LocalName@IBluetoothLEAdvertisement@Advertisement@Bluetooth@Devices@Windows@@UE$AAAXPE$AAVString@Platform@@@Z 0000000180041990 f i _nodert_generated.obj
 0001:000409c0       ?set@Offset@IBluetoothLEAdvertisementBytePattern@Advertisement@Bluetooth@Devices@Windows@@UE$AAAXF@Z 00000001800419c0 f i _nodert_generated.obj
 0001:000409f0       ?set@ScanningMode@IBluetoothLEAdvertisementWatcher@Advertisement@Bluetooth@Devices@Windows@@UE$AAAXW4BluetoothLEScanningMode@3456@@Z 00000001800419f0 f i _nodert_generated.obj
 0001:00040a20       ?set@SignalStrengthFilter@IBluetoothLEAdvertisementWatcher@Advertisement@Bluetooth@Devices@Windows@@UE$AAAXPE$AAVBluetoothSignalStrengthFilter@456@@Z 0000000180041a20 f i _nodert_generated.obj
 0001:00040a50       ??$New@VDate@v8@@N@Nan@@YA?AV?$MaybeLocal@VDate@v8@@@v8@@N@Z 0000000180041a50 f i NodeRtUtils.obj
 0001:00040a70       ??$New@VNumber@v8@@M@Nan@@YA?AV?$Local@VNumber@v8@@@v8@@M@Z 0000000180041a70 f i NodeRtUtils.obj
 0001:00040ac0       ??$New@VString@v8@@PEBG@Nan@@YA?AV?$MaybeLocal@VString@v8@@@v8@@PEBG@Z 0000000180041ac0 f i NodeRtUtils.obj
 0001:00040b10       ??1?$basic_string@_WU?$char_traits@_W@std@@V?$allocator@_W@2@@std@@QEAA@XZ 0000000180041b10 f i NodeRtUtils.obj
 0001:00040b70       ??1AsyncResource@Nan@@QEAA@XZ 0000000180041b70 f i NodeRtUtils.obj
 0001:00040bc0       ?CallCallbackInDomain@Utils@NodeRT@@YA?AV?$Local@VValue@v8@@@v8@@V?$Local@VObject@v8@@@4@HQEAV34@@Z 0000000180041bc0 f   NodeRtUtils.obj
 0001:00040c60       ?CaseInsenstiveEquals@Utils@NodeRT@@YA_NPEB_W0@Z 0000000180041c60 f   NodeRtUtils.obj
 0001:00040ce0       ?CaseInsenstiveEquals@Utils@NodeRT@@YA_NPEB_WPEBG@Z 0000000180041ce0 f   NodeRtUtils.obj
 0001:00040d60       ?ColorFromJs@Utils@NodeRT@@YA?AVColor@UI@Windows@@V?$Local@VValue@v8@@@v8@@@Z 0000000180041d60 f   NodeRtUtils.obj
 0001:00041210       ?ColorToJs@Utils@NodeRT@@YA?AV?$Local@VObject@v8@@@v8@@VColor@UI@Windows@@@Z 0000000180042210 f   NodeRtUtils.obj
 0001:00041500       ?CreateCallbackObjectInDomain@Utils@NodeRT@@YA?AV?$Local@VObject@v8@@@v8@@V?$Local@VFunction@v8@@@4@@Z 0000000180042500 f   NodeRtUtils.obj
 0001:000417f0       ?CreateExternalWinRTObject@Utils@NodeRT@@YA?AV?$Local@VValue@v8@@@v8@@PEBD0PE$AAVObject@Platform@@@Z 00000001800427f0 f   NodeRtUtils.obj
 0001:00041bf0       ?DateTimeFromJSDate@Utils@NodeRT@@YA?AVDateTime@Foundation@Windows@@V?$Local@VValue@v8@@@v8@@@Z 0000000180042bf0 f   NodeRtUtils.obj
 0001:00041c40       ?DateTimeToJS@Utils@NodeRT@@YA?AV?$Local@VDate@v8@@@v8@@VDateTime@Foundation@Windows@@@Z 0000000180042c40 f   NodeRtUtils.obj
 0001:00041cb0       ?ForceSet@Nan@@YA?AV?$Maybe@_N@v8@@V?$Local@VObject@v8@@@3@V?$Local@VValue@v8@@@3@1W4PropertyAttribute@3@@Z 0000000180042cb0 f i NodeRtUtils.obj
 0001:00041db0       ?GetFirstChar@Utils@NodeRT@@YA_WV?$Local@VValue@v8@@@v8@@@Z 0000000180042db0 f   NodeRtUtils.obj
 0001:00041e70       ?GetHiddenValue@Utils@NodeRT@@YA?AV?$Local@VValue@v8@@@v8@@V?$Local@VObject@v8@@@4@V?$Local@VString@v8@@@4@@Z 0000000180042e70 f   NodeRtUtils.obj
 0001:00041ec0       ?GetObjectInstance@Utils@NodeRT@@YAPE$AAVObject@Platform@@V?$Local@VValue@v8@@@v8@@@Z 0000000180042ec0 f   NodeRtUtils.obj
 0001:00041f70       ?GuidFromJs@Utils@NodeRT@@YA?AVGuid@Platform@@V?$Local@VValue@v8@@@v8@@@Z 0000000180042f70 f   NodeRtUtils.obj
 0001:00042040       ?GuidToJs@Utils@NodeRT@@YA?AV?$Local@VString@v8@@@v8@@VGuid@Platform@@@Z 0000000180043040 f   NodeRtUtils.obj
 0001:000420e0       ?HResultFromJsInt32@Utils@NodeRT@@YA?AVHResult@Foundation@Windows@@H@Z 00000001800430e0 f   NodeRtUtils.obj
 0001:000420f0       ?Has@Nan@@YA?AV?$Maybe@_N@v8@@V?$Local@VObject@v8@@@3@V?$Local@VString@v8@@@3@@Z 00000001800430f0 f i NodeRtUtils.obj
 0001:00042190       ?IsColor@Utils@NodeRT@@YA_NV?$Local@VValue@v8@@@v8@@@Z 0000000180043190 f   NodeRtUtils.obj
 0001:000423b0       ?IsGuid@Utils@NodeRT@@YA_NV?$Local@VValue@v8@@@v8@@@Z 00000001800433b0 f   NodeRtUtils.obj
 0001:000423f0       ?IsPoint@Utils@NodeRT@@YA_NV?$Local@VValue@v8@@@v8@@@Z 00000001800433f0 f   NodeRtUtils.obj
 0001:00042520       ?IsRect@Utils@NodeRT@@YA_NV?$Local@VValue@v8@@@v8@@@Z 0000000180043520 f   NodeRtUtils.obj
 0001:00042740       ?IsSize@Utils@NodeRT@@YA_NV?$Local@VValue@v8@@@v8@@@Z 0000000180043740 f   NodeRtUtils.obj
 0001:00042870       ?IsWinRtWrapper@Utils@NodeRT@@YA_NV?$Local@VValue@v8@@@v8@@@Z 0000000180043870 f   NodeRtUtils.obj
 0001:00042a10       ?JsStringFromChar@Utils@NodeRT@@YA?AV?$Local@VString@v8@@@v8@@_W@Z 0000000180043a10 f   NodeRtUtils.obj
 0001:00042a80       ?MakeCallback@Nan@@YA?AV?$Local@VValue@v8@@@v8@@V?$Local@VObject@v8@@@3@V?$Local@VString@v8@@@3@HPEAV23@@Z 0000000180043a80 f i NodeRtUtils.obj
 0001:00042c40       ?New@?$Factory@VDate@v8@@@imp@Nan@@SA?AV?$MaybeLocal@VDate@v8@@@v8@@N@Z 0000000180043c40 f i NodeRtUtils.obj
 0001:00042cf0       ?NewString@Utils@NodeRT@@YA?AV?$Local@VString@v8@@@v8@@PEB_W@Z 0000000180043cf0 f   NodeRtUtils.obj
 0001:00042d60       ?PointFromJs@Utils@NodeRT@@YA?AVPoint@Foundation@Windows@@V?$Local@VValue@v8@@@v8@@@Z 0000000180043d60 f   NodeRtUtils.obj
 0001:00043050       ?PointToJs@Utils@NodeRT@@YA?AV?$Local@VObject@v8@@@v8@@VPoint@Foundation@Windows@@@Z 0000000180044050 f   NodeRtUtils.obj
 0001:00043240       ?RectFromJs@Utils@NodeRT@@YA?AVRect@Foundation@Windows@@V?$Local@VValue@v8@@@v8@@@Z 0000000180044240 f   NodeRtUtils.obj
 0001:00043720       ?RectToJs@Utils@NodeRT@@YA?AV?$Local@VObject@v8@@@v8@@VRect@Foundation@Windows@@@Z 0000000180044720 f   NodeRtUtils.obj
 0001:00043bf0       ?RegisterNameSpace@Utils@NodeRT@@YAXPEBDV?$Local@VValue@v8@@@v8@@@Z 0000000180044bf0 f   NodeRtUtils.obj
 0001:00043e40       ?SetHiddenValue@Utils@NodeRT@@YAXV?$Local@VObject@v8@@@v8@@V?$Local@VString@v8@@@4@V?$Local@VPrimitive@v8@@@4@@Z 0000000180044e40 f   NodeRtUtils.obj
 0001:00043e70       ?SetHiddenValueWithObject@Utils@NodeRT@@YAXV?$Local@VObject@v8@@@v8@@V?$Local@VString@v8@@@4@0@Z 0000000180044e70 f   NodeRtUtils.obj
 0001:00043ea0       ?SizeFromJs@Utils@NodeRT@@YA?AVSize@Foundation@Windows@@V?$Local@VValue@v8@@@v8@@@Z 0000000180044ea0 f   NodeRtUtils.obj
 0001:00044190       ?SizeToJs@Utils@NodeRT@@YA?AV?$Local@VObject@v8@@@v8@@VSize@Foundation@Windows@@@Z 0000000180045190 f   NodeRtUtils.obj
 0001:00044380       ?StrToGuid@Utils@NodeRT@@YA_NV?$Local@VValue@v8@@@v8@@PEAU_GUID@@@Z 0000000180045380 f   NodeRtUtils.obj
 0001:00044520       ?StringToWchar@Utils@NodeRT@@YAPEB_WAEAVValue@String@v8@@@Z 0000000180045520 f   NodeRtUtils.obj
 0001:00044530       ?ThrowWinRtExceptionInJs@Utils@NodeRT@@YAXPE$AAVException@Platform@@@Z 0000000180045530 f   NodeRtUtils.obj
 0001:00044580       ?TimeSpanFromMilli@Utils@NodeRT@@YA?AVTimeSpan@Foundation@Windows@@_J@Z 0000000180045580 f   NodeRtUtils.obj
 0001:00044590       ?V8StringToPlatformString@Utils@NodeRT@@YAPE$AAVString@Platform@@V?$Local@VValue@v8@@@v8@@@Z 0000000180045590 f   NodeRtUtils.obj
 0001:00044610       ?WinRtExceptionToJsError@Utils@NodeRT@@YA?AV?$Local@VValue@v8@@@v8@@PE$AAVException@Platform@@@Z 0000000180045610 f   NodeRtUtils.obj
 0001:00044850       ?_Copy@?$basic_string@_WU?$char_traits@_W@std@@V?$allocator@_W@2@@std@@QEAAX_K0@Z 0000000180045850 f i NodeRtUtils.obj
 0001:000449a0       ?allocate@?$allocator@_W@std@@QEAAPEA_W_K@Z 00000001800459a0 f i NodeRtUtils.obj
 0001:00044a40       ?append@?$basic_string@_WU?$char_traits@_W@std@@V?$allocator@_W@2@@std@@QEAAAEAV12@AEBV12@_K1@Z 0000000180045a40 f i NodeRtUtils.obj
 0001:00044bb0       ?append@?$basic_string@_WU?$char_traits@_W@std@@V?$allocator@_W@2@@std@@QEAAAEAV12@PEB_W_K@Z 0000000180045bb0 f i NodeRtUtils.obj
 0001:00044d70       ?assign@?$basic_string@_WU?$char_traits@_W@std@@V?$allocator@_W@2@@std@@QEAAAEAV12@AEBV12@_K1@Z 0000000180045d70 f i NodeRtUtils.obj
 0001:00044ef0       ?assign@?$basic_string@_WU?$char_traits@_W@std@@V?$allocator@_W@2@@std@@QEAAAEAV12@PEB_W_K@Z 0000000180045ef0 f i NodeRtUtils.obj
 0001:00045090       ?convert@?$ToFactory@I@imp@Nan@@SA?AV?$Maybe@I@v8@@V?$Local@VValue@v8@@@5@@Z 0000000180046090 f i NodeRtUtils.obj
 0001:00045130       ?convert@?$ToFactory@N@imp@Nan@@SA?AV?$Maybe@N@v8@@V?$Local@VValue@v8@@@5@@Z 0000000180046130 f i NodeRtUtils.obj
 0001:000451d0       ?deallocate@?$allocator@_W@std@@QEAAXPEA_W_K@Z 00000001800461d0 f i NodeRtUtils.obj
 0001:00045260       ?erase@?$basic_string@_WU?$char_traits@_W@std@@V?$allocator@_W@2@@std@@QEAAAEAV12@_K0@Z 0000000180046260 f i NodeRtUtils.obj
 0001:00045340       ?get@Black@Colors@UI@Windows@@SA?AVColor@34@XZ 0000000180046340 f i NodeRtUtils.obj
 0001:00045400       ?get@Black@IColorsStatics@UI@Windows@@UE$AAA?AVColor@34@XZ 0000000180046400 f i NodeRtUtils.obj
 0001:00045440       ??0OpaqueWrapper@NodeRT@@AEAA@PE$AAVObject@Platform@@@Z 0000000180046440 f i OpaqueWrapper.obj
 0001:000454b0       ??_GOpaqueWrapper@NodeRT@@UEAAPEAXI@Z 00000001800464b0 f i OpaqueWrapper.obj
 0001:000454b0       ??_EOpaqueWrapper@NodeRT@@UEAAPEAXI@Z 00000001800464b0 f i OpaqueWrapper.obj
 0001:00045520       ?CreateOpaqueWrapper@NodeRT@@YA?AV?$Local@VValue@v8@@@v8@@PE$AAVObject@Platform@@@Z 0000000180046520 f   OpaqueWrapper.obj
 0001:000457b0       ?GetObjectInstance@OpaqueWrapper@NodeRT@@UEBAPE$AAVObject@Platform@@XZ 00000001800467b0 f i OpaqueWrapper.obj
 0001:000457e0       ?Init@OpaqueWrapper@NodeRT@@CAXXZ 00000001800467e0 f   OpaqueWrapper.obj
 0001:00045940       ?New@OpaqueWrapper@NodeRT@@CAXAEBV?$FunctionCallbackInfo@VValue@v8@@@Nan@@@Z 0000000180046940 f   OpaqueWrapper.obj
 0001:00045a10       ??8std@@YA_NAEBVBasicGeoposition@Geolocation@Devices@Windows@@0@Z 0000000180046a10 f   CollectionsConverterUtils.obj
 0001:00045a50       ??8std@@YA_NAEBVSortEntry@Search@Storage@Windows@@0@Z 0000000180046a50 f   CollectionsConverterUtils.obj
 0001:00045aa0       ??8std@@YA_NAEBVTextSegment@Text@Data@Windows@@0@Z 0000000180046aa0 f   CollectionsConverterUtils.obj
 0001:00045ac0       ??8std@@YA_NAEBVTimeSpan@Foundation@Windows@@0@Z 0000000180046ac0 f   CollectionsConverterUtils.obj
 0001:00045b32       GetModuleHandleA           0000000180046b32 f   kernel32:KERNEL32.dll
 0001:00045b38       CoInitializeEx             0000000180046b38 f   ole32:ole32.dll
 0001:00045b3e       StringFromCLSID            0000000180046b3e f   ole32:ole32.dll
 0001:00045b44       CLSIDFromString            0000000180046b44 f   ole32:ole32.dll
 0001:00045b4a       __Platform_CoTaskMemFree   0000000180046b4a f   ole32:ole32.dll
 0001:00045b4a       CoTaskMemFree              0000000180046b4a f   ole32:ole32.dll
 0001:00045b50       __imp_load_??0HandleScope@v8@@QEAA@PEAVIsolate@1@@Z 0000000180046b50 f   node:node.exe
 0001:00045b5c       __tailMerge_node_exe       0000000180046b5c f i node:node.exe
 0001:00045bd5       ??0HandleScope@v8@@QEAA@PEAVIsolate@1@@Z 0000000180046bd5 f   node:node.exe
 0001:00045bdb       __imp_load_??1HandleScope@v8@@QEAA@XZ 0000000180046bdb f   node:node.exe
 0001:00045be7       ??1HandleScope@v8@@QEAA@XZ 0000000180046be7 f   node:node.exe
 0001:00045bed       __imp_load_?CreateHandle@HandleScope@v8@@KAPEAPEAVObject@internal@2@PEAVIsolate@42@PEAV342@@Z 0000000180046bed f   node:node.exe
 0001:00045bf9       ?CreateHandle@HandleScope@v8@@KAPEAPEAVObject@internal@2@PEAVIsolate@42@PEAV342@@Z 0000000180046bf9 f   node:node.exe
 0001:00045bff       __imp_load_?CreateHandle@HandleScope@v8@@CAPEAPEAVObject@internal@2@PEAVNeverReadOnlySpaceObject@42@PEAV342@@Z 0000000180046bff f   node:node.exe
 0001:00045c0b       ?CreateHandle@HandleScope@v8@@CAPEAPEAVObject@internal@2@PEAVNeverReadOnlySpaceObject@42@PEAV342@@Z 0000000180046c0b f   node:node.exe
 0001:00045c11       __imp_load_??0EscapableHandleScope@v8@@QEAA@PEAVIsolate@1@@Z 0000000180046c11 f   node:node.exe
 0001:00045c1d       ??0EscapableHandleScope@v8@@QEAA@PEAVIsolate@1@@Z 0000000180046c1d f   node:node.exe
 0001:00045c23       __imp_load_??1EscapableHandleScope@v8@@QEAA@XZ 0000000180046c23 f   node:node.exe
 0001:00045c2f       ??1EscapableHandleScope@v8@@QEAA@XZ 0000000180046c2f f   node:node.exe
 0001:00045c35       __imp_load_?Escape@EscapableHandleScope@v8@@AEAAPEAPEAVObject@internal@2@PEAPEAV342@@Z 0000000180046c35 f   node:node.exe
 0001:00045c41       ?Escape@EscapableHandleScope@v8@@AEAAPEAPEAVObject@internal@2@PEAPEAV342@@Z 0000000180046c41 f   node:node.exe
 0001:00045c47       __imp_load_?IsFunction@Value@v8@@QEBA_NXZ 0000000180046c47 f   node:node.exe
 0001:00045c53       ?IsFunction@Value@v8@@QEBA_NXZ 0000000180046c53 f   node:node.exe
 0001:00045c59       __imp_load_?IsObject@Value@v8@@QEBA_NXZ 0000000180046c59 f   node:node.exe
 0001:00045c65       ?IsObject@Value@v8@@QEBA_NXZ 0000000180046c65 f   node:node.exe
 0001:00045c6b       __imp_load_?IsBoolean@Value@v8@@QEBA_NXZ 0000000180046c6b f   node:node.exe
 0001:00045c77       ?IsBoolean@Value@v8@@QEBA_NXZ 0000000180046c77 f   node:node.exe
 0001:00045c7d       __imp_load_?IsInt32@Value@v8@@QEBA_NXZ 0000000180046c7d f   node:node.exe
 0001:00045c89       ?IsInt32@Value@v8@@QEBA_NXZ 0000000180046c89 f   node:node.exe
 0001:00045c8f       __imp_load_?IsUint32@Value@v8@@QEBA_NXZ 0000000180046c8f f   node:node.exe
 0001:00045c9b       ?IsUint32@Value@v8@@QEBA_NXZ 0000000180046c9b f   node:node.exe
 0001:00045ca1       __imp_load_?ToString@Value@v8@@QEBA?AV?$MaybeLocal@VString@v8@@@2@V?$Local@VContext@v8@@@2@@Z 0000000180046ca1 f   node:node.exe
 0001:00045cad       ?ToString@Value@v8@@QEBA?AV?$MaybeLocal@VString@v8@@@2@V?$Local@VContext@v8@@@2@@Z 0000000180046cad f   node:node.exe
 0001:00045cb3       __imp_load_?ToObject@Value@v8@@QEBA?AV?$MaybeLocal@VObject@v8@@@2@V?$Local@VContext@v8@@@2@@Z 0000000180046cb3 f   node:node.exe
 0001:00045cbf       ?ToObject@Value@v8@@QEBA?AV?$MaybeLocal@VObject@v8@@@2@V?$Local@VContext@v8@@@2@@Z 0000000180046cbf f   node:node.exe
 0001:00045cc5       __imp_load_?ToInteger@Value@v8@@QEBA?AV?$MaybeLocal@VInteger@v8@@@2@V?$Local@VContext@v8@@@2@@Z 0000000180046cc5 f   node:node.exe
 0001:00045cd1       ?ToInteger@Value@v8@@QEBA?AV?$MaybeLocal@VInteger@v8@@@2@V?$Local@VContext@v8@@@2@@Z 0000000180046cd1 f   node:node.exe
 0001:00045cd7       __imp_load_?Int32Value@Value@v8@@QEBA?AV?$Maybe@H@2@V?$Local@VContext@v8@@@2@@Z 0000000180046cd7 f   node:node.exe
 0001:00045ce3       ?Int32Value@Value@v8@@QEBA?AV?$Maybe@H@2@V?$Local@VContext@v8@@@2@@Z 0000000180046ce3 f   node:node.exe
 0001:00045ce9       __imp_load_?Uint32Value@Value@v8@@QEBAIXZ 0000000180046ce9 f   node:node.exe
 0001:00045cf5       ?Uint32Value@Value@v8@@QEBAIXZ 0000000180046cf5 f   node:node.exe
 0001:00045cfb       __imp_load_?Equals@Value@v8@@QEBA_NV?$Local@VValue@v8@@@2@@Z 0000000180046cfb f   node:node.exe
 0001:00045d07       ?Equals@Value@v8@@QEBA_NV?$Local@VValue@v8@@@2@@Z 0000000180046d07 f   node:node.exe
 0001:00045d0d       __imp_load_?Equals@Value@v8@@QEBA?AV?$Maybe@_N@2@V?$Local@VContext@v8@@@2@V?$Local@VValue@v8@@@2@@Z 0000000180046d0d f   node:node.exe
 0001:00045d19       ?Equals@Value@v8@@QEBA?AV?$Maybe@_N@2@V?$Local@VContext@v8@@@2@V?$Local@VValue@v8@@@2@@Z 0000000180046d19 f   node:node.exe
 0001:00045d1f       __imp_load_?NewFromUtf8@String@v8@@SA?AV?$MaybeLocal@VString@v8@@@2@PEAVIsolate@2@PEBDW4NewStringType@2@H@Z 0000000180046d1f f   node:node.exe
 0001:00045d2b       ?NewFromUtf8@String@v8@@SA?AV?$MaybeLocal@VString@v8@@@2@PEAVIsolate@2@PEBDW4NewStringType@2@H@Z 0000000180046d2b f   node:node.exe
 0001:00045d31       __imp_load_?Concat@String@v8@@SA?AV?$Local@VString@v8@@@2@V32@0@Z 0000000180046d31 f   node:node.exe
 0001:00045d3d       ?Concat@String@v8@@SA?AV?$Local@VString@v8@@@2@V32@0@Z 0000000180046d3d f   node:node.exe
 0001:00045d43       __imp_load_??0Value@String@v8@@QEAA@V?$Local@VValue@v8@@@2@@Z 0000000180046d43 f   node:node.exe
 0001:00045d4f       ??0Value@String@v8@@QEAA@V?$Local@VValue@v8@@@2@@Z 0000000180046d4f f   node:node.exe
 0001:00045d55       __imp_load_??1Value@String@v8@@QEAA@XZ 0000000180046d55 f   node:node.exe
 0001:00045d61       ??1Value@String@v8@@QEAA@XZ 0000000180046d61 f   node:node.exe
 0001:00045d67       __imp_load_?New@Number@v8@@SA?AV?$Local@VNumber@v8@@@2@PEAVIsolate@2@N@Z 0000000180046d67 f   node:node.exe
 0001:00045d73       ?New@Number@v8@@SA?AV?$Local@VNumber@v8@@@2@PEAVIsolate@2@N@Z 0000000180046d73 f   node:node.exe
 0001:00045d79       __imp_load_?New@Integer@v8@@SA?AV?$Local@VInteger@v8@@@2@PEAVIsolate@2@H@Z 0000000180046d79 f   node:node.exe
 0001:00045d85       ?New@Integer@v8@@SA?AV?$Local@VInteger@v8@@@2@PEAVIsolate@2@H@Z 0000000180046d85 f   node:node.exe
 0001:00045d8b       __imp_load_?NewFromUnsigned@Integer@v8@@SA?AV?$Local@VInteger@v8@@@2@PEAVIsolate@2@I@Z 0000000180046d8b f   node:node.exe
 0001:00045d97       ?NewFromUnsigned@Integer@v8@@SA?AV?$Local@VInteger@v8@@@2@PEAVIsolate@2@I@Z 0000000180046d97 f   node:node.exe
 0001:00045d9d       __imp_load_?Set@Object@v8@@QEAA?AV?$Maybe@_N@2@V?$Local@VContext@v8@@@2@V?$Local@VValue@v8@@@2@1@Z 0000000180046d9d f   node:node.exe
 0001:00045da9       ?Set@Object@v8@@QEAA?AV?$Maybe@_N@2@V?$Local@VContext@v8@@@2@V?$Local@VValue@v8@@@2@1@Z 0000000180046da9 f   node:node.exe
 0001:00045daf       __imp_load_?Get@Object@v8@@QEAA?AV?$MaybeLocal@VValue@v8@@@2@V?$Local@VContext@v8@@@2@V?$Local@VValue@v8@@@2@@Z 0000000180046daf f   node:node.exe
 0001:00045dbb       ?Get@Object@v8@@QEAA?AV?$MaybeLocal@VValue@v8@@@2@V?$Local@VContext@v8@@@2@V?$Local@VValue@v8@@@2@@Z 0000000180046dbb f   node:node.exe
 0001:00045dc1       __imp_load_?Delete@Object@v8@@QEAA?AV?$Maybe@_N@2@V?$Local@VContext@v8@@@2@V?$Local@VValue@v8@@@2@@Z 0000000180046dc1 f   node:node.exe
 0001:00045dcd       ?Delete@Object@v8@@QEAA?AV?$Maybe@_N@2@V?$Local@VContext@v8@@@2@V?$Local@VValue@v8@@@2@@Z 0000000180046dcd f   node:node.exe
 0001:00045dd3       __imp_load_?SetAccessor@Object@v8@@QEAA?AV?$Maybe@_N@2@V?$Local@VContext@v8@@@2@V?$Local@VName@v8@@@2@P6AX1AEBV?$PropertyCallbackInfo@VValue@v8@@@2@@ZP6AX1V?$Local@VValue@v8@@@2@AEBV?$PropertyCallbackInfo@X@2@@ZV?$MaybeLocal@VValue@v8@@@2@W4AccessControl@2@W4PropertyAttribute@2@W4SideEffectType@2@@Z 0000000180046dd3 f   node:node.exe
 0001:00045ddf       ?SetAccessor@Object@v8@@QEAA?AV?$Maybe@_N@2@V?$Local@VContext@v8@@@2@V?$Local@VName@v8@@@2@P6AX1AEBV?$PropertyCallbackInfo@VValue@v8@@@2@@ZP6AX1V?$Local@VValue@v8@@@2@AEBV?$PropertyCallbackInfo@X@2@@ZV?$MaybeLocal@VValue@v8@@@2@W4AccessControl@2@W4PropertyAttribute@2@W4SideEffectType@2@@Z 0000000180046ddf f   node:node.exe
 0001:00045de5       __imp_load_?InternalFieldCount@Object@v8@@QEAAHXZ 0000000180046de5 f   node:node.exe
 0001:00045df1       ?InternalFieldCount@Object@v8@@QEAAHXZ 0000000180046df1 f   node:node.exe
 0001:00045df7       __imp_load_?SetInternalField@Object@v8@@QEAAXHV?$Local@VValue@v8@@@2@@Z 0000000180046df7 f   node:node.exe
 0001:00045e03       ?SetInternalField@Object@v8@@QEAAXHV?$Local@VValue@v8@@@2@@Z 0000000180046e03 f   node:node.exe
 0001:00045e09       __imp_load_?SetAlignedPointerInInternalField@Object@v8@@QEAAXHPEAX@Z 0000000180046e09 f   node:node.exe
 0001:00045e15       ?SetAlignedPointerInInternalField@Object@v8@@QEAAXHPEAX@Z 0000000180046e15 f   node:node.exe
 0001:00045e1b       __imp_load_?New@Object@v8@@SA?AV?$Local@VObject@v8@@@2@PEAVIsolate@2@@Z 0000000180046e1b f   node:node.exe
 0001:00045e27       ?New@Object@v8@@SA?AV?$Local@VObject@v8@@@2@PEAVIsolate@2@@Z 0000000180046e27 f   node:node.exe
 0001:00045e2d       __imp_load_?SlowGetInternalField@Object@v8@@AEAA?AV?$Local@VValue@v8@@@2@H@Z 0000000180046e2d f   node:node.exe
 0001:00045e39       ?SlowGetInternalField@Object@v8@@AEAA?AV?$Local@VValue@v8@@@2@H@Z 0000000180046e39 f   node:node.exe
 0001:00045e3f       __imp_load_?SlowGetAlignedPointerFromInternalField@Object@v8@@AEAAPEAXH@Z 0000000180046e3f f   node:node.exe
 0001:00045e4b       ?SlowGetAlignedPointerFromInternalField@Object@v8@@AEAAPEAXH@Z 0000000180046e4b f   node:node.exe
 0001:00045e51       __imp_load_?NewInstance@Function@v8@@QEBA?AV?$MaybeLocal@VObject@v8@@@2@V?$Local@VContext@v8@@@2@HQEAV?$Local@VValue@v8@@@2@@Z 0000000180046e51 f   node:node.exe
 0001:00045e5d       ?NewInstance@Function@v8@@QEBA?AV?$MaybeLocal@VObject@v8@@@2@V?$Local@VContext@v8@@@2@HQEAV?$Local@VValue@v8@@@2@@Z 0000000180046e5d f   node:node.exe
 0001:00045e63       __imp_load_?New@External@v8@@SA?AV?$Local@VExternal@v8@@@2@PEAVIsolate@2@PEAX@Z 0000000180046e63 f   node:node.exe
 0001:00045e6f       ?New@External@v8@@SA?AV?$Local@VExternal@v8@@@2@PEAVIsolate@2@PEAX@Z 0000000180046e6f f   node:node.exe
 0001:00045e75       __imp_load_?Value@External@v8@@QEBAPEAXXZ 0000000180046e75 f   node:node.exe
 0001:00045e81       ?Value@External@v8@@QEBAPEAXXZ 0000000180046e81 f   node:node.exe
 0001:00045e87       __imp_load_?Set@Template@v8@@QEAAXV?$Local@VName@v8@@@2@V?$Local@VData@v8@@@2@W4PropertyAttribute@2@@Z 0000000180046e87 f   node:node.exe
 0001:00045e93       ?Set@Template@v8@@QEAAXV?$Local@VName@v8@@@2@V?$Local@VData@v8@@@2@W4PropertyAttribute@2@@Z 0000000180046e93 f   node:node.exe
 0001:00045e99       __imp_load_?New@FunctionTemplate@v8@@SA?AV?$Local@VFunctionTemplate@v8@@@2@PEAVIsolate@2@P6AXAEBV?$FunctionCallbackInfo@VValue@v8@@@2@@ZV?$Local@VValue@v8@@@2@V?$Local@VSignature@v8@@@2@HW4ConstructorBehavior@2@W4SideEffectType@2@@Z 0000000180046e99 f   node:node.exe
 0001:00045ea5       ?New@FunctionTemplate@v8@@SA?AV?$Local@VFunctionTemplate@v8@@@2@PEAVIsolate@2@P6AXAEBV?$FunctionCallbackInfo@VValue@v8@@@2@@ZV?$Local@VValue@v8@@@2@V?$Local@VSignature@v8@@@2@HW4ConstructorBehavior@2@W4SideEffectType@2@@Z 0000000180046ea5 f   node:node.exe
 0001:00045eab       __imp_load_?GetFunction@FunctionTemplate@v8@@QEAA?AV?$MaybeLocal@VFunction@v8@@@2@V?$Local@VContext@v8@@@2@@Z 0000000180046eab f   node:node.exe
 0001:00045eb7       ?GetFunction@FunctionTemplate@v8@@QEAA?AV?$MaybeLocal@VFunction@v8@@@2@V?$Local@VContext@v8@@@2@@Z 0000000180046eb7 f   node:node.exe
 0001:00045ebd       __imp_load_?InstanceTemplate@FunctionTemplate@v8@@QEAA?AV?$Local@VObjectTemplate@v8@@@2@XZ 0000000180046ebd f   node:node.exe
 0001:00045ec9       ?InstanceTemplate@FunctionTemplate@v8@@QEAA?AV?$Local@VObjectTemplate@v8@@@2@XZ 0000000180046ec9 f   node:node.exe
 0001:00045ecf       __imp_load_?PrototypeTemplate@FunctionTemplate@v8@@QEAA?AV?$Local@VObjectTemplate@v8@@@2@XZ 0000000180046ecf f   node:node.exe
 0001:00045edb       ?PrototypeTemplate@FunctionTemplate@v8@@QEAA?AV?$Local@VObjectTemplate@v8@@@2@XZ 0000000180046edb f   node:node.exe
 0001:00045ee1       __imp_load_?SetClassName@FunctionTemplate@v8@@QEAAXV?$Local@VString@v8@@@2@@Z 0000000180046ee1 f   node:node.exe
 0001:00045eed       ?SetClassName@FunctionTemplate@v8@@QEAAXV?$Local@VString@v8@@@2@@Z 0000000180046eed f   node:node.exe
 0001:00045ef3       __imp_load_?HasInstance@FunctionTemplate@v8@@QEAA_NV?$Local@VValue@v8@@@2@@Z 0000000180046ef3 f   node:node.exe
 0001:00045eff       ?HasInstance@FunctionTemplate@v8@@QEAA_NV?$Local@VValue@v8@@@2@@Z 0000000180046eff f   node:node.exe
 0001:00045f05       __imp_load_?New@ObjectTemplate@v8@@SA?AV?$Local@VObjectTemplate@v8@@@2@PEAVIsolate@2@V?$Local@VFunctionTemplate@v8@@@2@@Z 0000000180046f05 f   node:node.exe
 0001:00045f11       ?New@ObjectTemplate@v8@@SA?AV?$Local@VObjectTemplate@v8@@@2@PEAVIsolate@2@V?$Local@VFunctionTemplate@v8@@@2@@Z 0000000180046f11 f   node:node.exe
 0001:00045f17       __imp_load_?NewInstance@ObjectTemplate@v8@@QEAA?AV?$MaybeLocal@VObject@v8@@@2@V?$Local@VContext@v8@@@2@@Z 0000000180046f17 f   node:node.exe
 0001:00045f23       ?NewInstance@ObjectTemplate@v8@@QEAA?AV?$MaybeLocal@VObject@v8@@@2@V?$Local@VContext@v8@@@2@@Z 0000000180046f23 f   node:node.exe
 0001:00045f29       __imp_load_?SetAccessor@ObjectTemplate@v8@@QEAAXV?$Local@VName@v8@@@2@P6AX0AEBV?$PropertyCallbackInfo@VValue@v8@@@2@@ZP6AX0V?$Local@VValue@v8@@@2@AEBV?$PropertyCallbackInfo@X@2@@Z3W4AccessControl@2@W4PropertyAttribute@2@V?$Local@VAccessorSignature@v8@@@2@W4SideEffectType@2@@Z 0000000180046f29 f   node:node.exe
 0001:00045f35       ?SetAccessor@ObjectTemplate@v8@@QEAAXV?$Local@VName@v8@@@2@P6AX0AEBV?$PropertyCallbackInfo@VValue@v8@@@2@@ZP6AX0V?$Local@VValue@v8@@@2@AEBV?$PropertyCallbackInfo@X@2@@Z3W4AccessControl@2@W4PropertyAttribute@2@V?$Local@VAccessorSignature@v8@@@2@W4SideEffectType@2@@Z 0000000180046f35 f   node:node.exe
 0001:00045f3b       __imp_load_?SetHandler@ObjectTemplate@v8@@QEAAXAEBUIndexedPropertyHandlerConfiguration@2@@Z 0000000180046f3b f   node:node.exe
 0001:00045f47       ?SetHandler@ObjectTemplate@v8@@QEAAXAEBUIndexedPropertyHandlerConfiguration@2@@Z 0000000180046f47 f   node:node.exe
 0001:00045f4d       __imp_load_?SetInternalFieldCount@ObjectTemplate@v8@@QEAAXH@Z 0000000180046f4d f   node:node.exe
 0001:00045f59       ?SetInternalFieldCount@ObjectTemplate@v8@@QEAAXH@Z 0000000180046f59 f   node:node.exe
 0001:00045f5f       __imp_load_?New@Signature@v8@@SA?AV?$Local@VSignature@v8@@@2@PEAVIsolate@2@V?$Local@VFunctionTemplate@v8@@@2@@Z 0000000180046f5f f   node:node.exe
 0001:00045f6b       ?New@Signature@v8@@SA?AV?$Local@VSignature@v8@@@2@PEAVIsolate@2@V?$Local@VFunctionTemplate@v8@@@2@@Z 0000000180046f6b f   node:node.exe
 0001:00045f71       __imp_load_?Error@Exception@v8@@SA?AV?$Local@VValue@v8@@@2@V?$Local@VString@v8@@@2@@Z 0000000180046f71 f   node:node.exe
 0001:00045f7d       ?Error@Exception@v8@@SA?AV?$Local@VValue@v8@@@2@V?$Local@VString@v8@@@2@@Z 0000000180046f7d f   node:node.exe
 0001:00045f83       __imp_load_?GetCurrent@Isolate@v8@@SAPEAV12@XZ 0000000180046f83 f   node:node.exe
 0001:00045f8f       ?GetCurrent@Isolate@v8@@SAPEAV12@XZ 0000000180046f8f f   node:node.exe
 0001:00045f95       __imp_load_?GetCurrentContext@Isolate@v8@@QEAA?AV?$Local@VContext@v8@@@2@XZ 0000000180046f95 f   node:node.exe
 0001:00045fa1       ?GetCurrentContext@Isolate@v8@@QEAA?AV?$Local@VContext@v8@@@2@XZ 0000000180046fa1 f   node:node.exe
 0001:00045fa7       __imp_load_?ThrowException@Isolate@v8@@QEAA?AV?$Local@VValue@v8@@@2@V32@@Z 0000000180046fa7 f   node:node.exe
 0001:00045fb3       ?ThrowException@Isolate@v8@@QEAA?AV?$Local@VValue@v8@@@2@V32@@Z 0000000180046fb3 f   node:node.exe
 0001:00045fb9       __imp_load_?GlobalizeReference@V8@v8@@CAPEAPEAVObject@internal@2@PEAVIsolate@42@PEAPEAV342@@Z 0000000180046fb9 f   node:node.exe
 0001:00045fc5       ?GlobalizeReference@V8@v8@@CAPEAPEAVObject@internal@2@PEAVIsolate@42@PEAPEAV342@@Z 0000000180046fc5 f   node:node.exe
 0001:00045fcb       __imp_load_?DisposeGlobal@V8@v8@@CAXPEAPEAVObject@internal@2@@Z 0000000180046fcb f   node:node.exe
 0001:00045fd7       ?DisposeGlobal@V8@v8@@CAXPEAPEAVObject@internal@2@@Z 0000000180046fd7 f   node:node.exe
 0001:00045fdd       __imp_load_?MakeWeak@V8@v8@@CAXPEAPEAVObject@internal@2@PEAXP6AXAEBV?$WeakCallbackInfo@X@2@@ZW4WeakCallbackType@2@@Z 0000000180046fdd f   node:node.exe
 0001:00045fe9       ?MakeWeak@V8@v8@@CAXPEAPEAVObject@internal@2@PEAXP6AXAEBV?$WeakCallbackInfo@X@2@@ZW4WeakCallbackType@2@@Z 0000000180046fe9 f   node:node.exe
 0001:00045fef       __imp_load_?ClearWeak@V8@v8@@CAPEAXPEAPEAVObject@internal@2@@Z 0000000180046fef f   node:node.exe
 0001:00045ffb       ?ClearWeak@V8@v8@@CAPEAXPEAPEAVObject@internal@2@@Z 0000000180046ffb f   node:node.exe
 0001:00046001       __imp_load_?ToLocalEmpty@V8@v8@@CAXXZ 0000000180047001 f   node:node.exe
 0001:0004600d       ?ToLocalEmpty@V8@v8@@CAXXZ 000000018004700d f   node:node.exe
 0001:00046013       __imp_load_??0TryCatch@v8@@QEAA@PEAVIsolate@1@@Z 0000000180047013 f   node:node.exe
 0001:0004601f       ??0TryCatch@v8@@QEAA@PEAVIsolate@1@@Z 000000018004701f f   node:node.exe
 0001:00046025       __imp_load_??1TryCatch@v8@@QEAA@XZ 0000000180047025 f   node:node.exe
 0001:00046031       ??1TryCatch@v8@@QEAA@XZ    0000000180047031 f   node:node.exe
 0001:00046037       __imp_load_uv_default_loop 0000000180047037 f   node:node.exe
 0001:00046043       uv_default_loop            0000000180047043 f   node:node.exe
 0001:00046049       __imp_load_uv_close        0000000180047049 f   node:node.exe
 0001:00046055       uv_close                   0000000180047055 f   node:node.exe
 0001:0004605b       __imp_load_uv_async_init   000000018004705b f   node:node.exe
 0001:00046067       uv_async_init              0000000180047067 f   node:node.exe
 0001:0004606d       __imp_load_uv_async_send   000000018004706d f   node:node.exe
 0001:00046079       uv_async_send              0000000180047079 f   node:node.exe
 0001:0004607f       __imp_load_node_module_register 000000018004707f f   node:node.exe
 0001:0004608b       node_module_register       000000018004708b f   node:node.exe
 0001:00046091       __imp_load_?IsTrue@Value@v8@@QEBA_NXZ 0000000180047091 f   node:node.exe
 0001:0004609d       ?IsTrue@Value@v8@@QEBA_NXZ 000000018004709d f   node:node.exe
 0001:000460a3       __imp_load_?IsName@Value@v8@@QEBA_NXZ 00000001800470a3 f   node:node.exe
 0001:000460af       ?IsName@Value@v8@@QEBA_NXZ 00000001800470af f   node:node.exe
 0001:000460b5       __imp_load_?IsDate@Value@v8@@QEBA_NXZ 00000001800470b5 f   node:node.exe
 0001:000460c1       ?IsDate@Value@v8@@QEBA_NXZ 00000001800470c1 f   node:node.exe
 0001:000460c7       __imp_load_?NumberValue@Value@v8@@QEBA?AV?$Maybe@N@2@V?$Local@VContext@v8@@@2@@Z 00000001800470c7 f   node:node.exe
 0001:000460d3       ?NumberValue@Value@v8@@QEBA?AV?$Maybe@N@2@V?$Local@VContext@v8@@@2@@Z 00000001800470d3 f   node:node.exe
 0001:000460d9       __imp_load_?Uint32Value@Value@v8@@QEBA?AV?$Maybe@I@2@V?$Local@VContext@v8@@@2@@Z 00000001800470d9 f   node:node.exe
 0001:000460e5       ?Uint32Value@Value@v8@@QEBA?AV?$Maybe@I@2@V?$Local@VContext@v8@@@2@@Z 00000001800470e5 f   node:node.exe
 0001:000460eb       __imp_load_?IntegerValue@Value@v8@@QEBA_JXZ 00000001800470eb f   node:node.exe
 0001:000460f7       ?IntegerValue@Value@v8@@QEBA_JXZ 00000001800470f7 f   node:node.exe
 0001:000460fd       __imp_load_?Length@String@v8@@QEBAHXZ 00000001800470fd f   node:node.exe
 0001:00046109       ?Length@String@v8@@QEBAHXZ 0000000180047109 f   node:node.exe
 0001:0004610f       __imp_load_?NewFromTwoByte@String@v8@@SA?AV?$MaybeLocal@VString@v8@@@2@PEAVIsolate@2@PEBGW4NewStringType@2@H@Z 000000018004710f f   node:node.exe
 0001:0004611b       ?NewFromTwoByte@String@v8@@SA?AV?$MaybeLocal@VString@v8@@@2@PEAVIsolate@2@PEBGW4NewStringType@2@H@Z 000000018004711b f   node:node.exe
 0001:00046121       __imp_load_?DefineOwnProperty@Object@v8@@QEAA?AV?$Maybe@_N@2@V?$Local@VContext@v8@@@2@V?$Local@VName@v8@@@2@V?$Local@VValue@v8@@@2@W4PropertyAttribute@2@@Z 0000000180047121 f   node:node.exe
 0001:0004612d       ?DefineOwnProperty@Object@v8@@QEAA?AV?$Maybe@_N@2@V?$Local@VContext@v8@@@2@V?$Local@VName@v8@@@2@V?$Local@VValue@v8@@@2@W4PropertyAttribute@2@@Z 000000018004712d f   node:node.exe
 0001:00046133       __imp_load_?Has@Object@v8@@QEAA?AV?$Maybe@_N@2@V?$Local@VContext@v8@@@2@V?$Local@VValue@v8@@@2@@Z 0000000180047133 f   node:node.exe
 0001:0004613f       ?Has@Object@v8@@QEAA?AV?$Maybe@_N@2@V?$Local@VContext@v8@@@2@V?$Local@VValue@v8@@@2@@Z 000000018004713f f   node:node.exe
 0001:00046145       __imp_load_?New@Date@v8@@SA?AV?$MaybeLocal@VValue@v8@@@2@V?$Local@VContext@v8@@@2@N@Z 0000000180047145 f   node:node.exe
 0001:00046151       ?New@Date@v8@@SA?AV?$MaybeLocal@VValue@v8@@@2@V?$Local@VContext@v8@@@2@N@Z 0000000180047151 f   node:node.exe
 0001:00046157       __imp_load_?Global@Context@v8@@QEAA?AV?$Local@VObject@v8@@@2@XZ 0000000180047157 f   node:node.exe
 0001:00046163       ?Global@Context@v8@@QEAA?AV?$Local@VObject@v8@@@2@XZ 0000000180047163 f   node:node.exe
 0001:00046169       __imp_load_?EmitAsyncInit@node@@YA?AUasync_context@1@PEAVIsolate@v8@@V?$Local@VObject@v8@@@4@V?$Local@VString@v8@@@4@N@Z 0000000180047169 f   node:node.exe
 0001:00046175       ?EmitAsyncInit@node@@YA?AUasync_context@1@PEAVIsolate@v8@@V?$Local@VObject@v8@@@4@V?$Local@VString@v8@@@4@N@Z 0000000180047175 f   node:node.exe
 0001:0004617b       __imp_load_?EmitAsyncDestroy@node@@YAXPEAVIsolate@v8@@Uasync_context@1@@Z 000000018004717b f   node:node.exe
 0001:00046187       ?EmitAsyncDestroy@node@@YAXPEAVIsolate@v8@@Uasync_context@1@@Z 0000000180047187 f   node:node.exe
 0001:0004618d       __imp_load_?MakeCallback@node@@YA?AV?$MaybeLocal@VValue@v8@@@v8@@PEAVIsolate@3@V?$Local@VObject@v8@@@3@V?$Local@VString@v8@@@3@HPEAV?$Local@VValue@v8@@@3@Uasync_context@1@@Z 000000018004718d f   node:node.exe
 0001:00046199       ?MakeCallback@node@@YA?AV?$MaybeLocal@VValue@v8@@@v8@@PEAVIsolate@3@V?$Local@VObject@v8@@@3@V?$Local@VString@v8@@@3@HPEAV?$Local@VValue@v8@@@3@Uasync_context@1@@Z 0000000180047199 f   node:node.exe
 0001:000461a0       ?Initialize@Details@Platform@@YAHXZ 00000001800471a0 f   vccorlib:init.obj
 0001:00046208       ??$?9UIRestrictedErrorInfo@@@WRL@Microsoft@@YA_NAEBV?$ComPtr@UIRestrictedErrorInfo@@@01@$$T@Z 0000000180047208 f i vccorlib:init.obj
 0001:00046214       ??0?$Module@$00VInProcModule@Details@Platform@@@WRL@Microsoft@@IEAA@XZ 0000000180047214 f i vccorlib:init.obj
 0001:00046230       ??0?$Module@$04VInProcModule@Details@Platform@@@WRL@Microsoft@@QEAA@XZ 0000000180047230 f i vccorlib:init.obj
 0001:0004624c       ??0?$SyncLockT@USRWLockExclusiveTraits@HandleTraits@Wrappers@WRL@Microsoft@@@Details@Wrappers@WRL@Microsoft@@IEAA@PEAU_RTL_SRWLOCK@@@Z 000000018004724c f i vccorlib:init.obj
 0001:00046254       ??0Guid@Platform@@QEAA@IGGEEEEEEEE@Z 0000000180047254 f i vccorlib:init.obj
 0001:000462b0       ??0InProcModule@Details@Platform@@QEAA@XZ 00000001800472b0 f i vccorlib:init.obj
 0001:000462e4       ??0ModuleBase@Details@WRL@Microsoft@@QEAA@XZ 00000001800472e4 f i vccorlib:init.obj
 0001:000462f4       ??1?$Module@$00VInProcModule@Details@Platform@@@WRL@Microsoft@@UEAA@XZ 00000001800472f4 f i vccorlib:init.obj
 0001:00046324       ??1?$Module@$04VInProcModule@Details@Platform@@@WRL@Microsoft@@UEAA@XZ 0000000180047324 f i vccorlib:init.obj
 0001:00046354       ??1?$SyncLockT@USRWLockExclusiveTraits@HandleTraits@Wrappers@WRL@Microsoft@@@Details@Wrappers@WRL@Microsoft@@QEAA@XZ 0000000180047354 f i vccorlib:init.obj
 0001:00046380       ??1InProcModule@Details@Platform@@UEAA@XZ 0000000180047380 f i vccorlib:init.obj
 0001:000463c8       ??1ModuleBase@Details@WRL@Microsoft@@UEAA@XZ 00000001800473c8 f i vccorlib:init.obj
 0001:000463d4       ??_E?$Module@$00VInProcModule@Details@Platform@@@WRL@Microsoft@@UEAAPEAXI@Z 00000001800473d4 f i vccorlib:init.obj
 0001:000463d4       ??_G?$Module@$00VInProcModule@Details@Platform@@@WRL@Microsoft@@UEAAPEAXI@Z 00000001800473d4 f i vccorlib:init.obj
 0001:00046434       ??_E?$Module@$04VInProcModule@Details@Platform@@@WRL@Microsoft@@UEAAPEAXI@Z 0000000180047434 f i vccorlib:init.obj
 0001:00046434       ??_G?$Module@$04VInProcModule@Details@Platform@@@WRL@Microsoft@@UEAAPEAXI@Z 0000000180047434 f i vccorlib:init.obj
 0001:00046494       ??_EInProcModule@Details@Platform@@UEAAPEAXI@Z 0000000180047494 f i vccorlib:init.obj
 0001:00046494       ??_GInProcModule@Details@Platform@@UEAAPEAXI@Z 0000000180047494 f i vccorlib:init.obj
 0001:0004650c       ?Cleanup@Details@Platform@@YAXXZ 000000018004750c f   vccorlib:init.obj
 0001:0004651c       ?Create@?$Module@$00VInProcModule@Details@Platform@@@WRL@Microsoft@@SAAEAVInProcModule@Details@Platform@@XZ 000000018004751c f i vccorlib:init.obj
 0001:0004659c       ?DecrementObjectCount@?$Module@$00VInProcModule@Details@Platform@@@WRL@Microsoft@@UEAAKXZ 000000018004759c f i vccorlib:init.obj
 0001:000465b0       ?Get@?$ComPtr@UIRestrictedErrorInfo@@@WRL@Microsoft@@QEBAPEAUIRestrictedErrorInfo@@XZ 00000001800475b0 f i vccorlib:init.obj
 0001:000465b4       ?GetFirstEntryPointer@ModuleBase@Details@WRL@Microsoft@@UEBAPEAPEBUCreatorMap@234@XZ 00000001800475b4 f i vccorlib:init.obj
 0001:000465c0       ?GetInvalidValue@SRWLockExclusiveTraits@HandleTraits@Wrappers@WRL@Microsoft@@SAPEAU_RTL_SRWLOCK@@XZ 00000001800475c0 f i vccorlib:init.obj
 0001:000465c4       ?GetLastEntryPointer@ModuleBase@Details@WRL@Microsoft@@UEBAPEAPEBUCreatorMap@234@XZ 00000001800475c4 f i vccorlib:init.obj
 0001:000465d0       ?GetLock@ModuleBase@Details@WRL@Microsoft@@UEBAPEAU_RTL_SRWLOCK@@XZ 00000001800475d0 f i vccorlib:init.obj
 0001:000465dc       ?GetMidEntryPointer@ModuleBase@Details@WRL@Microsoft@@UEBAPEAPEBUCreatorMap@234@XZ 00000001800475dc f i vccorlib:init.obj
 0001:000465e8       ?GetObjectCount@ModuleBase@Details@WRL@Microsoft@@UEBAKXZ 00000001800475e8 f i vccorlib:init.obj
 0001:000465f0       ?GetWinRTExceptionInfo@Platform@@YAPEAU_WinRTExceptionInfo@1@PEAX@Z 00000001800475f0 f i vccorlib:init.obj
 0001:000465f8       ?IncrementObjectCount@?$Module@$00VInProcModule@Details@Platform@@@WRL@Microsoft@@UEAAKXZ 00000001800475f8 f i vccorlib:init.obj
 0001:0004660c       ?InternalUnlock@?$SyncLockT@USRWLockExclusiveTraits@HandleTraits@Wrappers@WRL@Microsoft@@@Details@Wrappers@WRL@Microsoft@@AEAAXXZ 000000018004760c f i vccorlib:init.obj
 0001:00046638       ?IsLocked@?$SyncLockT@USRWLockExclusiveTraits@HandleTraits@Wrappers@WRL@Microsoft@@@Details@Wrappers@WRL@Microsoft@@QEBA_NXZ 0000000180047638 f i vccorlib:init.obj
 0001:00046644       ?IsServerNameEqual@Details@WRL@Microsoft@@YA_NPEBUCreatorMap@123@PEB_W@Z 0000000180047644 f i vccorlib:init.obj
 0001:00046684       ?LockExclusive@SRWLock@Wrappers@WRL@Microsoft@@SA?AV?$SyncLockT@USRWLockExclusiveTraits@HandleTraits@Wrappers@WRL@Microsoft@@@Details@234@PEAU_RTL_SRWLOCK@@@Z 0000000180047684 f i vccorlib:init.obj
 0001:000466b8       ?RegisterCOMObject@?$Module@$00VInProcModule@Details@Platform@@@WRL@Microsoft@@UEAAJPEB_WPEAU_GUID@@PEAPEAUIClassFactory@@PEAKI@Z 00000001800476b8 f i vccorlib:init.obj
 0001:000466c0       ?RegisterWinRTObject@?$Module@$00VInProcModule@Details@Platform@@@WRL@Microsoft@@UEAAJPEB_WPEAPEB_WPEAPEAU<unnamed-type-RO_REGISTRATION_COOKIE>@@I@Z 00000001800476c0 f i vccorlib:init.obj
 0001:000466c8       ?ReportUnhandledError@Details@Platform@@YAXPE$AAVException@2@@Z 00000001800476c8 f   vccorlib:init.obj
 0001:00046704       ?TerminateMap@Details@WRL@Microsoft@@YA_NPEAVModuleBase@123@PEB_W_N@Z 0000000180047704 f i vccorlib:init.obj
 0001:000468f4       ?Unlock@SRWLockExclusiveTraits@HandleTraits@Wrappers@WRL@Microsoft@@SAXPEAU_RTL_SRWLOCK@@@Z 00000001800478f4 f i vccorlib:init.obj
 0001:000468fc       ?UnregisterCOMObject@?$Module@$00VInProcModule@Details@Platform@@@WRL@Microsoft@@UEAAJPEB_WPEAKI@Z 00000001800478fc f i vccorlib:init.obj
 0001:00046904       ?UnregisterWinRTObject@?$Module@$00VInProcModule@Details@Platform@@@WRL@Microsoft@@UEAAJPEB_WPEAU<unnamed-type-RO_REGISTRATION_COOKIE>@@@Z 0000000180047904 f i vccorlib:init.obj
 0001:0004690c       ?__abi_DecrementObjectCount@InProcModule@Details@Platform@@UEAAKXZ 000000018004790c f i vccorlib:init.obj
 0001:00046920       ?__abi_IncrementObjectCount@InProcModule@Details@Platform@@UEAAKXZ 0000000180047920 f i vccorlib:init.obj
 0001:00046934       ?__abi_ThrowIfFailed@@YAXJ@Z 0000000180047934 f i vccorlib:init.obj
 0001:0004694c       ?__abi_winrt_cast_to@@YAPE$AAVObject@Platform@@_NPE$AAV12@AEBU_GUID@@@Z 000000018004794c f i vccorlib:init.obj
 0001:000469e0       ?__abi_winrt_ptr_ctor@@YAPEAXQE$ADVObject@Platform@@@Z 00000001800479e0 f i vccorlib:init.obj
 0001:00046a24       RoReportUnhandledError     0000000180047a24 f   vccorlib:init.obj
 0001:00046aca       ?__abi_translateCurrentException@@YAJ_N@Z 0000000180047aca f   vccorlib:vccorlib140.DLL
 0001:00046ad0       ?__getIids@__winRT@@YAJHPEAKPEBU__s_GUID@@PEAPEAVGuid@Platform@@@Z 0000000180047ad0 f   vccorlib:compiler.obj
 0001:00046ad8       ?__windowsCreateString@__winRT@@YAJPEB_WHPEAPEAUHSTRING__@@@Z 0000000180047ad8 f   vccorlib:compiler.obj
 0001:00046ae0       ?FlushFactoryCache@Module@Platform@@SAXXZ 0000000180047ae0 f   vccorlib:activation.obj
 0001:00046ae8       ?__getActivationFactoryByPCWSTR@__winRT@@YAJPEAXAEAVGuid@Platform@@PEAPEAX@Z 0000000180047ae8 f   vccorlib:activation.obj
 0001:00046aee       ?__abi_ObjectToString@__abi_details@@YAPE$AAVString@Platform@@PE$AAVObject@3@_N@Z 0000000180047aee f   vccorlib:vccorlib140.DLL
 0001:00046af4       ??0Object@Platform@@QE$AAA@XZ 0000000180047af4 f   vccorlib:vccorlib140.DLL
 0001:00046afa       ?__abi_WinRTraiseNotImplementedException@@YAXXZ 0000000180047afa f   vccorlib:vccorlib140.DLL
 0001:00046b00       ?__abi_WinRTraiseInvalidCastException@@YAXXZ 0000000180047b00 f   vccorlib:vccorlib140.DLL
 0001:00046b06       ?__abi_WinRTraiseNullReferenceException@@YAXXZ 0000000180047b06 f   vccorlib:vccorlib140.DLL
 0001:00046b0c       ?__abi_WinRTraiseOperationCanceledException@@YAXXZ 0000000180047b0c f   vccorlib:vccorlib140.DLL
 0001:00046b12       ?__abi_WinRTraiseFailureException@@YAXXZ 0000000180047b12 f   vccorlib:vccorlib140.DLL
 0001:00046b18       ?__abi_WinRTraiseAccessDeniedException@@YAXXZ 0000000180047b18 f   vccorlib:vccorlib140.DLL
 0001:00046b1e       ?__abi_WinRTraiseOutOfMemoryException@@YAXXZ 0000000180047b1e f   vccorlib:vccorlib140.DLL
 0001:00046b24       ?__abi_WinRTraiseInvalidArgumentException@@YAXXZ 0000000180047b24 f   vccorlib:vccorlib140.DLL
 0001:00046b2a       ?__abi_WinRTraiseOutOfBoundsException@@YAXXZ 0000000180047b2a f   vccorlib:vccorlib140.DLL
 0001:00046b30       ?__abi_WinRTraiseChangedStateException@@YAXXZ 0000000180047b30 f   vccorlib:vccorlib140.DLL
 0001:00046b36       ?__abi_WinRTraiseClassNotRegisteredException@@YAXXZ 0000000180047b36 f   vccorlib:vccorlib140.DLL
 0001:00046b3c       ?__abi_WinRTraiseWrongThreadException@@YAXXZ 0000000180047b3c f   vccorlib:vccorlib140.DLL
 0001:00046b42       ?__abi_WinRTraiseDisconnectedException@@YAXXZ 0000000180047b42 f   vccorlib:vccorlib140.DLL
 0001:00046b48       ?__abi_WinRTraiseObjectDisposedException@@YAXXZ 0000000180047b48 f   vccorlib:vccorlib140.DLL
 0001:00046b4e       ?__abi_WinRTraiseCOMException@@YAXJ@Z 0000000180047b4e f   vccorlib:vccorlib140.DLL
 0001:00046b54       ?ReleaseTarget@ControlBlock@Details@Platform@@AEAAXXZ 0000000180047b54 f   vccorlib:vccorlib140.DLL
 0001:00046b5a       ?Allocate@Heap@Details@Platform@@SAPEAX_K@Z 0000000180047b5a f   vccorlib:vccorlib140.DLL
 0001:00046b60       ?Allocate@Heap@Details@Platform@@SAPEAX_K0@Z 0000000180047b60 f   vccorlib:vccorlib140.DLL
 0001:00046b66       ?Free@Heap@Details@Platform@@SAXPEAX@Z 0000000180047b66 f   vccorlib:vccorlib140.DLL
 0001:00046b6c       ?AlignedFree@Heap@Details@Platform@@SAXPEAX@Z 0000000180047b6c f   vccorlib:vccorlib140.DLL
 0001:00046b72       ?AllocateException@Heap@Details@Platform@@SAPEAX_K0@Z 0000000180047b72 f   vccorlib:vccorlib140.DLL
 0001:00046b78       ?__abi_make_type_id@@YAPE$AAVType@Platform@@AEBU__abi_type_descriptor@@@Z 0000000180047b78 f   vccorlib:vccorlib140.DLL
 0001:00046b7e       ?CreateValue@Details@Platform@@YAPE$AAVObject@2@W4TypeCode@2@PEBX@Z 0000000180047b7e f   vccorlib:vccorlib140.DLL
 0001:00046b84       ?GetIBoxArrayVtable@Details@Platform@@YAPEAXPEAX@Z 0000000180047b84 f   vccorlib:vccorlib140.DLL
 0001:00046b8a       ?GetIBoxVtable@Details@Platform@@YAPEAXPEAX@Z 0000000180047b8a f   vccorlib:vccorlib140.DLL
 0001:00046b90       ??0Delegate@Platform@@QE$AAA@XZ 0000000180047b90 f   vccorlib:vccorlib140.DLL
 0001:00046b96       ??0NullReferenceException@Platform@@QE$AAA@XZ 0000000180047b96 f   vccorlib:vccorlib140.DLL
 0001:00046b9c       ?get@FullName@Type@Platform@@QE$AAAPE$AAVString@3@XZ 0000000180047b9c f   vccorlib:vccorlib140.DLL
 0001:00046ba2       ?GetTypeCode@Type@Platform@@SA?AW4TypeCode@2@PE$AAV12@@Z 0000000180047ba2 f   vccorlib:vccorlib140.DLL
 0001:00046ba8       ?get@Message@Exception@Platform@@QE$AAAPE$AAVString@3@XZ 0000000180047ba8 f   vccorlib:vccorlib140.DLL
 0001:00046bae       ?get@Empty@Rect@Foundation@Windows@@SA?AV234@XZ 0000000180047bae f   vccorlib:vccorlib140.DLL
 0001:00046bb4       ?get@Right@Rect@Foundation@Windows@@QEAAMXZ 0000000180047bb4 f   vccorlib:vccorlib140.DLL
 0001:00046bba       ?get@Bottom@Rect@Foundation@Windows@@QEAAMXZ 0000000180047bba f   vccorlib:vccorlib140.DLL
 0001:00046bc0       ?InitializeData@Details@Platform@@YAJH@Z 0000000180047bc0 f   vccorlib:vccorlib140.DLL
 0001:00046bc6       ?UninitializeData@Details@Platform@@YAXH@Z 0000000180047bc6 f   vccorlib:vccorlib140.DLL
 0001:00046bcc       ?GetIidsFn@@YAJHPEAKPEBU__s_GUID@@PEAPEAVGuid@Platform@@@Z 0000000180047bcc f   vccorlib:vccorlib140.DLL
 0001:00046bd2       ?GetActivationFactoryByPCWSTR@@YAJPEAXAEAVGuid@Platform@@PEAPEAX@Z 0000000180047bd2 f   vccorlib:vccorlib140.DLL
 0001:00046bd8       ?FlushFactoryCache@@YAXXZ  0000000180047bd8 f   vccorlib:vccorlib140.DLL
 0001:00046bde       ?_Xbad_function_call@std@@YAXXZ 0000000180047bde f   msvcprt:MSVCP140.dll
 0001:00046be4       ?_Xbad_alloc@std@@YAXXZ    0000000180047be4 f   msvcprt:MSVCP140.dll
 0001:00046bea       ?_Xlength_error@std@@YAXPEBD@Z 0000000180047bea f   msvcprt:MSVCP140.dll
 0001:00046bf0       ?_Xout_of_range@std@@YAXPEBD@Z 0000000180047bf0 f   msvcprt:MSVCP140.dll
 0001:00046bf8       ??1type_info@@UEAA@XZ      0000000180047bf8 f   MSVCRT:std_type_info_static.obj
 0001:00046c08       ??_Gtype_info@@UEAAPEAXI@Z 0000000180047c08 f i MSVCRT:std_type_info_static.obj
 0001:00046c08       ??_Etype_info@@UEAAPEAXI@Z 0000000180047c08 f i MSVCRT:std_type_info_static.obj
 0001:00046c40       ??2@YAPEAX_K@Z             0000000180047c40 f   MSVCRT:new_scalar.obj
 0001:00046c8c       ??3@YAXPEAX@Z              0000000180047c8c f   MSVCRT:delete_scalar.obj
 0001:00046c94       ??3@YAXPEAX_K@Z            0000000180047c94 f   MSVCRT:delete_scalar_size.obj
 0001:00046c9c       ??_U@YAPEAX_K@Z            0000000180047c9c f   MSVCRT:new_array.obj
 0001:00046ca4       ??_V@YAXPEAX@Z             0000000180047ca4 f   MSVCRT:delete_array.obj
 0001:00046cac       ??$__crt_fast_decode_pointer@PEAP6AXXZ@@YAPEAP6AXXZQEAP6AXXZ@Z 0000000180047cac f i MSVCRT:utility.obj
 0001:00046cc8       ??$__crt_fast_encode_pointer@PEAP6AXXZ@@YAPEAP6AXXZQEAP6AXXZ@Z 0000000180047cc8 f i MSVCRT:utility.obj
 0001:00046cf0       ?__crt_rotate_pointer_value@@YA_K_KH@Z 0000000180047cf0 f i MSVCRT:utility.obj
 0001:00046cfc       ?configure_argv@__scrt_narrow_argv_policy@@SAHXZ 0000000180047cfc f i MSVCRT:utility.obj
 0001:00046db0       NtCurrentTeb               0000000180047db0 f i MSVCRT:utility.obj
 0001:00046dbc       __scrt_acquire_startup_lock 0000000180047dbc f   MSVCRT:utility.obj
 0001:00046e04       __scrt_dllmain_after_initialize_c 0000000180047e04 f   MSVCRT:utility.obj
 0001:00046e48       __scrt_dllmain_before_initialize_c 0000000180047e48 f   MSVCRT:utility.obj
 0001:00046e64       __scrt_dllmain_crt_thread_attach 0000000180047e64 f   MSVCRT:utility.obj
 0001:00046e98       __scrt_dllmain_crt_thread_detach 0000000180047e98 f   MSVCRT:utility.obj
 0001:00046eb4       __scrt_dllmain_exception_filter 0000000180047eb4 f   MSVCRT:utility.obj
 0001:00046f30       __scrt_dllmain_uninitialize_c 0000000180047f30 f   MSVCRT:utility.obj
 0001:00046f6c       __scrt_dllmain_uninitialize_critical 0000000180047f6c f   MSVCRT:utility.obj
 0001:00046f88       __scrt_initialize_crt      0000000180047f88 f   MSVCRT:utility.obj
 0001:00046fe4       __scrt_initialize_onexit_tables 0000000180047fe4 f   MSVCRT:utility.obj
 0001:000470e0       __scrt_is_nonwritable_in_current_image 00000001800480e0 f   MSVCRT:utility.obj
 0001:000471a0       __scrt_release_startup_lock 00000001800481a0 f   MSVCRT:utility.obj
 0001:000471d0       __scrt_uninitialize_crt    00000001800481d0 f   MSVCRT:utility.obj
 0001:00047208       _onexit                    0000000180048208 f   MSVCRT:utility.obj
 0001:0004726c       at_quick_exit              000000018004826c f   MSVCRT:utility.obj
 0001:000472b0       atexit                     00000001800482b0 f   MSVCRT:utility.obj
 0001:00047434       ??$__crt_fast_decode_pointer@P6AHPEAU_RTL_CONDITION_VARIABLE@@PEAU_RTL_CRITICAL_SECTION@@K@Z@@YAP6AHPEAU_RTL_CONDITION_VARIABLE@@PEAU_RTL_CRITICAL_SECTION@@K@ZQ6AH01K@Z@Z 0000000180048434 f i MSVCRT:thread_safe_statics.obj
 0001:00047450       ??$__crt_fast_decode_pointer@P6AXPEAU_RTL_CONDITION_VARIABLE@@@Z@@YAP6AXPEAU_RTL_CONDITION_VARIABLE@@@ZQ6AX0@Z@Z 0000000180048450 f i MSVCRT:thread_safe_statics.obj
 0001:0004746c       ??$__crt_fast_encode_pointer@P6AHPEAU_RTL_CONDITION_VARIABLE@@PEAU_RTL_CRITICAL_SECTION@@K@Z@@YAP6AHPEAU_RTL_CONDITION_VARIABLE@@PEAU_RTL_CRITICAL_SECTION@@K@ZQ6AH01K@Z@Z 000000018004846c f i MSVCRT:thread_safe_statics.obj
 0001:00047494       ??$__crt_fast_encode_pointer@P6AXPEAU_RTL_CONDITION_VARIABLE@@@Z@@YAP6AXPEAU_RTL_CONDITION_VARIABLE@@@ZQ6AX0@Z@Z 0000000180048494 f i MSVCRT:thread_safe_statics.obj
 0001:000474f0       _Init_thread_abort         00000001800484f0 f   MSVCRT:thread_safe_statics.obj
 0001:0004752c       _Init_thread_footer        000000018004852c f   MSVCRT:thread_safe_statics.obj
 0001:000475a4       _Init_thread_header        00000001800485a4 f   MSVCRT:thread_safe_statics.obj
 0001:00047624       _Init_thread_lock          0000000180048624 f   MSVCRT:thread_safe_statics.obj
 0001:00047638       _Init_thread_notify        0000000180048638 f   MSVCRT:thread_safe_statics.obj
 0001:000476ac       _Init_thread_unlock        00000001800486ac f   MSVCRT:thread_safe_statics.obj
 0001:000476c0       _Init_thread_wait          00000001800486c0 f   MSVCRT:thread_safe_statics.obj
 0001:0004777c       __GSHandlerCheck           000000018004877c f   MSVCRT:_gshandler_.obj
 0001:000477a0       __GSHandlerCheckCommon     00000001800487a0 f   MSVCRT:_gshandler_.obj
 0001:00047810       __GSHandlerCheck_EH        0000000180048810 f   MSVCRT:gshandlereh.obj
 0001:000478c0       __security_check_cookie    00000001800488c0 f   MSVCRT:_amdsecgs_.obj
 0001:00047d10       _CRT_INIT                  0000000180048d10 f   MSVCRT:dll_dllmain.obj
 0001:00047d18       _DllMainCRTStartup         0000000180048d18 f   MSVCRT:dll_dllmain.obj
 0001:00047d64       _guard_check_icall         0000000180048d64 f i MSVCRT:checkcfg.obj
 0001:00047d6c       ??0bad_alloc@std@@AEAA@QEBD@Z 0000000180048d6c f i MSVCRT:throw_bad_alloc.obj
 0001:00047d8c       ??0bad_alloc@std@@QEAA@AEBV01@@Z 0000000180048d8c f i MSVCRT:throw_bad_alloc.obj
 0001:00047ddc       ??0bad_alloc@std@@QEAA@XZ  0000000180048ddc f i MSVCRT:throw_bad_alloc.obj
 0001:00047e04       ??0bad_array_new_length@std@@QEAA@AEBV01@@Z 0000000180048e04 f i MSVCRT:throw_bad_alloc.obj
 0001:00047e54       ??0bad_array_new_length@std@@QEAA@XZ 0000000180048e54 f i MSVCRT:throw_bad_alloc.obj
 0001:00047e7c       ??0exception@std@@QEAA@AEBV01@@Z 0000000180048e7c f i MSVCRT:throw_bad_alloc.obj
 0001:00047ec0       ??0exception@std@@QEAA@QEBDH@Z 0000000180048ec0 f i MSVCRT:throw_bad_alloc.obj
 0001:00047ee0       ??1bad_alloc@std@@UEAA@XZ  0000000180048ee0 f i MSVCRT:throw_bad_alloc.obj
 0001:00047ef8       ??1bad_array_new_length@std@@UEAA@XZ 0000000180048ef8 f i MSVCRT:throw_bad_alloc.obj
 0001:00047f10       ??1exception@std@@UEAA@XZ  0000000180048f10 f i MSVCRT:throw_bad_alloc.obj
 0001:00047f28       ??_Gbad_alloc@std@@UEAAPEAXI@Z 0000000180048f28 f i MSVCRT:throw_bad_alloc.obj
 0001:00047f28       ??_Ebad_alloc@std@@UEAAPEAXI@Z 0000000180048f28 f i MSVCRT:throw_bad_alloc.obj
 0001:00047f7c       ??_Ebad_array_new_length@std@@UEAAPEAXI@Z 0000000180048f7c f i MSVCRT:throw_bad_alloc.obj
 0001:00047f7c       ??_Gbad_array_new_length@std@@UEAAPEAXI@Z 0000000180048f7c f i MSVCRT:throw_bad_alloc.obj
 0001:00047fd0       ??_Gexception@std@@UEAAPEAXI@Z 0000000180048fd0 f i MSVCRT:throw_bad_alloc.obj
 0001:00047fd0       ??_Eexception@std@@UEAAPEAXI@Z 0000000180048fd0 f i MSVCRT:throw_bad_alloc.obj
 0001:00048024       ?__scrt_throw_std_bad_alloc@@YAXXZ 0000000180049024 f   MSVCRT:throw_bad_alloc.obj
 0001:0004804c       ?__scrt_throw_std_bad_array_new_length@@YAXXZ 000000018004904c f   MSVCRT:throw_bad_alloc.obj
 0001:00048074       ?what@exception@std@@UEBAPEBDXZ 0000000180049074 f i MSVCRT:throw_bad_alloc.obj
 0001:0004808c       __isa_available_init       000000018004908c f   MSVCRT:_cpu_disp_.obj
 0001:000482c4       _get_startup_argv_mode     00000001800492c4 f   MSVCRT:argv_mode.obj
 0001:000482cc       __scrt_is_ucrt_dll_in_use  00000001800492cc f   MSVCRT:ucrt_detection.obj
 0001:000482dc       __crt_debugger_hook        00000001800492dc f   MSVCRT:utility_desktop.obj
 0001:000482e8       __scrt_fastfail            00000001800492e8 f   MSVCRT:utility_desktop.obj
 0001:00048480       __scrt_get_show_window_mode 0000000180049480 f   MSVCRT:utility_desktop.obj
 0001:000484cc       __scrt_initialize_winrt    00000001800494cc f   MSVCRT:utility_desktop.obj
 0001:000484d0       __scrt_is_managed_app      00000001800494d0 f   MSVCRT:utility_desktop.obj
 0001:0004853c       __scrt_set_unhandled_exception_filter 000000018004953c f   MSVCRT:utility_desktop.obj
 0001:00048550       __scrt_unhandled_exception_filter 0000000180049550 f   MSVCRT:utility_desktop.obj
 0001:00048598       __raise_securityfailure    0000000180049598 f   MSVCRT:gs_report.obj
 0001:000485dc       __report_gsfailure         00000001800495dc f   MSVCRT:gs_report.obj
 0001:000486e4       __report_rangecheckfailure 00000001800496e4 f   MSVCRT:gs_report.obj
 0001:000486fc       __report_securityfailure   00000001800496fc f   MSVCRT:gs_report.obj
 0001:000487c0       __report_securityfailureEx 00000001800497c0 f   MSVCRT:gs_report.obj
 0001:00048a2c       __security_init_cookie     0000000180049a2c f   MSVCRT:gs_support.obj
 0001:00048b04       DllMain                    0000000180049b04 f   MSVCRT:dll_dllmain_stub.obj
 0001:00048b30       ?__scrt_initialize_type_info@@YAXXZ 0000000180049b30 f   MSVCRT:tncleanup.obj
 0001:00048b44       ?__scrt_uninitialize_type_info@@YAXXZ 0000000180049b44 f   MSVCRT:tncleanup.obj
 0001:00048b54       __local_stdio_printf_options 0000000180049b54 f i MSVCRT:default_local_stdio_options.obj
 0001:00048b60       __local_stdio_scanf_options 0000000180049b60 f i MSVCRT:default_local_stdio_options.obj
 0001:00048b6c       __scrt_initialize_default_local_stdio_options 0000000180049b6c f   MSVCRT:default_local_stdio_options.obj
 0001:00048b90       __scrt_get_dyn_tls_init_callback 0000000180049b90 f   MSVCRT:dyn_tls_init.obj
 0001:00048b9c       _RTC_Initialize            0000000180049b9c f   MSVCRT:_initsect_.obj
 0001:00048bf8       _RTC_Terminate             0000000180049bf8 f   MSVCRT:_initsect_.obj
 0001:00048c54       _guard_check_icall_nop     0000000180049c54 f i MSVCRT:guard_support.obj
 0001:00048c58       _guard_icall_checks_enforced 0000000180049c58 f i MSVCRT:guard_support.obj
 0001:00048c80       _purecall                  0000000180049c80 f   vcruntime:VCRUNTIME140.dll
 0001:00048c86       __std_terminate            0000000180049c86 f   vcruntime:VCRUNTIME140.dll
 0001:00048c8c       __std_type_info_compare    0000000180049c8c f   vcruntime:VCRUNTIME140.dll
 0001:00048c92       _CxxThrowException         0000000180049c92 f   vcruntime:VCRUNTIME140.dll
 0001:00048c98       __CxxFrameHandler3         0000000180049c98 f   vcruntime:VCRUNTIME140.dll
 0001:00048c9e       memmove                    0000000180049c9e f   vcruntime:VCRUNTIME140.dll
 0001:00048ca4       memcpy                     0000000180049ca4 f   vcruntime:VCRUNTIME140.dll
 0001:00048caa       __Platform_memset          0000000180049caa f   vcruntime:VCRUNTIME140.dll
 0001:00048caa       memset                     0000000180049caa f   vcruntime:VCRUNTIME140.dll
 0001:00048cb0       __C_specific_handler       0000000180049cb0 f   vcruntime:VCRUNTIME140.dll
 0001:00048cb6       __vcrt_InitializeCriticalSectionEx 0000000180049cb6 f   vcruntime:VCRUNTIME140.dll
 0001:00048cbc       __std_exception_copy       0000000180049cbc f   vcruntime:VCRUNTIME140.dll
 0001:00048cc2       __std_exception_destroy    0000000180049cc2 f   vcruntime:VCRUNTIME140.dll
 0001:00048cc8       __std_type_info_destroy_list 0000000180049cc8 f   vcruntime:VCRUNTIME140.dll
 0001:00048cce       _invalid_parameter_noinfo_noreturn 0000000180049cce f   ucrt:api-ms-win-crt-runtime-l1-1-0.dll
 0001:00048cd4       _wassert                   0000000180049cd4 f   ucrt:api-ms-win-crt-runtime-l1-1-0.dll
 0001:00048cda       _wcsnicmp                  0000000180049cda f   ucrt:api-ms-win-crt-string-l1-1-0.dll
 0001:00048ce0       _stricmp                   0000000180049ce0 f   ucrt:api-ms-win-crt-string-l1-1-0.dll
 0001:00048ce6       __Platform_wcslen          0000000180049ce6 f   ucrt:api-ms-win-crt-string-l1-1-0.dll
 0001:00048ce6       wcslen                     0000000180049ce6 f   ucrt:api-ms-win-crt-string-l1-1-0.dll
 0001:00048cec       _callnewh                  0000000180049cec f   ucrt:api-ms-win-crt-heap-l1-1-0.dll
 0001:00048cf2       malloc                     0000000180049cf2 f   ucrt:api-ms-win-crt-heap-l1-1-0.dll
 0001:00048cf8       free                       0000000180049cf8 f   ucrt:api-ms-win-crt-heap-l1-1-0.dll
 0001:00048cfe       _seh_filter_dll            0000000180049cfe f   ucrt:api-ms-win-crt-runtime-l1-1-0.dll
 0001:00048d04       _configure_narrow_argv     0000000180049d04 f   ucrt:api-ms-win-crt-runtime-l1-1-0.dll
 0001:00048d0a       _initialize_narrow_environment 0000000180049d0a f   ucrt:api-ms-win-crt-runtime-l1-1-0.dll
 0001:00048d10       _initialize_onexit_table   0000000180049d10 f   ucrt:api-ms-win-crt-runtime-l1-1-0.dll
 0001:00048d16       _register_onexit_function  0000000180049d16 f   ucrt:api-ms-win-crt-runtime-l1-1-0.dll
 0001:00048d1c       _execute_onexit_table      0000000180049d1c f   ucrt:api-ms-win-crt-runtime-l1-1-0.dll
 0001:00048d22       _crt_atexit                0000000180049d22 f   ucrt:api-ms-win-crt-runtime-l1-1-0.dll
 0001:00048d28       _crt_at_quick_exit         0000000180049d28 f   ucrt:api-ms-win-crt-runtime-l1-1-0.dll
 0001:00048d2e       _cexit                     0000000180049d2e f   ucrt:api-ms-win-crt-runtime-l1-1-0.dll
 0001:00048d34       _initterm                  0000000180049d34 f   ucrt:api-ms-win-crt-runtime-l1-1-0.dll
 0001:00048d3a       _initterm_e                0000000180049d3a f   ucrt:api-ms-win-crt-runtime-l1-1-0.dll
 0001:00048d40       terminate                  0000000180049d40 f   ucrt:api-ms-win-crt-runtime-l1-1-0.dll
 0001:00048d46       DecodePointer              0000000180049d46 f   kernel32:KERNEL32.dll
 0001:00048d4c       ReleaseSRWLockExclusive    0000000180049d4c f   kernel32:KERNEL32.dll
 0001:00048d52       AcquireSRWLockExclusive    0000000180049d52 f   kernel32:KERNEL32.dll
 0001:00048d58       GetProcAddress             0000000180049d58 f   kernel32:KERNEL32.dll
 0001:00048d5e       LoadLibraryExW             0000000180049d5e f   kernel32:KERNEL32.dll
 0001:00048d64       CloseHandle                0000000180049d64 f   kernel32:KERNEL32.dll
 0001:00048d6a       EnterCriticalSection       0000000180049d6a f   kernel32:KERNEL32.dll
 0001:00048d70       LeaveCriticalSection       0000000180049d70 f   kernel32:KERNEL32.dll
 0001:00048d76       DeleteCriticalSection      0000000180049d76 f   kernel32:KERNEL32.dll
 0001:00048d7c       SetEvent                   0000000180049d7c f   kernel32:KERNEL32.dll
 0001:00048d82       ResetEvent                 0000000180049d82 f   kernel32:KERNEL32.dll
 0001:00048d88       WaitForSingleObjectEx      0000000180049d88 f   kernel32:KERNEL32.dll
 0001:00048d8e       CreateEventW               0000000180049d8e f   kernel32:KERNEL32.dll
 0001:00048d94       GetModuleHandleW           0000000180049d94 f   kernel32:KERNEL32.dll
 0001:00048d9a       RtlCaptureContext          0000000180049d9a f   kernel32:KERNEL32.dll
 0001:00048da0       RtlLookupFunctionEntry     0000000180049da0 f   kernel32:KERNEL32.dll
 0001:00048da6       RtlVirtualUnwind           0000000180049da6 f   kernel32:KERNEL32.dll
 0001:00048dac       IsDebuggerPresent          0000000180049dac f   kernel32:KERNEL32.dll
 0001:00048db2       UnhandledExceptionFilter   0000000180049db2 f   kernel32:KERNEL32.dll
 0001:00048db8       SetUnhandledExceptionFilter 0000000180049db8 f   kernel32:KERNEL32.dll
 0001:00048dbe       GetStartupInfoW            0000000180049dbe f   kernel32:KERNEL32.dll
 0001:00048dc4       IsProcessorFeaturePresent  0000000180049dc4 f   kernel32:KERNEL32.dll
 0001:00048dca       GetCurrentProcess          0000000180049dca f   kernel32:KERNEL32.dll
 0001:00048dd0       TerminateProcess           0000000180049dd0 f   kernel32:KERNEL32.dll
 0001:00048dd6       QueryPerformanceCounter    0000000180049dd6 f   kernel32:KERNEL32.dll
 0001:00048ddc       GetCurrentProcessId        0000000180049ddc f   kernel32:KERNEL32.dll
 0001:00048de2       GetCurrentThreadId         0000000180049de2 f   kernel32:KERNEL32.dll
 0001:00048de8       GetSystemTimeAsFileTime    0000000180049de8 f   kernel32:KERNEL32.dll
 0001:00048dee       DisableThreadLibraryCalls  0000000180049dee f   kernel32:KERNEL32.dll
 0001:00048df4       InitializeSListHead        0000000180049df4 f   kernel32:KERNEL32.dll
 0001:00048dfa       __Platform_CoCreateFreeThreadedMarshaler 0000000180049dfa f   ole32:ole32.dll
 0001:00048dfa       CoCreateFreeThreadedMarshaler 0000000180049dfa f   ole32:ole32.dll
 0001:00048e00       CoTaskMemAlloc             0000000180049e00 f   ole32:ole32.dll
 0001:00048e00       __Platform_CoTaskMemAlloc  0000000180049e00 f   ole32:ole32.dll
 0001:00048e08       ??$PFromRva@PEAP6A_JXZ@@YAPEAP6A_JXZK@Z 0000000180049e08 f i DelayImp:delayhlp.obj
 0001:00048e18       ??$PFromRva@PEAPEAUHINSTANCE__@@@@YAPEAPEAUHINSTANCE__@@K@Z 0000000180049e18 f i DelayImp:delayhlp.obj
 0001:00048e28       ??$PFromRva@PEAU_IMAGE_IMPORT_BY_NAME@@@@YAPEAU_IMAGE_IMPORT_BY_NAME@@K@Z 0000000180049e28 f i DelayImp:delayhlp.obj
 0001:00048e38       ??$PFromRva@PEAU_IMAGE_THUNK_DATA64@@@@YAPEAU_IMAGE_THUNK_DATA64@@K@Z 0000000180049e38 f i DelayImp:delayhlp.obj
 0001:00048e48       ??$PFromRva@PEBD@@YAPEBDK@Z 0000000180049e48 f i DelayImp:delayhlp.obj
 0001:00048e58       ??$PFromRva@PEBUImgDelayDescr@@@@YAPEBUImgDelayDescr@@K@Z 0000000180049e58 f i DelayImp:delayhlp.obj
 0001:00048e68       ??$PFromRva@PEBU_IMAGE_THUNK_DATA64@@@@YAPEBU_IMAGE_THUNK_DATA64@@K@Z 0000000180049e68 f i DelayImp:delayhlp.obj
 0001:00048e78       ?CountOfImports@@YAIPEBU_IMAGE_THUNK_DATA64@@@Z 0000000180049e78 f i DelayImp:delayhlp.obj
 0001:00048e94       ?DloadAcquireSectionWriteAccess@@YAXXZ 0000000180049e94 f i DelayImp:delayhlp.obj
 0001:00048f7c       ?DloadGetSRWLockFunctionPointers@@YAEXZ 0000000180049f7c f i DelayImp:delayhlp.obj
 0001:00049040       ?DloadLock@@YAXXZ          000000018004a040 f i DelayImp:delayhlp.obj
 0001:000490a8       ?DloadMakePermanentImageCommit@@YAXPEAX_K@Z 000000018004a0a8 f i DelayImp:delayhlp.obj
 0001:00049164       ?DloadObtainSection@@YAPEAXPEAK0@Z 000000018004a164 f i DelayImp:delayhlp.obj
 0001:00049224       ?DloadProtectSection@@YAXKPEAK@Z 000000018004a224 f i DelayImp:delayhlp.obj
 0001:000492d8       ?DloadReleaseSectionWriteAccess@@YAXXZ 000000018004a2d8 f i DelayImp:delayhlp.obj
 0001:000493a8       ?DloadUnlock@@YAXXZ        000000018004a3a8 f i DelayImp:delayhlp.obj
 0001:00049408       ?IndexFromPImgThunkData@@YAIPEBU_IMAGE_THUNK_DATA64@@0@Z 000000018004a408 f i DelayImp:delayhlp.obj
 0001:0004959c       HRESULT_FROM_WIN32         000000018004a59c f i DelayImp:delayhlp.obj
 0001:000495b0       ReadAcquire64              000000018004a5b0 f i DelayImp:delayhlp.obj
 0001:000495b4       ReadPointerAcquire         000000018004a5b4 f i DelayImp:delayhlp.obj
 0001:000495b8       WritePointerRelease        000000018004a5b8 f i DelayImp:delayhlp.obj
 0001:000495bc       WriteRelease64             000000018004a5bc f i DelayImp:delayhlp.obj
 0001:000495c0       __FUnloadDelayLoadedDLL2   000000018004a5c0 f   DelayImp:delayhlp.obj
 0001:000496a8       __HrLoadAllImportsForDll   000000018004a6a8 f   DelayImp:delayhlp.obj
 0001:00049738       __delayLoadHelper2         000000018004a738 f   DelayImp:delayhlp.obj
 0001:00049af0       SetRestrictedErrorInfo     000000018004aaf0 f   runtimeobject:api-ms-win-core-winrt-error-l1-1-0.dll
 0001:00049af6       RoFailFastWithErrorContext 000000018004aaf6 f   runtimeobject:api-ms-win-core-winrt-error-l1-1-0.dll
 0001:00049afc       WindowsCreateString        000000018004aafc f   runtimeobject:api-ms-win-core-winrt-string-l1-1-0.dll
 0001:00049afc       __Platform_WindowsCreateString 000000018004aafc f   runtimeobject:api-ms-win-core-winrt-string-l1-1-0.dll
 0001:00049b02       __Platform_WindowsDeleteString 000000018004ab02 f   runtimeobject:api-ms-win-core-winrt-string-l1-1-0.dll
 0001:00049b02       WindowsDeleteString        000000018004ab02 f   runtimeobject:api-ms-win-core-winrt-string-l1-1-0.dll
 0001:00049b08       WindowsDuplicateString     000000018004ab08 f   runtimeobject:api-ms-win-core-winrt-string-l1-1-0.dll
 0001:00049b08       __Platform_WindowsDuplicateString 000000018004ab08 f   runtimeobject:api-ms-win-core-winrt-string-l1-1-0.dll
 0001:00049b0e       __Platform_WindowsGetStringRawBuffer 000000018004ab0e f   runtimeobject:api-ms-win-core-winrt-string-l1-1-0.dll
 0001:00049b0e       WindowsGetStringRawBuffer  000000018004ab0e f   runtimeobject:api-ms-win-core-winrt-string-l1-1-0.dll
 0001:00049b14       WindowsCreateStringReference 000000018004ab14 f   runtimeobject:api-ms-win-core-winrt-string-l1-1-0.dll
 0001:00049b14       __Platform_WindowsCreateStringReference 000000018004ab14 f   runtimeobject:api-ms-win-core-winrt-string-l1-1-0.dll
 0001:00049b1a       WindowsGetStringLen        000000018004ab1a f   runtimeobject:api-ms-win-core-winrt-string-l1-1-0.dll
 0001:00049b1a       __Platform_WindowsGetStringLen 000000018004ab1a f   runtimeobject:api-ms-win-core-winrt-string-l1-1-0.dll
 0001:00049b20       WindowsCompareStringOrdinal 000000018004ab20 f   runtimeobject:api-ms-win-core-winrt-string-l1-1-0.dll
 0001:00049b20       __Platform_WindowsCompareStringOrdinal 000000018004ab20 f   runtimeobject:api-ms-win-core-winrt-string-l1-1-0.dll
 0001:00049b26       RaiseException             000000018004ab26 f   kernel32:KERNEL32.dll
 0001:00049b2c       GetLastError               000000018004ab2c f   kernel32:KERNEL32.dll
 0001:00049b32       GetSystemInfo              000000018004ab32 f   kernel32:KERNEL32.dll
 0001:00049b38       VirtualProtect             000000018004ab38 f   kernel32:KERNEL32.dll
 0001:00049b3e       VirtualQuery               000000018004ab3e f   kernel32:KERNEL32.dll
 0001:00049b44       FreeLibrary                000000018004ab44 f   kernel32:KERNEL32.dll
 0001:00049b4a       LoadLibraryExA             000000018004ab4a f   kernel32:KERNEL32.dll
 0001:00049b50       __acrt_initialize          000000018004ab50 f   MSVCRT:ucrt_stubs.obj
 0001:00049b50       __vcrt_initialize          000000018004ab50 f   MSVCRT:ucrt_stubs.obj
 0001:00049b50       __scrt_stub_for_acrt_initialize 000000018004ab50 f   MSVCRT:ucrt_stubs.obj
 0001:00049b54       __vcrt_thread_attach       000000018004ab54 f   MSVCRT:ucrt_stubs.obj
 0001:00049b54       __acrt_thread_attach       000000018004ab54 f   MSVCRT:ucrt_stubs.obj
 0001:00049b54       __scrt_stub_for_acrt_thread_attach 000000018004ab54 f   MSVCRT:ucrt_stubs.obj
 0001:00049b58       __scrt_stub_for_acrt_thread_detach 000000018004ab58 f   MSVCRT:ucrt_stubs.obj
 0001:00049b58       __acrt_thread_detach       000000018004ab58 f   MSVCRT:ucrt_stubs.obj
 0001:00049b58       __vcrt_thread_detach       000000018004ab58 f   MSVCRT:ucrt_stubs.obj
 0001:00049b5c       __acrt_uninitialize        000000018004ab5c f   MSVCRT:ucrt_stubs.obj
 0001:00049b5c       __vcrt_uninitialize        000000018004ab5c f   MSVCRT:ucrt_stubs.obj
 0001:00049b5c       __scrt_stub_for_acrt_uninitialize 000000018004ab5c f   MSVCRT:ucrt_stubs.obj
 0001:00049b60       __acrt_uninitialize_critical 000000018004ab60 f   MSVCRT:ucrt_stubs.obj
 0001:00049b60       __vcrt_uninitialize_critical 000000018004ab60 f   MSVCRT:ucrt_stubs.obj
 0001:00049b60       __scrt_stub_for_acrt_uninitialize_critical 000000018004ab60 f   MSVCRT:ucrt_stubs.obj
 0001:00049b64       _is_c_termination_complete 000000018004ab64 f   MSVCRT:ucrt_stubs.obj
 0001:00049b64       __scrt_stub_for_is_c_termination_complete 000000018004ab64 f   MSVCRT:ucrt_stubs.obj
 0001:0004ba80       _guard_dispatch_icall_nop  000000018004ca80 f   MSVCRT:_guard_dispatch_.obj
 0001:00055c78       ??__Fmodule@?1??Create@?$Module@$00VInProcModule@Details@Platform@@@WRL@Microsoft@@SAAEAVInProcModule@Details@Platform@@XZ@YAXXZ 0000000180056c78 f i vccorlib:init.obj
 0002:00000000       __xc_a                     0000000180058000     MSVCRT:initializers.obj
 0002:000002c0       _register_binding_         00000001800582c0     _nodert_generated.obj
 0002:000004c8       __xc_z                     00000001800584c8     MSVCRT:initializers.obj
 0002:000005d8       __xi_a                     00000001800585d8     MSVCRT:initializers.obj
 0002:000007f8       __abi__initialize          00000001800587f8     vccorlib:init.obj
 0002:00000908       __xi_z                     0000000180058908     MSVCRT:initializers.obj
 0002:00000a18       __xl_a                     0000000180058a18     MSVCRT:tlssup.obj
 0002:00000a20       __xl_z                     0000000180058a20     MSVCRT:tlssup.obj
 0002:00000a28       __xp_a                     0000000180058a28     MSVCRT:initializers.obj
 0002:00000b38       __xp_z                     0000000180058b38     MSVCRT:initializers.obj
 0002:00000c48       __xt_a                     0000000180058c48     MSVCRT:initializers.obj
 0002:00000d58       __xt_z                     0000000180058d58     MSVCRT:initializers.obj
 0002:00000e70       ??_C@_1BM@PIKOKGCO@?$AAP?$AAl?$AAa?$AAt?$AAf?$AAo?$AAr?$AAm?$AA?4?$AAG?$AAu?$AAi?$AAd?$AA?$AA@ 0000000180058e70     _nodert_generated.obj
 0002:00000e98       __uuidof_?AU__abi_IDelegate@?$TypedEventHandler@PE$AAVBluetoothLEAdvertisementPublisher@Advertisement@Bluetooth@Devices@Windows@@PE$AAVBluetoothLEAdvertisementPublisherStatusChangedEventArgs@2345@@Foundation@Windows@@ 0000000180058e98     _nodert_generated.obj
 0002:00000eb0       __uuidof_?AU__I?$WriteOnlyArray@VPoint@Foundation@Windows@@$00PublicNonVirtuals@Platform@@ 0000000180058eb0     _nodert_generated.obj
 0002:00000ec8       __uuidof_?AU__I?$Array@PE$AAVString@Platform@@$00PublicNonVirtuals@Platform@@ 0000000180058ec8     _nodert_generated.obj
 0002:00000ee0       ??_C@_1IM@BMONFDEF@?$AAW?$AAi?$AAn?$AAd?$AAo?$AAw?$AAs?$AA?4?$AAD?$AAe?$AAv?$AAi?$AAc?$AAe?$AAs?$AA?4?$AAB?$AAl?$AAu?$AAe?$AAt?$AAo?$AAo?$AAt?$AAh?$AA?4?$AAA?$AAd?$AAv?$AAe?$AAr?$AAt@ 0000000180058ee0     _nodert_generated.obj
 0002:00000f88       __uuidof_?AU__I?$WriteOnlyArray@M$00PublicNonVirtuals@Platform@@ 0000000180058f88     _nodert_generated.obj
 0002:00000fa0       __uuidof_?AU__I?$Array@G$00PublicNonVirtuals@Platform@@ 0000000180058fa0     _nodert_generated.obj
 0002:00000fb8       __uuidof_?AV?$WriteOnlyArray@VPoint@Foundation@Windows@@$00@Platform@@ 0000000180058fb8     _nodert_generated.obj
 0002:00000fd0       __uuidof_?AV?$Array@PE$AAVString@Platform@@$00@Platform@@ 0000000180058fd0     _nodert_generated.obj
 0002:00000fe8       __uuidof_?AU__I?$_AsyncInfoImpl@PE$AAUIAsyncAction@Foundation@Windows@@VAsyncActionCompletedHandler@23@EPublicNonVirtuals@details@Concurrency@@ 0000000180058fe8     _nodert_generated.obj
 0002:00001000       __uuidof_?AV?$WriteOnlyArray@M$00@Platform@@ 0000000180059000     _nodert_generated.obj
 0002:00001018       __uuidof_?AV?$Array@G$00@Platform@@ 0000000180059018     _nodert_generated.obj
 0002:00001030       __uuidof_?AU?$_AsyncInfoImpl@PE$AAUIAsyncAction@Foundation@Windows@@VAsyncActionCompletedHandler@23@E@details@Concurrency@@ 0000000180059030     _nodert_generated.obj
 0002:00001048       __uuidof_?AU__I_IAsyncActionToAsyncOperationConverterPublicNonVirtuals@details@Concurrency@@ 0000000180059048     _nodert_generated.obj
 0002:00001060       __uuidof_?AU_IAsyncActionToAsyncOperationConverter@details@Concurrency@@ 0000000180059060     _nodert_generated.obj
 0002:00001078       __uuidof_?AU__I?$Array@VPoint@Foundation@Windows@@$00PublicNonVirtuals@Platform@@ 0000000180059078     _nodert_generated.obj
 0002:00001090       __uuidof_?AU__I?$WriteOnlyArray@PE$AAVObject@Platform@@$00PublicNonVirtuals@Platform@@ 0000000180059090     _nodert_generated.obj
 0002:000010a8       __uuidof_?AU__I?$Array@M$00PublicNonVirtuals@Platform@@ 00000001800590a8     _nodert_generated.obj
 0002:000010c0       __uuidof_?AV?$Array@VPoint@Foundation@Windows@@$00@Platform@@ 00000001800590c0     _nodert_generated.obj
 0002:000010d8       __uuidof_?AU__I_ZipPublicNonVirtuals@details@Concurrency@@ 00000001800590d8     _nodert_generated.obj
 0002:000010f0       __uuidof_?AU__I?$WriteOnlyArray@H$00PublicNonVirtuals@Platform@@ 00000001800590f0     _nodert_generated.obj
 0002:00001108       __uuidof_?AV?$WriteOnlyArray@PE$AAVObject@Platform@@$00@Platform@@ 0000000180059108     _nodert_generated.obj
 0002:00001120       __uuidof_?AV?$Array@M$00@Platform@@ 0000000180059120     _nodert_generated.obj
 0002:00001138       __uuidof_?AV?$Box@VGuid@Platform@@@Platform@@ 0000000180059138     _nodert_generated.obj
 0002:00001150       __uuidof_?AV_Zip@details@Concurrency@@ 0000000180059150     _nodert_generated.obj
 0002:00001168       __uuidof_?AV?$WriteOnlyArray@H$00@Platform@@ 0000000180059168     _nodert_generated.obj
 0002:00001180       __uuidof_?AU__abi_IDelegate@?$TypedEventHandler@PE$AAVBluetoothLEAdvertisementWatcher@Advertisement@Bluetooth@Devices@Windows@@PE$AAVBluetoothLEAdvertisementReceivedEventArgs@2345@@Foundation@Windows@@ 0000000180059180     _nodert_generated.obj
 0002:00001198       __uuidof_?AU__IVectorChangedEventArgsPublicNonVirtuals@Details@Collections@Platform@@ 0000000180059198     _nodert_generated.obj
 0002:000011b0       __uuidof_?AU__I?$WriteOnlyArray@PE$AAVBluetoothLEAdvertisementBytePattern@Advertisement@Bluetooth@Devices@Windows@@$00PublicNonVirtuals@Platform@@ 00000001800591b0     _nodert_generated.obj
 0002:000011c8       __uuidof_?AVVectorChangedEventArgs@Details@Collections@Platform@@ 00000001800591c8     _nodert_generated.obj
 0002:000011e0       __uuidof_?AV?$WriteOnlyArray@PE$AAVBluetoothLEAdvertisementBytePattern@Advertisement@Bluetooth@Devices@Windows@@$00@Platform@@ 00000001800591e0     _nodert_generated.obj
 0002:000011f8       __uuidof_?AU__I?$Array@PE$AAVObject@Platform@@$00PublicNonVirtuals@Platform@@ 00000001800591f8     _nodert_generated.obj
 0002:00001210       __uuidof_?AU__I?$WriteOnlyArray@VSize@Foundation@Windows@@$00PublicNonVirtuals@Platform@@ 0000000180059210     _nodert_generated.obj
 0002:00001228       __uuidof_?AU__I?$Array@H$00PublicNonVirtuals@Platform@@ 0000000180059228     _nodert_generated.obj
 0002:00001240       __uuidof_?AU__I?$WriteOnlyArray@N$00PublicNonVirtuals@Platform@@ 0000000180059240     _nodert_generated.obj
 0002:00001258       __uuidof_?AV?$WriteOnlyArray@VSize@Foundation@Windows@@$00@Platform@@ 0000000180059258     _nodert_generated.obj
 0002:00001270       __uuidof_?AV?$Array@PE$AAVObject@Platform@@$00@Platform@@ 0000000180059270     _nodert_generated.obj
 0002:00001288       __uuidof_?AV?$WriteOnlyArray@N$00@Platform@@ 0000000180059288     _nodert_generated.obj
 0002:000012a0       __uuidof_?AV?$Array@H$00@Platform@@ 00000001800592a0     _nodert_generated.obj
 0002:000012b8       __uuidof_?AU__abi_IDelegate@?$TypedEventHandler@PE$AAVBluetoothLEAdvertisementWatcher@Advertisement@Bluetooth@Devices@Windows@@PE$AAVBluetoothLEAdvertisementWatcherStoppedEventArgs@2345@@Foundation@Windows@@ 00000001800592b8     _nodert_generated.obj
 0002:000012d0       __uuidof_?AU__abi_IDelegate@AsyncActionCompletedHandler@Foundation@Windows@@ 00000001800592d0     _nodert_generated.obj
 0002:000012e8       __uuidof_?AU__ICustomValueTypePublicNonVirtuals@Details@Platform@@ 00000001800592e8     _nodert_generated.obj
 0002:00001300       __uuidof_?AU__I?$Array@VSize@Foundation@Windows@@$00PublicNonVirtuals@Platform@@ 0000000180059300     _nodert_generated.obj
 0002:00001318       __uuidof_?AVCustomValueType@Details@Platform@@ 0000000180059318     _nodert_generated.obj
 0002:00001330       __uuidof_?AU__I?$Array@N$00PublicNonVirtuals@Platform@@ 0000000180059330     _nodert_generated.obj
 0002:00001348       __uuidof_?AU__I?$WriteOnlyArray@VGuid@Platform@@$00PublicNonVirtuals@Platform@@ 0000000180059348     _nodert_generated.obj
 0002:00001360       __uuidof_?AV?$Array@VSize@Foundation@Windows@@$00@Platform@@ 0000000180059360     _nodert_generated.obj
 0002:00001378       __uuidof_?AU__I?$WriteOnlyArray@I$00PublicNonVirtuals@Platform@@ 0000000180059378     _nodert_generated.obj
 0002:00001390       __uuidof_?AV?$WriteOnlyArray@VGuid@Platform@@$00@Platform@@ 0000000180059390     _nodert_generated.obj
 0002:000013a8       __uuidof_?AV?$Array@N$00@Platform@@ 00000001800593a8     _nodert_generated.obj
 0002:000013c0       __uuidof_?AU__abi_IDelegate@?$AsyncOperationCompletedHandler@E@Foundation@Windows@@ 00000001800593c0     _nodert_generated.obj
 0002:000013d8       __uuidof_?AV?$WriteOnlyArray@I$00@Platform@@ 00000001800593d8     _nodert_generated.obj
 0002:000013f0       __uuidof_?AU__ICustomEnumPublicNonVirtuals@Details@Platform@@ 00000001800593f0     _nodert_generated.obj
 0002:00001408       __uuidof_?AU__I?$Array@PE$AAVBluetoothLEAdvertisementBytePattern@Advertisement@Bluetooth@Devices@Windows@@$00PublicNonVirtuals@Platform@@ 0000000180059408     _nodert_generated.obj
 0002:00001420       __uuidof_?AVCustomEnum@Details@Platform@@ 0000000180059420     _nodert_generated.obj
 0002:00001438       __uuidof_?AV?$Array@PE$AAVBluetoothLEAdvertisementBytePattern@Advertisement@Bluetooth@Devices@Windows@@$00@Platform@@ 0000000180059438     _nodert_generated.obj
 0002:00001450       __abi_typedesc_Windows.Devices.Bluetooth.Advertisement.BluetoothLEAdvertisementFlags 0000000180059450     _nodert_generated.obj
 0002:00001468       __uuidof_?AU__I?$Array@VGuid@Platform@@$00PublicNonVirtuals@Platform@@ 0000000180059468     _nodert_generated.obj
 0002:00001480       __uuidof_?AU__I?$WriteOnlyArray@VRect@Foundation@Windows@@$00PublicNonVirtuals@Platform@@ 0000000180059480     _nodert_generated.obj
 0002:00001498       __uuidof_?AU__I?$WriteOnlyArray@_W$00PublicNonVirtuals@Platform@@ 0000000180059498     _nodert_generated.obj
 0002:000014b0       __uuidof_?AU__I?$Array@I$00PublicNonVirtuals@Platform@@ 00000001800594b0     _nodert_generated.obj
 0002:000014c8       __uuidof_?AV?$WriteOnlyArray@VRect@Foundation@Windows@@$00@Platform@@ 00000001800594c8     _nodert_generated.obj
 0002:000014e0       __uuidof_?AV?$Array@VGuid@Platform@@$00@Platform@@ 00000001800594e0     _nodert_generated.obj
 0002:000014f8       __uuidof_?AV?$CustomBox@W4BluetoothLEAdvertisementFlags@Advertisement@Bluetooth@Devices@Windows@@@Details@Platform@@ 00000001800594f8     _nodert_generated.obj
 0002:00001510       __uuidof_?AV?$WriteOnlyArray@_W$00@Platform@@ 0000000180059510     _nodert_generated.obj
 0002:00001528       __uuidof_?AV?$Array@I$00@Platform@@ 0000000180059528     _nodert_generated.obj
 0002:00001540       __uuidof_?AU__I?$WriteOnlyArray@PE$AAVBluetoothLEAdvertisementDataSection@Advertisement@Bluetooth@Devices@Windows@@$00PublicNonVirtuals@Platform@@ 0000000180059540     _nodert_generated.obj
 0002:00001558       __uuidof_?AU__I?$Array@VRect@Foundation@Windows@@$00PublicNonVirtuals@Platform@@ 0000000180059558     _nodert_generated.obj
 0002:00001570       __uuidof_?AV?$WriteOnlyArray@PE$AAVBluetoothLEAdvertisementDataSection@Advertisement@Bluetooth@Devices@Windows@@$00@Platform@@ 0000000180059570     _nodert_generated.obj
 0002:00001588       __uuidof_?AU__I?$Array@_W$00PublicNonVirtuals@Platform@@ 0000000180059588     _nodert_generated.obj
 0002:000015a0       __uuidof_?AU__I?$WriteOnlyArray@VDateTime@Foundation@Windows@@$00PublicNonVirtuals@Platform@@ 00000001800595a0     _nodert_generated.obj
 0002:000015b8       __uuidof_?AV?$Array@VRect@Foundation@Windows@@$00@Platform@@ 00000001800595b8     _nodert_generated.obj
 0002:000015d0       __uuidof_?AU__I?$WriteOnlyArray@_J$00PublicNonVirtuals@Platform@@ 00000001800595d0     _nodert_generated.obj
 0002:000015e8       __uuidof_?AV?$WriteOnlyArray@VDateTime@Foundation@Windows@@$00@Platform@@ 00000001800595e8     _nodert_generated.obj
 0002:00001600       __uuidof_?AV?$Array@_W$00@Platform@@ 0000000180059600     _nodert_generated.obj
 0002:00001618       __uuidof_?AV?$Box@W4BluetoothLEAdvertisementFlags@Advertisement@Bluetooth@Devices@Windows@@@Platform@@ 0000000180059618     _nodert_generated.obj
 0002:00001630       __uuidof_?AV?$WriteOnlyArray@_J$00@Platform@@ 0000000180059630     _nodert_generated.obj
 0002:00001648       __uuidof_?AU__I?$WriteOnlyArray@E$00PublicNonVirtuals@Platform@@ 0000000180059648     _nodert_generated.obj
 0002:00001660       __uuidof_?AU__I?$Array@VDateTime@Foundation@Windows@@$00PublicNonVirtuals@Platform@@ 0000000180059660     _nodert_generated.obj
 0002:00001678       __uuidof_?AU__I?$Array@_J$00PublicNonVirtuals@Platform@@ 0000000180059678     _nodert_generated.obj
 0002:00001690       __uuidof_?AU__I?$WriteOnlyArray@_N$00PublicNonVirtuals@Platform@@ 0000000180059690     _nodert_generated.obj
 0002:000016a8       __uuidof_?AU__I?$WriteOnlyArray@PE$AAVBluetoothLEManufacturerData@Advertisement@Bluetooth@Devices@Windows@@$00PublicNonVirtuals@Platform@@ 00000001800596a8     _nodert_generated.obj
 0002:000016c0       __uuidof_?AV?$WriteOnlyArray@E$00@Platform@@ 00000001800596c0     _nodert_generated.obj
 0002:000016d8       __uuidof_?AV?$Array@VDateTime@Foundation@Windows@@$00@Platform@@ 00000001800596d8     _nodert_generated.obj
 0002:000016f0       __uuidof_?AU__I?$WriteOnlyArray@F$00PublicNonVirtuals@Platform@@ 00000001800596f0     _nodert_generated.obj
 0002:00001708       __uuidof_?AV?$WriteOnlyArray@_N$00@Platform@@ 0000000180059708     _nodert_generated.obj
 0002:00001720       __uuidof_?AV?$Array@_J$00@Platform@@ 0000000180059720     _nodert_generated.obj
 0002:00001738       __uuidof_?AV?$WriteOnlyArray@PE$AAVBluetoothLEManufacturerData@Advertisement@Bluetooth@Devices@Windows@@$00@Platform@@ 0000000180059738     _nodert_generated.obj
 0002:00001750       __uuidof_?AV?$WriteOnlyArray@F$00@Platform@@ 0000000180059750     _nodert_generated.obj
 0002:00001768       __uuidof_?AU__I?$Array@PE$AAVBluetoothLEAdvertisementDataSection@Advertisement@Bluetooth@Devices@Windows@@$00PublicNonVirtuals@Platform@@ 0000000180059768     _nodert_generated.obj
 0002:00001780       __uuidof_?AU__abi_IDelegate@BindableVectorChangedEventHandler@Interop@Xaml@UI@Windows@@ 0000000180059780     _nodert_generated.obj
 0002:00001798       __uuidof_?AV?$Array@PE$AAVBluetoothLEAdvertisementDataSection@Advertisement@Bluetooth@Devices@Windows@@$00@Platform@@ 0000000180059798     _nodert_generated.obj
 0002:000017b0       __uuidof_?AU__I?$Array@_N$00PublicNonVirtuals@Platform@@ 00000001800597b0     _nodert_generated.obj
 0002:000017c8       __uuidof_?AU__I?$WriteOnlyArray@VTimeSpan@Foundation@Windows@@$00PublicNonVirtuals@Platform@@ 00000001800597c8     _nodert_generated.obj
 0002:000017e0       __uuidof_?AU__I?$WriteOnlyArray@_K$00PublicNonVirtuals@Platform@@ 00000001800597e0     _nodert_generated.obj
 0002:000017f8       __uuidof_?AU__I?$Array@F$00PublicNonVirtuals@Platform@@ 00000001800597f8     _nodert_generated.obj
 0002:00001810       __uuidof_?AV?$WriteOnlyArray@VTimeSpan@Foundation@Windows@@$00@Platform@@ 0000000180059810     _nodert_generated.obj
 0002:00001828       __uuidof_?AV?$Array@_N$00@Platform@@ 0000000180059828     _nodert_generated.obj
 0002:00001840       __uuidof_?AU__I?$Array@E$00PublicNonVirtuals@Platform@@ 0000000180059840     _nodert_generated.obj
 0002:00001858       __uuidof_?AV?$WriteOnlyArray@_K$00@Platform@@ 0000000180059858     _nodert_generated.obj
 0002:00001870       __uuidof_?AV?$Array@F$00@Platform@@ 0000000180059870     _nodert_generated.obj
 0002:00001888       ??_C@_0BJ@CIOFOAKP@?4?4?2_nodert_generated?4cpp?$AA@ 0000000180059888     _nodert_generated.obj
 0002:000018a8       ??_C@_07GGKKJCAC@binding?$AA@ 00000001800598a8     _nodert_generated.obj
 0002:000018b8       ??_C@_0BJ@LJPDLIMA@__registrationTokenMap__?$AA@ 00000001800598b8     _nodert_generated.obj
 0002:000018d8       __uuidof_?AV?$Array@E$00@Platform@@ 00000001800598d8     _nodert_generated.obj
 0002:000018f0       __abi_typedesc_Platform.Guid 00000001800598f0     _nodert_generated.obj
 0002:00001908       __uuidof_?AU__I?$Array@PE$AAVBluetoothLEManufacturerData@Advertisement@Bluetooth@Devices@Windows@@$00PublicNonVirtuals@Platform@@ 0000000180059908     _nodert_generated.obj
 0002:00001920       __uuidof_?AU__I?$Array@VTimeSpan@Foundation@Windows@@$00PublicNonVirtuals@Platform@@ 0000000180059920     _nodert_generated.obj
 0002:00001938       __uuidof_?AV?$CustomBox@VGuid@Platform@@@Details@Platform@@ 0000000180059938     _nodert_generated.obj
 0002:00001950       __uuidof_?AU__I?$WriteOnlyArray@PE$AAVString@Platform@@$00PublicNonVirtuals@Platform@@ 0000000180059950     _nodert_generated.obj
 0002:00001968       __uuidof_?AU__I?$Array@_K$00PublicNonVirtuals@Platform@@ 0000000180059968     _nodert_generated.obj
 0002:00001980       __uuidof_?AV?$Array@PE$AAVBluetoothLEManufacturerData@Advertisement@Bluetooth@Devices@Windows@@$00@Platform@@ 0000000180059980     _nodert_generated.obj
 0002:00001998       __uuidof_?AV?$Array@VTimeSpan@Foundation@Windows@@$00@Platform@@ 0000000180059998     _nodert_generated.obj
 0002:000019b0       __uuidof_?AU__I?$WriteOnlyArray@G$00PublicNonVirtuals@Platform@@ 00000001800599b0     _nodert_generated.obj
 0002:000019c8       __uuidof_?AV?$Box@_J@Platform@@ 00000001800599c8     _nodert_generated.obj
 0002:000019e0       __uuidof_?AV?$WriteOnlyArray@PE$AAVString@Platform@@$00@Platform@@ 00000001800599e0     _nodert_generated.obj
 0002:000019f8       __uuidof_?AV?$Array@_K$00@Platform@@ 00000001800599f8     _nodert_generated.obj
 0002:00001a10       __uuidof_?AV?$WriteOnlyArray@G$00@Platform@@ 0000000180059a10     _nodert_generated.obj
 0002:000082f8       __uuidof_?AUIValueType@Platform@@ 00000001800602f8     _nodert_generated.obj
 0002:00008310       __uuidof_?AUIDisposable@Platform@@ 0000000180060310     _nodert_generated.obj
 0002:00008328       __uuidof_?AUIPrintable@Details@Platform@@ 0000000180060328     _nodert_generated.obj
 0002:00008340       __uuidof_?AUIWeakReferenceSource@Details@Platform@@ 0000000180060340     _nodert_generated.obj
 0002:00008358       __uuidof_?AUIAgileObject@Details@Platform@@ 0000000180060358     _nodert_generated.obj
 0002:00008370       __uuidof_?AUIBuffer@Streams@Storage@Windows@@ 0000000180060370     _nodert_generated.obj
 0002:00008388       _GUID_00000003_0000_0000_c000_000000000046 0000000180060388     _nodert_generated.obj
 0002:000083a0       _GUID_00000000_0000_0000_c000_000000000046 00000001800603a0     _nodert_generated.obj
 0002:000083b8       ??_C@_1DG@OKCGPKIB@?$AAp?$AAe?$AAr?$AAs?$AAi?$AAs?$AAt?$AAe?$AAn?$AAt?$AA?$CI?$AA?$CJ?$AA?4?$AAI?$AAs?$AAN?$AAe?$AAa?$AAr?$AAD?$AAe?$AAa?$AAt?$AAh?$AA?$CI?$AA?$CJ?$AA?$AA@ 00000001800603b8     _nodert_generated.obj
 0002:000083f8       ??_C@_1CO@EGNPJLKI@?$AAp?$AAe?$AAr?$AAs?$AAi?$AAs?$AAt?$AAe?$AAn?$AAt?$AA?$CI?$AA?$CJ?$AA?4?$AAI?$AAs?$AAE?$AAm?$AAp?$AAt?$AAy?$AA?$CI?$AA?$CJ?$AA?$AA@ 00000001800603f8     _nodert_generated.obj
 0002:00008430       ??_C@_1DA@FBGAEOIO@?$AA?$CB?$AAp?$AAe?$AAr?$AAs?$AAi?$AAs?$AAt?$AAe?$AAn?$AAt?$AA?$CI?$AA?$CJ?$AA?4?$AAI?$AAs?$AAE?$AAm?$AAp?$AAt?$AAy?$AA?$CI?$AA?$CJ?$AA?$AA@ 0000000180060430     _nodert_generated.obj
 0002:00008470       ??_C@_1CO@JCKLEFMA@?$AA?$CB?$AAp?$AAe?$AAr?$AAs?$AAi?$AAs?$AAt?$AAe?$AAn?$AAt?$AA?$CI?$AA?$CJ?$AA?4?$AAI?$AAs?$AAW?$AAe?$AAa?$AAk?$AA?$CI?$AA?$CJ?$AA?$AA@ 0000000180060470     _nodert_generated.obj
 0002:000084a8       ??_C@_1BE@GMLLOIPJ@?$AAr?$AAe?$AAf?$AAs?$AA_?$AA?5?$AA?$DO?$AA?5?$AA0?$AA?$AA@ 00000001800604a8     _nodert_generated.obj
 0002:000084c0       ??_C@_1CC@GBFLAAPF@?$AAw?$AAr?$AAa?$AAp?$AA?9?$AA?$DO?$AAr?$AAe?$AAf?$AAs?$AA_?$AA?5?$AA?$DN?$AA?$DN?$AA?5?$AA0?$AA?$AA@ 00000001800604c0     _nodert_generated.obj
 0002:000084f0       ??_C@_1JI@JPIBEDCC@?$AAc?$AA?3?$AA?2?$AAu?$AAs?$AAe?$AAr?$AAs?$AA?2?$AAo?$AAo?$AAt?$AAu?$AAb?$AA?2?$AAd?$AAe?$AAs?$AAk?$AAt?$AAo?$AAp?$AA?2?$AAe?$AAl?$AAe?$AAc?$AAt?$AAr?$AAo?$AAn?$AA?9@ 00000001800604f0     _nodert_generated.obj
 0002:000085b0       ??_C@_1EC@MGGLMBLC@?$AAo?$AAb?$AAj?$AAe?$AAc?$AAt?$AA?9?$AA?$DO?$AAI?$AAn?$AAt?$AAe?$AAr?$AAn?$AAa?$AAl?$AAF?$AAi?$AAe?$AAl?$AAd?$AAC?$AAo?$AAu?$AAn?$AAt?$AA?$CI?$AA?$CJ?$AA?5?$AA?$DO?$AA?5?$AA0@ 00000001800605b0     _nodert_generated.obj
 0002:00008600       ??_C@_1DI@ELDBKNAK@?$AAw?$AAr?$AAa?$AAp?$AA?9?$AA?$DO?$AAh?$AAa?$AAn?$AAd?$AAl?$AAe?$AA_?$AA?4?$AAI?$AAs?$AAN?$AAe?$AAa?$AAr?$AAD?$AAe?$AAa?$AAt?$AAh?$AA?$CI?$AA?$CJ?$AA?$AA@ 0000000180060600     _nodert_generated.obj
 0002:00008648       ??_C@_0BH@LAEGKBN@__winrtOpaqueWrapper__?$AA@ 0000000180060648     _nodert_generated.obj
 0002:00008668       ??_C@_0BI@PBDDIBBI@BluetoothLEScanningMode?$AA@ 0000000180060668     _nodert_generated.obj
 0002:00008688       ??_C@_07CGFACAKO@passive?$AA@ 0000000180060688     _nodert_generated.obj
 0002:00008694       ??_C@_06MDLIGPKC@active?$AA@ 0000000180060694     _nodert_generated.obj
 0002:000086a0       ??_C@_0BO@FJKGFCGG@BluetoothLEAdvertisementFlags?$AA@ 00000001800606a0     _nodert_generated.obj
 0002:000086c4       ??_C@_04CGFJFPFD@none?$AA@ 00000001800606c4     _nodert_generated.obj
 0002:000086d0       ??_C@_0BI@LHCDIHBA@limitedDiscoverableMode?$AA@ 00000001800606d0     _nodert_generated.obj
 0002:000086f0       ??_C@_0BI@EJLMGOIF@generalDiscoverableMode?$AA@ 00000001800606f0     _nodert_generated.obj
 0002:00008710       ??_C@_0BE@NMDCGMNH@classicNotSupported?$AA@ 0000000180060710     _nodert_generated.obj
 0002:00008728       ??_C@_0BK@GANDJAON@dualModeControllerCapable?$AA@ 0000000180060728     _nodert_generated.obj
 0002:00008748       ??_C@_0BE@CGHFAFAJ@dualModeHostCapable?$AA@ 0000000180060748     _nodert_generated.obj
 0002:00008760       ??_C@_0BN@IOFGJJHA@BluetoothLEAdvertisementType?$AA@ 0000000180060760     _nodert_generated.obj
 0002:00008788       ??_C@_0BG@OPJJJFF@connectableUndirected?$AA@ 0000000180060788     _nodert_generated.obj
 0002:000087a8       ??_C@_0BE@BHHBPCIK@connectableDirected?$AA@ 00000001800607a8     _nodert_generated.obj
 0002:000087c0       ??_C@_0BE@JHKOIFGK@scannableUndirected?$AA@ 00000001800607c0     _nodert_generated.obj
 0002:000087d8       ??_C@_0BJ@FKBALFDP@nonConnectableUndirected?$AA@ 00000001800607d8     _nodert_generated.obj
 0002:000087f8       ??_C@_0N@GKKGEDOL@scanResponse?$AA@ 00000001800607f8     _nodert_generated.obj
 0002:00008808       ??_C@_0CG@HDBNCHLN@BluetoothLEAdvertisementWatcherS@ 0000000180060808     _nodert_generated.obj
 0002:00008838       ??_C@_07OIPFBGHL@created?$AA@ 0000000180060838     _nodert_generated.obj
 0002:00008848       ??_C@_07ELEPLNCO@started?$AA@ 0000000180060848     _nodert_generated.obj
 0002:00008858       ??_C@_08FJBHPJOK@stopping?$AA@ 0000000180060858     _nodert_generated.obj
 0002:00008868       ??_C@_07IEOHBIGJ@stopped?$AA@ 0000000180060868     _nodert_generated.obj
 0002:00008878       ??_C@_07ELNFEDPM@aborted?$AA@ 0000000180060878     _nodert_generated.obj
 0002:00008888       ??_C@_0CI@GJMLGICC@BluetoothLEAdvertisementPublishe@ 0000000180060888     _nodert_generated.obj
 0002:000088b8       ??_C@_07BMPLEEBA@waiting?$AA@ 00000001800608b8     _nodert_generated.obj
 0002:000088c8       ??_C@_0BM@HHFKHALE@BluetoothLEManufacturerData?$AA@ 00000001800608c8     _nodert_generated.obj
 0002:000088ec       ??_C@_04PJOLNDGD@data?$AA@ 00000001800608ec     _nodert_generated.obj
 0002:000088f8       ??_C@_09IPLOOBOH@companyId?$AA@ 00000001800608f8     _nodert_generated.obj
 0002:00008908       ??_C@_08KIDHCPHN@castFrom?$AA@ 0000000180060908     _nodert_generated.obj
 0002:00008918       __uuidof_?AVBluetoothLEManufacturerData@Advertisement@Bluetooth@Devices@Windows@@ 0000000180060918     _nodert_generated.obj
 0002:00008930       ??_C@_1GC@KBHNNFGK@?$AAI?$AAn?$AAv?$AAa?$AAl?$AAi?$AAd?$AA?5?$AAa?$AAr?$AAg?$AAu?$AAm?$AAe?$AAn?$AAt?$AAs?$AA?0?$AA?5?$AAn?$AAo?$AA?5?$AAs?$AAu?$AAi?$AAt?$AAa?$AAb?$AAl?$AAe?$AA?5?$AAc@ 0000000180060930     _nodert_generated.obj
 0002:000089a8       ??_C@_0BC@HNKGPEBE@__winRtInstance__?$AA@ 00000001800609a8     _nodert_generated.obj
 0002:000089c0       ??_C@_1LK@MDDHJJID@?$AAI?$AAn?$AAv?$AAa?$AAl?$AAi?$AAd?$AA?5?$AAa?$AAr?$AAg?$AAu?$AAm?$AAe?$AAn?$AAt?$AAs?$AA?0?$AA?5?$AAn?$AAo?$AA?5?$AAo?$AAb?$AAj?$AAe?$AAc?$AAt?$AA?5?$AAp?$AAr?$AAo@ 00000001800609c0     _nodert_generated.obj
 0002:00008aa0       ??_C@_07HPFODJPP@IBuffer?$AA@ 0000000180060aa0     _nodert_generated.obj
 0002:00008ab0       ??_C@_0BI@LEEBABDB@Windows?4Storage?4Streams?$AA@ 0000000180060ab0     _nodert_generated.obj
 0002:00008ad0       ??_C@_1EG@IJKJPMJK@?$AAV?$AAa?$AAl?$AAu?$AAe?$AA?5?$AAt?$AAo?$AA?5?$AAs?$AAe?$AAt?$AA?5?$AAi?$AAs?$AA?5?$AAo?$AAf?$AA?5?$AAu?$AAn?$AAe?$AAx?$AAp?$AAe?$AAc?$AAt?$AAe?$AAd?$AA?5?$AAt?$AAy@ 0000000180060ad0     _nodert_generated.obj
 0002:00008b28       ??_C@_0CE@FODAILOG@BluetoothLEAdvertisementDataSect@ 0000000180060b28     _nodert_generated.obj
 0002:00008b58       ??_C@_08EIGIMCLE@dataType?$AA@ 0000000180060b58     _nodert_generated.obj
 0002:00008b68       __uuidof_?AVBluetoothLEAdvertisementDataSection@Advertisement@Bluetooth@Devices@Windows@@ 0000000180060b68     _nodert_generated.obj
 0002:00008b80       ??_C@_0BJ@CFFPEDLA@BluetoothLEAdvertisement?$AA@ 0000000180060b80     _nodert_generated.obj
 0002:00008ba0       ??_C@_0BP@ICIGLFIG@getManufacturerDataByCompanyId?$AA@ 0000000180060ba0     _nodert_generated.obj
 0002:00008bc8       ??_C@_0BC@MEJPKHHN@getSectionsByType?$AA@ 0000000180060bc8     _nodert_generated.obj
 0002:00008be0       ??_C@_09GEDLKDPF@localName?$AA@ 0000000180060be0     _nodert_generated.obj
 0002:00008bec       ??_C@_05GECEPKB@flags?$AA@ 0000000180060bec     _nodert_generated.obj
 0002:00008bf8       ??_C@_0N@LFONJDFI@dataSections?$AA@ 0000000180060bf8     _nodert_generated.obj
 0002:00008c08       ??_C@_0BB@OAEELNLD@manufacturerData?$AA@ 0000000180060c08     _nodert_generated.obj
 0002:00008c20       ??_C@_0N@NOEFIJM@serviceUuids?$AA@ 0000000180060c20     _nodert_generated.obj
 0002:00008c30       __uuidof_?AVBluetoothLEAdvertisement@Advertisement@Bluetooth@Devices@Windows@@ 0000000180060c30     _nodert_generated.obj
 0002:00008c50       ??_C@_1FE@FAFBJCBD@?$AAB?$AAa?$AAd?$AA?5?$AAa?$AAr?$AAg?$AAu?$AAm?$AAe?$AAn?$AAt?$AAs?$AA?3?$AA?5?$AAn?$AAo?$AA?5?$AAs?$AAu?$AAi?$AAt?$AAa?$AAb?$AAl?$AAe?$AA?5?$AAo?$AAv?$AAe?$AAr?$AAl@ 0000000180060c50     _nodert_generated.obj
 0002:00008cb8       __uuidof_?AU?$IBox@W4BluetoothLEAdvertisementFlags@Advertisement@Bluetooth@Devices@Windows@@@Platform@@ 0000000180060cb8     _nodert_generated.obj
 0002:00008cd0       ??_C@_0CE@MCOPMEMM@BluetoothLEAdvertisementBytePatt@ 0000000180060cd0     _nodert_generated.obj
 0002:00008cfc       ??_C@_06KLHHMIGM@offset?$AA@ 0000000180060cfc     _nodert_generated.obj
 0002:00008d08       __uuidof_?AVBluetoothLEAdvertisementBytePattern@Advertisement@Bluetooth@Devices@Windows@@ 0000000180060d08     _nodert_generated.obj
 0002:00008d20       ??_C@_0BP@ELNLALPK@BluetoothLEAdvertisementFilter?$AA@ 0000000180060d20     _nodert_generated.obj
 0002:00008d48       ??_C@_0O@GKIGIAGH@advertisement?$AA@ 0000000180060d48     _nodert_generated.obj
 0002:00008d58       ??_C@_0N@GOMKIFMB@bytePatterns?$AA@ 0000000180060d58     _nodert_generated.obj
 0002:00008d68       __uuidof_?AVBluetoothLEAdvertisementFilter@Advertisement@Bluetooth@Devices@Windows@@ 0000000180060d68     _nodert_generated.obj
 0002:00008d80       ??_C@_0DA@IIEKMGAB@BluetoothLEAdvertisementWatcherS@ 0000000180060d80     _nodert_generated.obj
 0002:00008dbc       ??_C@_05KKCIMGE@error?$AA@ 0000000180060dbc     _nodert_generated.obj
 0002:00008dc8       __uuidof_?AVBluetoothLEAdvertisementWatcherStoppedEventArgs@Advertisement@Bluetooth@Devices@Windows@@ 0000000180060dc8     _nodert_generated.obj
 0002:00008de0       ??_C@_0CA@BFJCACOD@BluetoothLEAdvertisementWatcher?$AA@ 0000000180060de0     _nodert_generated.obj
 0002:00008e08       ??_C@_05FAGFPHJG@start?$AA@ 0000000180060e08     _nodert_generated.obj
 0002:00008e10       ??_C@_04PEGFANN@stop?$AA@  0000000180060e10     _nodert_generated.obj
 0002:00008e18       ??_C@_0M@GMNDPMBH@addListener?$AA@ 0000000180060e18     _nodert_generated.obj
 0002:00008e28       ??_C@_02LIELOMNJ@on?$AA@   0000000180060e28     _nodert_generated.obj
 0002:00008e30       ??_C@_0P@NPMHMMOM@removeListener?$AA@ 0000000180060e30     _nodert_generated.obj
 0002:00008e44       ??_C@_03MCADLMAF@off?$AA@  0000000180060e44     _nodert_generated.obj
 0002:00008e48       ??_C@_0BF@PFOIJMNM@signalStrengthFilter?$AA@ 0000000180060e48     _nodert_generated.obj
 0002:00008e68       ??_C@_0N@PHACAELL@scanningMode?$AA@ 0000000180060e68     _nodert_generated.obj
 0002:00008e78       ??_C@_0BE@MKMPIJII@advertisementFilter?$AA@ 0000000180060e78     _nodert_generated.obj
 0002:00008e90       ??_C@_0BF@NOEGPLNO@maxOutOfRangeTimeout?$AA@ 0000000180060e90     _nodert_generated.obj
 0002:00008eb0       ??_C@_0BE@HLKNLOAP@maxSamplingInterval?$AA@ 0000000180060eb0     _nodert_generated.obj
 0002:00008ec8       ??_C@_0BF@MNADBNHF@minOutOfRangeTimeout?$AA@ 0000000180060ec8     _nodert_generated.obj
 0002:00008ee8       ??_C@_0BE@FCNDEDBH@minSamplingInterval?$AA@ 0000000180060ee8     _nodert_generated.obj
 0002:00008f00       ??_C@_06DJIHEMFI@status?$AA@ 0000000180060f00     _nodert_generated.obj
 0002:00008f08       __uuidof_?AV?$TypedEventHandler@PE$AAVBluetoothLEAdvertisementWatcher@Advertisement@Bluetooth@Devices@Windows@@PE$AAVBluetoothLEAdvertisementReceivedEventArgs@2345@@Foundation@Windows@@ 0000000180060f08     _nodert_generated.obj
 0002:00008f20       __uuidof_?AV?$TypedEventHandler@PE$AAVBluetoothLEAdvertisementWatcher@Advertisement@Bluetooth@Devices@Windows@@PE$AAVBluetoothLEAdvertisementWatcherStoppedEventArgs@2345@@Foundation@Windows@@ 0000000180060f20     _nodert_generated.obj
 0002:00008f38       __uuidof_?AVBluetoothLEAdvertisementWatcher@Advertisement@Bluetooth@Devices@Windows@@ 0000000180060f38     _nodert_generated.obj
 0002:00008f50       ??_C@_0BO@KIKEEMBF@BluetoothSignalStrengthFilter?$AA@ 0000000180060f50     _nodert_generated.obj
 0002:00008f78       ??_C@_0BK@DFIELNMG@Windows?4Devices?4Bluetooth?$AA@ 0000000180060f78     _nodert_generated.obj
 0002:00008f98       __uuidof_?AVBluetoothSignalStrengthFilter@Bluetooth@Devices@Windows@@ 0000000180060f98     _nodert_generated.obj
 0002:00008fb0       __uuidof_?AVBluetoothLEAdvertisementReceivedEventArgs@Advertisement@Bluetooth@Devices@Windows@@ 0000000180060fb0     _nodert_generated.obj
 0002:00008fd0       ??_C@_1JK@DNJLCGHE@?$AAw?$AAr?$AAo?$AAn?$AAg?$AA?5?$AAa?$AAr?$AAg?$AAu?$AAm?$AAe?$AAn?$AAt?$AAs?$AA?0?$AA?5?$AAe?$AAx?$AAp?$AAe?$AAc?$AAt?$AAe?$AAd?$AA?5?$AAa?$AAr?$AAg?$AAu?$AAm?$AAe@ 0000000180060fd0     _nodert_generated.obj
 0002:00009088       ??_C@_1BC@PMLNGHBC@?$AAr?$AAe?$AAc?$AAe?$AAi?$AAv?$AAe?$AAd?$AA?$AA@ 0000000180061088     _nodert_generated.obj
 0002:000090a0       ??_C@_1LG@DAHPAPIM@?$AAT?$AAh?$AAe?$AA?5?$AAc?$AAa?$AAl?$AAl?$AAe?$AAr?$AA?5?$AAo?$AAf?$AA?5?$AAt?$AAh?$AAi?$AAs?$AA?5?$AAm?$AAe?$AAt?$AAh?$AAo?$AAd?$AA?5?$AAi?$AAs?$AAn?$AA?8?$AAt?$AA?5@ 00000001800610a0     _nodert_generated.obj
 0002:00009180       ??_C@_1BA@PKILJGND@?$AAs?$AAt?$AAo?$AAp?$AAp?$AAe?$AAd?$AA?$AA@ 0000000180061180     _nodert_generated.obj
 0002:000091a0       ??_C@_1EG@KBCEIIBD@?$AAg?$AAi?$AAv?$AAe?$AAn?$AA?5?$AAe?$AAv?$AAe?$AAn?$AAt?$AA?5?$AAn?$AAa?$AAm?$AAe?$AA?5?$AAi?$AAs?$AAn?$AA?8?$AAt?$AA?5?$AAs?$AAu?$AAp?$AAp?$AAo?$AAr?$AAt?$AAe?$AAd@ 00000001800611a0     _nodert_generated.obj
 0002:00009200       ??_C@_1GE@DOIICCMG@?$AAw?$AAr?$AAo?$AAn?$AAg?$AA?5?$AAa?$AAr?$AAg?$AAu?$AAm?$AAe?$AAn?$AAt?$AAs?$AA?0?$AA?5?$AAe?$AAx?$AAp?$AAe?$AAc?$AAt?$AAe?$AAd?$AA?5?$AAa?$AA?5?$AAs?$AAt?$AAr?$AAi@ 0000000180061200     _nodert_generated.obj
 0002:00009278       ??_C@_0CK@MNMNEOPO@BluetoothLEAdvertisementReceived@ 0000000180061278     _nodert_generated.obj
 0002:000092b0       ??_C@_0BC@BAKFBCBO@advertisementType?$AA@ 00000001800612b0     _nodert_generated.obj
 0002:000092c8       ??_C@_0BB@BNFFDMAH@bluetoothAddress?$AA@ 00000001800612c8     _nodert_generated.obj
 0002:000092e0       ??_C@_0BH@PANOHOP@rawSignalStrengthInDBm?$AA@ 00000001800612e0     _nodert_generated.obj
 0002:00009300       ??_C@_09OMDJNLDP@timestamp?$AA@ 0000000180061300     _nodert_generated.obj
 0002:00009310       ??_C@_0CC@PGPEKJHD@BluetoothLEAdvertisementDataType@ 0000000180061310     _nodert_generated.obj
 0002:00009338       ??_C@_0BE@LHJGLCNH@advertisingInterval?$AA@ 0000000180061338     _nodert_generated.obj
 0002:00009350       ??_C@_0L@NNFIDALE@appearance?$AA@ 0000000180061350     _nodert_generated.obj
 0002:00009360       ??_C@_0BC@JCLBJEDN@completeLocalName?$AA@ 0000000180061360     _nodert_generated.obj
 0002:00009378       ??_C@_0BL@LGGNDAKG@completeService128BitUuids?$AA@ 0000000180061378     _nodert_generated.obj
 0002:00009398       ??_C@_0BK@BGMHNHPD@completeService16BitUuids?$AA@ 0000000180061398     _nodert_generated.obj
 0002:000093b8       ??_C@_0BK@EHEAMOEI@completeService32BitUuids?$AA@ 00000001800613b8     _nodert_generated.obj
 0002:000093d8       ??_C@_0BN@JJBKJLGP@incompleteService128BitUuids?$AA@ 00000001800613d8     _nodert_generated.obj
 0002:00009400       ??_C@_0BM@OBAJJMP@incompleteService16BitUuids?$AA@ 0000000180061400     _nodert_generated.obj
 0002:00009428       ??_C@_0BM@FPJHIAHE@incompleteService32BitUuids?$AA@ 0000000180061428     _nodert_generated.obj
 0002:00009450       ??_C@_0BJ@OHHPKECC@manufacturerSpecificData?$AA@ 0000000180061450     _nodert_generated.obj
 0002:00009470       ??_C@_0BE@NIAOAKIC@publicTargetAddress?$AA@ 0000000180061470     _nodert_generated.obj
 0002:00009488       ??_C@_0BE@KMOBANOD@randomTargetAddress?$AA@ 0000000180061488     _nodert_generated.obj
 0002:000094a0       ??_C@_0BH@KOGIBBLJ@serviceData128BitUuids?$AA@ 00000001800614a0     _nodert_generated.obj
 0002:000094c0       ??_C@_0BG@KEKBLPCE@serviceData16BitUuids?$AA@ 00000001800614c0     _nodert_generated.obj
 0002:000094e0       ??_C@_0BG@PFCGKGJP@serviceData32BitUuids?$AA@ 00000001800614e0     _nodert_generated.obj
 0002:00009500       ??_C@_0BP@HDJKAJDA@serviceSolicitation128BitUuids?$AA@ 0000000180061500     _nodert_generated.obj
 0002:00009528       ??_C@_0BO@FLMFPPEL@serviceSolicitation16BitUuids?$AA@ 0000000180061528     _nodert_generated.obj
 0002:00009550       ??_C@_0BO@KECOGPA@serviceSolicitation32BitUuids?$AA@ 0000000180061550     _nodert_generated.obj
 0002:00009578       ??_C@_0BD@PEPAMEJJ@shortenedLocalName?$AA@ 0000000180061578     _nodert_generated.obj
 0002:00009590       ??_C@_0BN@LJCDJDDC@slaveConnectionIntervalRange?$AA@ 0000000180061590     _nodert_generated.obj
 0002:000095b8       ??_C@_0N@GHKEPLHH@txPowerLevel?$AA@ 00000001800615b8     _nodert_generated.obj
 0002:000095c8       __uuidof_?AVBluetoothLEAdvertisementDataTypes@Advertisement@Bluetooth@Devices@Windows@@ 00000001800615c8     _nodert_generated.obj
 0002:000095e0       ??_C@_0DI@HPJCAPJ@BluetoothLEAdvertisementPublishe@ 00000001800615e0     _nodert_generated.obj
 0002:00009628       __uuidof_?AVBluetoothLEAdvertisementPublisherStatusChangedEventArgs@Advertisement@Bluetooth@Devices@Windows@@ 0000000180061628     _nodert_generated.obj
 0002:00009640       ??_C@_0CC@IMHMIABD@BluetoothLEAdvertisementPublishe@ 0000000180061640     _nodert_generated.obj
 0002:00009668       __uuidof_?AV?$TypedEventHandler@PE$AAVBluetoothLEAdvertisementPublisher@Advertisement@Bluetooth@Devices@Windows@@PE$AAVBluetoothLEAdvertisementPublisherStatusChangedEventArgs@2345@@Foundation@Windows@@ 0000000180061668     _nodert_generated.obj
 0002:00009680       __uuidof_?AVBluetoothLEAdvertisementPublisher@Advertisement@Bluetooth@Devices@Windows@@ 0000000180061680     _nodert_generated.obj
 0002:00009698       ??_C@_1BM@CNLBPLDJ@?$AAs?$AAt?$AAa?$AAt?$AAu?$AAs?$AAC?$AAh?$AAa?$AAn?$AAg?$AAe?$AAd?$AA?$AA@ 0000000180061698     _nodert_generated.obj
 0002:000096c0       ??_C@_0CI@MNLBAEO@Windows?4Devices?4Bluetooth?4Advert@ 00000001800616c0     _nodert_generated.obj
 0002:000096f0       _GUID_af86e2e0_b12d_4c6a_9c5a_d7aa65101e90 00000001800616f0     _nodert_generated.obj
 0002:00009708       ??_C@_19KLMLHLJG@?$AAN?$AAo?$AAn?$AAe?$AA?$AA@ 0000000180061708     _nodert_generated.obj
 0002:00009718       ??_C@_1DA@LDJAPPNE@?$AAL?$AAi?$AAm?$AAi?$AAt?$AAe?$AAd?$AAD?$AAi?$AAs?$AAc?$AAo?$AAv?$AAe?$AAr?$AAa?$AAb?$AAl?$AAe?$AAM?$AAo?$AAd?$AAe?$AA?$AA@ 0000000180061718     _nodert_generated.obj
 0002:00009758       ??_C@_1DA@EPLKFKBJ@?$AAG?$AAe?$AAn?$AAe?$AAr?$AAa?$AAl?$AAD?$AAi?$AAs?$AAc?$AAo?$AAv?$AAe?$AAr?$AAa?$AAb?$AAl?$AAe?$AAM?$AAo?$AAd?$AAe?$AA?$AA@ 0000000180061758     _nodert_generated.obj
 0002:00009798       ??_C@_1CI@IHIIGJOP@?$AAC?$AAl?$AAa?$AAs?$AAs?$AAi?$AAc?$AAN?$AAo?$AAt?$AAS?$AAu?$AAp?$AAp?$AAo?$AAr?$AAt?$AAe?$AAd?$AA?$AA@ 0000000180061798     _nodert_generated.obj
 0002:000097c8       ??_C@_1DE@PLDDOIBJ@?$AAD?$AAu?$AAa?$AAl?$AAM?$AAo?$AAd?$AAe?$AAC?$AAo?$AAn?$AAt?$AAr?$AAo?$AAl?$AAl?$AAe?$AAr?$AAC?$AAa?$AAp?$AAa?$AAb?$AAl?$AAe?$AA?$AA@ 00000001800617c8     _nodert_generated.obj
 0002:00009808       ??_C@_1CI@FIFHJCDN@?$AAD?$AAu?$AAa?$AAl?$AAM?$AAo?$AAd?$AAe?$AAH?$AAo?$AAs?$AAt?$AAC?$AAa?$AAp?$AAa?$AAb?$AAl?$AAe?$AA?$AA@ 0000000180061808     _nodert_generated.obj
 0002:00009840       ??_C@_1II@JGHOFMBA@?$AAW?$AAi?$AAn?$AAd?$AAo?$AAw?$AAs?$AA?4?$AAD?$AAe?$AAv?$AAi?$AAc?$AAe?$AAs?$AA?4?$AAB?$AAl?$AAu?$AAe?$AAt?$AAo?$AAo?$AAt?$AAh?$AA?4?$AAA?$AAd?$AAv?$AAe?$AAr?$AAt@ 0000000180061840     _nodert_generated.obj
 0002:000098f0       ??_C@_1JI@HNGFBBBN@?$AAW?$AAi?$AAn?$AAd?$AAo?$AAw?$AAs?$AA?4?$AAD?$AAe?$AAv?$AAi?$AAc?$AAe?$AAs?$AA?4?$AAB?$AAl?$AAu?$AAe?$AAt?$AAo?$AAo?$AAt?$AAh?$AA?4?$AAA?$AAd?$AAv?$AAe?$AAr?$AAt@ 00000001800618f0     _nodert_generated.obj
 0002:000099b0       ??_C@_1IC@JCGFIGMN@?$AAW?$AAi?$AAn?$AAd?$AAo?$AAw?$AAs?$AA?4?$AAD?$AAe?$AAv?$AAi?$AAc?$AAe?$AAs?$AA?4?$AAB?$AAl?$AAu?$AAe?$AAt?$AAo?$AAo?$AAt?$AAh?$AA?4?$AAA?$AAd?$AAv?$AAe?$AAr?$AAt@ 00000001800619b0     _nodert_generated.obj
 0002:00009a50       ??_C@_1JI@HGEHMDJK@?$AAW?$AAi?$AAn?$AAd?$AAo?$AAw?$AAs?$AA?4?$AAD?$AAe?$AAv?$AAi?$AAc?$AAe?$AAs?$AA?4?$AAB?$AAl?$AAu?$AAe?$AAt?$AAo?$AAo?$AAt?$AAh?$AA?4?$AAA?$AAd?$AAv?$AAe?$AAr?$AAt@ 0000000180061a50     _nodert_generated.obj
 0002:00009b10       ??_C@_1IO@PELMOEBK@?$AAW?$AAi?$AAn?$AAd?$AAo?$AAw?$AAs?$AA?4?$AAD?$AAe?$AAv?$AAi?$AAc?$AAe?$AAs?$AA?4?$AAB?$AAl?$AAu?$AAe?$AAt?$AAo?$AAo?$AAt?$AAh?$AA?4?$AAA?$AAd?$AAv?$AAe?$AAr?$AAt@ 0000000180061b10     _nodert_generated.obj
 0002:00009bc0       ??_C@_1BIG@EONBHBPO@?$AAW?$AAi?$AAn?$AAd?$AAo?$AAw?$AAs?$AA?4?$AAF?$AAo?$AAu?$AAn?$AAd?$AAa?$AAt?$AAi?$AAo?$AAn?$AA?4?$AAT?$AAy?$AAp?$AAe?$AAd?$AAE?$AAv?$AAe?$AAn?$AAt?$AAH?$AAa?$AAn@ 0000000180061bc0     _nodert_generated.obj
 0002:00009da0       ??_C@_1BJC@POGNCJJO@?$AAW?$AAi?$AAn?$AAd?$AAo?$AAw?$AAs?$AA?4?$AAF?$AAo?$AAu?$AAn?$AAd?$AAa?$AAt?$AAi?$AAo?$AAn?$AA?4?$AAT?$AAy?$AAp?$AAe?$AAd?$AAE?$AAv?$AAe?$AAn?$AAt?$AAH?$AAa?$AAn@ 0000000180061da0     _nodert_generated.obj
 0002:00009f90       ??_C@_1JA@OHNKNHEJ@?$AAW?$AAi?$AAn?$AAd?$AAo?$AAw?$AAs?$AA?4?$AAD?$AAe?$AAv?$AAi?$AAc?$AAe?$AAs?$AA?4?$AAB?$AAl?$AAu?$AAe?$AAt?$AAo?$AAo?$AAt?$AAh?$AA?4?$AAA?$AAd?$AAv?$AAe?$AAr?$AAt@ 0000000180061f90     _nodert_generated.obj
 0002:0000a040       ??_C@_1EC@HNHEILEH@?$AAW?$AAi?$AAn?$AAd?$AAo?$AAw?$AAs?$AA?4?$AAF?$AAo?$AAu?$AAn?$AAd?$AAa?$AAt?$AAi?$AAo?$AAn?$AA?4?$AAP?$AAr?$AAo?$AAp?$AAe?$AAr?$AAt?$AAy?$AAV?$AAa?$AAl?$AAu?$AAe@ 0000000180062040     _nodert_generated.obj
 0002:0000a090       __uuidof_?AU?$IBoxArray@VGuid@Platform@@@Platform@@ 0000000180062090     _nodert_generated.obj
 0002:0000a0b0       ??_C@_1JE@MKEFMAAL@?$AAW?$AAi?$AAn?$AAd?$AAo?$AAw?$AAs?$AA?4?$AAD?$AAe?$AAv?$AAi?$AAc?$AAe?$AAs?$AA?4?$AAB?$AAl?$AAu?$AAe?$AAt?$AAo?$AAo?$AAt?$AAh?$AA?4?$AAA?$AAd?$AAv?$AAe?$AAr?$AAt@ 00000001800620b0     _nodert_generated.obj
 0002:0000a170       ??_C@_1BKG@JMBMGHIE@?$AAW?$AAi?$AAn?$AAd?$AAo?$AAw?$AAs?$AA?4?$AAF?$AAo?$AAu?$AAn?$AAd?$AAa?$AAt?$AAi?$AAo?$AAn?$AA?4?$AAT?$AAy?$AAp?$AAe?$AAd?$AAE?$AAv?$AAe?$AAn?$AAt?$AAH?$AAa?$AAn@ 0000000180062170     _nodert_generated.obj
 0002:0000a370       ??_C@_1JE@MJGPMGJA@?$AAW?$AAi?$AAn?$AAd?$AAo?$AAw?$AAs?$AA?4?$AAD?$AAe?$AAv?$AAi?$AAc?$AAe?$AAs?$AA?4?$AAB?$AAl?$AAu?$AAe?$AAt?$AAo?$AAo?$AAt?$AAh?$AA?4?$AAA?$AAd?$AAv?$AAe?$AAr?$AAt@ 0000000180062370     _nodert_generated.obj
 0002:0000a430       ??_C@_1FM@OFGFIIIN@?$AAP?$AAl?$AAa?$AAt?$AAf?$AAo?$AAr?$AAm?$AA?4?$AA?$DP?$AA$?$AAW?$AAr?$AAi?$AAt?$AAe?$AAO?$AAn?$AAl?$AAy?$AAA?$AAr?$AAr?$AAa?$AAy?$AA?$EA?$AAV?$AAG?$AAu?$AAi?$AAd?$AA?$EA@ 0000000180062430     _nodert_generated.obj
 0002:0000a4a0       ??_C@_1FG@GDILCALN@?$AAW?$AAi?$AAn?$AAd?$AAo?$AAw?$AAs?$AA?4?$AAF?$AAo?$AAu?$AAn?$AAd?$AAa?$AAt?$AAi?$AAo?$AAn?$AA?4?$AAI?$AAR?$AAe?$AAf?$AAe?$AAr?$AAe?$AAn?$AAc?$AAe?$AAA?$AAr?$AAr@ 00000001800624a0     _nodert_generated.obj
 0002:0000a508       __uuidof_?AU?$IIterable@PE$AAVBluetoothLEAdvertisementBytePattern@Advertisement@Bluetooth@Devices@Windows@@@Collections@Foundation@Windows@@ 0000000180062508     _nodert_generated.obj
 0002:0000a520       __uuidof_?AU?$IVector@PE$AAVBluetoothLEAdvertisementBytePattern@Advertisement@Bluetooth@Devices@Windows@@@Collections@Foundation@Windows@@ 0000000180062520     _nodert_generated.obj
 0002:0000a538       __uuidof_?AU?$IIterable@VGuid@Platform@@@Collections@Foundation@Windows@@ 0000000180062538     _nodert_generated.obj
 0002:0000a550       __uuidof_?AU?$IVector@VGuid@Platform@@@Collections@Foundation@Windows@@ 0000000180062550     _nodert_generated.obj
 0002:0000a568       __uuidof_?AU?$IIterable@PE$AAVBluetoothLEManufacturerData@Advertisement@Bluetooth@Devices@Windows@@@Collections@Foundation@Windows@@ 0000000180062568     _nodert_generated.obj
 0002:0000a580       __uuidof_?AU?$IVector@PE$AAVBluetoothLEManufacturerData@Advertisement@Bluetooth@Devices@Windows@@@Collections@Foundation@Windows@@ 0000000180062580     _nodert_generated.obj
 0002:0000a598       __uuidof_?AU?$IIterable@PE$AAVBluetoothLEAdvertisementDataSection@Advertisement@Bluetooth@Devices@Windows@@@Collections@Foundation@Windows@@ 0000000180062598     _nodert_generated.obj
 0002:0000a5b0       __uuidof_?AU?$IVector@PE$AAVBluetoothLEAdvertisementDataSection@Advertisement@Bluetooth@Devices@Windows@@@Collections@Foundation@Windows@@ 00000001800625b0     _nodert_generated.obj
 0002:0000a5d0       ??_C@_1MO@NFEMCOPM@?$AAW?$AAi?$AAn?$AAd?$AAo?$AAw?$AAs?$AA?4?$AAF?$AAo?$AAu?$AAn?$AAd?$AAa?$AAt?$AAi?$AAo?$AAn?$AA?4?$AAI?$AAR?$AAe?$AAf?$AAe?$AAr?$AAe?$AAn?$AAc?$AAe?$AA?$GA?$AA1?$AA?$DM@ 00000001800625d0     _nodert_generated.obj
 0002:0000a6c8       __uuidof_?AU?$IVectorView@PE$AAVBluetoothLEAdvertisementDataSection@Advertisement@Bluetooth@Devices@Windows@@@Collections@Foundation@Windows@@ 00000001800626c8     _nodert_generated.obj
 0002:0000a6e0       __uuidof_?AU?$IVectorView@PE$AAVBluetoothLEManufacturerData@Advertisement@Bluetooth@Devices@Windows@@@Collections@Foundation@Windows@@ 00000001800626e0     _nodert_generated.obj
 0002:0000a6f8       ??_C@_0CJ@HABPABPO@Windows?3?3Foundation?3?3Collections@ 00000001800626f8     _nodert_generated.obj
 0002:0000a730       ??_C@_07JGIDINKK@getMany?$AA@ 0000000180062730     _nodert_generated.obj
 0002:0000a73c       ??_C@_05NEEIPFEN@getAt?$AA@ 000000018006273c     _nodert_generated.obj
 0002:0000a748       ??_C@_07KKKNJHGA@indexOf?$AA@ 0000000180062748     _nodert_generated.obj
 0002:0000a754       ??_C@_05NIGAKFML@first?$AA@ 0000000180062754     _nodert_generated.obj
 0002:0000a75c       ??_C@_06PCICMFGG@append?$AA@ 000000018006275c     _nodert_generated.obj
 0002:0000a764       ??_C@_05MEHLAELG@clear?$AA@ 0000000180062764     _nodert_generated.obj
 0002:0000a770       ??_C@_07NGNBMBLJ@getView?$AA@ 0000000180062770     _nodert_generated.obj
 0002:0000a780       ??_C@_08PEKKOFBJ@insertAt?$AA@ 0000000180062780     _nodert_generated.obj
 0002:0000a790       ??_C@_08MAKHHCM@removeAt?$AA@ 0000000180062790     _nodert_generated.obj
 0002:0000a7a0       ??_C@_0M@FOOOFJCB@removeAtEnd?$AA@ 00000001800627a0     _nodert_generated.obj
 0002:0000a7b0       ??_C@_0L@CLEBPHBL@replaceAll?$AA@ 00000001800627b0     _nodert_generated.obj
 0002:0000a7c0       ??_C@_05EMAPLFMA@setAt?$AA@ 00000001800627c0     _nodert_generated.obj
 0002:0000a7c8       ??_C@_04IAGNFIBA@size?$AA@ 00000001800627c8     _nodert_generated.obj
 0002:0000a7d0       ??_C@_06IJDLPEM@length?$AA@ 00000001800627d0     _nodert_generated.obj
 0002:0000a7d8       ??_C@_0CN@CFDLBABJ@Windows?3?3Foundation?3?3Collections@ 00000001800627d8     _nodert_generated.obj
 0002:0000a810       ??_C@_1CO@CKJHFEP@?$AAM?$AAe?$AAt?$AAh?$AAo?$AAd?$AA?5?$AAi?$AAs?$AAn?$AA?8?$AAt?$AA?5?$AAs?$AAu?$AAp?$AAp?$AAo?$AAr?$AAt?$AAe?$AAd?$AA?$AA@ 0000000180062810     _nodert_generated.obj
 0002:0000a848       ??_C@_07GOBOHMJA@boolean?$AA@ 0000000180062848     _nodert_generated.obj
 0002:0000a854       ??_C@_05FKHKFDID@index?$AA@ 0000000180062854     _nodert_generated.obj
 0002:0000a860       __uuidof_?AU?$IBoxArray@PE$AAVBluetoothLEAdvertisementBytePattern@Advertisement@Bluetooth@Devices@Windows@@@Platform@@ 0000000180062860     _nodert_generated.obj
 0002:0000a880       ??_C@_1OC@DMDFFFPE@?$AAP?$AAl?$AAa?$AAt?$AAf?$AAo?$AAr?$AAm?$AA?4?$AA?$DP?$AA$?$AAW?$AAr?$AAi?$AAt?$AAe?$AAO?$AAn?$AAl?$AAy?$AAA?$AAr?$AAr?$AAa?$AAy?$AA?$EA?$AAP?$AAE?$AA$?$AAA?$AAA?$AAV@ 0000000180062880     _nodert_generated.obj
 0002:0000a990       ??_C@_1OE@JMPLFCGB@?$AAW?$AAi?$AAn?$AAd?$AAo?$AAw?$AAs?$AA?4?$AAF?$AAo?$AAu?$AAn?$AAd?$AAa?$AAt?$AAi?$AAo?$AAn?$AA?4?$AAI?$AAR?$AAe?$AAf?$AAe?$AAr?$AAe?$AAn?$AAc?$AAe?$AAA?$AAr?$AAr@ 0000000180062990     _nodert_generated.obj
 0002:0000aaa8       ??_C@_1CA@EIFFEMAD@?$AAN?$AAo?$AAt?$AA?5?$AAi?$AAm?$AAp?$AAl?$AAe?$AAm?$AAe?$AAn?$AAt?$AAe?$AAd?$AA?$AA@ 0000000180062aa8     _nodert_generated.obj
 0002:0000aad0       ??_C@_1FI@JJFPLBGI@?$AAT?$AAh?$AAe?$AA?5?$AAv?$AAa?$AAl?$AAu?$AAe?$AA?5?$AAt?$AAo?$AA?5?$AAs?$AAe?$AAt?$AA?5?$AAi?$AAs?$AAn?$AA?8?$AAt?$AA?5?$AAo?$AAf?$AA?5?$AAt?$AAh?$AAe?$AA?5?$AAe?$AAx@ 0000000180062ad0     _nodert_generated.obj
 0002:0000ab40       __uuidof_?AU?$IBoxArray@PE$AAVBluetoothLEManufacturerData@Advertisement@Bluetooth@Devices@Windows@@@Platform@@ 0000000180062b40     _nodert_generated.obj
 0002:0000ab60       ??_C@_1NC@IMFOKNEN@?$AAP?$AAl?$AAa?$AAt?$AAf?$AAo?$AAr?$AAm?$AA?4?$AA?$DP?$AA$?$AAW?$AAr?$AAi?$AAt?$AAe?$AAO?$AAn?$AAl?$AAy?$AAA?$AAr?$AAr?$AAa?$AAy?$AA?$EA?$AAP?$AAE?$AA$?$AAA?$AAA?$AAV@ 0000000180062b60     _nodert_generated.obj
 0002:0000ac60       ??_C@_1NE@DFGOCKMA@?$AAW?$AAi?$AAn?$AAd?$AAo?$AAw?$AAs?$AA?4?$AAF?$AAo?$AAu?$AAn?$AAd?$AAa?$AAt?$AAi?$AAo?$AAn?$AA?4?$AAI?$AAR?$AAe?$AAf?$AAe?$AAr?$AAe?$AAn?$AAc?$AAe?$AAA?$AAr?$AAr@ 0000000180062c60     _nodert_generated.obj
 0002:0000ad60       __uuidof_?AU?$IBoxArray@PE$AAVBluetoothLEAdvertisementDataSection@Advertisement@Bluetooth@Devices@Windows@@@Platform@@ 0000000180062d60     _nodert_generated.obj
 0002:0000ad80       ??_C@_1OC@EHJEMDMH@?$AAP?$AAl?$AAa?$AAt?$AAf?$AAo?$AAr?$AAm?$AA?4?$AA?$DP?$AA$?$AAW?$AAr?$AAi?$AAt?$AAe?$AAO?$AAn?$AAl?$AAy?$AAA?$AAr?$AAr?$AAa?$AAy?$AA?$EA?$AAP?$AAE?$AA$?$AAA?$AAA?$AAV@ 0000000180062d80     _nodert_generated.obj
 0002:0000ae90       ??_C@_1OE@IAOEOEDH@?$AAW?$AAi?$AAn?$AAd?$AAo?$AAw?$AAs?$AA?4?$AAF?$AAo?$AAu?$AAn?$AAd?$AAa?$AAt?$AAi?$AAo?$AAn?$AA?4?$AAI?$AAR?$AAe?$AAf?$AAe?$AAr?$AAe?$AAn?$AAc?$AAe?$AAA?$AAr?$AAr@ 0000000180062e90     _nodert_generated.obj
 0002:0000afa8       __uuidof_?AU?$IIterator@PE$AAVBluetoothLEAdvertisementDataSection@Advertisement@Bluetooth@Devices@Windows@@@Collections@Foundation@Windows@@ 0000000180062fa8     _nodert_generated.obj
 0002:0000afc0       __uuidof_?AU?$IIterator@PE$AAVBluetoothLEManufacturerData@Advertisement@Bluetooth@Devices@Windows@@@Collections@Foundation@Windows@@ 0000000180062fc0     _nodert_generated.obj
 0002:0000afd8       __uuidof_?AU?$IVectorView@VGuid@Platform@@@Collections@Foundation@Windows@@ 0000000180062fd8     _nodert_generated.obj
 0002:0000aff0       __uuidof_?AU?$IIterator@VGuid@Platform@@@Collections@Foundation@Windows@@ 0000000180062ff0     _nodert_generated.obj
 0002:0000b008       __uuidof_?AU?$IVectorView@PE$AAVBluetoothLEAdvertisementBytePattern@Advertisement@Bluetooth@Devices@Windows@@@Collections@Foundation@Windows@@ 0000000180063008     _nodert_generated.obj
 0002:0000b020       __uuidof_?AU?$IIterator@PE$AAVBluetoothLEAdvertisementBytePattern@Advertisement@Bluetooth@Devices@Windows@@@Collections@Foundation@Windows@@ 0000000180063020     _nodert_generated.obj
 0002:0000b038       ??_C@_0CL@EPAAJAFM@Windows?3?3Foundation?3?3Collections@ 0000000180063038     _nodert_generated.obj
 0002:0000b070       ??_C@_08JABKCAEO@moveNext?$AA@ 0000000180063070     _nodert_generated.obj
 0002:0000b080       ??_C@_07LKPDDKMO@current?$AA@ 0000000180063080     _nodert_generated.obj
 0002:0000b090       ??_C@_0L@FADMNBDO@hasCurrent?$AA@ 0000000180063090     _nodert_generated.obj
 0002:0000b0a0       ??_C@_1CE@LNAGEONJ@?$AA?$CB?$AAo?$AAb?$AAj?$AAe?$AAc?$AAt?$AA?4?$AAI?$AAs?$AAE?$AAm?$AAp?$AAt?$AAy?$AA?$CI?$AA?$CJ?$AA?$AA@ 00000001800630a0     _nodert_generated.obj
 0002:0000b0d0       __uuidof_?AU?$IBox@_J@Platform@@ 00000001800630d0     _nodert_generated.obj
 0002:0000b0e8       __uuidof_?AU?$IBox@VGuid@Platform@@@Platform@@ 00000001800630e8     _nodert_generated.obj
 0002:0000b100       ??_C@_1EM@BJGPCBJI@?$AAW?$AAi?$AAn?$AAd?$AAo?$AAw?$AAs?$AA?4?$AAF?$AAo?$AAu?$AAn?$AAd?$AAa?$AAt?$AAi?$AAo?$AAn?$AA?4?$AAI?$AAR?$AAe?$AAf?$AAe?$AAr?$AAe?$AAn?$AAc?$AAe?$AA?$GA?$AA1?$AA?$DM@ 0000000180063100     _nodert_generated.obj
 0002:0000b160       __real@40c3880000000000    0000000180063160     _nodert_generated.obj
 0002:0000b170       __real@43f0000000000000    0000000180063170     _nodert_generated.obj
 0002:0000b510       ??_C@_0BA@JFNIOLAK@string?5too?5long?$AA@ 0000000180063510     NodeRtUtils.obj
 0002:0000b528       ??_C@_0BB@JPMJDPHD@nan?3makeCallback?$AA@ 0000000180063528     NodeRtUtils.obj
 0002:0000b540       ??_C@_07KPENDMPA@HRESULT?$AA@ 0000000180063540     NodeRtUtils.obj
 0002:0000b550       ??_C@_08PPIJGMPL@callback?$AA@ 0000000180063550     NodeRtUtils.obj
 0002:0000b560       ??_C@_07DEBHDLBL@process?$AA@ 0000000180063560     NodeRtUtils.obj
 0002:0000b56c       ??_C@_06LKIIGAOE@domain?$AA@ 000000018006356c     NodeRtUtils.obj
 0002:0000b578       ??_C@_0BE@FOACCDKJ@__winRtNamespaces__?$AA@ 0000000180063578     NodeRtUtils.obj
 0002:0000b590       ??_C@_1FG@NEAKPMBB@?$AAF?$AAa?$AAi?$AAl?$AAe?$AAd?$AA?5?$AAt?$AAo?$AA?5?$AAo?$AAb?$AAt?$AAa?$AAi?$AAn?$AA?5?$AAe?$AAx?$AAt?$AAe?$AAr?$AAn?$AAa?$AAl?$AA?5?$AAn?$AAa?$AAm?$AAe?$AAs?$AAp@ 0000000180063590     NodeRtUtils.obj
 0002:0000b5f8       ??_C@_13GCIFAHHO@?$AA?$HL?$AA?$AA@ 00000001800635f8     NodeRtUtils.obj
 0002:0000b5fc       ??_C@_13EHOOFIKC@?$AA?$HN?$AA?$AA@ 00000001800635fc     NodeRtUtils.obj
 0002:0000b600       ??_C@_01BBODEMC@G?$AA@     0000000180063600     NodeRtUtils.obj
 0002:0000b604       ??_C@_01HMGJMAIH@B?$AA@    0000000180063604     NodeRtUtils.obj
 0002:0000b608       ??_C@_01FHEEJDEE@A?$AA@    0000000180063608     NodeRtUtils.obj
 0002:0000b60c       ??_C@_01DGKLNCNG@R?$AA@    000000018006360c     NodeRtUtils.obj
 0002:0000b610       ??_C@_06PMMPCIPB@bottom?$AA@ 0000000180063610     NodeRtUtils.obj
 0002:0000b618       ??_C@_06LNLHEAAG@height?$AA@ 0000000180063618     NodeRtUtils.obj
 0002:0000b620       ??_C@_04GOOOJOPP@left?$AA@ 0000000180063620     NodeRtUtils.obj
 0002:0000b628       ??_C@_05DHJDAOHK@right?$AA@ 0000000180063628     NodeRtUtils.obj
 0002:0000b630       ??_C@_03FGFCOCMD@top?$AA@  0000000180063630     NodeRtUtils.obj
 0002:0000b634       ??_C@_05IGKADHGO@width?$AA@ 0000000180063634     NodeRtUtils.obj
 0002:0000b63c       ??_C@_01FJMABOPO@x?$AA@    000000018006363c     NodeRtUtils.obj
 0002:0000b640       ??_C@_01EANLCPLP@y?$AA@    0000000180063640     NodeRtUtils.obj
 0002:0000b648       ??_C@_1CE@DGFPJLOL@?$AAW?$AAi?$AAn?$AAd?$AAo?$AAw?$AAs?$AA?4?$AAU?$AAI?$AA?4?$AAC?$AAo?$AAl?$AAo?$AAr?$AAs?$AA?$AA@ 0000000180063648     NodeRtUtils.obj
 0002:0000b678       ??_C@_0BI@CFPLBAOH@invalid?5string?5position?$AA@ 0000000180063678     NodeRtUtils.obj
 0002:0000b698       __real@42a52e616cd00000    0000000180063698     NodeRtUtils.obj
 0002:0000b6a8       __real@bff0000000000000    00000001800636a8     NodeRtUtils.obj
 0002:0000b7a8       ??_C@_0O@CPBGCLBG@OpaqueWrapper?$AA@ 00000001800637a8     OpaqueWrapper.obj
 0002:0000b7b8       ??_C@_08HCOMDCCD@iojs?4exe?$AA@ 00000001800637b8     win_delay_load_hook.obj
 0002:0000b7c8       ??_C@_08JDDNMFDB@node?4exe?$AA@ 00000001800637c8     win_delay_load_hook.obj
 0002:0000b7e0       __sz_node_exe              00000001800637e0     node:node.exe
 0002:0000b7f0       ??_C@_1BI@IDAOOPDH@?$AAc?$AAo?$AAm?$AAb?$AAa?$AAs?$AAe?$AA?4?$AAd?$AAl?$AAl?$AA?$AA@ 00000001800637f0     vccorlib:init.obj
 0002:0000b810       ??_C@_0BH@KOLHPPML@RoReportUnhandledError?$AA@ 0000000180063810     vccorlib:init.obj
 0002:0000b838       ??_7type_info@@6B@         0000000180063838     MSVCRT:std_type_info_static.obj
 0002:0000b848       ??_C@_1BK@MGMFAEKH@?$AAk?$AAe?$AAr?$AAn?$AAe?$AAl?$AA3?$AA2?$AA?4?$AAd?$AAl?$AAl?$AA?$AA@ 0000000180063848     MSVCRT:thread_safe_statics.obj
 0002:0000b868       ??_C@_0BM@HLJJNPAH@InitializeConditionVariable?$AA@ 0000000180063868     MSVCRT:thread_safe_statics.obj
 0002:0000b890       ??_C@_0BJ@JEBJOJFJ@SleepConditionVariableCS?$AA@ 0000000180063890     MSVCRT:thread_safe_statics.obj
 0002:0000b8b0       ??_C@_0BJ@PGPPEPCC@WakeAllConditionVariable?$AA@ 00000001800638b0     MSVCRT:thread_safe_statics.obj
 0002:0000b8d0       _pDefaultRawDllMain        00000001800638d0     MSVCRT:dll_dllmain.obj
 0002:0000b8d0       _pRawDllMain               00000001800638d0     MSVCRT:dll_dllmain.obj
 0002:0000b8e8       ??_7exception@std@@6B@     00000001800638e8     MSVCRT:throw_bad_alloc.obj
 0002:0000b900       ??_C@_0BC@EOODALEL@Unknown?5exception?$AA@ 0000000180063900     MSVCRT:throw_bad_alloc.obj
 0002:0000b920       ??_7bad_alloc@std@@6B@     0000000180063920     MSVCRT:throw_bad_alloc.obj
 0002:0000b938       ??_C@_0P@GHFPNOJB@bad?5allocation?$AA@ 0000000180063938     MSVCRT:throw_bad_alloc.obj
 0002:0000b958       ??_7bad_array_new_length@std@@6B@ 0000000180063958     MSVCRT:throw_bad_alloc.obj
 0002:0000b970       ??_C@_0BF@KINCDENJ@bad?5array?5new?5length?$AA@ 0000000180063970     MSVCRT:throw_bad_alloc.obj
 0002:0000b9a8       ??_C@_1BK@DBDEIDLH@?$AAK?$AAE?$AAR?$AAN?$AAE?$AAL?$AA3?$AA2?$AA?4?$AAD?$AAL?$AAL?$AA?$AA@ 00000001800639a8     DelayImp:delayhlp.obj
 0002:0000b9c8       ??_C@_0BI@OMNLIJDB@AcquireSRWLockExclusive?$AA@ 00000001800639c8     DelayImp:delayhlp.obj
 0002:0000b9e8       ??_C@_0BI@HMIEPCNJ@ReleaseSRWLockExclusive?$AA@ 00000001800639e8     DelayImp:delayhlp.obj
 0002:0000ba08       __pfnDliFailureHook2       0000000180063a08     DelayImp:delayhk1.obj
 0002:0000ba20       _load_config_used          0000000180063a20     MSVCRT:loadcfg.obj
 0002:0000be00       _tls_used                  0000000180063e00     MSVCRT:tlssup.obj
 0002:0000bf30       ??_R3ModuleBase@Details@WRL@Microsoft@@8 0000000180063f30     vccorlib:init.obj
 0002:0000bf48       ??_R2ModuleBase@Details@WRL@Microsoft@@8 0000000180063f48     vccorlib:init.obj
 0002:0000bf58       ??_R1A@?0A@EA@ModuleBase@Details@WRL@Microsoft@@8 0000000180063f58     vccorlib:init.obj
 0002:0000bf88       ??_R4InProcModule@Details@Platform@@6B?$Module@$04VInProcModule@Details@Platform@@@WRL@Microsoft@@@ 0000000180063f88     vccorlib:init.obj
 0002:0000bfb8       ??_R3InProcModule@Details@Platform@@8 0000000180063fb8     vccorlib:init.obj
 0002:0000bfd0       ??_R2InProcModule@Details@Platform@@8 0000000180063fd0     vccorlib:init.obj
 0002:0000c008       ??_R1A@?0A@EA@InProcModule@Details@Platform@@8 0000000180064008     vccorlib:init.obj
 0002:0000c038       ??_R1A@?0A@EA@?$Module@$04VInProcModule@Details@Platform@@@WRL@Microsoft@@8 0000000180064038     vccorlib:init.obj
 0002:0000c068       ??_R3?$Module@$04VInProcModule@Details@Platform@@@WRL@Microsoft@@8 0000000180064068     vccorlib:init.obj
 0002:0000c080       ??_R2?$Module@$04VInProcModule@Details@Platform@@@WRL@Microsoft@@8 0000000180064080     vccorlib:init.obj
 0002:0000c0a8       ??_R1A@?0A@EA@?$Module@$00VInProcModule@Details@Platform@@@WRL@Microsoft@@8 00000001800640a8     vccorlib:init.obj
 0002:0000c0d8       ??_R3?$Module@$00VInProcModule@Details@Platform@@@WRL@Microsoft@@8 00000001800640d8     vccorlib:init.obj
 0002:0000c0f0       ??_R2?$Module@$00VInProcModule@Details@Platform@@@WRL@Microsoft@@8 00000001800640f0     vccorlib:init.obj
 0002:0000c108       ??_R17?0A@EA@__abi_Module@@8 0000000180064108     vccorlib:init.obj
 0002:0000c138       ??_R3__abi_Module@@8       0000000180064138     vccorlib:init.obj
 0002:0000c150       ??_R2__abi_Module@@8       0000000180064150     vccorlib:init.obj
 0002:0000c160       ??_R1A@?0A@EA@__abi_Module@@8 0000000180064160     vccorlib:init.obj
 0002:0000c190       ??_R4InProcModule@Details@Platform@@6B__abi_Module@@@ 0000000180064190     vccorlib:init.obj
 0002:0000c1c0       ??_R4?$Module@$04VInProcModule@Details@Platform@@@WRL@Microsoft@@6B@ 00000001800641c0     vccorlib:init.obj
 0002:0000c1f0       ??_R4?$Module@$00VInProcModule@Details@Platform@@@WRL@Microsoft@@6B@ 00000001800641f0     vccorlib:init.obj
 0002:0000c220       ??_R4type_info@@6B@        0000000180064220     MSVCRT:std_type_info_static.obj
 0002:0000c250       ??_R3type_info@@8          0000000180064250     MSVCRT:std_type_info_static.obj
 0002:0000c268       ??_R2type_info@@8          0000000180064268     MSVCRT:std_type_info_static.obj
 0002:0000c278       ??_R1A@?0A@EA@type_info@@8 0000000180064278     MSVCRT:std_type_info_static.obj
 0002:0000c2a8       ??_R4exception@std@@6B@    00000001800642a8     MSVCRT:throw_bad_alloc.obj
 0002:0000c2d8       ??_R3exception@std@@8      00000001800642d8     MSVCRT:throw_bad_alloc.obj
 0002:0000c2f0       ??_R2exception@std@@8      00000001800642f0     MSVCRT:throw_bad_alloc.obj
 0002:0000c300       ??_R1A@?0A@EA@exception@std@@8 0000000180064300     MSVCRT:throw_bad_alloc.obj
 0002:0000c330       ??_R4bad_alloc@std@@6B@    0000000180064330     MSVCRT:throw_bad_alloc.obj
 0002:0000c360       ??_R3bad_alloc@std@@8      0000000180064360     MSVCRT:throw_bad_alloc.obj
 0002:0000c378       ??_R2bad_alloc@std@@8      0000000180064378     MSVCRT:throw_bad_alloc.obj
 0002:0000c390       ??_R1A@?0A@EA@bad_alloc@std@@8 0000000180064390     MSVCRT:throw_bad_alloc.obj
 0002:0000c3c0       ??_R4bad_array_new_length@std@@6B@ 00000001800643c0     MSVCRT:throw_bad_alloc.obj
 0002:0000c3f0       ??_R3bad_array_new_length@std@@8 00000001800643f0     MSVCRT:throw_bad_alloc.obj
 0002:0000c408       ??_R2bad_array_new_length@std@@8 0000000180064408     MSVCRT:throw_bad_alloc.obj
 0002:0000c430       ??_R1A@?0A@EA@bad_array_new_length@std@@8 0000000180064430     MSVCRT:throw_bad_alloc.obj
 0002:0000c750       __rtc_iaa                  0000000180064750     MSVCRT:_initsect_.obj
 0002:0000c860       __rtc_izz                  0000000180064860     MSVCRT:_initsect_.obj
 0002:0000c970       __rtc_taa                  0000000180064970     MSVCRT:_initsect_.obj
 0002:0000ca80       __rtc_tzz                  0000000180064a80     MSVCRT:_initsect_.obj
 0002:000232b0       _CT??_R0PE$AAVCOMException@Platform@@@88 000000018007b2b0     _nodert_generated.obj
 0002:000232d8       _CT??_R0PE$AAVException@Platform@@@88 000000018007b2d8     _nodert_generated.obj
 0002:00023300       _CT??_R0PE$AAVObject@Platform@@@88 000000018007b300     _nodert_generated.obj
 0002:00023328       _CT??_R0PE$AAUIPrintable@Details@Platform@@@888 000000018007b328     _nodert_generated.obj
 0002:00023350       _CT??_R0PE$AAVObject@Platform@@@888 000000018007b350     _nodert_generated.obj
 0002:00023378       _CT??_R0PE$AAUIEquatable@Details@Platform@@@8816 000000018007b378     _nodert_generated.obj
 0002:000233a0       _CT??_R0PE$AAVObject@Platform@@@8816 000000018007b3a0     _nodert_generated.obj
 0002:000233c8       _CT??_R0PE$AAUIDisposable@Platform@@@8824 000000018007b3c8     _nodert_generated.obj
 0002:000233f0       _CT??_R0PE$AAVObject@Platform@@@8824 000000018007b3f0     _nodert_generated.obj
 0002:00023418       _CT??_R0PEAX@88            000000018007b418     _nodert_generated.obj
 0002:00023440       _TI11PE$AAVNullReferenceException@Platform@@ 000000018007b440     _nodert_generated.obj
 0002:00023460       _CTA11PE$AAVNullReferenceException@Platform@@ 000000018007b460     _nodert_generated.obj
 0002:000234c8       _CT??_R0PE$AAVNullReferenceException@Platform@@@88 000000018007b4c8     _nodert_generated.obj
 0002:000234f0       _TI2?AVbad_alloc@std@@     000000018007b4f0     MSVCRT:throw_bad_alloc.obj
 0002:00023510       _CTA2?AVbad_alloc@std@@    000000018007b510     MSVCRT:throw_bad_alloc.obj
 0002:00023528       _CT??_R0?AVbad_alloc@std@@@8??0bad_alloc@std@@QEAA@AEBV01@@Z24 000000018007b528     MSVCRT:throw_bad_alloc.obj
 0002:00023550       _CT??_R0?AVexception@std@@@8??0exception@std@@QEAA@AEBV01@@Z24 000000018007b550     MSVCRT:throw_bad_alloc.obj
 0002:00023578       _TI3?AVbad_array_new_length@std@@ 000000018007b578     MSVCRT:throw_bad_alloc.obj
 0002:00023598       _CTA3?AVbad_array_new_length@std@@ 000000018007b598     MSVCRT:throw_bad_alloc.obj
 0002:000235b8       _CT??_R0?AVbad_array_new_length@std@@@8??0bad_array_new_length@std@@QEAA@AEBV01@@Z24 000000018007b5b8     MSVCRT:throw_bad_alloc.obj
 0003:00000000       ?__forceInstantiate1@@3PEAXEA 000000018007c000     _nodert_generated.obj
 0003:00000050       ?REGISTRATION_TOKEN_MAP_PROPERTY_NAME@@3PEBDEB 000000018007c050     _nodert_generated.obj
 0003:00000068       ??_7?$_Func_impl@V<lambda_058e118d0cb39557fbb1f2a131aaaa50>@@V?$allocator@H@std@@_NV?$Local@VValue@v8@@@v8@@@std@@6B@ 000000018007c068     _nodert_generated.obj
 0003:000000a8       ??_7__abi_CaptureBase@Details@Platform@@6B@ 000000018007c0a8     _nodert_generated.obj
 0003:000000b8       ??_7_Ref_count_base@std@@6B@ 000000018007c0b8     _nodert_generated.obj
 0003:000000e0       ??_7ObjectWrap@Nan@@6B@    000000018007c0e0     _nodert_generated.obj
 0003:00000100       ??_7WrapperBase@NodeRT@@6B@ 000000018007c100     _nodert_generated.obj
 0003:00000128       ??_7TokenData@Async@NodeUtils@@6B@ 000000018007c128     _nodert_generated.obj
 0003:00000138       ??_7BluetoothLEManufacturerData@Advertisement@Bluetooth@Devices@Windows@NodeRT@@6B@ 000000018007c138     _nodert_generated.obj
 0003:00000160       ??_7BluetoothLEAdvertisementDataSection@Advertisement@Bluetooth@Devices@Windows@NodeRT@@6B@ 000000018007c160     _nodert_generated.obj
 0003:00000188       ??_7BluetoothLEAdvertisement@Advertisement@Bluetooth@Devices@Windows@NodeRT@@6B@ 000000018007c188     _nodert_generated.obj
 0003:000001b0       ??_7?$VectorViewWrapper@PE$AAVBluetoothLEManufacturerData@Advertisement@Bluetooth@Devices@Windows@@@Collections@NodeRT@@6B@ 000000018007c1b0     _nodert_generated.obj
 0003:000001d8       ??_7?$VectorViewWrapper@PE$AAVBluetoothLEAdvertisementDataSection@Advertisement@Bluetooth@Devices@Windows@@@Collections@NodeRT@@6B@ 000000018007c1d8     _nodert_generated.obj
 0003:00000200       ??_7?$VectorWrapper@PE$AAVBluetoothLEAdvertisementDataSection@Advertisement@Bluetooth@Devices@Windows@@@Collections@NodeRT@@6B@ 000000018007c200     _nodert_generated.obj
 0003:00000228       ??_7?$VectorWrapper@PE$AAVBluetoothLEManufacturerData@Advertisement@Bluetooth@Devices@Windows@@@Collections@NodeRT@@6B@ 000000018007c228     _nodert_generated.obj
 0003:00000250       ??_7?$VectorWrapper@VGuid@Platform@@@Collections@NodeRT@@6B@ 000000018007c250     _nodert_generated.obj
 0003:00000278       ??_7BluetoothLEAdvertisementBytePattern@Advertisement@Bluetooth@Devices@Windows@NodeRT@@6B@ 000000018007c278     _nodert_generated.obj
 0003:000002a0       ??_7BluetoothLEAdvertisementFilter@Advertisement@Bluetooth@Devices@Windows@NodeRT@@6B@ 000000018007c2a0     _nodert_generated.obj
 0003:000002c8       ??_7?$VectorWrapper@PE$AAVBluetoothLEAdvertisementBytePattern@Advertisement@Bluetooth@Devices@Windows@@@Collections@NodeRT@@6B@ 000000018007c2c8     _nodert_generated.obj
 0003:000002f0       ??_7BluetoothLEAdvertisementWatcherStoppedEventArgs@Advertisement@Bluetooth@Devices@Windows@NodeRT@@6B@ 000000018007c2f0     _nodert_generated.obj
 0003:00000318       ??_7BluetoothLEAdvertisementWatcher@Advertisement@Bluetooth@Devices@Windows@NodeRT@@6B@ 000000018007c318     _nodert_generated.obj
 0003:00000340       ??_7?$TypedEventHandler@PE$AAVBluetoothLEAdvertisementWatcher@Advertisement@Bluetooth@Devices@Windows@@PE$AAVBluetoothLEAdvertisementReceivedEventArgs@2345@@Foundation@Windows@@6B__abi_IUnknown@@@ 000000018007c340     _nodert_generated.obj
 0003:00000370       ??_7?$TypedEventHandler@PE$AAVBluetoothLEAdvertisementWatcher@Advertisement@Bluetooth@Devices@Windows@@PE$AAVBluetoothLEAdvertisementReceivedEventArgs@2345@@Foundation@Windows@@6BObject@Platform@@@ 000000018007c370     _nodert_generated.obj
 0003:000003b0       ??_7?$TypedEventHandler@PE$AAVBluetoothLEAdvertisementWatcher@Advertisement@Bluetooth@Devices@Windows@@PE$AAVBluetoothLEAdvertisementReceivedEventArgs@2345@@Foundation@Windows@@6B@ 000000018007c3b0     _nodert_generated.obj
 0003:000003f0       ??_7?$TypedEventHandler@PE$AAVBluetoothLEAdvertisementWatcher@Advertisement@Bluetooth@Devices@Windows@@PE$AAVBluetoothLEAdvertisementWatcherStoppedEventArgs@2345@@Foundation@Windows@@6B__abi_IUnknown@@@ 000000018007c3f0     _nodert_generated.obj
 0003:00000420       ??_7?$TypedEventHandler@PE$AAVBluetoothLEAdvertisementWatcher@Advertisement@Bluetooth@Devices@Windows@@PE$AAVBluetoothLEAdvertisementWatcherStoppedEventArgs@2345@@Foundation@Windows@@6BObject@Platform@@@ 000000018007c420     _nodert_generated.obj
 0003:00000460       ??_7?$TypedEventHandler@PE$AAVBluetoothLEAdvertisementWatcher@Advertisement@Bluetooth@Devices@Windows@@PE$AAVBluetoothLEAdvertisementWatcherStoppedEventArgs@2345@@Foundation@Windows@@6B@ 000000018007c460     _nodert_generated.obj
 0003:000004a0       ??_7BluetoothLEAdvertisementReceivedEventArgs@Advertisement@Bluetooth@Devices@Windows@NodeRT@@6B@ 000000018007c4a0     _nodert_generated.obj
 0003:000004c8       ??_7BluetoothLEAdvertisementDataTypes@Advertisement@Bluetooth@Devices@Windows@NodeRT@@6B@ 000000018007c4c8     _nodert_generated.obj
 0003:000004f0       ??_7BluetoothLEAdvertisementPublisherStatusChangedEventArgs@Advertisement@Bluetooth@Devices@Windows@NodeRT@@6B@ 000000018007c4f0     _nodert_generated.obj
 0003:00000518       ??_7BluetoothLEAdvertisementPublisher@Advertisement@Bluetooth@Devices@Windows@NodeRT@@6B@ 000000018007c518     _nodert_generated.obj
 0003:00000540       ??_7?$TypedEventHandler@PE$AAVBluetoothLEAdvertisementPublisher@Advertisement@Bluetooth@Devices@Windows@@PE$AAVBluetoothLEAdvertisementPublisherStatusChangedEventArgs@2345@@Foundation@Windows@@6B__abi_IUnknown@@@ 000000018007c540     _nodert_generated.obj
 0003:00000570       ??_7?$TypedEventHandler@PE$AAVBluetoothLEAdvertisementPublisher@Advertisement@Bluetooth@Devices@Windows@@PE$AAVBluetoothLEAdvertisementPublisherStatusChangedEventArgs@2345@@Foundation@Windows@@6BObject@Platform@@@ 000000018007c570     _nodert_generated.obj
 0003:000005b0       ??_7?$TypedEventHandler@PE$AAVBluetoothLEAdvertisementPublisher@Advertisement@Bluetooth@Devices@Windows@@PE$AAVBluetoothLEAdvertisementPublisherStatusChangedEventArgs@2345@@Foundation@Windows@@6B@ 000000018007c5b0     _nodert_generated.obj
 0003:000005f0       ??_7?$WriteOnlyArray@VGuid@Platform@@$00@Platform@@6B__I?$WriteOnlyArray@VGuid@Platform@@$00PublicNonVirtuals@1@@ 000000018007c5f0     _nodert_generated.obj
 0003:00000630       ??_7?$WriteOnlyArray@VGuid@Platform@@$00@Platform@@6BIDisposable@1@@ 000000018007c630     _nodert_generated.obj
 0003:00000680       ??_7?$WriteOnlyArray@VGuid@Platform@@$00@Platform@@6BObject@1@@ 000000018007c680     _nodert_generated.obj
 0003:000006c0       ??_7?$WriteOnlyArray@VGuid@Platform@@$00@Platform@@6B__abi_IUnknown@@@ 000000018007c6c0     _nodert_generated.obj
 0003:000006f0       ??_7?$WriteOnlyArray@VGuid@Platform@@$00@Platform@@6BObject@1@IWeakReferenceSource@Details@1@@ 000000018007c6f0     _nodert_generated.obj
 0003:00000730       ??_7?$Array@VGuid@Platform@@$00@Platform@@6BObject@1@?$IBoxArray@VGuid@Platform@@@1@@ 000000018007c730     _nodert_generated.obj
 0003:00000780       ??_7?$Array@VGuid@Platform@@$00@Platform@@6BIValueType@1@@ 000000018007c780     _nodert_generated.obj
 0003:000007c0       ??_7?$Array@VGuid@Platform@@$00@Platform@@6B__I?$Array@VGuid@Platform@@$00PublicNonVirtuals@1@@ 000000018007c7c0     _nodert_generated.obj
 0003:00000800       ??_7?$Array@VGuid@Platform@@$00@Platform@@6BIDisposable@1@@ 000000018007c800     _nodert_generated.obj
 0003:00000850       ??_7?$Array@VGuid@Platform@@$00@Platform@@6B__I?$WriteOnlyArray@VGuid@Platform@@$00PublicNonVirtuals@1@@ 000000018007c850     _nodert_generated.obj
 0003:00000890       ??_7?$Array@VGuid@Platform@@$00@Platform@@6BIDisposable@1@?$WriteOnlyArray@VGuid@Platform@@$00@1@@ 000000018007c890     _nodert_generated.obj
 0003:000008e0       ??_7?$Array@VGuid@Platform@@$00@Platform@@6BObject@1@?$WriteOnlyArray@VGuid@Platform@@$00@1@@ 000000018007c8e0     _nodert_generated.obj
 0003:00000920       ??_7?$Array@VGuid@Platform@@$00@Platform@@6B__abi_IUnknown@@?$WriteOnlyArray@VGuid@Platform@@$00@1@@ 000000018007c920     _nodert_generated.obj
 0003:00000950       ??_7?$Array@VGuid@Platform@@$00@Platform@@6BObject@1@IWeakReferenceSource@Details@1@?$WriteOnlyArray@VGuid@Platform@@$00@1@@ 000000018007c950     _nodert_generated.obj
 0003:00000990       ??_7?$Array@VGuid@Platform@@$00@Platform@@6B__abi_IUnknown@@IWeakReferenceSource@Details@1@@ 000000018007c990     _nodert_generated.obj
 0003:000009c0       ??_7?$Array@VGuid@Platform@@$00@Platform@@6BObject@1@IWeakReferenceSource@Details@1@@ 000000018007c9c0     _nodert_generated.obj
 0003:00000a00       ??_7?$CustomBox@W4BluetoothLEAdvertisementFlags@Advertisement@Bluetooth@Devices@Windows@@@Details@Platform@@6BObject@2@?$IBox@W4BluetoothLEAdvertisementFlags@Advertisement@Bluetooth@Devices@Windows@@@2@@ 000000018007ca00     _nodert_generated.obj
 0003:00000a50       ??_7?$CustomBox@W4BluetoothLEAdvertisementFlags@Advertisement@Bluetooth@Devices@Windows@@@Details@Platform@@6BIValueType@2@@ 000000018007ca50     _nodert_generated.obj
 0003:00000a90       ??_7?$CustomBox@W4BluetoothLEAdvertisementFlags@Advertisement@Bluetooth@Devices@Windows@@@Details@Platform@@6BIPrintable@12@@ 000000018007ca90     _nodert_generated.obj
 0003:00000ae0       ??_7?$CustomBox@W4BluetoothLEAdvertisementFlags@Advertisement@Bluetooth@Devices@Windows@@@Details@Platform@@6BObject@2@@ 000000018007cae0     _nodert_generated.obj
 0003:00000b20       ??_7?$CustomBox@W4BluetoothLEAdvertisementFlags@Advertisement@Bluetooth@Devices@Windows@@@Details@Platform@@6B__abi_IUnknown@@@ 000000018007cb20     _nodert_generated.obj
 0003:00000b50       ??_7?$CustomBox@W4BluetoothLEAdvertisementFlags@Advertisement@Bluetooth@Devices@Windows@@@Details@Platform@@6BObject@2@IWeakReferenceSource@12@@ 000000018007cb50     _nodert_generated.obj
 0003:00000b90       ??_7?$_Func_base@X$$V@std@@6B@ 000000018007cb90     _nodert_generated.obj
 0003:00000bd0       ??_7?$_Func_base@PE$AAVBluetoothLEAdvertisementBytePattern@Advertisement@Bluetooth@Devices@Windows@@V?$Local@VValue@v8@@@v8@@@std@@6B@ 000000018007cbd0     _nodert_generated.obj
 0003:00000c10       ??_7?$_Func_base@V?$Local@VValue@v8@@@v8@@PE$AAVBluetoothLEAdvertisementBytePattern@Advertisement@Bluetooth@Devices@Windows@@@std@@6B@ 000000018007cc10     _nodert_generated.obj
 0003:00000c50       ??_7?$IteratorWrapper@PE$AAVBluetoothLEAdvertisementBytePattern@Advertisement@Bluetooth@Devices@Windows@@@Collections@NodeRT@@6B@ 000000018007cc50     _nodert_generated.obj
 0003:00000c78       ??_7?$WriteOnlyArray@PE$AAVBluetoothLEAdvertisementBytePattern@Advertisement@Bluetooth@Devices@Windows@@$00@Platform@@6B__I?$WriteOnlyArray@PE$AAVBluetoothLEAdvertisementBytePattern@Advertisement@Bluetooth@Devices@Windows@@$00PublicNonVirtuals@1@@ 000000018007cc78     _nodert_generated.obj
 0003:00000cb8       ??_7?$WriteOnlyArray@PE$AAVBluetoothLEAdvertisementBytePattern@Advertisement@Bluetooth@Devices@Windows@@$00@Platform@@6BIDisposable@1@@ 000000018007ccb8     _nodert_generated.obj
 0003:00000d08       ??_7?$WriteOnlyArray@PE$AAVBluetoothLEAdvertisementBytePattern@Advertisement@Bluetooth@Devices@Windows@@$00@Platform@@6BObject@1@@ 000000018007cd08     _nodert_generated.obj
 0003:00000d48       ??_7?$WriteOnlyArray@PE$AAVBluetoothLEAdvertisementBytePattern@Advertisement@Bluetooth@Devices@Windows@@$00@Platform@@6B__abi_IUnknown@@@ 000000018007cd48     _nodert_generated.obj
 0003:00000d78       ??_7?$WriteOnlyArray@PE$AAVBluetoothLEAdvertisementBytePattern@Advertisement@Bluetooth@Devices@Windows@@$00@Platform@@6BObject@1@IWeakReferenceSource@Details@1@@ 000000018007cd78     _nodert_generated.obj
 0003:00000db8       ??_7?$Array@PE$AAVBluetoothLEAdvertisementBytePattern@Advertisement@Bluetooth@Devices@Windows@@$00@Platform@@6BObject@1@?$IBoxArray@PE$AAVBluetoothLEAdvertisementBytePattern@Advertisement@Bluetooth@Devices@Windows@@@1@@ 000000018007cdb8     _nodert_generated.obj
 0003:00000e08       ??_7?$Array@PE$AAVBluetoothLEAdvertisementBytePattern@Advertisement@Bluetooth@Devices@Windows@@$00@Platform@@6BIValueType@1@@ 000000018007ce08     _nodert_generated.obj
 0003:00000e48       ??_7?$Array@PE$AAVBluetoothLEAdvertisementBytePattern@Advertisement@Bluetooth@Devices@Windows@@$00@Platform@@6B__I?$Array@PE$AAVBluetoothLEAdvertisementBytePattern@Advertisement@Bluetooth@Devices@Windows@@$00PublicNonVirtuals@1@@ 000000018007ce48     _nodert_generated.obj
 0003:00000e88       ??_7?$Array@PE$AAVBluetoothLEAdvertisementBytePattern@Advertisement@Bluetooth@Devices@Windows@@$00@Platform@@6BIDisposable@1@@ 000000018007ce88     _nodert_generated.obj
 0003:00000ed8       ??_7?$Array@PE$AAVBluetoothLEAdvertisementBytePattern@Advertisement@Bluetooth@Devices@Windows@@$00@Platform@@6B__I?$WriteOnlyArray@PE$AAVBluetoothLEAdvertisementBytePattern@Advertisement@Bluetooth@Devices@Windows@@$00PublicNonVirtuals@1@@ 000000018007ced8     _nodert_generated.obj
 0003:00000f18       ??_7?$Array@PE$AAVBluetoothLEAdvertisementBytePattern@Advertisement@Bluetooth@Devices@Windows@@$00@Platform@@6BIDisposable@1@?$WriteOnlyArray@PE$AAVBluetoothLEAdvertisementBytePattern@Advertisement@Bluetooth@Devices@Windows@@$00@1@@ 000000018007cf18     _nodert_generated.obj
 0003:00000f68       ??_7?$Array@PE$AAVBluetoothLEAdvertisementBytePattern@Advertisement@Bluetooth@Devices@Windows@@$00@Platform@@6BObject@1@?$WriteOnlyArray@PE$AAVBluetoothLEAdvertisementBytePattern@Advertisement@Bluetooth@Devices@Windows@@$00@1@@ 000000018007cf68     _nodert_generated.obj
 0003:00000fa8       ??_7?$Array@PE$AAVBluetoothLEAdvertisementBytePattern@Advertisement@Bluetooth@Devices@Windows@@$00@Platform@@6B__abi_IUnknown@@?$WriteOnlyArray@PE$AAVBluetoothLEAdvertisementBytePattern@Advertisement@Bluetooth@Devices@Windows@@$00@1@@ 000000018007cfa8     _nodert_generated.obj
 0003:00000fd8       ??_7?$Array@PE$AAVBluetoothLEAdvertisementBytePattern@Advertisement@Bluetooth@Devices@Windows@@$00@Platform@@6BObject@1@IWeakReferenceSource@Details@1@?$WriteOnlyArray@PE$AAVBluetoothLEAdvertisementBytePattern@Advertisement@Bluetooth@Devices@Windows@@$00@1@@ 000000018007cfd8     _nodert_generated.obj
 0003:00001018       ??_7?$Array@PE$AAVBluetoothLEAdvertisementBytePattern@Advertisement@Bluetooth@Devices@Windows@@$00@Platform@@6B__abi_IUnknown@@IWeakReferenceSource@Details@1@@ 000000018007d018     _nodert_generated.obj
 0003:00001048       ??_7?$Array@PE$AAVBluetoothLEAdvertisementBytePattern@Advertisement@Bluetooth@Devices@Windows@@$00@Platform@@6BObject@1@IWeakReferenceSource@Details@1@@ 000000018007d048     _nodert_generated.obj
 0003:00001088       ??_7?$VectorViewWrapper@PE$AAVBluetoothLEAdvertisementBytePattern@Advertisement@Bluetooth@Devices@Windows@@@Collections@NodeRT@@6B@ 000000018007d088     _nodert_generated.obj
 0003:000010b0       ??_7?$_Func_base@VGuid@Platform@@V?$Local@VValue@v8@@@v8@@@std@@6B@ 000000018007d0b0     _nodert_generated.obj
 0003:000010f0       ??_7?$_Func_base@V?$Local@VValue@v8@@@v8@@VGuid@Platform@@@std@@6B@ 000000018007d0f0     _nodert_generated.obj
 0003:00001130       ??_7?$IteratorWrapper@VGuid@Platform@@@Collections@NodeRT@@6B@ 000000018007d130     _nodert_generated.obj
 0003:00001158       ??_7?$VectorViewWrapper@VGuid@Platform@@@Collections@NodeRT@@6B@ 000000018007d158     _nodert_generated.obj
 0003:00001180       ??_7?$IteratorWrapper@PE$AAVBluetoothLEManufacturerData@Advertisement@Bluetooth@Devices@Windows@@@Collections@NodeRT@@6B@ 000000018007d180     _nodert_generated.obj
 0003:000011a8       ??_7?$WriteOnlyArray@PE$AAVBluetoothLEManufacturerData@Advertisement@Bluetooth@Devices@Windows@@$00@Platform@@6B__I?$WriteOnlyArray@PE$AAVBluetoothLEManufacturerData@Advertisement@Bluetooth@Devices@Windows@@$00PublicNonVirtuals@1@@ 000000018007d1a8     _nodert_generated.obj
 0003:000011e8       ??_7?$WriteOnlyArray@PE$AAVBluetoothLEManufacturerData@Advertisement@Bluetooth@Devices@Windows@@$00@Platform@@6BIDisposable@1@@ 000000018007d1e8     _nodert_generated.obj
 0003:00001238       ??_7?$WriteOnlyArray@PE$AAVBluetoothLEManufacturerData@Advertisement@Bluetooth@Devices@Windows@@$00@Platform@@6BObject@1@@ 000000018007d238     _nodert_generated.obj
 0003:00001278       ??_7?$WriteOnlyArray@PE$AAVBluetoothLEManufacturerData@Advertisement@Bluetooth@Devices@Windows@@$00@Platform@@6B__abi_IUnknown@@@ 000000018007d278     _nodert_generated.obj
 0003:000012a8       ??_7?$WriteOnlyArray@PE$AAVBluetoothLEManufacturerData@Advertisement@Bluetooth@Devices@Windows@@$00@Platform@@6BObject@1@IWeakReferenceSource@Details@1@@ 000000018007d2a8     _nodert_generated.obj
 0003:000012e8       ??_7?$Array@PE$AAVBluetoothLEManufacturerData@Advertisement@Bluetooth@Devices@Windows@@$00@Platform@@6BObject@1@?$IBoxArray@PE$AAVBluetoothLEManufacturerData@Advertisement@Bluetooth@Devices@Windows@@@1@@ 000000018007d2e8     _nodert_generated.obj
 0003:00001338       ??_7?$Array@PE$AAVBluetoothLEManufacturerData@Advertisement@Bluetooth@Devices@Windows@@$00@Platform@@6BIValueType@1@@ 000000018007d338     _nodert_generated.obj
 0003:00001378       ??_7?$Array@PE$AAVBluetoothLEManufacturerData@Advertisement@Bluetooth@Devices@Windows@@$00@Platform@@6B__I?$Array@PE$AAVBluetoothLEManufacturerData@Advertisement@Bluetooth@Devices@Windows@@$00PublicNonVirtuals@1@@ 000000018007d378     _nodert_generated.obj
 0003:000013b8       ??_7?$Array@PE$AAVBluetoothLEManufacturerData@Advertisement@Bluetooth@Devices@Windows@@$00@Platform@@6BIDisposable@1@@ 000000018007d3b8     _nodert_generated.obj
 0003:00001408       ??_7?$Array@PE$AAVBluetoothLEManufacturerData@Advertisement@Bluetooth@Devices@Windows@@$00@Platform@@6B__I?$WriteOnlyArray@PE$AAVBluetoothLEManufacturerData@Advertisement@Bluetooth@Devices@Windows@@$00PublicNonVirtuals@1@@ 000000018007d408     _nodert_generated.obj
 0003:00001448       ??_7?$Array@PE$AAVBluetoothLEManufacturerData@Advertisement@Bluetooth@Devices@Windows@@$00@Platform@@6BIDisposable@1@?$WriteOnlyArray@PE$AAVBluetoothLEManufacturerData@Advertisement@Bluetooth@Devices@Windows@@$00@1@@ 000000018007d448     _nodert_generated.obj
 0003:00001498       ??_7?$Array@PE$AAVBluetoothLEManufacturerData@Advertisement@Bluetooth@Devices@Windows@@$00@Platform@@6BObject@1@?$WriteOnlyArray@PE$AAVBluetoothLEManufacturerData@Advertisement@Bluetooth@Devices@Windows@@$00@1@@ 000000018007d498     _nodert_generated.obj
 0003:000014d8       ??_7?$Array@PE$AAVBluetoothLEManufacturerData@Advertisement@Bluetooth@Devices@Windows@@$00@Platform@@6B__abi_IUnknown@@?$WriteOnlyArray@PE$AAVBluetoothLEManufacturerData@Advertisement@Bluetooth@Devices@Windows@@$00@1@@ 000000018007d4d8     _nodert_generated.obj
 0003:00001508       ??_7?$Array@PE$AAVBluetoothLEManufacturerData@Advertisement@Bluetooth@Devices@Windows@@$00@Platform@@6BObject@1@IWeakReferenceSource@Details@1@?$WriteOnlyArray@PE$AAVBluetoothLEManufacturerData@Advertisement@Bluetooth@Devices@Windows@@$00@1@@ 000000018007d508     _nodert_generated.obj
 0003:00001548       ??_7?$Array@PE$AAVBluetoothLEManufacturerData@Advertisement@Bluetooth@Devices@Windows@@$00@Platform@@6B__abi_IUnknown@@IWeakReferenceSource@Details@1@@ 000000018007d548     _nodert_generated.obj
 0003:00001578       ??_7?$Array@PE$AAVBluetoothLEManufacturerData@Advertisement@Bluetooth@Devices@Windows@@$00@Platform@@6BObject@1@IWeakReferenceSource@Details@1@@ 000000018007d578     _nodert_generated.obj
 0003:000015b8       ??_7?$IteratorWrapper@PE$AAVBluetoothLEAdvertisementDataSection@Advertisement@Bluetooth@Devices@Windows@@@Collections@NodeRT@@6B@ 000000018007d5b8     _nodert_generated.obj
 0003:000015e0       ??_7?$WriteOnlyArray@PE$AAVBluetoothLEAdvertisementDataSection@Advertisement@Bluetooth@Devices@Windows@@$00@Platform@@6B__I?$WriteOnlyArray@PE$AAVBluetoothLEAdvertisementDataSection@Advertisement@Bluetooth@Devices@Windows@@$00PublicNonVirtuals@1@@ 000000018007d5e0     _nodert_generated.obj
 0003:00001620       ??_7?$WriteOnlyArray@PE$AAVBluetoothLEAdvertisementDataSection@Advertisement@Bluetooth@Devices@Windows@@$00@Platform@@6BIDisposable@1@@ 000000018007d620     _nodert_generated.obj
 0003:00001670       ??_7?$WriteOnlyArray@PE$AAVBluetoothLEAdvertisementDataSection@Advertisement@Bluetooth@Devices@Windows@@$00@Platform@@6BObject@1@@ 000000018007d670     _nodert_generated.obj
 0003:000016b0       ??_7?$WriteOnlyArray@PE$AAVBluetoothLEAdvertisementDataSection@Advertisement@Bluetooth@Devices@Windows@@$00@Platform@@6B__abi_IUnknown@@@ 000000018007d6b0     _nodert_generated.obj
 0003:000016e0       ??_7?$WriteOnlyArray@PE$AAVBluetoothLEAdvertisementDataSection@Advertisement@Bluetooth@Devices@Windows@@$00@Platform@@6BObject@1@IWeakReferenceSource@Details@1@@ 000000018007d6e0     _nodert_generated.obj
 0003:00001720       ??_7?$Array@PE$AAVBluetoothLEAdvertisementDataSection@Advertisement@Bluetooth@Devices@Windows@@$00@Platform@@6BObject@1@?$IBoxArray@PE$AAVBluetoothLEAdvertisementDataSection@Advertisement@Bluetooth@Devices@Windows@@@1@@ 000000018007d720     _nodert_generated.obj
 0003:00001770       ??_7?$Array@PE$AAVBluetoothLEAdvertisementDataSection@Advertisement@Bluetooth@Devices@Windows@@$00@Platform@@6BIValueType@1@@ 000000018007d770     _nodert_generated.obj
 0003:000017b0       ??_7?$Array@PE$AAVBluetoothLEAdvertisementDataSection@Advertisement@Bluetooth@Devices@Windows@@$00@Platform@@6B__I?$Array@PE$AAVBluetoothLEAdvertisementDataSection@Advertisement@Bluetooth@Devices@Windows@@$00PublicNonVirtuals@1@@ 000000018007d7b0     _nodert_generated.obj
 0003:000017f0       ??_7?$Array@PE$AAVBluetoothLEAdvertisementDataSection@Advertisement@Bluetooth@Devices@Windows@@$00@Platform@@6BIDisposable@1@@ 000000018007d7f0     _nodert_generated.obj
 0003:00001840       ??_7?$Array@PE$AAVBluetoothLEAdvertisementDataSection@Advertisement@Bluetooth@Devices@Windows@@$00@Platform@@6B__I?$WriteOnlyArray@PE$AAVBluetoothLEAdvertisementDataSection@Advertisement@Bluetooth@Devices@Windows@@$00PublicNonVirtuals@1@@ 000000018007d840     _nodert_generated.obj
 0003:00001880       ??_7?$Array@PE$AAVBluetoothLEAdvertisementDataSection@Advertisement@Bluetooth@Devices@Windows@@$00@Platform@@6BIDisposable@1@?$WriteOnlyArray@PE$AAVBluetoothLEAdvertisementDataSection@Advertisement@Bluetooth@Devices@Windows@@$00@1@@ 000000018007d880     _nodert_generated.obj
 0003:000018d0       ??_7?$Array@PE$AAVBluetoothLEAdvertisementDataSection@Advertisement@Bluetooth@Devices@Windows@@$00@Platform@@6BObject@1@?$WriteOnlyArray@PE$AAVBluetoothLEAdvertisementDataSection@Advertisement@Bluetooth@Devices@Windows@@$00@1@@ 000000018007d8d0     _nodert_generated.obj
 0003:00001910       ??_7?$Array@PE$AAVBluetoothLEAdvertisementDataSection@Advertisement@Bluetooth@Devices@Windows@@$00@Platform@@6B__abi_IUnknown@@?$WriteOnlyArray@PE$AAVBluetoothLEAdvertisementDataSection@Advertisement@Bluetooth@Devices@Windows@@$00@1@@ 000000018007d910     _nodert_generated.obj
 0003:00001940       ??_7?$Array@PE$AAVBluetoothLEAdvertisementDataSection@Advertisement@Bluetooth@Devices@Windows@@$00@Platform@@6BObject@1@IWeakReferenceSource@Details@1@?$WriteOnlyArray@PE$AAVBluetoothLEAdvertisementDataSection@Advertisement@Bluetooth@Devices@Windows@@$00@1@@ 000000018007d940     _nodert_generated.obj
 0003:00001980       ??_7?$Array@PE$AAVBluetoothLEAdvertisementDataSection@Advertisement@Bluetooth@Devices@Windows@@$00@Platform@@6B__abi_IUnknown@@IWeakReferenceSource@Details@1@@ 000000018007d980     _nodert_generated.obj
 0003:000019b0       ??_7?$Array@PE$AAVBluetoothLEAdvertisementDataSection@Advertisement@Bluetooth@Devices@Windows@@$00@Platform@@6BObject@1@IWeakReferenceSource@Details@1@@ 000000018007d9b0     _nodert_generated.obj
 0003:000019f0       ??_7?$_Func_base@PE$AAVBluetoothLEAdvertisementDataSection@Advertisement@Bluetooth@Devices@Windows@@V?$Local@VValue@v8@@@v8@@@std@@6B@ 000000018007d9f0     _nodert_generated.obj
 0003:00001a30       ??_7?$_Func_base@V?$Local@VValue@v8@@@v8@@PE$AAVBluetoothLEAdvertisementDataSection@Advertisement@Bluetooth@Devices@Windows@@@std@@6B@ 000000018007da30     _nodert_generated.obj
 0003:00001a70       ??_7?$_Func_base@PE$AAVBluetoothLEManufacturerData@Advertisement@Bluetooth@Devices@Windows@@V?$Local@VValue@v8@@@v8@@@std@@6B@ 000000018007da70     _nodert_generated.obj
 0003:00001ab0       ??_7?$_Func_base@V?$Local@VValue@v8@@@v8@@PE$AAVBluetoothLEManufacturerData@Advertisement@Bluetooth@Devices@Windows@@@std@@6B@ 000000018007dab0     _nodert_generated.obj
 0003:00001af0       ??_7?$_Func_base@_NV?$Local@VValue@v8@@@v8@@@std@@6B@ 000000018007daf0     _nodert_generated.obj
 0003:00001b30       ??_7?$__abi_FunctorCapture@V<lambda_237595074df0c8017b22e4dbeff6e432>@@XPE$AAVBluetoothLEAdvertisementWatcher@Advertisement@Bluetooth@Devices@Windows@@PE$AAVBluetoothLEAdvertisementReceivedEventArgs@3456@@Details@Platform@@6B@ 000000018007db30     _nodert_generated.obj
 0003:00001b48       ??_7?$__abi_FunctorCapture@V<lambda_7027264ebf1117594dd4155ebab65c3d>@@XPE$AAVBluetoothLEAdvertisementWatcher@Advertisement@Bluetooth@Devices@Windows@@PE$AAVBluetoothLEAdvertisementWatcherStoppedEventArgs@3456@@Details@Platform@@6B@ 000000018007db48     _nodert_generated.obj
 0003:00001b60       ??_7?$__abi_FunctorCapture@V<lambda_73d2589d6f7f5ba1a0f6aa6530cd3b8a>@@XPE$AAVBluetoothLEAdvertisementPublisher@Advertisement@Bluetooth@Devices@Windows@@PE$AAVBluetoothLEAdvertisementPublisherStatusChangedEventArgs@3456@@Details@Platform@@6B@ 000000018007db60     _nodert_generated.obj
 0003:00001b78       ??_7?$CustomBox@VGuid@Platform@@@Details@Platform@@6BObject@2@?$IBox@VGuid@Platform@@@2@@ 000000018007db78     _nodert_generated.obj
 0003:00001bc8       ??_7?$CustomBox@VGuid@Platform@@@Details@Platform@@6BIValueType@2@@ 000000018007dbc8     _nodert_generated.obj
 0003:00001c08       ??_7?$CustomBox@VGuid@Platform@@@Details@Platform@@6BIPrintable@12@@ 000000018007dc08     _nodert_generated.obj
 0003:00001c58       ??_7?$CustomBox@VGuid@Platform@@@Details@Platform@@6BObject@2@@ 000000018007dc58     _nodert_generated.obj
 0003:00001c98       ??_7?$CustomBox@VGuid@Platform@@@Details@Platform@@6B__abi_IUnknown@@@ 000000018007dc98     _nodert_generated.obj
 0003:00001cc8       ??_7?$CustomBox@VGuid@Platform@@@Details@Platform@@6BObject@2@IWeakReferenceSource@12@@ 000000018007dcc8     _nodert_generated.obj
 0003:00001d08       ??_7?$_Ref_count_del@V?$Persistent@VObject@v8@@V?$NonCopyablePersistentTraits@VObject@v8@@@2@@Nan@@V<lambda_8d95b5316acffedb3360aa6562c31600>@@@std@@6B@ 000000018007dd08     _nodert_generated.obj
 0003:00001d30       ??_7?$_Ref_count_del@V?$Persistent@VObject@v8@@V?$NonCopyablePersistentTraits@VObject@v8@@@2@@Nan@@V<lambda_04ac22ce5b42da517f675f8337af0c15>@@@std@@6B@ 000000018007dd30     _nodert_generated.obj
 0003:00001d58       ??_7?$_Ref_count_del@V?$Persistent@VObject@v8@@V?$NonCopyablePersistentTraits@VObject@v8@@@2@@Nan@@V<lambda_53f15f71c0d076d50b21ae82008508cf>@@@std@@6B@ 000000018007dd58     _nodert_generated.obj
 0003:00001d80       ??_7?$_Func_impl@V<lambda_ec539e6463b3f1202fb0d6101075ecab>@@V?$allocator@H@std@@V?$Local@VValue@v8@@@v8@@PE$AAVBluetoothLEManufacturerData@Advertisement@Bluetooth@Devices@Windows@@@std@@6B@ 000000018007dd80     _nodert_generated.obj
 0003:00001dc0       ??_7?$_Func_impl@V<lambda_04fdbd7d4e116aa97aa0f582c1e08d98>@@V?$allocator@H@std@@_NV?$Local@VValue@v8@@@v8@@@std@@6B@ 000000018007ddc0     _nodert_generated.obj
 0003:00001e00       ??_7?$_Func_impl@V<lambda_2a9ef30eb72dc05ade045c5168f16b94>@@V?$allocator@H@std@@PE$AAVBluetoothLEManufacturerData@Advertisement@Bluetooth@Devices@Windows@@V?$Local@VValue@v8@@@v8@@@std@@6B@ 000000018007de00     _nodert_generated.obj
 0003:00001e40       ??_7?$_Func_impl@V<lambda_7aaa91a6be1124741277c55b1bacbfd2>@@V?$allocator@H@std@@V?$Local@VValue@v8@@@v8@@PE$AAVBluetoothLEAdvertisementDataSection@Advertisement@Bluetooth@Devices@Windows@@@std@@6B@ 000000018007de40     _nodert_generated.obj
 0003:00001e80       ??_7?$_Func_impl@V<lambda_7516bda444720a47d3c71bc53ec85eb5>@@V?$allocator@H@std@@_NV?$Local@VValue@v8@@@v8@@@std@@6B@ 000000018007de80     _nodert_generated.obj
 0003:00001ec0       ??_7?$_Func_impl@V<lambda_ac17bd2cadf98042e21e07a1caf6a194>@@V?$allocator@H@std@@PE$AAVBluetoothLEAdvertisementDataSection@Advertisement@Bluetooth@Devices@Windows@@V?$Local@VValue@v8@@@v8@@@std@@6B@ 000000018007dec0     _nodert_generated.obj
 0003:00001f00       ??_7?$_Func_impl@V<lambda_49d6e2ff8539ece0b85a60ab4fb489c6>@@V?$allocator@H@std@@V?$Local@VValue@v8@@@v8@@PE$AAVBluetoothLEAdvertisementDataSection@Advertisement@Bluetooth@Devices@Windows@@@std@@6B@ 000000018007df00     _nodert_generated.obj
 0003:00001f40       ??_7?$_Func_impl@V<lambda_1a6f8a59d0e38e894945875c44afcbdb>@@V?$allocator@H@std@@_NV?$Local@VValue@v8@@@v8@@@std@@6B@ 000000018007df40     _nodert_generated.obj
 0003:00001f80       ??_7?$_Func_impl@V<lambda_d8d33de05d7b79e795a8008ef007f86e>@@V?$allocator@H@std@@PE$AAVBluetoothLEAdvertisementDataSection@Advertisement@Bluetooth@Devices@Windows@@V?$Local@VValue@v8@@@v8@@@std@@6B@ 000000018007df80     _nodert_generated.obj
 0003:00001fc0       ??_7?$_Func_impl@V<lambda_3a0606817f39b94faab8540da408fab9>@@V?$allocator@H@std@@V?$Local@VValue@v8@@@v8@@PE$AAVBluetoothLEManufacturerData@Advertisement@Bluetooth@Devices@Windows@@@std@@6B@ 000000018007dfc0     _nodert_generated.obj
 0003:00002000       ??_7?$_Func_impl@V<lambda_013992709166ead2505d475e5a25b16a>@@V?$allocator@H@std@@_NV?$Local@VValue@v8@@@v8@@@std@@6B@ 000000018007e000     _nodert_generated.obj
 0003:00002040       ??_7?$_Func_impl@V<lambda_274ebad6e66cd704c8f9f6a92063cf98>@@V?$allocator@H@std@@PE$AAVBluetoothLEManufacturerData@Advertisement@Bluetooth@Devices@Windows@@V?$Local@VValue@v8@@@v8@@@std@@6B@ 000000018007e040     _nodert_generated.obj
 0003:00002080       ??_7?$_Func_impl@V<lambda_b6433205f39a1688a6792e010d587afb>@@V?$allocator@H@std@@V?$Local@VValue@v8@@@v8@@VGuid@Platform@@@std@@6B@ 000000018007e080     _nodert_generated.obj
 0003:000020c0       ??_7?$_Func_impl@V<lambda_f09380b2c039d8ffdb71cd42a6a83a51>@@V?$allocator@H@std@@_NV?$Local@VValue@v8@@@v8@@@std@@6B@ 000000018007e0c0     _nodert_generated.obj
 0003:00002100       ??_7?$_Func_impl@V<lambda_af13fab2ff329fbb1afa2c694c896418>@@V?$allocator@H@std@@VGuid@Platform@@V?$Local@VValue@v8@@@v8@@@std@@6B@ 000000018007e100     _nodert_generated.obj
 0003:00002140       ??_7?$_Func_impl@V<lambda_f456c6d47215cffadf04a48e00285ffe>@@V?$allocator@H@std@@V?$Local@VValue@v8@@@v8@@PE$AAVBluetoothLEAdvertisementBytePattern@Advertisement@Bluetooth@Devices@Windows@@@std@@6B@ 000000018007e140     _nodert_generated.obj
 0003:00002180       ??_7?$_Func_impl@V<lambda_a39bdbf0e8057f7b0c96bdfc3287b81c>@@V?$allocator@H@std@@_NV?$Local@VValue@v8@@@v8@@@std@@6B@ 000000018007e180     _nodert_generated.obj
 0003:000021c0       ??_7?$_Func_impl@V<lambda_4463207407c68c7d36ca12cd70016193>@@V?$allocator@H@std@@PE$AAVBluetoothLEAdvertisementBytePattern@Advertisement@Bluetooth@Devices@Windows@@V?$Local@VValue@v8@@@v8@@@std@@6B@ 000000018007e1c0     _nodert_generated.obj
 0003:00002200       ??_7?$_Func_impl@V<lambda_4a77cc3c1f6d91593283ce05d7b55130>@@V?$allocator@H@std@@X$$V@std@@6B@ 000000018007e200     _nodert_generated.obj
 0003:00002240       ??_7?$_Func_impl@V<lambda_86d7928fb6c5f8a9281d5c6e660c8883>@@V?$allocator@H@std@@X$$V@std@@6B@ 000000018007e240     _nodert_generated.obj
 0003:00002280       ??_7?$_Func_impl@V<lambda_94049ef9f1f64cd5072df65dc2648f93>@@V?$allocator@H@std@@X$$V@std@@6B@ 000000018007e280     _nodert_generated.obj
 0003:000022c0       ??_7?$_Func_impl@V<lambda_3c996b405b8cc8a209562ce80b23026e>@@V?$allocator@H@std@@X$$V@std@@6B@ 000000018007e2c0     _nodert_generated.obj
 0003:00002300       ??_7?$_Func_impl@V<lambda_7292f98887d13268d0b715d1a170bb93>@@V?$allocator@H@std@@X$$V@std@@6B@ 000000018007e300     _nodert_generated.obj
 0003:00002340       ??_7?$_Func_impl@V<lambda_102d3b0b16f73d4fb66b83542007fa91>@@V?$allocator@H@std@@X$$V@std@@6B@ 000000018007e340     _nodert_generated.obj
 0003:00002380       ??_7OpaqueWrapper@NodeRT@@6B@ 000000018007e380     OpaqueWrapper.obj
 0003:000023a8       __pfnDliNotifyHook2        000000018007e3a8     win_delay_load_hook.obj
 0003:000023c0       ??_7?$Module@$00VInProcModule@Details@Platform@@@WRL@Microsoft@@6B@ 000000018007e3c0     vccorlib:init.obj
 0003:00002440       ??_7?$Module@$04VInProcModule@Details@Platform@@@WRL@Microsoft@@6B@ 000000018007e440     vccorlib:init.obj
 0003:000024c0       ??_7InProcModule@Details@Platform@@6B?$Module@$04VInProcModule@Details@Platform@@@WRL@Microsoft@@@ 000000018007e4c0     vccorlib:init.obj
 0003:00002540       ??_7InProcModule@Details@Platform@@6B__abi_Module@@@ 000000018007e540     vccorlib:init.obj
 0003:00002554       __scrt_native_dllmain_reason 000000018007e554     MSVCRT:utility.obj
 0003:00002558       _Init_global_epoch         000000018007e558     MSVCRT:thread_safe_statics.obj
 0003:00002560       __security_cookie          000000018007e560     MSVCRT:gs_cookie.obj
 0003:00002568       __security_cookie_complement 000000018007e568     MSVCRT:gs_cookie.obj
 0003:00002574       _fltused                   000000018007e574     MSVCRT:dllsupp.obj
 0003:00002578       __isa_available            000000018007e578     MSVCRT:_cpu_disp_.obj
 0003:0000257c       __isa_enabled              000000018007e57c     MSVCRT:_cpu_disp_.obj
 0003:00002580       __memcpy_nt_iters          000000018007e580     MSVCRT:_cpu_disp_.obj
 0003:00002590       __scrt_ucrt_dll_is_in_use  000000018007e590     MSVCRT:ucrt_stubs.obj
 0003:00002790       ??_R0?AV<lambda_058e118d0cb39557fbb1f2a131aaaa50>@@@8 000000018007e790     _nodert_generated.obj
 0003:000027e0       ??_R0PE$AAVCOMException@Platform@@@8 000000018007e7e0     _nodert_generated.obj
 0003:00002818       ??_R0PE$AAVException@Platform@@@8 000000018007e818     _nodert_generated.obj
 0003:00002850       ??_R0PE$AAVObject@Platform@@@8 000000018007e850     _nodert_generated.obj
 0003:00002888       ??_R0PE$AAUIPrintable@Details@Platform@@@8 000000018007e888     _nodert_generated.obj
 0003:000028c8       ??_R0PE$AAUIEquatable@Details@Platform@@@8 000000018007e8c8     _nodert_generated.obj
 0003:00002908       ??_R0PE$AAUIDisposable@Platform@@@8 000000018007e908     _nodert_generated.obj
 0003:00002940       ??_R0PEAX@8                000000018007e940     _nodert_generated.obj
 0003:00002960       ??_R0PE$AAVNullReferenceException@Platform@@@8 000000018007e960     _nodert_generated.obj
 0003:000029b0       ??_R0?AV<lambda_53f15f71c0d076d50b21ae82008508cf>@@@8 000000018007e9b0     _nodert_generated.obj
 0003:00002a00       ??_R0?AV<lambda_04ac22ce5b42da517f675f8337af0c15>@@@8 000000018007ea00     _nodert_generated.obj
 0003:00002a50       ??_R0?AV<lambda_8d95b5316acffedb3360aa6562c31600>@@@8 000000018007ea50     _nodert_generated.obj
 0003:00002aa0       ??_R0?AV<lambda_102d3b0b16f73d4fb66b83542007fa91>@@@8 000000018007eaa0     _nodert_generated.obj
 0003:00002af0       ??_R0?AV<lambda_7292f98887d13268d0b715d1a170bb93>@@@8 000000018007eaf0     _nodert_generated.obj
 0003:00002b40       ??_R0?AV<lambda_3c996b405b8cc8a209562ce80b23026e>@@@8 000000018007eb40     _nodert_generated.obj
 0003:00002b90       ??_R0?AV<lambda_94049ef9f1f64cd5072df65dc2648f93>@@@8 000000018007eb90     _nodert_generated.obj
 0003:00002be0       ??_R0?AV<lambda_86d7928fb6c5f8a9281d5c6e660c8883>@@@8 000000018007ebe0     _nodert_generated.obj
 0003:00002c30       ??_R0?AV<lambda_4a77cc3c1f6d91593283ce05d7b55130>@@@8 000000018007ec30     _nodert_generated.obj
 0003:00002c80       ??_R0?AV<lambda_4463207407c68c7d36ca12cd70016193>@@@8 000000018007ec80     _nodert_generated.obj
 0003:00002cd0       ??_R0?AV<lambda_a39bdbf0e8057f7b0c96bdfc3287b81c>@@@8 000000018007ecd0     _nodert_generated.obj
 0003:00002d20       ??_R0?AV<lambda_f456c6d47215cffadf04a48e00285ffe>@@@8 000000018007ed20     _nodert_generated.obj
 0003:00002d70       ??_R0?AV<lambda_af13fab2ff329fbb1afa2c694c896418>@@@8 000000018007ed70     _nodert_generated.obj
 0003:00002dc0       ??_R0?AV<lambda_f09380b2c039d8ffdb71cd42a6a83a51>@@@8 000000018007edc0     _nodert_generated.obj
 0003:00002e10       ??_R0?AV<lambda_b6433205f39a1688a6792e010d587afb>@@@8 000000018007ee10     _nodert_generated.obj
 0003:00002e60       ??_R0?AV<lambda_274ebad6e66cd704c8f9f6a92063cf98>@@@8 000000018007ee60     _nodert_generated.obj
 0003:00002eb0       ??_R0?AV<lambda_013992709166ead2505d475e5a25b16a>@@@8 000000018007eeb0     _nodert_generated.obj
 0003:00002f00       ??_R0?AV<lambda_3a0606817f39b94faab8540da408fab9>@@@8 000000018007ef00     _nodert_generated.obj
 0003:00002f50       ??_R0?AV<lambda_d8d33de05d7b79e795a8008ef007f86e>@@@8 000000018007ef50     _nodert_generated.obj
 0003:00002fa0       ??_R0?AV<lambda_1a6f8a59d0e38e894945875c44afcbdb>@@@8 000000018007efa0     _nodert_generated.obj
 0003:00002ff0       ??_R0?AV<lambda_49d6e2ff8539ece0b85a60ab4fb489c6>@@@8 000000018007eff0     _nodert_generated.obj
 0003:00003040       ??_R0?AV<lambda_ac17bd2cadf98042e21e07a1caf6a194>@@@8 000000018007f040     _nodert_generated.obj
 0003:00003090       ??_R0?AV<lambda_7516bda444720a47d3c71bc53ec85eb5>@@@8 000000018007f090     _nodert_generated.obj
 0003:000030e0       ??_R0?AV<lambda_7aaa91a6be1124741277c55b1bacbfd2>@@@8 000000018007f0e0     _nodert_generated.obj
 0003:00003130       ??_R0?AV<lambda_2a9ef30eb72dc05ade045c5168f16b94>@@@8 000000018007f130     _nodert_generated.obj
 0003:00003180       ??_R0?AV<lambda_04fdbd7d4e116aa97aa0f582c1e08d98>@@@8 000000018007f180     _nodert_generated.obj
 0003:000031d0       ??_R0?AV<lambda_ec539e6463b3f1202fb0d6101075ecab>@@@8 000000018007f1d0     _nodert_generated.obj
 0003:00003220       ??_R0?AVModuleBase@Details@WRL@Microsoft@@@8 000000018007f220     vccorlib:init.obj
 0003:00003268       ??_R0?AVInProcModule@Details@Platform@@@8 000000018007f268     vccorlib:init.obj
 0003:000032b0       ??_R0?AV?$Module@$04VInProcModule@Details@Platform@@@WRL@Microsoft@@@8 000000018007f2b0     vccorlib:init.obj
 0003:00003320       ??_R0?AV?$Module@$00VInProcModule@Details@Platform@@@WRL@Microsoft@@@8 000000018007f320     vccorlib:init.obj
 0003:00003388       ??_R0?AU__abi_Module@@@8   000000018007f388     vccorlib:init.obj
 0003:000033b8       ??_R0?AVtype_info@@@8      000000018007f3b8     MSVCRT:std_type_info_static.obj
 0003:000033e0       ??_R0?AVbad_alloc@std@@@8  000000018007f3e0     MSVCRT:throw_bad_alloc.obj
 0003:00003410       ??_R0?AVexception@std@@@8  000000018007f410     MSVCRT:throw_bad_alloc.obj
 0003:00003440       ??_R0?AVbad_array_new_length@std@@@8 000000018007f440     MSVCRT:throw_bad_alloc.obj
 0003:000035c0       ?__abi_no_factory_cache@@3U__abi___FactoryCache@@A 000000018007f5c0     _nodert_generated.obj
 0003:000035d8       ?__winrt_GUID_NULL@Platform@@3VGuid@1@A 000000018007f5d8     _nodert_generated.obj
 0003:000035f0       ?g_keyProp@Collections@NodeRT@@3V?$Persistent@VString@v8@@V?$NonCopyablePersistentTraits@VString@v8@@@2@@Nan@@A 000000018007f5f0     _nodert_generated.obj
 0003:000035f8       ?s_constructorTemplate@BluetoothLEAdvertisementBytePattern@Advertisement@Bluetooth@Devices@Windows@NodeRT@@0V?$Persistent@VFunctionTemplate@v8@@V?$NonCopyablePersistentTraits@VFunctionTemplate@v8@@@2@@Nan@@A 000000018007f5f8     _nodert_generated.obj
 0003:00003600       ?s_constructorTemplate@BluetoothLEAdvertisement@Advertisement@Bluetooth@Devices@Windows@NodeRT@@0V?$Persistent@VFunctionTemplate@v8@@V?$NonCopyablePersistentTraits@VFunctionTemplate@v8@@@2@@Nan@@A 000000018007f600     _nodert_generated.obj
 0003:00003608       ?s_constructorTemplate@BluetoothLEAdvertisementWatcherStoppedEventArgs@Advertisement@Bluetooth@Devices@Windows@NodeRT@@0V?$Persistent@VFunctionTemplate@v8@@V?$NonCopyablePersistentTraits@VFunctionTemplate@v8@@@2@@Nan@@A 000000018007f608     _nodert_generated.obj
 0003:00003610       ?s_constructorTemplate@BluetoothLEManufacturerData@Advertisement@Bluetooth@Devices@Windows@NodeRT@@0V?$Persistent@VFunctionTemplate@v8@@V?$NonCopyablePersistentTraits@VFunctionTemplate@v8@@@2@@Nan@@A 000000018007f610     _nodert_generated.obj
 0003:00003618       ?s_constructorTemplate@BluetoothLEAdvertisementDataSection@Advertisement@Bluetooth@Devices@Windows@NodeRT@@0V?$Persistent@VFunctionTemplate@v8@@V?$NonCopyablePersistentTraits@VFunctionTemplate@v8@@@2@@Nan@@A 000000018007f618     _nodert_generated.obj
 0003:00003620       ?s_constructorTemplate@BluetoothLEAdvertisementPublisherStatusChangedEventArgs@Advertisement@Bluetooth@Devices@Windows@NodeRT@@0V?$Persistent@VFunctionTemplate@v8@@V?$NonCopyablePersistentTraits@VFunctionTemplate@v8@@@2@@Nan@@A 000000018007f620     _nodert_generated.obj
 0003:00003628       ?s_constructorTemplate@BluetoothLEAdvertisementWatcher@Advertisement@Bluetooth@Devices@Windows@NodeRT@@0V?$Persistent@VFunctionTemplate@v8@@V?$NonCopyablePersistentTraits@VFunctionTemplate@v8@@@2@@Nan@@A 000000018007f628     _nodert_generated.obj
 0003:00003630       ?s_constructorTemplate@BluetoothLEAdvertisementFilter@Advertisement@Bluetooth@Devices@Windows@NodeRT@@0V?$Persistent@VFunctionTemplate@v8@@V?$NonCopyablePersistentTraits@VFunctionTemplate@v8@@@2@@Nan@@A 000000018007f630     _nodert_generated.obj
 0003:00003638       ?s_constructorTemplate@BluetoothLEAdvertisementDataTypes@Advertisement@Bluetooth@Devices@Windows@NodeRT@@0V?$Persistent@VFunctionTemplate@v8@@V?$NonCopyablePersistentTraits@VFunctionTemplate@v8@@@2@@Nan@@A 000000018007f638     _nodert_generated.obj
 0003:00003640       ?s_constructorTemplate@BluetoothLEAdvertisementReceivedEventArgs@Advertisement@Bluetooth@Devices@Windows@NodeRT@@0V?$Persistent@VFunctionTemplate@v8@@V?$NonCopyablePersistentTraits@VFunctionTemplate@v8@@@2@@Nan@@A 000000018007f640     _nodert_generated.obj
 0003:00003648       ?s_constructorTemplate@BluetoothLEAdvertisementPublisher@Advertisement@Bluetooth@Devices@Windows@NodeRT@@0V?$Persistent@VFunctionTemplate@v8@@V?$NonCopyablePersistentTraits@VFunctionTemplate@v8@@@2@@Nan@@A 000000018007f648     _nodert_generated.obj
 0003:00003650       ?g_valueProp@Collections@NodeRT@@3V?$Persistent@VString@v8@@V?$NonCopyablePersistentTraits@VString@v8@@@2@@Nan@@A 000000018007f650     _nodert_generated.obj
 0003:000036c8       ?s_constructorTemplate@?$VectorViewWrapper@PE$AAVBluetoothLEManufacturerData@Advertisement@Bluetooth@Devices@Windows@@@Collections@NodeRT@@0V?$Persistent@VFunctionTemplate@v8@@V?$NonCopyablePersistentTraits@VFunctionTemplate@v8@@@2@@Nan@@A 000000018007f6c8     _nodert_generated.obj
 0003:000036d8       ?s_constructorTemplate@?$VectorViewWrapper@PE$AAVBluetoothLEAdvertisementDataSection@Advertisement@Bluetooth@Devices@Windows@@@Collections@NodeRT@@0V?$Persistent@VFunctionTemplate@v8@@V?$NonCopyablePersistentTraits@VFunctionTemplate@v8@@@2@@Nan@@A 000000018007f6d8     _nodert_generated.obj
 0003:000036e8       ?s_constructorTemplate@?$VectorWrapper@PE$AAVBluetoothLEAdvertisementDataSection@Advertisement@Bluetooth@Devices@Windows@@@Collections@NodeRT@@0V?$Persistent@VFunctionTemplate@v8@@V?$NonCopyablePersistentTraits@VFunctionTemplate@v8@@@2@@Nan@@A 000000018007f6e8     _nodert_generated.obj
 0003:000036f8       ?s_constructorTemplate@?$VectorWrapper@PE$AAVBluetoothLEManufacturerData@Advertisement@Bluetooth@Devices@Windows@@@Collections@NodeRT@@0V?$Persistent@VFunctionTemplate@v8@@V?$NonCopyablePersistentTraits@VFunctionTemplate@v8@@@2@@Nan@@A 000000018007f6f8     _nodert_generated.obj
 0003:00003708       ?s_constructorTemplate@?$VectorWrapper@VGuid@Platform@@@Collections@NodeRT@@0V?$Persistent@VFunctionTemplate@v8@@V?$NonCopyablePersistentTraits@VFunctionTemplate@v8@@@2@@Nan@@A 000000018007f708     _nodert_generated.obj
 0003:00003718       ?s_constructorTemplate@?$VectorWrapper@PE$AAVBluetoothLEAdvertisementBytePattern@Advertisement@Bluetooth@Devices@Windows@@@Collections@NodeRT@@0V?$Persistent@VFunctionTemplate@v8@@V?$NonCopyablePersistentTraits@VFunctionTemplate@v8@@@2@@Nan@@A 000000018007f718     _nodert_generated.obj
 0003:00003724       ?__typeCode@?1???0?$Box@W4BluetoothLEAdvertisementFlags@Advertisement@Bluetooth@Devices@Windows@@@Platform@@QE$AAA@W4BluetoothLEAdvertisementFlags@Advertisement@Bluetooth@Devices@Windows@@@Z@4W4TypeCode@2@A 000000018007f724     _nodert_generated.obj
 0003:00003728       ?$TSS0@?1???0?$Box@W4BluetoothLEAdvertisementFlags@Advertisement@Bluetooth@Devices@Windows@@@Platform@@QE$AAA@W4BluetoothLEAdvertisementFlags@Advertisement@Bluetooth@Devices@Windows@@@Z@4HA 000000018007f728     _nodert_generated.obj
 0003:00003730       ?s_constructorTemplate@?$IteratorWrapper@PE$AAVBluetoothLEAdvertisementBytePattern@Advertisement@Bluetooth@Devices@Windows@@@Collections@NodeRT@@0V?$Persistent@VFunctionTemplate@v8@@V?$NonCopyablePersistentTraits@VFunctionTemplate@v8@@@2@@Nan@@A 000000018007f730     _nodert_generated.obj
 0003:00003740       ?s_constructorTemplate@?$VectorViewWrapper@PE$AAVBluetoothLEAdvertisementBytePattern@Advertisement@Bluetooth@Devices@Windows@@@Collections@NodeRT@@0V?$Persistent@VFunctionTemplate@v8@@V?$NonCopyablePersistentTraits@VFunctionTemplate@v8@@@2@@Nan@@A 000000018007f740     _nodert_generated.obj
 0003:00003750       ?s_constructorTemplate@?$IteratorWrapper@VGuid@Platform@@@Collections@NodeRT@@0V?$Persistent@VFunctionTemplate@v8@@V?$NonCopyablePersistentTraits@VFunctionTemplate@v8@@@2@@Nan@@A 000000018007f750     _nodert_generated.obj
 0003:00003760       ?s_constructorTemplate@?$VectorViewWrapper@VGuid@Platform@@@Collections@NodeRT@@0V?$Persistent@VFunctionTemplate@v8@@V?$NonCopyablePersistentTraits@VFunctionTemplate@v8@@@2@@Nan@@A 000000018007f760     _nodert_generated.obj
 0003:00003770       ?s_constructorTemplate@?$IteratorWrapper@PE$AAVBluetoothLEManufacturerData@Advertisement@Bluetooth@Devices@Windows@@@Collections@NodeRT@@0V?$Persistent@VFunctionTemplate@v8@@V?$NonCopyablePersistentTraits@VFunctionTemplate@v8@@@2@@Nan@@A 000000018007f770     _nodert_generated.obj
 0003:00003780       ?s_constructorTemplate@?$IteratorWrapper@PE$AAVBluetoothLEAdvertisementDataSection@Advertisement@Bluetooth@Devices@Windows@@@Collections@NodeRT@@0V?$Persistent@VFunctionTemplate@v8@@V?$NonCopyablePersistentTraits@VFunctionTemplate@v8@@@2@@Nan@@A 000000018007f780     _nodert_generated.obj
 0003:0000378c       ?__typeCode@?1???0?$Box@VGuid@Platform@@@Platform@@QE$AAA@VGuid@2@@Z@4W4TypeCode@2@A 000000018007f78c     _nodert_generated.obj
 0003:00003790       ?$TSS0@?1???0?$Box@VGuid@Platform@@@Platform@@QE$AAA@VGuid@2@@Z@4HA 000000018007f790     _nodert_generated.obj
 0003:00003798       ?s_constructorTemplate@OpaqueWrapper@NodeRT@@0V?$Persistent@VFunctionTemplate@v8@@V?$NonCopyablePersistentTraits@VFunctionTemplate@v8@@@2@@Nan@@A 000000018007f798     OpaqueWrapper.obj
 0003:000037a8       __hmod__node_exe           000000018007f7a8     node:node.exe
 0003:000037b0       ?__abi___threading_model@@3HA 000000018007f7b0     vccorlib:init.obj
 0003:000037b4       ?bTestedRoReportUnhandledError@@3HA 000000018007f7b4     vccorlib:init.obj
 0003:000037b8       ?RoReportUnhandledErrorFunc@@3P6AJPEAUIRestrictedErrorInfo@@@ZEA 000000018007f7b8     vccorlib:init.obj
 0003:000037c0       ?__abi_module@@3PEAU__abi_Module@@EA 000000018007f7c0     vccorlib:init.obj
 0003:000037c8       ?module_@Details@Platform@@3AEAVInProcModule@12@EA 000000018007f7c8     vccorlib:init.obj
 0003:000037d8       ?moduleLock_@ModuleBase@Details@WRL@Microsoft@@0PEAXEA 000000018007f7d8     vccorlib:init.obj
 0003:000037e4       ?objectCount_@ModuleBase@Details@WRL@Microsoft@@1KC 000000018007f7e4     vccorlib:init.obj
 0003:000037e8       ?module_@ModuleBase@Details@WRL@Microsoft@@2PEAV1234@EA 000000018007f7e8     vccorlib:init.obj
 0003:000037f8       ?module@?1??Create@?$Module@$00VInProcModule@Details@Platform@@@WRL@Microsoft@@SAAEAVInProcModule@Details@Platform@@XZ@4V567@A 000000018007f7f8     vccorlib:init.obj
 0003:0000380c       ??_B?1??Create@?$Module@$00VInProcModule@Details@Platform@@@WRL@Microsoft@@SAAEAVInProcModule@Details@Platform@@XZ@51 000000018007f80c     vccorlib:init.obj
 0003:00003810       __scrt_current_native_startup_state 000000018007f810     MSVCRT:utility.obj
 0003:00003818       __scrt_native_startup_lock 000000018007f818     MSVCRT:utility.obj
 0003:000038b8       _tls_index                 000000018007f8b8     MSVCRT:tlssup.obj
 0003:000038c0       __favor                    000000018007f8c0     MSVCRT:_cpu_disp_.obj
 0003:000038c4       __scrt_debugger_hook_flag  000000018007f8c4     MSVCRT:utility_desktop.obj
 0003:00003f60       ?__type_info_root_node@@3U__type_info_node@@A 000000018007ff60     MSVCRT:tncleanup.obj
 0003:00003f78       ?_OptionsStorage@?1??__local_stdio_printf_options@@9@4_KA 000000018007ff78     MSVCRT:default_local_stdio_options.obj
 0003:00003f88       ?_OptionsStorage@?1??__local_stdio_scanf_options@@9@4_KA 000000018007ff88     MSVCRT:default_local_stdio_options.obj
 0003:00003f98       ?DloadKernel32@@3PEAUHINSTANCE__@@EA 000000018007ff98     DelayImp:delayhlp.obj
 0003:00003fa0       ?DloadAcquireSRWLockExclusive@@3P6AXPEA_K@ZEA 000000018007ffa0     DelayImp:delayhlp.obj
 0003:00003fa8       ?DloadReleaseSRWLockExclusive@@3P6AXPEA_K@ZEA 000000018007ffa8     DelayImp:delayhlp.obj
 0003:00003fb0       ?DloadSrwLock@@3_KA        000000018007ffb0     DelayImp:delayhlp.obj
 0003:00003fb8       ?DloadSectionLockCount@@3KA 000000018007ffb8     DelayImp:delayhlp.obj
 0003:00003fbc       ?DloadSectionOldProtection@@3KA 000000018007ffbc     DelayImp:delayhlp.obj
 0003:00003fc0       ?DloadSectionCommitPermanent@@3KA 000000018007ffc0     DelayImp:delayhlp.obj
 0003:00003fd0       __dyn_tls_init_callback    000000018007ffd0     <common>
 0005:00000000       __imp_GetModuleHandleA     0000000180085000     kernel32:KERNEL32.dll
 0005:00000008       __imp_FreeLibrary          0000000180085008     kernel32:KERNEL32.dll
 0005:00000010       __imp_VirtualQuery         0000000180085010     kernel32:KERNEL32.dll
 0005:00000018       __imp_VirtualProtect       0000000180085018     kernel32:KERNEL32.dll
 0005:00000020       __imp_GetSystemInfo        0000000180085020     kernel32:KERNEL32.dll
 0005:00000028       __imp_GetLastError         0000000180085028     kernel32:KERNEL32.dll
 0005:00000030       __imp_RaiseException       0000000180085030     kernel32:KERNEL32.dll
 0005:00000038       __imp_InitializeSListHead  0000000180085038     kernel32:KERNEL32.dll
 0005:00000040       __imp_DisableThreadLibraryCalls 0000000180085040     kernel32:KERNEL32.dll
 0005:00000048       __imp_GetSystemTimeAsFileTime 0000000180085048     kernel32:KERNEL32.dll
 0005:00000050       __imp_GetCurrentThreadId   0000000180085050     kernel32:KERNEL32.dll
 0005:00000058       __imp_GetCurrentProcessId  0000000180085058     kernel32:KERNEL32.dll
 0005:00000060       __imp_QueryPerformanceCounter 0000000180085060     kernel32:KERNEL32.dll
 0005:00000068       __imp_TerminateProcess     0000000180085068     kernel32:KERNEL32.dll
 0005:00000070       __imp_GetCurrentProcess    0000000180085070     kernel32:KERNEL32.dll
 0005:00000078       __imp_IsProcessorFeaturePresent 0000000180085078     kernel32:KERNEL32.dll
 0005:00000080       __imp_GetStartupInfoW      0000000180085080     kernel32:KERNEL32.dll
 0005:00000088       __imp_SetUnhandledExceptionFilter 0000000180085088     kernel32:KERNEL32.dll
 0005:00000090       __imp_UnhandledExceptionFilter 0000000180085090     kernel32:KERNEL32.dll
 0005:00000098       __imp_IsDebuggerPresent    0000000180085098     kernel32:KERNEL32.dll
 0005:000000a0       __imp_RtlVirtualUnwind     00000001800850a0     kernel32:KERNEL32.dll
 0005:000000a8       __imp_RtlLookupFunctionEntry 00000001800850a8     kernel32:KERNEL32.dll
 0005:000000b0       __imp_RtlCaptureContext    00000001800850b0     kernel32:KERNEL32.dll
 0005:000000b8       __imp_GetModuleHandleW     00000001800850b8     kernel32:KERNEL32.dll
 0005:000000c0       __imp_CreateEventW         00000001800850c0     kernel32:KERNEL32.dll
 0005:000000c8       __imp_WaitForSingleObjectEx 00000001800850c8     kernel32:KERNEL32.dll
 0005:000000d0       __imp_ResetEvent           00000001800850d0     kernel32:KERNEL32.dll
 0005:000000d8       __imp_SetEvent             00000001800850d8     kernel32:KERNEL32.dll
 0005:000000e0       __imp_DeleteCriticalSection 00000001800850e0     kernel32:KERNEL32.dll
 0005:000000e8       __imp_LeaveCriticalSection 00000001800850e8     kernel32:KERNEL32.dll
 0005:000000f0       __imp_EnterCriticalSection 00000001800850f0     kernel32:KERNEL32.dll
 0005:000000f8       __imp_CloseHandle          00000001800850f8     kernel32:KERNEL32.dll
 0005:00000100       __imp_LoadLibraryExW       0000000180085100     kernel32:KERNEL32.dll
 0005:00000108       __imp_GetProcAddress       0000000180085108     kernel32:KERNEL32.dll
 0005:00000110       __imp_AcquireSRWLockExclusive 0000000180085110     kernel32:KERNEL32.dll
 0005:00000118       __imp_ReleaseSRWLockExclusive 0000000180085118     kernel32:KERNEL32.dll
 0005:00000120       __imp_DecodePointer        0000000180085120     kernel32:KERNEL32.dll
 0005:00000128       __imp_LoadLibraryExA       0000000180085128     kernel32:KERNEL32.dll
 0005:00000130       \177KERNEL32_NULL_THUNK_DATA 0000000180085130     kernel32:KERNEL32.dll
 0005:000001c0       __imp_?_Xbad_alloc@std@@YAXXZ 00000001800851c0     msvcprt:MSVCP140.dll
 0005:000001c8       __imp_?_Xout_of_range@std@@YAXPEBD@Z 00000001800851c8     msvcprt:MSVCP140.dll
 0005:000001d0       __imp_?_Xlength_error@std@@YAXPEBD@Z 00000001800851d0     msvcprt:MSVCP140.dll
 0005:000001d8       __imp_?_Xbad_function_call@std@@YAXXZ 00000001800851d8     msvcprt:MSVCP140.dll
 0005:000001e0       \177MSVCP140_NULL_THUNK_DATA 00000001800851e0     msvcprt:MSVCP140.dll
 0005:00000238       __imp__CxxThrowException   0000000180085238     vcruntime:VCRUNTIME140.dll
 0005:00000240       __imp___std_exception_copy 0000000180085240     vcruntime:VCRUNTIME140.dll
 0005:00000248       __imp___std_type_info_destroy_list 0000000180085248     vcruntime:VCRUNTIME140.dll
 0005:00000250       __imp___C_specific_handler 0000000180085250     vcruntime:VCRUNTIME140.dll
 0005:00000258       __imp_memset               0000000180085258     vcruntime:VCRUNTIME140.dll
 0005:00000260       __imp___std_exception_destroy 0000000180085260     vcruntime:VCRUNTIME140.dll
 0005:00000268       __imp___CxxFrameHandler3   0000000180085268     vcruntime:VCRUNTIME140.dll
 0005:00000270       __imp_memmove              0000000180085270     vcruntime:VCRUNTIME140.dll
 0005:00000278       __imp___vcrt_InitializeCriticalSectionEx 0000000180085278     vcruntime:VCRUNTIME140.dll
 0005:00000280       __imp__purecall            0000000180085280     vcruntime:VCRUNTIME140.dll
 0005:00000288       __imp___std_terminate      0000000180085288     vcruntime:VCRUNTIME140.dll
 0005:00000290       __imp___std_type_info_compare 0000000180085290     vcruntime:VCRUNTIME140.dll
 0005:00000298       __imp_memcpy               0000000180085298     vcruntime:VCRUNTIME140.dll
 0005:000002a0       \177VCRUNTIME140_NULL_THUNK_DATA 00000001800852a0     vcruntime:VCRUNTIME140.dll
 0005:00000308       __imp_RoFailFastWithErrorContext 0000000180085308     runtimeobject:api-ms-win-core-winrt-error-l1-1-0.dll
 0005:00000310       __imp_SetRestrictedErrorInfo 0000000180085310     runtimeobject:api-ms-win-core-winrt-error-l1-1-0.dll
 0005:00000318       \177api-ms-win-core-winrt-error-l1-1-0_NULL_THUNK_DATA 0000000180085318     runtimeobject:api-ms-win-core-winrt-error-l1-1-0.dll
 0005:00000370       __imp_WindowsCreateString  0000000180085370     runtimeobject:api-ms-win-core-winrt-string-l1-1-0.dll
 0005:00000378       __imp_WindowsDeleteString  0000000180085378     runtimeobject:api-ms-win-core-winrt-string-l1-1-0.dll
 0005:00000380       __imp_WindowsDuplicateString 0000000180085380     runtimeobject:api-ms-win-core-winrt-string-l1-1-0.dll
 0005:00000388       __imp_WindowsGetStringRawBuffer 0000000180085388     runtimeobject:api-ms-win-core-winrt-string-l1-1-0.dll
 0005:00000390       __imp_WindowsCreateStringReference 0000000180085390     runtimeobject:api-ms-win-core-winrt-string-l1-1-0.dll
 0005:00000398       __imp_WindowsGetStringLen  0000000180085398     runtimeobject:api-ms-win-core-winrt-string-l1-1-0.dll
 0005:000003a0       __imp_WindowsCompareStringOrdinal 00000001800853a0     runtimeobject:api-ms-win-core-winrt-string-l1-1-0.dll
 0005:000003a8       \177api-ms-win-core-winrt-string-l1-1-0_NULL_THUNK_DATA 00000001800853a8     runtimeobject:api-ms-win-core-winrt-string-l1-1-0.dll
 0005:00000408       __imp_free                 0000000180085408     ucrt:api-ms-win-crt-heap-l1-1-0.dll
 0005:00000410       __imp_malloc               0000000180085410     ucrt:api-ms-win-crt-heap-l1-1-0.dll
 0005:00000418       __imp__callnewh            0000000180085418     ucrt:api-ms-win-crt-heap-l1-1-0.dll
 0005:00000420       \177api-ms-win-crt-heap-l1-1-0_NULL_THUNK_DATA 0000000180085420     ucrt:api-ms-win-crt-heap-l1-1-0.dll
 0005:00000478       __imp__crt_atexit          0000000180085478     ucrt:api-ms-win-crt-runtime-l1-1-0.dll
 0005:00000480       __imp__wassert             0000000180085480     ucrt:api-ms-win-crt-runtime-l1-1-0.dll
 0005:00000488       __imp__invalid_parameter_noinfo_noreturn 0000000180085488     ucrt:api-ms-win-crt-runtime-l1-1-0.dll
 0005:00000490       __imp__configure_narrow_argv 0000000180085490     ucrt:api-ms-win-crt-runtime-l1-1-0.dll
 0005:00000498       __imp__initialize_narrow_environment 0000000180085498     ucrt:api-ms-win-crt-runtime-l1-1-0.dll
 0005:000004a0       __imp__initialize_onexit_table 00000001800854a0     ucrt:api-ms-win-crt-runtime-l1-1-0.dll
 0005:000004a8       __imp__register_onexit_function 00000001800854a8     ucrt:api-ms-win-crt-runtime-l1-1-0.dll
 0005:000004b0       __imp__execute_onexit_table 00000001800854b0     ucrt:api-ms-win-crt-runtime-l1-1-0.dll
 0005:000004b8       __imp__seh_filter_dll      00000001800854b8     ucrt:api-ms-win-crt-runtime-l1-1-0.dll
 0005:000004c0       __imp__crt_at_quick_exit   00000001800854c0     ucrt:api-ms-win-crt-runtime-l1-1-0.dll
 0005:000004c8       __imp__cexit               00000001800854c8     ucrt:api-ms-win-crt-runtime-l1-1-0.dll
 0005:000004d0       __imp__initterm            00000001800854d0     ucrt:api-ms-win-crt-runtime-l1-1-0.dll
 0005:000004d8       __imp__initterm_e          00000001800854d8     ucrt:api-ms-win-crt-runtime-l1-1-0.dll
 0005:000004e0       __imp_terminate            00000001800854e0     ucrt:api-ms-win-crt-runtime-l1-1-0.dll
 0005:000004e8       \177api-ms-win-crt-runtime-l1-1-0_NULL_THUNK_DATA 00000001800854e8     ucrt:api-ms-win-crt-runtime-l1-1-0.dll
 0005:00000550       __imp__wcsnicmp            0000000180085550     ucrt:api-ms-win-crt-string-l1-1-0.dll
 0005:00000558       __imp_wcslen               0000000180085558     ucrt:api-ms-win-crt-string-l1-1-0.dll
 0005:00000560       __imp__stricmp             0000000180085560     ucrt:api-ms-win-crt-string-l1-1-0.dll
 0005:00000568       \177api-ms-win-crt-string-l1-1-0_NULL_THUNK_DATA 0000000180085568     ucrt:api-ms-win-crt-string-l1-1-0.dll
 0005:000005c0       __imp_CoInitializeEx       00000001800855c0     ole32:ole32.dll
 0005:000005c8       __imp_CLSIDFromString      00000001800855c8     ole32:ole32.dll
 0005:000005d0       __imp_CoTaskMemFree        00000001800855d0     ole32:ole32.dll
 0005:000005d8       __imp_CoTaskMemAlloc       00000001800855d8     ole32:ole32.dll
 0005:000005e0       __imp_CoCreateFreeThreadedMarshaler 00000001800855e0     ole32:ole32.dll
 0005:000005e8       __imp_StringFromCLSID      00000001800855e8     ole32:ole32.dll
 0005:000005f0       \177ole32_NULL_THUNK_DATA  00000001800855f0     ole32:ole32.dll
 0005:00000650       __imp_?AlignedFree@Heap@Details@Platform@@SAXPEAX@Z 0000000180085650     vccorlib:vccorlib140.DLL
 0005:00000658       __imp_?Free@Heap@Details@Platform@@SAXPEAX@Z 0000000180085658     vccorlib:vccorlib140.DLL
 0005:00000660       __imp_?Allocate@Heap@Details@Platform@@SAPEAX_K0@Z 0000000180085660     vccorlib:vccorlib140.DLL
 0005:00000668       __imp_?Allocate@Heap@Details@Platform@@SAPEAX_K@Z 0000000180085668     vccorlib:vccorlib140.DLL
 0005:00000670       __imp_?ReleaseTarget@ControlBlock@Details@Platform@@AEAAXXZ 0000000180085670     vccorlib:vccorlib140.DLL
 0005:00000678       __imp_?__abi_WinRTraiseCOMException@@YAXJ@Z 0000000180085678     vccorlib:vccorlib140.DLL
 0005:00000680       __imp_?__abi_WinRTraiseObjectDisposedException@@YAXXZ 0000000180085680     vccorlib:vccorlib140.DLL
 0005:00000688       __imp_?__abi_WinRTraiseDisconnectedException@@YAXXZ 0000000180085688     vccorlib:vccorlib140.DLL
 0005:00000690       __imp_?__abi_WinRTraiseWrongThreadException@@YAXXZ 0000000180085690     vccorlib:vccorlib140.DLL
 0005:00000698       __imp_?__abi_WinRTraiseClassNotRegisteredException@@YAXXZ 0000000180085698     vccorlib:vccorlib140.DLL
 0005:000006a0       __imp_?__abi_WinRTraiseChangedStateException@@YAXXZ 00000001800856a0     vccorlib:vccorlib140.DLL
 0005:000006a8       __imp_?__abi_WinRTraiseOutOfBoundsException@@YAXXZ 00000001800856a8     vccorlib:vccorlib140.DLL
 0005:000006b0       __imp_?__abi_WinRTraiseInvalidArgumentException@@YAXXZ 00000001800856b0     vccorlib:vccorlib140.DLL
 0005:000006b8       __imp_?__abi_WinRTraiseOutOfMemoryException@@YAXXZ 00000001800856b8     vccorlib:vccorlib140.DLL
 0005:000006c0       __imp_?__abi_WinRTraiseAccessDeniedException@@YAXXZ 00000001800856c0     vccorlib:vccorlib140.DLL
 0005:000006c8       __imp_?__abi_WinRTraiseFailureException@@YAXXZ 00000001800856c8     vccorlib:vccorlib140.DLL
 0005:000006d0       __imp_?AllocateException@Heap@Details@Platform@@SAPEAX_K0@Z 00000001800856d0     vccorlib:vccorlib140.DLL
 0005:000006d8       __imp_?__abi_WinRTraiseNullReferenceException@@YAXXZ 00000001800856d8     vccorlib:vccorlib140.DLL
 0005:000006e0       __imp_?__abi_WinRTraiseInvalidCastException@@YAXXZ 00000001800856e0     vccorlib:vccorlib140.DLL
 0005:000006e8       __imp_?__abi_WinRTraiseNotImplementedException@@YAXXZ 00000001800856e8     vccorlib:vccorlib140.DLL
 0005:000006f0       __imp_??0Object@Platform@@QE$AAA@XZ 00000001800856f0     vccorlib:vccorlib140.DLL
 0005:000006f8       __imp_?__abi_ObjectToString@__abi_details@@YAPE$AAVString@Platform@@PE$AAVObject@3@_N@Z 00000001800856f8     vccorlib:vccorlib140.DLL
 0005:00000700       __imp_?__abi_make_type_id@@YAPE$AAVType@Platform@@AEBU__abi_type_descriptor@@@Z 0000000180085700     vccorlib:vccorlib140.DLL
 0005:00000708       __imp_?CreateValue@Details@Platform@@YAPE$AAVObject@2@W4TypeCode@2@PEBX@Z 0000000180085708     vccorlib:vccorlib140.DLL
 0005:00000710       __imp_?get@FullName@Type@Platform@@QE$AAAPE$AAVString@3@XZ 0000000180085710     vccorlib:vccorlib140.DLL
 0005:00000718       __imp_?GetTypeCode@Type@Platform@@SA?AW4TypeCode@2@PE$AAV12@@Z 0000000180085718     vccorlib:vccorlib140.DLL
 0005:00000720       __imp_?FlushFactoryCache@@YAXXZ 0000000180085720     vccorlib:vccorlib140.DLL
 0005:00000728       __imp_?GetActivationFactoryByPCWSTR@@YAJPEAXAEAVGuid@Platform@@PEAPEAX@Z 0000000180085728     vccorlib:vccorlib140.DLL
 0005:00000730       __imp_?GetIidsFn@@YAJHPEAKPEBU__s_GUID@@PEAPEAVGuid@Platform@@@Z 0000000180085730     vccorlib:vccorlib140.DLL
 0005:00000738       __imp_?UninitializeData@Details@Platform@@YAXH@Z 0000000180085738     vccorlib:vccorlib140.DLL
 0005:00000740       __imp_?InitializeData@Details@Platform@@YAJH@Z 0000000180085740     vccorlib:vccorlib140.DLL
 0005:00000748       __imp_?get@Bottom@Rect@Foundation@Windows@@QEAAMXZ 0000000180085748     vccorlib:vccorlib140.DLL
 0005:00000750       __imp_?get@Right@Rect@Foundation@Windows@@QEAAMXZ 0000000180085750     vccorlib:vccorlib140.DLL
 0005:00000758       __imp_?get@Empty@Rect@Foundation@Windows@@SA?AV234@XZ 0000000180085758     vccorlib:vccorlib140.DLL
 0005:00000760       __imp_?__abi_translateCurrentException@@YAJ_N@Z 0000000180085760     vccorlib:vccorlib140.DLL
 0005:00000768       __imp_?GetIBoxArrayVtable@Details@Platform@@YAPEAXPEAX@Z 0000000180085768     vccorlib:vccorlib140.DLL
 0005:00000770       __imp_?GetIBoxVtable@Details@Platform@@YAPEAXPEAX@Z 0000000180085770     vccorlib:vccorlib140.DLL
 0005:00000778       __imp_??0Delegate@Platform@@QE$AAA@XZ 0000000180085778     vccorlib:vccorlib140.DLL
 0005:00000780       __imp_?__abi_WinRTraiseOperationCanceledException@@YAXXZ 0000000180085780     vccorlib:vccorlib140.DLL
 0005:00000788       __imp_??0NullReferenceException@Platform@@QE$AAA@XZ 0000000180085788     vccorlib:vccorlib140.DLL
 0005:00000790       __imp_?get@Message@Exception@Platform@@QE$AAAPE$AAVString@3@XZ 0000000180085790     vccorlib:vccorlib140.DLL
 0005:00000798       \177vccorlib140_NULL_THUNK_DATA 0000000180085798     vccorlib:vccorlib140.DLL
 0005:00000830       __IMPORT_DESCRIPTOR_KERNEL32 0000000180085830     kernel32:KERNEL32.dll
 0005:00000844       __IMPORT_DESCRIPTOR_ole32  0000000180085844     ole32:ole32.dll
 0005:00000858       __IMPORT_DESCRIPTOR_vccorlib140 0000000180085858     vccorlib:vccorlib140.DLL
 0005:0000086c       __IMPORT_DESCRIPTOR_MSVCP140 000000018008586c     msvcprt:MSVCP140.dll
 0005:00000880       __IMPORT_DESCRIPTOR_VCRUNTIME140 0000000180085880     vcruntime:VCRUNTIME140.dll
 0005:00000894       __IMPORT_DESCRIPTOR_api-ms-win-crt-runtime-l1-1-0 0000000180085894     ucrt:api-ms-win-crt-runtime-l1-1-0.dll
 0005:000008a8       __IMPORT_DESCRIPTOR_api-ms-win-crt-string-l1-1-0 00000001800858a8     ucrt:api-ms-win-crt-string-l1-1-0.dll
 0005:000008bc       __IMPORT_DESCRIPTOR_api-ms-win-crt-heap-l1-1-0 00000001800858bc     ucrt:api-ms-win-crt-heap-l1-1-0.dll
 0005:000008d0       __IMPORT_DESCRIPTOR_api-ms-win-core-winrt-error-l1-1-0 00000001800858d0     runtimeobject:api-ms-win-core-winrt-error-l1-1-0.dll
 0005:000008e4       __IMPORT_DESCRIPTOR_api-ms-win-core-winrt-string-l1-1-0 00000001800858e4     runtimeobject:api-ms-win-core-winrt-string-l1-1-0.dll
 0005:000008f8       __NULL_IMPORT_DESCRIPTOR   00000001800858f8     kernel32:KERNEL32.dll
 0006:00000000       __DELAY_IMPORT_DESCRIPTOR_node_exe 0000000180088000     node:node.exe
 0006:00000020       __NULL_DELAY_IMPORT_DESCRIPTOR 0000000180088020     node:node.exe
 0006:000002d8       \177node_NULL_THUNK_DATA_DLN 00000001800882d8     node:node.exe
 0006:000003b0       __imp_??0HandleScope@v8@@QEAA@PEAVIsolate@1@@Z 00000001800883b0     node:node.exe
 0006:000003b8       __imp_??1HandleScope@v8@@QEAA@XZ 00000001800883b8     node:node.exe
 0006:000003c0       __imp_?CreateHandle@HandleScope@v8@@KAPEAPEAVObject@internal@2@PEAVIsolate@42@PEAV342@@Z 00000001800883c0     node:node.exe
 0006:000003c8       __imp_?CreateHandle@HandleScope@v8@@CAPEAPEAVObject@internal@2@PEAVNeverReadOnlySpaceObject@42@PEAV342@@Z 00000001800883c8     node:node.exe
 0006:000003d0       __imp_??0EscapableHandleScope@v8@@QEAA@PEAVIsolate@1@@Z 00000001800883d0     node:node.exe
 0006:000003d8       __imp_??1EscapableHandleScope@v8@@QEAA@XZ 00000001800883d8     node:node.exe
 0006:000003e0       __imp_?Escape@EscapableHandleScope@v8@@AEAAPEAPEAVObject@internal@2@PEAPEAV342@@Z 00000001800883e0     node:node.exe
 0006:000003e8       __imp_?IsFunction@Value@v8@@QEBA_NXZ 00000001800883e8     node:node.exe
 0006:000003f0       __imp_?IsObject@Value@v8@@QEBA_NXZ 00000001800883f0     node:node.exe
 0006:000003f8       __imp_?IsBoolean@Value@v8@@QEBA_NXZ 00000001800883f8     node:node.exe
 0006:00000400       __imp_?IsInt32@Value@v8@@QEBA_NXZ 0000000180088400     node:node.exe
 0006:00000408       __imp_?IsUint32@Value@v8@@QEBA_NXZ 0000000180088408     node:node.exe
 0006:00000410       __imp_?ToString@Value@v8@@QEBA?AV?$MaybeLocal@VString@v8@@@2@V?$Local@VContext@v8@@@2@@Z 0000000180088410     node:node.exe
 0006:00000418       __imp_?ToObject@Value@v8@@QEBA?AV?$MaybeLocal@VObject@v8@@@2@V?$Local@VContext@v8@@@2@@Z 0000000180088418     node:node.exe
 0006:00000420       __imp_?ToInteger@Value@v8@@QEBA?AV?$MaybeLocal@VInteger@v8@@@2@V?$Local@VContext@v8@@@2@@Z 0000000180088420     node:node.exe
 0006:00000428       __imp_?Int32Value@Value@v8@@QEBA?AV?$Maybe@H@2@V?$Local@VContext@v8@@@2@@Z 0000000180088428     node:node.exe
 0006:00000430       __imp_?Uint32Value@Value@v8@@QEBAIXZ 0000000180088430     node:node.exe
 0006:00000438       __imp_?Equals@Value@v8@@QEBA_NV?$Local@VValue@v8@@@2@@Z 0000000180088438     node:node.exe
 0006:00000440       __imp_?Equals@Value@v8@@QEBA?AV?$Maybe@_N@2@V?$Local@VContext@v8@@@2@V?$Local@VValue@v8@@@2@@Z 0000000180088440     node:node.exe
 0006:00000448       __imp_?NewFromUtf8@String@v8@@SA?AV?$MaybeLocal@VString@v8@@@2@PEAVIsolate@2@PEBDW4NewStringType@2@H@Z 0000000180088448     node:node.exe
 0006:00000450       __imp_?Concat@String@v8@@SA?AV?$Local@VString@v8@@@2@V32@0@Z 0000000180088450     node:node.exe
 0006:00000458       __imp_??0Value@String@v8@@QEAA@V?$Local@VValue@v8@@@2@@Z 0000000180088458     node:node.exe
 0006:00000460       __imp_??1Value@String@v8@@QEAA@XZ 0000000180088460     node:node.exe
 0006:00000468       __imp_?New@Number@v8@@SA?AV?$Local@VNumber@v8@@@2@PEAVIsolate@2@N@Z 0000000180088468     node:node.exe
 0006:00000470       __imp_?New@Integer@v8@@SA?AV?$Local@VInteger@v8@@@2@PEAVIsolate@2@H@Z 0000000180088470     node:node.exe
 0006:00000478       __imp_?NewFromUnsigned@Integer@v8@@SA?AV?$Local@VInteger@v8@@@2@PEAVIsolate@2@I@Z 0000000180088478     node:node.exe
 0006:00000480       __imp_?Set@Object@v8@@QEAA?AV?$Maybe@_N@2@V?$Local@VContext@v8@@@2@V?$Local@VValue@v8@@@2@1@Z 0000000180088480     node:node.exe
 0006:00000488       __imp_?Get@Object@v8@@QEAA?AV?$MaybeLocal@VValue@v8@@@2@V?$Local@VContext@v8@@@2@V?$Local@VValue@v8@@@2@@Z 0000000180088488     node:node.exe
 0006:00000490       __imp_?Delete@Object@v8@@QEAA?AV?$Maybe@_N@2@V?$Local@VContext@v8@@@2@V?$Local@VValue@v8@@@2@@Z 0000000180088490     node:node.exe
 0006:00000498       __imp_?SetAccessor@Object@v8@@QEAA?AV?$Maybe@_N@2@V?$Local@VContext@v8@@@2@V?$Local@VName@v8@@@2@P6AX1AEBV?$PropertyCallbackInfo@VValue@v8@@@2@@ZP6AX1V?$Local@VValue@v8@@@2@AEBV?$PropertyCallbackInfo@X@2@@ZV?$MaybeLocal@VValue@v8@@@2@W4AccessControl@2@W4PropertyAttribute@2@W4SideEffectType@2@@Z 0000000180088498     node:node.exe
 0006:000004a0       __imp_?InternalFieldCount@Object@v8@@QEAAHXZ 00000001800884a0     node:node.exe
 0006:000004a8       __imp_?SetInternalField@Object@v8@@QEAAXHV?$Local@VValue@v8@@@2@@Z 00000001800884a8     node:node.exe
 0006:000004b0       __imp_?SetAlignedPointerInInternalField@Object@v8@@QEAAXHPEAX@Z 00000001800884b0     node:node.exe
 0006:000004b8       __imp_?New@Object@v8@@SA?AV?$Local@VObject@v8@@@2@PEAVIsolate@2@@Z 00000001800884b8     node:node.exe
 0006:000004c0       __imp_?SlowGetInternalField@Object@v8@@AEAA?AV?$Local@VValue@v8@@@2@H@Z 00000001800884c0     node:node.exe
 0006:000004c8       __imp_?SlowGetAlignedPointerFromInternalField@Object@v8@@AEAAPEAXH@Z 00000001800884c8     node:node.exe
 0006:000004d0       __imp_?NewInstance@Function@v8@@QEBA?AV?$MaybeLocal@VObject@v8@@@2@V?$Local@VContext@v8@@@2@HQEAV?$Local@VValue@v8@@@2@@Z 00000001800884d0     node:node.exe
 0006:000004d8       __imp_?New@External@v8@@SA?AV?$Local@VExternal@v8@@@2@PEAVIsolate@2@PEAX@Z 00000001800884d8     node:node.exe
 0006:000004e0       __imp_?Value@External@v8@@QEBAPEAXXZ 00000001800884e0     node:node.exe
 0006:000004e8       __imp_?Set@Template@v8@@QEAAXV?$Local@VName@v8@@@2@V?$Local@VData@v8@@@2@W4PropertyAttribute@2@@Z 00000001800884e8     node:node.exe
 0006:000004f0       __imp_?New@FunctionTemplate@v8@@SA?AV?$Local@VFunctionTemplate@v8@@@2@PEAVIsolate@2@P6AXAEBV?$FunctionCallbackInfo@VValue@v8@@@2@@ZV?$Local@VValue@v8@@@2@V?$Local@VSignature@v8@@@2@HW4ConstructorBehavior@2@W4SideEffectType@2@@Z 00000001800884f0     node:node.exe
 0006:000004f8       __imp_?GetFunction@FunctionTemplate@v8@@QEAA?AV?$MaybeLocal@VFunction@v8@@@2@V?$Local@VContext@v8@@@2@@Z 00000001800884f8     node:node.exe
 0006:00000500       __imp_?InstanceTemplate@FunctionTemplate@v8@@QEAA?AV?$Local@VObjectTemplate@v8@@@2@XZ 0000000180088500     node:node.exe
 0006:00000508       __imp_?PrototypeTemplate@FunctionTemplate@v8@@QEAA?AV?$Local@VObjectTemplate@v8@@@2@XZ 0000000180088508     node:node.exe
 0006:00000510       __imp_?SetClassName@FunctionTemplate@v8@@QEAAXV?$Local@VString@v8@@@2@@Z 0000000180088510     node:node.exe
 0006:00000518       __imp_?HasInstance@FunctionTemplate@v8@@QEAA_NV?$Local@VValue@v8@@@2@@Z 0000000180088518     node:node.exe
 0006:00000520       __imp_?New@ObjectTemplate@v8@@SA?AV?$Local@VObjectTemplate@v8@@@2@PEAVIsolate@2@V?$Local@VFunctionTemplate@v8@@@2@@Z 0000000180088520     node:node.exe
 0006:00000528       __imp_?NewInstance@ObjectTemplate@v8@@QEAA?AV?$MaybeLocal@VObject@v8@@@2@V?$Local@VContext@v8@@@2@@Z 0000000180088528     node:node.exe
 0006:00000530       __imp_?SetAccessor@ObjectTemplate@v8@@QEAAXV?$Local@VName@v8@@@2@P6AX0AEBV?$PropertyCallbackInfo@VValue@v8@@@2@@ZP6AX0V?$Local@VValue@v8@@@2@AEBV?$PropertyCallbackInfo@X@2@@Z3W4AccessControl@2@W4PropertyAttribute@2@V?$Local@VAccessorSignature@v8@@@2@W4SideEffectType@2@@Z 0000000180088530     node:node.exe
 0006:00000538       __imp_?SetHandler@ObjectTemplate@v8@@QEAAXAEBUIndexedPropertyHandlerConfiguration@2@@Z 0000000180088538     node:node.exe
 0006:00000540       __imp_?SetInternalFieldCount@ObjectTemplate@v8@@QEAAXH@Z 0000000180088540     node:node.exe
 0006:00000548       __imp_?New@Signature@v8@@SA?AV?$Local@VSignature@v8@@@2@PEAVIsolate@2@V?$Local@VFunctionTemplate@v8@@@2@@Z 0000000180088548     node:node.exe
 0006:00000550       __imp_?Error@Exception@v8@@SA?AV?$Local@VValue@v8@@@2@V?$Local@VString@v8@@@2@@Z 0000000180088550     node:node.exe
 0006:00000558       __imp_?GetCurrent@Isolate@v8@@SAPEAV12@XZ 0000000180088558     node:node.exe
 0006:00000560       __imp_?GetCurrentContext@Isolate@v8@@QEAA?AV?$Local@VContext@v8@@@2@XZ 0000000180088560     node:node.exe
 0006:00000568       __imp_?ThrowException@Isolate@v8@@QEAA?AV?$Local@VValue@v8@@@2@V32@@Z 0000000180088568     node:node.exe
 0006:00000570       __imp_?GlobalizeReference@V8@v8@@CAPEAPEAVObject@internal@2@PEAVIsolate@42@PEAPEAV342@@Z 0000000180088570     node:node.exe
 0006:00000578       __imp_?DisposeGlobal@V8@v8@@CAXPEAPEAVObject@internal@2@@Z 0000000180088578     node:node.exe
 0006:00000580       __imp_?MakeWeak@V8@v8@@CAXPEAPEAVObject@internal@2@PEAXP6AXAEBV?$WeakCallbackInfo@X@2@@ZW4WeakCallbackType@2@@Z 0000000180088580     node:node.exe
 0006:00000588       __imp_?ClearWeak@V8@v8@@CAPEAXPEAPEAVObject@internal@2@@Z 0000000180088588     node:node.exe
 0006:00000590       __imp_?ToLocalEmpty@V8@v8@@CAXXZ 0000000180088590     node:node.exe
 0006:00000598       __imp_??0TryCatch@v8@@QEAA@PEAVIsolate@1@@Z 0000000180088598     node:node.exe
 0006:000005a0       __imp_??1TryCatch@v8@@QEAA@XZ 00000001800885a0     node:node.exe
 0006:000005a8       __imp_uv_default_loop      00000001800885a8     node:node.exe
 0006:000005b0       __imp_uv_close             00000001800885b0     node:node.exe
 0006:000005b8       __imp_uv_async_init        00000001800885b8     node:node.exe
 0006:000005c0       __imp_uv_async_send        00000001800885c0     node:node.exe
 0006:000005c8       __imp_node_module_register 00000001800885c8     node:node.exe
 0006:000005d0       __imp_?IsTrue@Value@v8@@QEBA_NXZ 00000001800885d0     node:node.exe
 0006:000005d8       __imp_?IsName@Value@v8@@QEBA_NXZ 00000001800885d8     node:node.exe
 0006:000005e0       __imp_?IsDate@Value@v8@@QEBA_NXZ 00000001800885e0     node:node.exe
 0006:000005e8       __imp_?NumberValue@Value@v8@@QEBA?AV?$Maybe@N@2@V?$Local@VContext@v8@@@2@@Z 00000001800885e8     node:node.exe
 0006:000005f0       __imp_?Uint32Value@Value@v8@@QEBA?AV?$Maybe@I@2@V?$Local@VContext@v8@@@2@@Z 00000001800885f0     node:node.exe
 0006:000005f8       __imp_?IntegerValue@Value@v8@@QEBA_JXZ 00000001800885f8     node:node.exe
 0006:00000600       __imp_?Length@String@v8@@QEBAHXZ 0000000180088600     node:node.exe
 0006:00000608       __imp_?NewFromTwoByte@String@v8@@SA?AV?$MaybeLocal@VString@v8@@@2@PEAVIsolate@2@PEBGW4NewStringType@2@H@Z 0000000180088608     node:node.exe
 0006:00000610       __imp_?DefineOwnProperty@Object@v8@@QEAA?AV?$Maybe@_N@2@V?$Local@VContext@v8@@@2@V?$Local@VName@v8@@@2@V?$Local@VValue@v8@@@2@W4PropertyAttribute@2@@Z 0000000180088610     node:node.exe
 0006:00000618       __imp_?Has@Object@v8@@QEAA?AV?$Maybe@_N@2@V?$Local@VContext@v8@@@2@V?$Local@VValue@v8@@@2@@Z 0000000180088618     node:node.exe
 0006:00000620       __imp_?New@Date@v8@@SA?AV?$MaybeLocal@VValue@v8@@@2@V?$Local@VContext@v8@@@2@N@Z 0000000180088620     node:node.exe
 0006:00000628       __imp_?Global@Context@v8@@QEAA?AV?$Local@VObject@v8@@@2@XZ 0000000180088628     node:node.exe
 0006:00000630       __imp_?EmitAsyncInit@node@@YA?AUasync_context@1@PEAVIsolate@v8@@V?$Local@VObject@v8@@@4@V?$Local@VString@v8@@@4@N@Z 0000000180088630     node:node.exe
 0006:00000638       __imp_?EmitAsyncDestroy@node@@YAXPEAVIsolate@v8@@Uasync_context@1@@Z 0000000180088638     node:node.exe
 0006:00000640       __imp_?MakeCallback@node@@YA?AV?$MaybeLocal@VValue@v8@@@v8@@PEAVIsolate@3@V?$Local@VObject@v8@@@3@V?$Local@VString@v8@@@3@HPEAV?$Local@VValue@v8@@@3@Uasync_context@1@@Z 0000000180088640     node:node.exe
 0006:00000648       \177node_NULL_THUNK_DATA_DLA 0000000180088648     node:node.exe
 0006:00002208       \177node_NULL_THUNK_DATA_DLB 000000018008a208     node:node.exe
 0007:00000000       __pobjectentryfirst        000000018008b000     vccorlib:init.obj
 0007:00000110       __pobjectentrymid          000000018008b110     vccorlib:init.obj
 0007:00000220       __pobjectentrylast         000000018008b220     vccorlib:init.obj
 0009:00000000       _tls_start                 000000018008d000     MSVCRT:tlssup.obj
 0009:00000104       _Init_thread_epoch         000000018008d104     MSVCRT:thread_safe_statics.obj
 0009:00000208       _tls_end                   000000018008d208     MSVCRT:tlssup.obj
 000a:00000000       __guard_check_icall_fptr   000000018008e000     MSVCRT:guard_support.obj
 000a:00000010       __guard_dispatch_icall_fptr 000000018008e010     MSVCRT:guard_support.obj

 Exports

  ordinal    name

        1    _register_binding_
