 binding

 Timestamp is 5c57dde9 (Mon Feb  4 15:38:33 2019)

 Preferred load address is 0000000180000000

 Start         Length     Name                   Class
 0001:00000000 0000b1b0H .text$di                CODE
 0001:0000b1b0 0009b0d0H .text$mn                CODE
 0001:000a6280 00001020H .text$mn$00             CODE
 0001:000a72a0 00015180H .text$x                 CODE
 0001:000bc420 000015fdH .text$yd                CODE
 0002:00000000 00000110H .CRT$XCA                DATA
 0002:00000110 00000110H .CRT$XCL                DATA
 0002:00000220 00000320H .CRT$XCU                DATA
 0002:00000540 00000110H .CRT$XCZ                DATA
 0002:00000650 00000110H .CRT$XIA                DATA
 0002:00000760 00000110H .CRT$XIC                DATA
 0002:00000870 00000110H .CRT$XIYB               DATA
 0002:00000980 00000110H .CRT$XIZ                DATA
 0002:00000a90 00000008H .CRT$XLA                DATA
 0002:00000a98 00000008H .CRT$XLZ                DATA
 0002:00000aa0 00000110H .CRT$XPA                DATA
 0002:00000bb0 00000110H .CRT$XPZ                DATA
 0002:00000cc0 00000110H .CRT$XTA                DATA
 0002:00000dd0 00000110H .CRT$XTZ                DATA
 0002:00000ee0 00018758H .rdata                  DATA
 0002:00019638 00000130H .rdata$T                DATA
 0002:00019768 00000648H .rdata$r                DATA
 0002:00019db0 000001d0H .rdata$zzzdbg           DATA
 0002:00019f80 00000110H .rtc$IAA                DATA
 0002:0001a090 00000110H .rtc$IZZ                DATA
 0002:0001a1a0 00000110H .rtc$TAA                DATA
 0002:0001a2b0 00000110H .rtc$TZZ                DATA
 0002:0001a3c0 00036840H .xdata                  DATA
 0002:00050c00 000008c0H .xdata$x                DATA
 0002:000514c0 00000162H .edata                  DATA
 0003:00000000 00007240H .data                   DATA
 0003:00007240 00003010H .data$r                 DATA
 0003:0000a250 00000aa1H .bss                    DATA
 0004:00000000 0000c210H .pdata                  DATA
 0005:00000000 00000a28H .idata$5                DATA
 0005:00000a28 000000c8H .idata$2                DATA
 0005:00000af0 00000018H .idata$3                DATA
 0005:00000b08 00000a28H .idata$4                DATA
 0005:00001530 00001f53H .idata$6                DATA
 0006:00000000 00000020H .didat$2                DATA
 0006:00000020 00000020H .didat$3                DATA
 0006:00000040 000003c8H .didat$4                DATA
 0006:00000408 000003c8H .didat$5                DATA
 0006:000007d0 00001c10H .didat$6                DATA
 0006:000023e0 00000432H .didat$7                DATA
 0007:00000000 00000110H minATL$__a              DATA
 0007:00000110 00000110H minATL$__m              DATA
 0007:00000220 00000109H minATL$__z              DATA
 0008:00000000 00000232H .gfids$y                DATA
 0009:00000000 00000104H .tls                    DATA
 0009:00000104 00000104H .tls$                   DATA
 0009:00000208 00000101H .tls$ZZZ                DATA
 000a:00000000 0000011bH .00cfg                  DATA
 000b:00000000 00000170H .rsrc$01                DATA
 000b:00000170 000002ccH .rsrc$02                DATA

  Address         Publics by Value              Rva+Base               Lib:Object

 0000:00000000       ___safe_se_handler_table   0000000000000000     <absolute>
 0000:00000000       ___safe_se_handler_count   0000000000000000     <absolute>
 0000:00000000       __guard_longjmp_table      0000000000000000     <absolute>
 0000:00000000       __guard_iat_count          0000000000000000     <absolute>
 0000:00000000       __guard_fids_count         0000000000000000     <absolute>
 0000:00000000       __guard_longjmp_count      0000000000000000     <absolute>
 0000:00000000       __dynamic_value_reloc_table 0000000000000000     <absolute>
 0000:00000000       __guard_iat_table          0000000000000000     <absolute>
 0000:00000000       __guard_fids_table         0000000000000000     <absolute>
 0000:00000100       __guard_flags              0000000000000100     <absolute>
 0000:00000000       __ImageBase                0000000180000000     <linker-defined>
 0001:0000b1b0       ?__abi_winrt_cast_use_helper@@YAPE$AAVObject@Platform@@_NPEAXAEBU_GUID@@PEAU__abi_IUnknown@@@Z 000000018000c1b0 f i _nodert_generated.obj
 0001:0000b230       ?_Copy@?$_Func_impl@V<lambda_dfd2dbeafccd46f74e2597d846df18af>@@V?$allocator@H@std@@_NV?$Local@VValue@v8@@@v8@@@std@@EEBAPEAV?$_Func_base@_NV?$Local@VValue@v8@@@v8@@@2@PEAX@Z 000000018000c230 f i _nodert_generated.obj
 0001:0000b250       ?_Move@?$_Func_impl@V<lambda_dfd2dbeafccd46f74e2597d846df18af>@@V?$allocator@H@std@@_NV?$Local@VValue@v8@@@v8@@@std@@EEAAPEAV?$_Func_base@_NV?$Local@VValue@v8@@@v8@@@2@PEAX@Z 000000018000c250 f i _nodert_generated.obj
 0001:0000b270       ?_Do_call@?$_Func_impl@V<lambda_dfd2dbeafccd46f74e2597d846df18af>@@V?$allocator@H@std@@_NV?$Local@VValue@v8@@@v8@@@std@@EEAA_N$$QEAV?$Local@VValue@v8@@@v8@@@Z 000000018000c270 f i _nodert_generated.obj
 0001:0000b2a0       ?_Target_type@?$_Func_impl@V<lambda_dfd2dbeafccd46f74e2597d846df18af>@@V?$allocator@H@std@@_NV?$Local@VValue@v8@@@v8@@@std@@EEBAAEBVtype_info@@XZ 000000018000c2a0 f i _nodert_generated.obj
 0001:0000b2b0       ?_Get@?$_Func_impl@V<lambda_dfd2dbeafccd46f74e2597d846df18af>@@V?$allocator@H@std@@_NV?$Local@VValue@v8@@@v8@@@std@@EEBAPEBXXZ 000000018000c2b0 f i _nodert_generated.obj
 0001:0000b2c0       ?_Delete_this@?$_Func_impl@V<lambda_dfd2dbeafccd46f74e2597d846df18af>@@V?$allocator@H@std@@_NV?$Local@VValue@v8@@@v8@@@std@@EEAAX_N@Z 000000018000c2c0 f i _nodert_generated.obj
 0001:0000b2e0       ?init@@YAXV?$Local@VObject@v8@@@v8@@@Z 000000018000c2e0 f   _nodert_generated.obj
 0001:0000b4b0       ?<Dispose>@?QIDisposable@Platform@@?$Array@PE$AAVString@Platform@@$00@2@UE$AAAXXZ 000000018000c4b0 f i _nodert_generated.obj
 0001:0000b4e0       ?<Dispose>@?QIDisposable@Platform@@?$Array@PE$AAVString@Platform@@$00@2@WBI@E$AAAXXZ 000000018000c4e0 f i _nodert_generated.obj
 0001:0000b4ec       ?<Dispose>@?QIDisposable@Platform@@?$Array@PE$AAVString@Platform@@$00@2@WCI@E$AAAXXZ 000000018000c4ec f i _nodert_generated.obj
 0001:0000b500       ?<Dispose>@?QIDisposable@Platform@@?$Array@W4DeviceClass@Enumeration@Devices@Windows@@$00@2@UE$AAAXXZ 000000018000c500 f i _nodert_generated.obj
 0001:0000b56c       ?<Dispose>@?QIDisposable@Platform@@?$Array@W4DeviceClass@Enumeration@Devices@Windows@@$00@2@WBI@E$AAAXXZ 000000018000c56c f i _nodert_generated.obj
 0001:0000b578       ?<Dispose>@?QIDisposable@Platform@@?$Array@W4DeviceClass@Enumeration@Devices@Windows@@$00@2@WCI@E$AAAXXZ 000000018000c578 f i _nodert_generated.obj
 0001:0000b590       ?<Dispose>@?QIDisposable@Platform@@?$Array@W4DeviceWatcherEventKind@Enumeration@Devices@Windows@@$00@2@UE$AAAXXZ 000000018000c590 f i _nodert_generated.obj
 0001:0000b5fc       ?<Dispose>@?QIDisposable@Platform@@?$Array@W4DeviceWatcherEventKind@Enumeration@Devices@Windows@@$00@2@WBI@E$AAAXXZ 000000018000c5fc f i _nodert_generated.obj
 0001:0000b608       ?<Dispose>@?QIDisposable@Platform@@?$Array@W4DeviceWatcherEventKind@Enumeration@Devices@Windows@@$00@2@WCI@E$AAAXXZ 000000018000c608 f i _nodert_generated.obj
 0001:0000b620       ?<Dispose>@?QIDisposable@Platform@@?$WriteOnlyArray@PE$AAVString@Platform@@$00@2@UE$AAAXXZ 000000018000c620 f i _nodert_generated.obj
 0001:0000b634       ?<Dispose>@?QIDisposable@Platform@@?$WriteOnlyArray@PE$AAVString@Platform@@$00@2@W7E$AAAXXZ 000000018000c634 f i _nodert_generated.obj
 0001:0000b640       ?<Dispose>@?QIDisposable@Platform@@?$WriteOnlyArray@W4DeviceClass@Enumeration@Devices@Windows@@$00@2@UE$AAAXXZ 000000018000c640 f i _nodert_generated.obj
 0001:0000b688       ?<Dispose>@?QIDisposable@Platform@@?$WriteOnlyArray@W4DeviceClass@Enumeration@Devices@Windows@@$00@2@W7E$AAAXXZ 000000018000c688 f i _nodert_generated.obj
 0001:0000b6a0       ?<Dispose>@?QIDisposable@Platform@@?$WriteOnlyArray@W4DeviceWatcherEventKind@Enumeration@Devices@Windows@@$00@2@UE$AAAXXZ 000000018000c6a0 f i _nodert_generated.obj
 0001:0000b6e8       ?<Dispose>@?QIDisposable@Platform@@?$WriteOnlyArray@W4DeviceWatcherEventKind@Enumeration@Devices@Windows@@$00@2@W7E$AAAXXZ 000000018000c6e8 f i _nodert_generated.obj
 0001:0000b700       ?<Dispose>@IDisposable@Platform@@UE$AAAXXZ 000000018000c700 f i _nodert_generated.obj
 0001:0000b730       ??$?0AEBV?$allocator@H@std@@@?$_Wrap_alloc@V?$allocator@V?$_Func_impl@V<lambda_dfd2dbeafccd46f74e2597d846df18af>@@V?$allocator@H@std@@_NV?$Local@VValue@v8@@@v8@@@std@@@std@@@std@@QEAA@AEBV?$allocator@H@1@@Z 000000018000c730 f i _nodert_generated.obj
 0001:0000b740       ??$?0AEBV?$allocator@H@std@@V<lambda_dfd2dbeafccd46f74e2597d846df18af>@@@?$_Compressed_pair@V?$allocator@H@std@@V<lambda_dfd2dbeafccd46f74e2597d846df18af>@@$00@std@@QEAA@U_One_then_variadic_args_t@1@AEBV?$allocator@H@1@$$QEAV<lambda_dfd2dbeafccd46f74e2597d846df18af>@@@Z 000000018000c740 f i _nodert_generated.obj
 0001:0000b750       ??$?0PE$AAU?$IAsyncOperation@PE$AAVDeviceInformation@Enumeration@Devices@Windows@@@Foundation@Windows@@@?$task@PE$AAVDeviceInformation@Enumeration@Devices@Windows@@@Concurrency@@QEAA@PE$AAU?$IAsyncOperation@PE$AAVDeviceInformation@Enumeration@Devices@Windows@@@Foundation@Windows@@AEBVtask_options@1@@Z 000000018000c750 f i _nodert_generated.obj
 0001:0000b960       ??$?0PE$AAU?$IAsyncOperation@PE$AAVDeviceInformationCollection@Enumeration@Devices@Windows@@@Foundation@Windows@@@?$task@PE$AAVDeviceInformationCollection@Enumeration@Devices@Windows@@@Concurrency@@QEAA@PE$AAU?$IAsyncOperation@PE$AAVDeviceInformationCollection@Enumeration@Devices@Windows@@@Foundation@Windows@@AEBVtask_options@1@@Z 000000018000c960 f i _nodert_generated.obj
 0001:0000bb70       ??$?0PE$AAU?$IAsyncOperation@PE$AAVDevicePairingResult@Enumeration@Devices@Windows@@@Foundation@Windows@@@?$task@PE$AAVDevicePairingResult@Enumeration@Devices@Windows@@@Concurrency@@QEAA@PE$AAU?$IAsyncOperation@PE$AAVDevicePairingResult@Enumeration@Devices@Windows@@@Foundation@Windows@@AEBVtask_options@1@@Z 000000018000cb70 f i _nodert_generated.obj
 0001:0000bd80       ??$?0PE$AAU?$IAsyncOperation@PE$AAVDeviceThumbnail@Enumeration@Devices@Windows@@@Foundation@Windows@@@?$task@PE$AAVDeviceThumbnail@Enumeration@Devices@Windows@@@Concurrency@@QEAA@PE$AAU?$IAsyncOperation@PE$AAVDeviceThumbnail@Enumeration@Devices@Windows@@@Foundation@Windows@@AEBVtask_options@1@@Z 000000018000cd80 f i _nodert_generated.obj
 0001:0000bf90       ??$?0PE$AAU?$IAsyncOperation@PE$AAVDeviceUnpairingResult@Enumeration@Devices@Windows@@@Foundation@Windows@@@?$task@PE$AAVDeviceUnpairingResult@Enumeration@Devices@Windows@@@Concurrency@@QEAA@PE$AAU?$IAsyncOperation@PE$AAVDeviceUnpairingResult@Enumeration@Devices@Windows@@@Foundation@Windows@@AEBVtask_options@1@@Z 000000018000cf90 f i _nodert_generated.obj
 0001:0000c1a0       ??$?0PE$AAU?$IAsyncOperation@_N@Foundation@Windows@@@?$task@_N@Concurrency@@QEAA@PE$AAU?$IAsyncOperation@_N@Foundation@Windows@@AEBVtask_options@1@@Z 000000018000d1a0 f i _nodert_generated.obj
 0001:0000c3b0       ??$?0PE$AAU?$IAsyncOperationWithProgress@II@Foundation@Windows@@@?$task@I@Concurrency@@QEAA@PE$AAU?$IAsyncOperationWithProgress@II@Foundation@Windows@@AEBVtask_options@1@@Z 000000018000d3b0 f i _nodert_generated.obj
 0001:0000c5c0       ??$?0PE$AAU?$IAsyncOperationWithProgress@PE$AAUIBuffer@Streams@Storage@Windows@@I@Foundation@Windows@@@?$task@PE$AAUIBuffer@Streams@Storage@Windows@@@Concurrency@@QEAA@PE$AAU?$IAsyncOperationWithProgress@PE$AAUIBuffer@Streams@Storage@Windows@@I@Foundation@Windows@@AEBVtask_options@1@@Z 000000018000d5c0 f i _nodert_generated.obj
 0001:0000c7d0       ??$?0PE$AAVString@Platform@@@?$Vector@PE$AAVString@Platform@@U?$equal_to@PE$AAVString@Platform@@@std@@$00@Collections@Platform@@QE$AAA@AEBV?$vector@PE$AAVString@Platform@@V?$allocator@PE$AAVString@Platform@@@std@@@std@@PEAPEAX@Z 000000018000d7d0 f i _nodert_generated.obj
 0001:0000c940       ??$?0V<lambda_11ae5e2332e27c7defe3fc71b95bc051>@@@?$TypedEventHandler@PE$AAVDeviceWatcher@Enumeration@Devices@Windows@@PE$AAVDeviceInformationUpdate@234@@Foundation@Windows@@QE$AAA@V<lambda_11ae5e2332e27c7defe3fc71b95bc051>@@W4CallbackContext@Platform@@_N@Z 000000018000d940 f i _nodert_generated.obj
 0001:0000caa0       ??$?0V<lambda_163ea11ffbf98f813e6bfc1622219211>@@XX@?$function@$$A6AXV?$function@$$A6AXHPEAV?$Local@VValue@v8@@@v8@@@Z@std@@@Z@std@@QEAA@V<lambda_163ea11ffbf98f813e6bfc1622219211>@@@Z 000000018000daa0 f i _nodert_generated.obj
 0001:0000cb40       ??$?0V<lambda_1c2c1434820349da43b21d405bb32470>@@@?$TypedEventHandler@PE$AAVDeviceWatcher@Enumeration@Devices@Windows@@PE$AAVObject@Platform@@@Foundation@Windows@@QE$AAA@V<lambda_1c2c1434820349da43b21d405bb32470>@@W4CallbackContext@Platform@@_N@Z 000000018000db40 f i _nodert_generated.obj
 0001:0000cca0       ??$?0V<lambda_1c6c1b322bf2733cdee76baa2bd484e8>@@@?$AsyncOperationCompletedHandler@I@Foundation@Windows@@QE$AAA@V<lambda_1c6c1b322bf2733cdee76baa2bd484e8>@@W4CallbackContext@Platform@@_N@Z 000000018000dca0 f i _nodert_generated.obj
 0001:0000ce00       ??$?0V<lambda_2bb8dd9e3a2f720ce54f513fe20eec0b>@@XX@?$function@$$A6AXV?$function@$$A6AXHPEAV?$Local@VValue@v8@@@v8@@@Z@std@@@Z@std@@QEAA@V<lambda_2bb8dd9e3a2f720ce54f513fe20eec0b>@@@Z 000000018000de00 f i _nodert_generated.obj
 0001:0000cea0       ??$?0V<lambda_2e68d8e8051c62e018e9e768a603a9d1>@@XX@?$function@$$A6AXV?$function@$$A6AXHPEAV?$Local@VValue@v8@@@v8@@@Z@std@@@Z@std@@QEAA@V<lambda_2e68d8e8051c62e018e9e768a603a9d1>@@@Z 000000018000dea0 f i _nodert_generated.obj
 0001:0000cf40       ??$?0V<lambda_3282d637809049c3e60b82a707d0a93d>@@XX@?$function@$$A6AXV?$function@$$A6AXHPEAV?$Local@VValue@v8@@@v8@@@Z@std@@@Z@std@@QEAA@V<lambda_3282d637809049c3e60b82a707d0a93d>@@@Z 000000018000df40 f i _nodert_generated.obj
 0001:0000cfe0       ??$?0V<lambda_32bf3520a247a9092ab406a31a3faa42>@@XX@?$function@$$A6AXV?$function@$$A6AXHPEAV?$Local@VValue@v8@@@v8@@@Z@std@@@Z@std@@QEAA@V<lambda_32bf3520a247a9092ab406a31a3faa42>@@@Z 000000018000dfe0 f i _nodert_generated.obj
 0001:0000d080       ??$?0V<lambda_338a6eb91f8f0018d922c59d8cb00a90>@@@?$TypedEventHandler@PE$AAVDevicePicker@Enumeration@Devices@Windows@@PE$AAVDeviceSelectedEventArgs@234@@Foundation@Windows@@QE$AAA@V<lambda_338a6eb91f8f0018d922c59d8cb00a90>@@W4CallbackContext@Platform@@_N@Z 000000018000e080 f i _nodert_generated.obj
 0001:0000d1e0       ??$?0V<lambda_362dddb56864f9b321daeb467199f068>@@@?$TypedEventHandler@PE$AAVDevicePicker@Enumeration@Devices@Windows@@PE$AAVObject@Platform@@@Foundation@Windows@@QE$AAA@V<lambda_362dddb56864f9b321daeb467199f068>@@W4CallbackContext@Platform@@_N@Z 000000018000e1e0 f i _nodert_generated.obj
 0001:0000d340       ??$?0V<lambda_38185181009d45c1195ac970a9c474b5>@@XX@?$function@$$A6AXV?$function@$$A6AXHPEAV?$Local@VValue@v8@@@v8@@@Z@std@@@Z@std@@QEAA@V<lambda_38185181009d45c1195ac970a9c474b5>@@@Z 000000018000e340 f i _nodert_generated.obj
 0001:0000d3e0       ??$?0V<lambda_3abfc8c1f252ee83d85013063ca8f980>@@XX@?$function@$$A6AXV?$function@$$A6AXHPEAV?$Local@VValue@v8@@@v8@@@Z@std@@@Z@std@@QEAA@V<lambda_3abfc8c1f252ee83d85013063ca8f980>@@@Z 000000018000e3e0 f i _nodert_generated.obj
 0001:0000d480       ??$?0V<lambda_3de33062496515ca77dec742d5341371>@@@?$AsyncOperationWithProgressCompletedHandler@PE$AAUIBuffer@Streams@Storage@Windows@@I@Foundation@Windows@@QE$AAA@V<lambda_3de33062496515ca77dec742d5341371>@@W4CallbackContext@Platform@@_N@Z 000000018000e480 f i _nodert_generated.obj
 0001:0000d5b0       ??$?0V<lambda_3ff05d0f6e0fe947571a9cba4c871e9f>@@@?$AsyncOperationCompletedHandler@PE$AAVDevicePairingResult@Enumeration@Devices@Windows@@@Foundation@Windows@@QE$AAA@V<lambda_3ff05d0f6e0fe947571a9cba4c871e9f>@@W4CallbackContext@Platform@@_N@Z 000000018000e5b0 f i _nodert_generated.obj
 0001:0000d710       ??$?0V<lambda_417f9b9eb69d711fe281d2cc0f81e7e0>@@@?$TypedEventHandler@PE$AAVDevicePicker@Enumeration@Devices@Windows@@PE$AAVDeviceDisconnectButtonClickedEventArgs@234@@Foundation@Windows@@QE$AAA@V<lambda_417f9b9eb69d711fe281d2cc0f81e7e0>@@W4CallbackContext@Platform@@_N@Z 000000018000e710 f i _nodert_generated.obj
 0001:0000d870       ??$?0V<lambda_4446bd2e4bb6e1cfecdc4f203e7fabb1>@@XX@?$function@$$A6AXV?$function@$$A6AXHPEAV?$Local@VValue@v8@@@v8@@@Z@std@@@Z@std@@QEAA@V<lambda_4446bd2e4bb6e1cfecdc4f203e7fabb1>@@@Z 000000018000e870 f i _nodert_generated.obj
 0001:0000d910       ??$?0V<lambda_4b27738951189d11652babf17d446fff>@@XX@?$function@$$A6AXV?$function@$$A6AXHPEAV?$Local@VValue@v8@@@v8@@@Z@std@@@Z@std@@QEAA@V<lambda_4b27738951189d11652babf17d446fff>@@@Z 000000018000e910 f i _nodert_generated.obj
 0001:0000d9b0       ??$?0V<lambda_4cc48579c35cacc5f2092cf572b2c19b>@@XX@?$function@$$A6AXV?$function@$$A6AXHPEAV?$Local@VValue@v8@@@v8@@@Z@std@@@Z@std@@QEAA@V<lambda_4cc48579c35cacc5f2092cf572b2c19b>@@@Z 000000018000e9b0 f i _nodert_generated.obj
 0001:0000da50       ??$?0V<lambda_560cc8e7509601e5a0821fd4ffda23ec>@@@?$AsyncOperationWithProgressCompletedHandler@II@Foundation@Windows@@QE$AAA@V<lambda_560cc8e7509601e5a0821fd4ffda23ec>@@W4CallbackContext@Platform@@_N@Z 000000018000ea50 f i _nodert_generated.obj
 0001:0000db80       ??$?0V<lambda_592347503a27903a1864e921c6d8a7e3>@@XX@?$function@$$A6AXV?$function@$$A6AXHPEAV?$Local@VValue@v8@@@v8@@@Z@std@@@Z@std@@QEAA@V<lambda_592347503a27903a1864e921c6d8a7e3>@@@Z 000000018000eb80 f i _nodert_generated.obj
 0001:0000dc20       ??$?0V<lambda_62e266853b998866e6b58c3644b12cd1>@@XX@?$function@$$A6AXV?$function@$$A6AXHPEAV?$Local@VValue@v8@@@v8@@@Z@std@@@Z@std@@QEAA@V<lambda_62e266853b998866e6b58c3644b12cd1>@@@Z 000000018000ec20 f i _nodert_generated.obj
 0001:0000dcc0       ??$?0V<lambda_7601a32cb7fd1c904b665337581357ab>@@XX@?$function@$$A6AXV?$function@$$A6AXHPEAV?$Local@VValue@v8@@@v8@@@Z@std@@@Z@std@@QEAA@V<lambda_7601a32cb7fd1c904b665337581357ab>@@@Z 000000018000ecc0 f i _nodert_generated.obj
 0001:0000dd60       ??$?0V<lambda_7d19cc810d89fdff34731fdb4d4ddc6f>@@@?$AsyncOperationCompletedHandler@PE$AAVDeviceInformation@Enumeration@Devices@Windows@@@Foundation@Windows@@QE$AAA@V<lambda_7d19cc810d89fdff34731fdb4d4ddc6f>@@W4CallbackContext@Platform@@_N@Z 000000018000ed60 f i _nodert_generated.obj
 0001:0000dec0       ??$?0V<lambda_80aa571a138ef2b7532637249397d5a3>@@XX@?$function@$$A6AXV?$function@$$A6AXHPEAV?$Local@VValue@v8@@@v8@@@Z@std@@@Z@std@@QEAA@V<lambda_80aa571a138ef2b7532637249397d5a3>@@@Z 000000018000eec0 f i _nodert_generated.obj
 0001:0000df60       ??$?0V<lambda_8db20726d1b4924c864a3321687226d3>@@XX@?$function@$$A6AXV?$function@$$A6AXHPEAV?$Local@VValue@v8@@@v8@@@Z@std@@@Z@std@@QEAA@V<lambda_8db20726d1b4924c864a3321687226d3>@@@Z 000000018000ef60 f i _nodert_generated.obj
 0001:0000e000       ??$?0V<lambda_8ec650b07ba0e505c408d2389def4a27>@@@?$TypedEventHandler@PE$AAVDeviceWatcher@Enumeration@Devices@Windows@@PE$AAVDeviceInformationUpdate@234@@Foundation@Windows@@QE$AAA@V<lambda_8ec650b07ba0e505c408d2389def4a27>@@W4CallbackContext@Platform@@_N@Z 000000018000f000 f i _nodert_generated.obj
 0001:0000e160       ??$?0V<lambda_9c267cdafd8e064f323ec4e1c7ae30d4>@@@?$AsyncOperationCompletedHandler@_N@Foundation@Windows@@QE$AAA@V<lambda_9c267cdafd8e064f323ec4e1c7ae30d4>@@W4CallbackContext@Platform@@_N@Z 000000018000f160 f i _nodert_generated.obj
 0001:0000e2c0       ??$?0V<lambda_a54ec017da84eed38cef3d48b5235292>@@XX@?$function@$$A6AXV?$function@$$A6AXHPEAV?$Local@VValue@v8@@@v8@@@Z@std@@@Z@std@@QEAA@V<lambda_a54ec017da84eed38cef3d48b5235292>@@@Z 000000018000f2c0 f i _nodert_generated.obj
 0001:0000e360       ??$?0V<lambda_a8a5f85c2ff75d8631efb4d869983d5e>@@@?$TypedEventHandler@PE$AAVDeviceWatcher@Enumeration@Devices@Windows@@PE$AAVObject@Platform@@@Foundation@Windows@@QE$AAA@V<lambda_a8a5f85c2ff75d8631efb4d869983d5e>@@W4CallbackContext@Platform@@_N@Z 000000018000f360 f i _nodert_generated.obj
 0001:0000e4c0       ??$?0V<lambda_aa70f50115a4b23afbc3f27a3b05f254>@@@?$TypedEventHandler@PE$AAVDeviceWatcher@Enumeration@Devices@Windows@@PE$AAVDeviceInformation@234@@Foundation@Windows@@QE$AAA@V<lambda_aa70f50115a4b23afbc3f27a3b05f254>@@W4CallbackContext@Platform@@_N@Z 000000018000f4c0 f i _nodert_generated.obj
 0001:0000e620       ??$?0V<lambda_b74a78ddedb14b72dbcd1e76300ffed1>@@@?$AsyncOperationCompletedHandler@PE$AAUIBuffer@Streams@Storage@Windows@@@Foundation@Windows@@QE$AAA@V<lambda_b74a78ddedb14b72dbcd1e76300ffed1>@@W4CallbackContext@Platform@@_N@Z 000000018000f620 f i _nodert_generated.obj
 0001:0000e780       ??$?0V<lambda_b83406a5130f38b3e01bb5dca17ad557>@@@?$AsyncOperationCompletedHandler@PE$AAVDeviceUnpairingResult@Enumeration@Devices@Windows@@@Foundation@Windows@@QE$AAA@V<lambda_b83406a5130f38b3e01bb5dca17ad557>@@W4CallbackContext@Platform@@_N@Z 000000018000f780 f i _nodert_generated.obj
 0001:0000e8e0       ??$?0V<lambda_b9369a02f6f09aa97e757a7dfe343714>@@@?$TypedEventHandler@PE$AAVDeviceAccessInformation@Enumeration@Devices@Windows@@PE$AAVDeviceAccessChangedEventArgs@234@@Foundation@Windows@@QE$AAA@V<lambda_b9369a02f6f09aa97e757a7dfe343714>@@W4CallbackContext@Platform@@_N@Z 000000018000f8e0 f i _nodert_generated.obj
 0001:0000ea40       ??$?0V<lambda_c4395a829bedb795d14750327b00ed24>@@XX@?$function@$$A6AXV?$function@$$A6AXHPEAV?$Local@VValue@v8@@@v8@@@Z@std@@@Z@std@@QEAA@V<lambda_c4395a829bedb795d14750327b00ed24>@@@Z 000000018000fa40 f i _nodert_generated.obj
 0001:0000eae0       ??$?0V<lambda_d7eb2f43511abcfd21e1d924554a4a1f>@@@?$TypedEventHandler@PE$AAVDeviceInformationCustomPairing@Enumeration@Devices@Windows@@PE$AAVDevicePairingRequestedEventArgs@234@@Foundation@Windows@@QE$AAA@V<lambda_d7eb2f43511abcfd21e1d924554a4a1f>@@W4CallbackContext@Platform@@_N@Z 000000018000fae0 f i _nodert_generated.obj
 0001:0000ec40       ??$?0V<lambda_e02e40daef5f4de523436f3dc7e541a2>@@XX@?$function@$$A6AXV?$function@$$A6AXHPEAV?$Local@VValue@v8@@@v8@@@Z@std@@@Z@std@@QEAA@V<lambda_e02e40daef5f4de523436f3dc7e541a2>@@@Z 000000018000fc40 f i _nodert_generated.obj
 0001:0000ece0       ??$?0V<lambda_e1c949a5ee92f5f5a9f1ebe1699ffb0c>@@XX@?$function@$$A6AXV?$function@$$A6AXHPEAV?$Local@VValue@v8@@@v8@@@Z@std@@@Z@std@@QEAA@V<lambda_e1c949a5ee92f5f5a9f1ebe1699ffb0c>@@@Z 000000018000fce0 f i _nodert_generated.obj
 0001:0000ed80       ??$?0V<lambda_f25c37099038263181b5186a3fa41b37>@@XX@?$function@$$A6AXXZ@std@@QEAA@V<lambda_f25c37099038263181b5186a3fa41b37>@@@Z 000000018000fd80 f i _nodert_generated.obj
 0001:0000ee40       ??$?0V<lambda_f29e2200d6a2426d0606daa5d9a9bc72>@@XX@?$function@$$A6AXV?$function@$$A6AXHPEAV?$Local@VValue@v8@@@v8@@@Z@std@@@Z@std@@QEAA@V<lambda_f29e2200d6a2426d0606daa5d9a9bc72>@@@Z 000000018000fe40 f i _nodert_generated.obj
 0001:0000eee0       ??$?0V<lambda_f57cbd171cf6613ff499c37b18adf8a1>@@@?$AsyncOperationCompletedHandler@PE$AAVDeviceInformationCollection@Enumeration@Devices@Windows@@@Foundation@Windows@@QE$AAA@V<lambda_f57cbd171cf6613ff499c37b18adf8a1>@@W4CallbackContext@Platform@@_N@Z 000000018000fee0 f i _nodert_generated.obj
 0001:0000f040       ??$?0V<lambda_fc93eed9d04cbc3042fcb6316f5e3e92>@@@?$AsyncOperationCompletedHandler@PE$AAVDeviceThumbnail@Enumeration@Devices@Windows@@@Foundation@Windows@@QE$AAA@V<lambda_fc93eed9d04cbc3042fcb6316f5e3e92>@@W4CallbackContext@Platform@@_N@Z 0000000180010040 f i _nodert_generated.obj
 0001:0000f1a0       ??$?0W4DeviceWatcherEventKind@Enumeration@Devices@Windows@@@?$Vector@W4DeviceWatcherEventKind@Enumeration@Devices@Windows@@U?$equal_to@W4DeviceWatcherEventKind@Enumeration@Devices@Windows@@@std@@$00@Collections@Platform@@QE$AAA@AEBV?$vector@W4DeviceWatcherEventKind@Enumeration@Devices@Windows@@V?$allocator@W4DeviceWatcherEventKind@Enumeration@Devices@Windows@@@std@@@std@@PEAPEAX@Z 00000001800101a0 f i _nodert_generated.obj
 0001:0000f310       ??$?4AEAV?$function@$$A6AXXZ@std@@XX@?$function@$$A6AXXZ@std@@QEAAAEAV01@AEAV01@@Z 0000000180010310 f i _nodert_generated.obj
 0001:0000f3c0       ??$?4V<lambda_0c35f08fa008bd0bd75f4471027a7740>@@XX@?$function@$$A6AXXZ@std@@QEAAAEAV01@$$QEAV<lambda_0c35f08fa008bd0bd75f4471027a7740>@@@Z 00000001800103c0 f i _nodert_generated.obj
 0001:0000f4c0       ??$?4V<lambda_447710e2e0dec371aaecb4096c7b9487>@@XX@?$function@$$A6AXXZ@std@@QEAAAEAV01@$$QEAV<lambda_447710e2e0dec371aaecb4096c7b9487>@@@Z 00000001800104c0 f i _nodert_generated.obj
 0001:0000f5c0       ??$?4V<lambda_5c14fb28660783f3c02d395e6c5ed33c>@@XX@?$function@$$A6AXXZ@std@@QEAAAEAV01@$$QEAV<lambda_5c14fb28660783f3c02d395e6c5ed33c>@@@Z 00000001800105c0 f i _nodert_generated.obj
 0001:0000f6c0       ??$?4V<lambda_6a4d408c8dcd5c2adaba3e48d970cabd>@@XX@?$function@$$A6AXXZ@std@@QEAAAEAV01@$$QEAV<lambda_6a4d408c8dcd5c2adaba3e48d970cabd>@@@Z 00000001800106c0 f i _nodert_generated.obj
 0001:0000f7c0       ??$?4V<lambda_78daf5e59166083a6cf28051060f445b>@@XX@?$function@$$A6AXXZ@std@@QEAAAEAV01@$$QEAV<lambda_78daf5e59166083a6cf28051060f445b>@@@Z 00000001800107c0 f i _nodert_generated.obj
 0001:0000f8c0       ??$?4V<lambda_a96e5ce404383841d08ddad807d114e4>@@XX@?$function@$$A6AXXZ@std@@QEAAAEAV01@$$QEAV<lambda_a96e5ce404383841d08ddad807d114e4>@@@Z 00000001800108c0 f i _nodert_generated.obj
 0001:0000f9c0       ??$?4V<lambda_d933c1f0ec997549df5d1e0ad72a8623>@@XX@?$function@$$A6AXXZ@std@@QEAAAEAV01@$$QEAV<lambda_d933c1f0ec997549df5d1e0ad72a8623>@@@Z 00000001800109c0 f i _nodert_generated.obj
 0001:0000fac0       ??$?4V<lambda_eea1d28ba39c926190bf0db24ae040c0>@@XX@?$function@$$A6AXXZ@std@@QEAAAEAV01@$$QEAV<lambda_eea1d28ba39c926190bf0db24ae040c0>@@@Z 0000000180010ac0 f i _nodert_generated.obj
 0001:0000fbc0       ??$?8UIUnknown@@@WRL@Microsoft@@YA_NAEBV?$ComPtr@UIUnknown@@@01@$$T@Z 0000000180010bc0 f i _nodert_generated.obj
 0001:0000fbd0       ??$?8U_Task_impl_base@details@Concurrency@@@std@@YA_NAEBV?$shared_ptr@U_Task_impl_base@details@Concurrency@@@0@$$T@Z 0000000180010bd0 f i _nodert_generated.obj
 0001:0000fbe0       ??$?9U_Task_impl_base@details@Concurrency@@@std@@YA_NAEBV?$shared_ptr@U_Task_impl_base@details@Concurrency@@@0@$$T@Z 0000000180010be0 f i _nodert_generated.obj
 0001:0000fbf0       ??$DoInvokeVoid@V?$VectorChangedEventHandler@PE$AAVString@Platform@@@Collections@Foundation@Windows@@V<lambda_a9a980b04d8203ebcc2b7ed3af703ddc>@@@EventSource@Platform@@AEAAXPEAUEventLock@Details@1@V<lambda_a9a980b04d8203ebcc2b7ed3af703ddc>@@@Z 0000000180010bf0 f i _nodert_generated.obj
 0001:0000fd90       ??$DoInvokeVoid@V?$VectorChangedEventHandler@W4DeviceWatcherEventKind@Enumeration@Devices@Windows@@@Collections@Foundation@Windows@@V<lambda_e2022bd6236dd53e55a17ea54f246c0f>@@@EventSource@Platform@@AEAAXPEAUEventLock@Details@1@V<lambda_e2022bd6236dd53e55a17ea54f246c0f>@@@Z 0000000180010d90 f i _nodert_generated.obj
 0001:0000ff30       ??$DoInvokeVoid@VBindableVectorChangedEventHandler@Interop@Xaml@UI@Windows@@V<lambda_d66e6f301efedd367be46813d365bb79>@@@EventSource@Platform@@AEAAXPEAUEventLock@Details@1@V<lambda_d66e6f301efedd367be46813d365bb79>@@@Z 0000000180010f30 f i _nodert_generated.obj
 0001:00010350       ??$Init@V?$vector@PE$AAVString@Platform@@V?$allocator@PE$AAVString@Platform@@@std@@@std@@V?$_Vector_const_iterator@V?$_Vector_val@U?$_Simple_types@PE$AAVString@Platform@@@std@@@std@@@2@V32@@Details@Collections@Platform@@YAXAEAV?$shared_ptr@I@std@@AEAV?$shared_ptr@V?$vector@PE$AAVString@Platform@@V?$allocator@PE$AAVString@Platform@@@std@@@std@@@4@$$QEAV?$_Vector_const_iterator@V?$_Vector_val@U?$_Simple_types@PE$AAVString@Platform@@@std@@@std@@@4@2@Z 0000000180011350 f i _nodert_generated.obj
 0001:000104f0       ??$Init@V?$vector@W4DeviceWatcherEventKind@Enumeration@Devices@Windows@@V?$allocator@W4DeviceWatcherEventKind@Enumeration@Devices@Windows@@@std@@@std@@V?$_Vector_const_iterator@V?$_Vector_val@U?$_Simple_types@W4DeviceWatcherEventKind@Enumeration@Devices@Windows@@@std@@@std@@@2@V32@@Details@Collections@Platform@@YAXAEAV?$shared_ptr@I@std@@AEAV?$shared_ptr@V?$vector@W4DeviceWatcherEventKind@Enumeration@Devices@Windows@@V?$allocator@W4DeviceWatcherEventKind@Enumeration@Devices@Windows@@@std@@@std@@@4@$$QEAV?$_Vector_const_iterator@V?$_Vector_val@U?$_Simple_types@W4DeviceWatcherEventKind@Enumeration@Devices@Windows@@@std@@@std@@@4@2@Z 00000001800114f0 f i _nodert_generated.obj
 0001:00010780       ??$InvokeVoid@V?$VectorChangedEventHandler@PE$AAVString@Platform@@@Collections@Foundation@Windows@@PE$AAU?$IObservableVector@PE$AAVString@Platform@@@234@PE$AAUIVectorChangedEventArgs@234@@EventSource@Platform@@QEAAXPEAUEventLock@Details@1@PE$AAU?$IObservableVector@PE$AAVString@Platform@@@Collections@Foundation@Windows@@PE$AAUIVectorChangedEventArgs@567@@Z 0000000180011780 f i _nodert_generated.obj
 0001:00010870       ??$InvokeVoid@V?$VectorChangedEventHandler@W4DeviceWatcherEventKind@Enumeration@Devices@Windows@@@Collections@Foundation@Windows@@PE$AAU?$IObservableVector@W4DeviceWatcherEventKind@Enumeration@Devices@Windows@@@234@PE$AAUIVectorChangedEventArgs@234@@EventSource@Platform@@QEAAXPEAUEventLock@Details@1@PE$AAU?$IObservableVector@W4DeviceWatcherEventKind@Enumeration@Devices@Windows@@@Collections@Foundation@Windows@@PE$AAUIVectorChangedEventArgs@567@@Z 0000000180011870 f i _nodert_generated.obj
 0001:00010960       ??$InvokeVoid@VBindableVectorChangedEventHandler@Interop@Xaml@UI@Windows@@PE$AAUIBindableObservableVector@2345@PE$AAVObject@Platform@@@EventSource@Platform@@QEAAXPEAUEventLock@Details@1@PE$AAUIBindableObservableVector@Interop@Xaml@UI@Windows@@PE$AAVObject@1@@Z 0000000180011960 f i _nodert_generated.obj
 0001:00010a50       ??$IsWinRtWrapperOf@P$01E$AAV?$Array@PE$AAVString@Platform@@$00@Platform@@@Utils@NodeRT@@YA_NV?$Local@VValue@v8@@@v8@@@Z 0000000180011a50 f i _nodert_generated.obj
 0001:00010bc0       ??$IsWinRtWrapperOf@P$01E$AAV?$Array@W4DeviceClass@Enumeration@Devices@Windows@@$00@Platform@@@Utils@NodeRT@@YA_NV?$Local@VValue@v8@@@v8@@@Z 0000000180011bc0 f i _nodert_generated.obj
 0001:00010d30       ??$IsWinRtWrapperOf@PE$AAU?$IIterable@PE$AAVString@Platform@@@Collections@Foundation@Windows@@@Utils@NodeRT@@YA_NV?$Local@VValue@v8@@@v8@@@Z 0000000180011d30 f i _nodert_generated.obj
 0001:00010ea0       ??$IsWinRtWrapperOf@PE$AAU?$IIterable@W4DeviceWatcherEventKind@Enumeration@Devices@Windows@@@Collections@Foundation@Windows@@@Utils@NodeRT@@YA_NV?$Local@VValue@v8@@@v8@@@Z 0000000180011ea0 f i _nodert_generated.obj
 0001:00011010       ??$IsWinRtWrapperOf@PE$AAU?$IIterator@PE$AAU?$IKeyValuePair@PE$AAVString@Platform@@PE$AAVObject@2@@Collections@Foundation@Windows@@@Collections@Foundation@Windows@@@Utils@NodeRT@@YA_NV?$Local@VValue@v8@@@v8@@@Z 0000000180012010 f i _nodert_generated.obj
 0001:00011180       ??$IsWinRtWrapperOf@PE$AAU?$IIterator@PE$AAVDeviceInformation@Enumeration@Devices@Windows@@@Collections@Foundation@Windows@@@Utils@NodeRT@@YA_NV?$Local@VValue@v8@@@v8@@@Z 0000000180012180 f i _nodert_generated.obj
 0001:000112f0       ??$IsWinRtWrapperOf@PE$AAU?$IIterator@PE$AAVDeviceWatcherEvent@Enumeration@Devices@Windows@@@Collections@Foundation@Windows@@@Utils@NodeRT@@YA_NV?$Local@VValue@v8@@@v8@@@Z 00000001800122f0 f i _nodert_generated.obj
 0001:00011460       ??$IsWinRtWrapperOf@PE$AAU?$IIterator@PE$AAVString@Platform@@@Collections@Foundation@Windows@@@Utils@NodeRT@@YA_NV?$Local@VValue@v8@@@v8@@@Z 0000000180012460 f i _nodert_generated.obj
 0001:000115d0       ??$IsWinRtWrapperOf@PE$AAU?$IIterator@W4DeviceClass@Enumeration@Devices@Windows@@@Collections@Foundation@Windows@@@Utils@NodeRT@@YA_NV?$Local@VValue@v8@@@v8@@@Z 00000001800125d0 f i _nodert_generated.obj
 0001:00011740       ??$IsWinRtWrapperOf@PE$AAU?$IKeyValuePair@PE$AAVString@Platform@@PE$AAVObject@2@@Collections@Foundation@Windows@@@Utils@NodeRT@@YA_NV?$Local@VValue@v8@@@v8@@@Z 0000000180012740 f i _nodert_generated.obj
 0001:000118b0       ??$IsWinRtWrapperOf@PE$AAU?$IMapView@PE$AAVString@Platform@@PE$AAVObject@2@@Collections@Foundation@Windows@@@Utils@NodeRT@@YA_NV?$Local@VValue@v8@@@v8@@@Z 00000001800128b0 f i _nodert_generated.obj
 0001:00011a20       ??$IsWinRtWrapperOf@PE$AAU?$IVector@PE$AAVString@Platform@@@Collections@Foundation@Windows@@@Utils@NodeRT@@YA_NV?$Local@VValue@v8@@@v8@@@Z 0000000180012a20 f i _nodert_generated.obj
 0001:00011b90       ??$IsWinRtWrapperOf@PE$AAU?$IVector@W4DeviceClass@Enumeration@Devices@Windows@@@Collections@Foundation@Windows@@@Utils@NodeRT@@YA_NV?$Local@VValue@v8@@@v8@@@Z 0000000180012b90 f i _nodert_generated.obj
 0001:00011d00       ??$IsWinRtWrapperOf@PE$AAU?$IVectorView@PE$AAVDeviceWatcherEvent@Enumeration@Devices@Windows@@@Collections@Foundation@Windows@@@Utils@NodeRT@@YA_NV?$Local@VValue@v8@@@v8@@@Z 0000000180012d00 f i _nodert_generated.obj
 0001:00011e70       ??$IsWinRtWrapperOf@PE$AAU?$IVectorView@PE$AAVString@Platform@@@Collections@Foundation@Windows@@@Utils@NodeRT@@YA_NV?$Local@VValue@v8@@@v8@@@Z 0000000180012e70 f i _nodert_generated.obj
 0001:00011fe0       ??$IsWinRtWrapperOf@PE$AAU?$IVectorView@W4DeviceClass@Enumeration@Devices@Windows@@@Collections@Foundation@Windows@@@Utils@NodeRT@@YA_NV?$Local@VValue@v8@@@v8@@@Z 0000000180012fe0 f i _nodert_generated.obj
 0001:00012150       ??$IsWinRtWrapperOf@PE$AAUIBuffer@Streams@Storage@Windows@@@Utils@NodeRT@@YA_NV?$Local@VValue@v8@@@v8@@@Z 0000000180013150 f i _nodert_generated.obj
 0001:000122c0       ??$IsWinRtWrapperOf@PE$AAUIDevicePairingSettings@Enumeration@Devices@Windows@@@Utils@NodeRT@@YA_NV?$Local@VValue@v8@@@v8@@@Z 00000001800132c0 f i _nodert_generated.obj
 0001:00012430       ??$IsWinRtWrapperOf@PE$AAVDeviceAccessChangedEventArgs@Enumeration@Devices@Windows@@@Utils@NodeRT@@YA_NV?$Local@VValue@v8@@@v8@@@Z 0000000180013430 f i _nodert_generated.obj
 0001:000125a0       ??$IsWinRtWrapperOf@PE$AAVDeviceAccessInformation@Enumeration@Devices@Windows@@@Utils@NodeRT@@YA_NV?$Local@VValue@v8@@@v8@@@Z 00000001800135a0 f i _nodert_generated.obj
 0001:00012710       ??$IsWinRtWrapperOf@PE$AAVDeviceConnectionChangeTriggerDetails@Enumeration@Devices@Windows@@@Utils@NodeRT@@YA_NV?$Local@VValue@v8@@@v8@@@Z 0000000180013710 f i _nodert_generated.obj
 0001:00012880       ??$IsWinRtWrapperOf@PE$AAVDeviceDisconnectButtonClickedEventArgs@Enumeration@Devices@Windows@@@Utils@NodeRT@@YA_NV?$Local@VValue@v8@@@v8@@@Z 0000000180013880 f i _nodert_generated.obj
 0001:000129f0       ??$IsWinRtWrapperOf@PE$AAVDeviceInformation@Enumeration@Devices@Windows@@@Utils@NodeRT@@YA_NV?$Local@VValue@v8@@@v8@@@Z 00000001800139f0 f i _nodert_generated.obj
 0001:00012b60       ??$IsWinRtWrapperOf@PE$AAVDeviceInformationCollection@Enumeration@Devices@Windows@@@Utils@NodeRT@@YA_NV?$Local@VValue@v8@@@v8@@@Z 0000000180013b60 f i _nodert_generated.obj
 0001:00012cd0       ??$IsWinRtWrapperOf@PE$AAVDeviceInformationCustomPairing@Enumeration@Devices@Windows@@@Utils@NodeRT@@YA_NV?$Local@VValue@v8@@@v8@@@Z 0000000180013cd0 f i _nodert_generated.obj
 0001:00012e40       ??$IsWinRtWrapperOf@PE$AAVDeviceInformationPairing@Enumeration@Devices@Windows@@@Utils@NodeRT@@YA_NV?$Local@VValue@v8@@@v8@@@Z 0000000180013e40 f i _nodert_generated.obj
 0001:00012fb0       ??$IsWinRtWrapperOf@PE$AAVDeviceInformationUpdate@Enumeration@Devices@Windows@@@Utils@NodeRT@@YA_NV?$Local@VValue@v8@@@v8@@@Z 0000000180013fb0 f i _nodert_generated.obj
 0001:00013120       ??$IsWinRtWrapperOf@PE$AAVDevicePairingRequestedEventArgs@Enumeration@Devices@Windows@@@Utils@NodeRT@@YA_NV?$Local@VValue@v8@@@v8@@@Z 0000000180014120 f i _nodert_generated.obj
 0001:00013290       ??$IsWinRtWrapperOf@PE$AAVDevicePairingResult@Enumeration@Devices@Windows@@@Utils@NodeRT@@YA_NV?$Local@VValue@v8@@@v8@@@Z 0000000180014290 f i _nodert_generated.obj
 0001:00013400       ??$IsWinRtWrapperOf@PE$AAVDevicePicker@Enumeration@Devices@Windows@@@Utils@NodeRT@@YA_NV?$Local@VValue@v8@@@v8@@@Z 0000000180014400 f i _nodert_generated.obj
 0001:00013570       ??$IsWinRtWrapperOf@PE$AAVDevicePickerAppearance@Enumeration@Devices@Windows@@@Utils@NodeRT@@YA_NV?$Local@VValue@v8@@@v8@@@Z 0000000180014570 f i _nodert_generated.obj
 0001:000136e0       ??$IsWinRtWrapperOf@PE$AAVDevicePickerFilter@Enumeration@Devices@Windows@@@Utils@NodeRT@@YA_NV?$Local@VValue@v8@@@v8@@@Z 00000001800146e0 f i _nodert_generated.obj
 0001:00013850       ??$IsWinRtWrapperOf@PE$AAVDeviceSelectedEventArgs@Enumeration@Devices@Windows@@@Utils@NodeRT@@YA_NV?$Local@VValue@v8@@@v8@@@Z 0000000180014850 f i _nodert_generated.obj
 0001:000139c0       ??$IsWinRtWrapperOf@PE$AAVDeviceThumbnail@Enumeration@Devices@Windows@@@Utils@NodeRT@@YA_NV?$Local@VValue@v8@@@v8@@@Z 00000001800149c0 f i _nodert_generated.obj
 0001:00013b30       ??$IsWinRtWrapperOf@PE$AAVDeviceUnpairingResult@Enumeration@Devices@Windows@@@Utils@NodeRT@@YA_NV?$Local@VValue@v8@@@v8@@@Z 0000000180014b30 f i _nodert_generated.obj
 0001:00013ca0       ??$IsWinRtWrapperOf@PE$AAVDeviceWatcher@Enumeration@Devices@Windows@@@Utils@NodeRT@@YA_NV?$Local@VValue@v8@@@v8@@@Z 0000000180014ca0 f i _nodert_generated.obj
 0001:00013e10       ??$IsWinRtWrapperOf@PE$AAVDeviceWatcherEvent@Enumeration@Devices@Windows@@@Utils@NodeRT@@YA_NV?$Local@VValue@v8@@@v8@@@Z 0000000180014e10 f i _nodert_generated.obj
 0001:00013f80       ??$IsWinRtWrapperOf@PE$AAVDeviceWatcherTriggerDetails@Enumeration@Devices@Windows@@@Utils@NodeRT@@YA_NV?$Local@VValue@v8@@@v8@@@Z 0000000180014f80 f i _nodert_generated.obj
 0001:000140f0       ??$IsWinRtWrapperOf@PE$AAVEnclosureLocation@Enumeration@Devices@Windows@@@Utils@NodeRT@@YA_NV?$Local@VValue@v8@@@v8@@@Z 00000001800150f0 f i _nodert_generated.obj
 0001:00014590       ??$New@VBoolean@v8@@_N@Nan@@YA?AV?$Local@VBoolean@v8@@@v8@@_N@Z 0000000180015590 f i _nodert_generated.obj
 0001:000145f0       ??$New@VExternal@v8@@PEAX@Nan@@YA?AV?$Local@VExternal@v8@@@v8@@PEAX@Z 00000001800155f0 f i _nodert_generated.obj
 0001:00014630       ??$New@VFunctionTemplate@v8@@@Nan@@YA?AV?$Local@VFunctionTemplate@v8@@@v8@@P6AXAEBV?$FunctionCallbackInfo@VValue@v8@@@0@@ZV?$Local@VValue@v8@@@2@@Z 0000000180015630 f i _nodert_generated.obj
 0001:00014650       ??$New@VFunctionTemplate@v8@@V?$Local@VSignature@v8@@@2@@Nan@@YA?AV?$Local@VFunctionTemplate@v8@@@v8@@P6AXAEBV?$FunctionCallbackInfo@VValue@v8@@@0@@ZV?$Local@VValue@v8@@@2@V?$Local@VSignature@v8@@@2@@Z 0000000180015650 f i _nodert_generated.obj
 0001:00014670       ??$New@VInteger@v8@@H@Nan@@YA?AV?$Local@VInteger@v8@@@v8@@H@Z 0000000180015670 f i _nodert_generated.obj
 0001:000146e0       ??$New@VInteger@v8@@I@Nan@@YA?AV?$Local@VInteger@v8@@@v8@@I@Z 00000001800156e0 f i _nodert_generated.obj
 0001:00014750       ??$New@VNumber@v8@@N@Nan@@YA?AV?$Local@VNumber@v8@@@v8@@N@Z 0000000180015750 f i _nodert_generated.obj
 0001:000147a0       ??$New@VObject@v8@@@Nan@@YA?AV?$Local@VObject@v8@@@v8@@XZ 00000001800157a0 f i _nodert_generated.obj
 0001:000147d0       ??$New@VObjectTemplate@v8@@@Nan@@YA?AV?$Local@VObjectTemplate@v8@@@v8@@XZ 00000001800157d0 f i _nodert_generated.obj
 0001:00014800       ??$New@VSignature@v8@@V?$Local@VFunctionTemplate@v8@@@2@@Nan@@YA?AV?$Local@VSignature@v8@@@v8@@V?$Local@VFunctionTemplate@v8@@@2@@Z 0000000180015800 f i _nodert_generated.obj
 0001:00014840       ??$New@VString@v8@@PEBD@Nan@@YA?AV?$MaybeLocal@VString@v8@@@v8@@PEBD@Z 0000000180015840 f i _nodert_generated.obj
 0001:00014890       ??$Reset@VObject@v8@@@?$Persistent@VObject@v8@@V?$NonCopyablePersistentTraits@VObject@v8@@@2@@Nan@@QEAAXAEBV?$Local@VObject@v8@@@v8@@@Z 0000000180015890 f i _nodert_generated.obj
 0001:00014900       ??$SetMethod@VObject@v8@@VLocal@2@@Nan@@YAXV?$Local@VObject@v8@@@v8@@PEBDP6AXAEBV?$FunctionCallbackInfo@VValue@v8@@@0@@Z@Z 0000000180015900 f i _nodert_generated.obj
 0001:000149f0       ??$SetMethodAux@V?$Local@VObject@v8@@@v8@@@imp@Nan@@YAXV?$Local@VObject@v8@@@v8@@V?$Local@VString@v8@@@3@V?$Local@VFunctionTemplate@v8@@@3@ZZ 00000001800159f0 f i _nodert_generated.obj
 0001:00014a60       ??$ToStringInternal@$00@?$CustomBox@W4DeviceClass@Enumeration@Devices@Windows@@@Details@Platform@@AE$AAAPE$AAVString@2@XZ 0000000180015a60 f i _nodert_generated.obj
 0001:00014b50       ??$ToStringInternal@$00@?$CustomBox@W4DeviceWatcherEventKind@Enumeration@Devices@Windows@@@Details@Platform@@AE$AAAPE$AAVString@2@XZ 0000000180015b50 f i _nodert_generated.obj
 0001:00014c40       ??$Unwrap@V?$IteratorWrapper@PE$AAU?$IKeyValuePair@PE$AAVString@Platform@@PE$AAVObject@2@@Collections@Foundation@Windows@@@Collections@NodeRT@@@ObjectWrap@Nan@@SAPEAV?$IteratorWrapper@PE$AAU?$IKeyValuePair@PE$AAVString@Platform@@PE$AAVObject@2@@Collections@Foundation@Windows@@@Collections@NodeRT@@V?$Local@VObject@v8@@@v8@@@Z 0000000180015c40 f i _nodert_generated.obj
 0001:00014cf0       ??$Unwrap@V?$IteratorWrapper@PE$AAVDeviceInformation@Enumeration@Devices@Windows@@@Collections@NodeRT@@@ObjectWrap@Nan@@SAPEAV?$IteratorWrapper@PE$AAVDeviceInformation@Enumeration@Devices@Windows@@@Collections@NodeRT@@V?$Local@VObject@v8@@@v8@@@Z 0000000180015cf0 f i _nodert_generated.obj
 0001:00014da0       ??$Unwrap@V?$IteratorWrapper@PE$AAVDeviceWatcherEvent@Enumeration@Devices@Windows@@@Collections@NodeRT@@@ObjectWrap@Nan@@SAPEAV?$IteratorWrapper@PE$AAVDeviceWatcherEvent@Enumeration@Devices@Windows@@@Collections@NodeRT@@V?$Local@VObject@v8@@@v8@@@Z 0000000180015da0 f i _nodert_generated.obj
 0001:00014e50       ??$Unwrap@V?$IteratorWrapper@PE$AAVString@Platform@@@Collections@NodeRT@@@ObjectWrap@Nan@@SAPEAV?$IteratorWrapper@PE$AAVString@Platform@@@Collections@NodeRT@@V?$Local@VObject@v8@@@v8@@@Z 0000000180015e50 f i _nodert_generated.obj
 0001:00014f00       ??$Unwrap@V?$IteratorWrapper@W4DeviceClass@Enumeration@Devices@Windows@@@Collections@NodeRT@@@ObjectWrap@Nan@@SAPEAV?$IteratorWrapper@W4DeviceClass@Enumeration@Devices@Windows@@@Collections@NodeRT@@V?$Local@VObject@v8@@@v8@@@Z 0000000180015f00 f i _nodert_generated.obj
 0001:00014fb0       ??$Unwrap@V?$KeyValuePairWrapper@PE$AAVString@Platform@@PE$AAVObject@2@@Collections@NodeRT@@@ObjectWrap@Nan@@SAPEAV?$KeyValuePairWrapper@PE$AAVString@Platform@@PE$AAVObject@2@@Collections@NodeRT@@V?$Local@VObject@v8@@@v8@@@Z 0000000180015fb0 f i _nodert_generated.obj
 0001:00015060       ??$Unwrap@V?$MapViewWrapper@PE$AAVString@Platform@@PE$AAVObject@2@@Collections@NodeRT@@@ObjectWrap@Nan@@SAPEAV?$MapViewWrapper@PE$AAVString@Platform@@PE$AAVObject@2@@Collections@NodeRT@@V?$Local@VObject@v8@@@v8@@@Z 0000000180016060 f i _nodert_generated.obj
 0001:00015110       ??$Unwrap@V?$VectorViewWrapper@PE$AAVDeviceWatcherEvent@Enumeration@Devices@Windows@@@Collections@NodeRT@@@ObjectWrap@Nan@@SAPEAV?$VectorViewWrapper@PE$AAVDeviceWatcherEvent@Enumeration@Devices@Windows@@@Collections@NodeRT@@V?$Local@VObject@v8@@@v8@@@Z 0000000180016110 f i _nodert_generated.obj
 0001:000151c0       ??$Unwrap@V?$VectorViewWrapper@PE$AAVString@Platform@@@Collections@NodeRT@@@ObjectWrap@Nan@@SAPEAV?$VectorViewWrapper@PE$AAVString@Platform@@@Collections@NodeRT@@V?$Local@VObject@v8@@@v8@@@Z 00000001800161c0 f i _nodert_generated.obj
 0001:00015270       ??$Unwrap@V?$VectorViewWrapper@W4DeviceClass@Enumeration@Devices@Windows@@@Collections@NodeRT@@@ObjectWrap@Nan@@SAPEAV?$VectorViewWrapper@W4DeviceClass@Enumeration@Devices@Windows@@@Collections@NodeRT@@V?$Local@VObject@v8@@@v8@@@Z 0000000180016270 f i _nodert_generated.obj
 0001:00015320       ??$Unwrap@V?$VectorWrapper@PE$AAVString@Platform@@@Collections@NodeRT@@@ObjectWrap@Nan@@SAPEAV?$VectorWrapper@PE$AAVString@Platform@@@Collections@NodeRT@@V?$Local@VObject@v8@@@v8@@@Z 0000000180016320 f i _nodert_generated.obj
 0001:000153d0       ??$Unwrap@V?$VectorWrapper@W4DeviceClass@Enumeration@Devices@Windows@@@Collections@NodeRT@@@ObjectWrap@Nan@@SAPEAV?$VectorWrapper@W4DeviceClass@Enumeration@Devices@Windows@@@Collections@NodeRT@@V?$Local@VObject@v8@@@v8@@@Z 00000001800163d0 f i _nodert_generated.obj
 0001:00015480       ??$Unwrap@VDeviceAccessChangedEventArgs@Enumeration@Devices@Windows@NodeRT@@@ObjectWrap@Nan@@SAPEAVDeviceAccessChangedEventArgs@Enumeration@Devices@Windows@NodeRT@@V?$Local@VObject@v8@@@v8@@@Z 0000000180016480 f i _nodert_generated.obj
 0001:00015530       ??$Unwrap@VDeviceAccessInformation@Enumeration@Devices@Windows@NodeRT@@@ObjectWrap@Nan@@SAPEAVDeviceAccessInformation@Enumeration@Devices@Windows@NodeRT@@V?$Local@VObject@v8@@@v8@@@Z 0000000180016530 f i _nodert_generated.obj
 0001:000155e0       ??$Unwrap@VDeviceConnectionChangeTriggerDetails@Enumeration@Devices@Windows@NodeRT@@@ObjectWrap@Nan@@SAPEAVDeviceConnectionChangeTriggerDetails@Enumeration@Devices@Windows@NodeRT@@V?$Local@VObject@v8@@@v8@@@Z 00000001800165e0 f i _nodert_generated.obj
 0001:00015690       ??$Unwrap@VDeviceDisconnectButtonClickedEventArgs@Enumeration@Devices@Windows@NodeRT@@@ObjectWrap@Nan@@SAPEAVDeviceDisconnectButtonClickedEventArgs@Enumeration@Devices@Windows@NodeRT@@V?$Local@VObject@v8@@@v8@@@Z 0000000180016690 f i _nodert_generated.obj
 0001:00015740       ??$Unwrap@VDeviceInformation@Enumeration@Devices@Windows@NodeRT@@@ObjectWrap@Nan@@SAPEAVDeviceInformation@Enumeration@Devices@Windows@NodeRT@@V?$Local@VObject@v8@@@v8@@@Z 0000000180016740 f i _nodert_generated.obj
 0001:000157f0       ??$Unwrap@VDeviceInformationCollection@Enumeration@Devices@Windows@NodeRT@@@ObjectWrap@Nan@@SAPEAVDeviceInformationCollection@Enumeration@Devices@Windows@NodeRT@@V?$Local@VObject@v8@@@v8@@@Z 00000001800167f0 f i _nodert_generated.obj
 0001:000158a0       ??$Unwrap@VDeviceInformationCustomPairing@Enumeration@Devices@Windows@NodeRT@@@ObjectWrap@Nan@@SAPEAVDeviceInformationCustomPairing@Enumeration@Devices@Windows@NodeRT@@V?$Local@VObject@v8@@@v8@@@Z 00000001800168a0 f i _nodert_generated.obj
 0001:00015950       ??$Unwrap@VDeviceInformationPairing@Enumeration@Devices@Windows@NodeRT@@@ObjectWrap@Nan@@SAPEAVDeviceInformationPairing@Enumeration@Devices@Windows@NodeRT@@V?$Local@VObject@v8@@@v8@@@Z 0000000180016950 f i _nodert_generated.obj
 0001:00015a00       ??$Unwrap@VDeviceInformationUpdate@Enumeration@Devices@Windows@NodeRT@@@ObjectWrap@Nan@@SAPEAVDeviceInformationUpdate@Enumeration@Devices@Windows@NodeRT@@V?$Local@VObject@v8@@@v8@@@Z 0000000180016a00 f i _nodert_generated.obj
 0001:00015ab0       ??$Unwrap@VDevicePairingRequestedEventArgs@Enumeration@Devices@Windows@NodeRT@@@ObjectWrap@Nan@@SAPEAVDevicePairingRequestedEventArgs@Enumeration@Devices@Windows@NodeRT@@V?$Local@VObject@v8@@@v8@@@Z 0000000180016ab0 f i _nodert_generated.obj
 0001:00015b60       ??$Unwrap@VDevicePairingResult@Enumeration@Devices@Windows@NodeRT@@@ObjectWrap@Nan@@SAPEAVDevicePairingResult@Enumeration@Devices@Windows@NodeRT@@V?$Local@VObject@v8@@@v8@@@Z 0000000180016b60 f i _nodert_generated.obj
 0001:00015c10       ??$Unwrap@VDevicePicker@Enumeration@Devices@Windows@NodeRT@@@ObjectWrap@Nan@@SAPEAVDevicePicker@Enumeration@Devices@Windows@NodeRT@@V?$Local@VObject@v8@@@v8@@@Z 0000000180016c10 f i _nodert_generated.obj
 0001:00015cc0       ??$Unwrap@VDevicePickerAppearance@Enumeration@Devices@Windows@NodeRT@@@ObjectWrap@Nan@@SAPEAVDevicePickerAppearance@Enumeration@Devices@Windows@NodeRT@@V?$Local@VObject@v8@@@v8@@@Z 0000000180016cc0 f i _nodert_generated.obj
 0001:00015d70       ??$Unwrap@VDevicePickerFilter@Enumeration@Devices@Windows@NodeRT@@@ObjectWrap@Nan@@SAPEAVDevicePickerFilter@Enumeration@Devices@Windows@NodeRT@@V?$Local@VObject@v8@@@v8@@@Z 0000000180016d70 f i _nodert_generated.obj
 0001:00015e20       ??$Unwrap@VDeviceSelectedEventArgs@Enumeration@Devices@Windows@NodeRT@@@ObjectWrap@Nan@@SAPEAVDeviceSelectedEventArgs@Enumeration@Devices@Windows@NodeRT@@V?$Local@VObject@v8@@@v8@@@Z 0000000180016e20 f i _nodert_generated.obj
 0001:00015ed0       ??$Unwrap@VDeviceThumbnail@Enumeration@Devices@Windows@NodeRT@@@ObjectWrap@Nan@@SAPEAVDeviceThumbnail@Enumeration@Devices@Windows@NodeRT@@V?$Local@VObject@v8@@@v8@@@Z 0000000180016ed0 f i _nodert_generated.obj
 0001:00015f80       ??$Unwrap@VDeviceUnpairingResult@Enumeration@Devices@Windows@NodeRT@@@ObjectWrap@Nan@@SAPEAVDeviceUnpairingResult@Enumeration@Devices@Windows@NodeRT@@V?$Local@VObject@v8@@@v8@@@Z 0000000180016f80 f i _nodert_generated.obj
 0001:00016030       ??$Unwrap@VDeviceWatcher@Enumeration@Devices@Windows@NodeRT@@@ObjectWrap@Nan@@SAPEAVDeviceWatcher@Enumeration@Devices@Windows@NodeRT@@V?$Local@VObject@v8@@@v8@@@Z 0000000180017030 f i _nodert_generated.obj
 0001:000160e0       ??$Unwrap@VDeviceWatcherEvent@Enumeration@Devices@Windows@NodeRT@@@ObjectWrap@Nan@@SAPEAVDeviceWatcherEvent@Enumeration@Devices@Windows@NodeRT@@V?$Local@VObject@v8@@@v8@@@Z 00000001800170e0 f i _nodert_generated.obj
 0001:00016190       ??$Unwrap@VDeviceWatcherTriggerDetails@Enumeration@Devices@Windows@NodeRT@@@ObjectWrap@Nan@@SAPEAVDeviceWatcherTriggerDetails@Enumeration@Devices@Windows@NodeRT@@V?$Local@VObject@v8@@@v8@@@Z 0000000180017190 f i _nodert_generated.obj
 0001:00016240       ??$Unwrap@VEnclosureLocation@Enumeration@Devices@Windows@NodeRT@@@ObjectWrap@Nan@@SAPEAVEnclosureLocation@Enumeration@Devices@Windows@NodeRT@@V?$Local@VObject@v8@@@v8@@@Z 0000000180017240 f i _nodert_generated.obj
 0001:000162f0       ??$Unwrap@VIDevicePairingSettings@Enumeration@Devices@Windows@NodeRT@@@ObjectWrap@Nan@@SAPEAVIDevicePairingSettings@Enumeration@Devices@Windows@NodeRT@@V?$Local@VObject@v8@@@v8@@@Z 00000001800172f0 f i _nodert_generated.obj
 0001:000163a0       ??$Unwrap@VOpaqueWrapper@NodeRT@@@ObjectWrap@Nan@@SAPEAVOpaqueWrapper@NodeRT@@V?$Local@VObject@v8@@@v8@@@Z 00000001800173a0 f i _nodert_generated.obj
 0001:00016450       ??$Unwrap@VWrapperBase@NodeRT@@@ObjectWrap@Nan@@SAPEAVWrapperBase@NodeRT@@V?$Local@VObject@v8@@@v8@@@Z 0000000180017450 f i _nodert_generated.obj
 0001:00016500       ??$VectorBindableIndexOf@PE$AAVString@Platform@@U?$equal_to@PE$AAVString@Platform@@@std@@@Details@Collections@Platform@@YA_NU?$integral_constant@_N$00@std@@AEBV?$vector@PE$AAVString@Platform@@V?$allocator@PE$AAVString@Platform@@@std@@@4@PE$AAVObject@2@PEAI@Z 0000000180017500 f i _nodert_generated.obj
 0001:000165d0       ??$VectorBindableIndexOf@W4DeviceWatcherEventKind@Enumeration@Devices@Windows@@U?$equal_to@W4DeviceWatcherEventKind@Enumeration@Devices@Windows@@@std@@@Details@Collections@Platform@@YA_NU?$integral_constant@_N$0A@@std@@AEBV?$vector@W4DeviceWatcherEventKind@Enumeration@Devices@Windows@@V?$allocator@W4DeviceWatcherEventKind@Enumeration@Devices@Windows@@@std@@@4@PE$AAVObject@2@PEAI@Z 00000001800175d0 f i _nodert_generated.obj
 0001:00016720       ??$VectorGetMany@PE$AAVString@Platform@@@Details@Collections@Platform@@YAIAEBV?$vector@PE$AAVString@Platform@@V?$allocator@PE$AAVString@Platform@@@std@@@std@@IP$01E$AAV?$WriteOnlyArray@PE$AAVString@Platform@@$00@2@@Z 0000000180017720 f i _nodert_generated.obj
 0001:00016830       ??$VectorGetMany@W4DeviceWatcherEventKind@Enumeration@Devices@Windows@@@Details@Collections@Platform@@YAIAEBV?$vector@W4DeviceWatcherEventKind@Enumeration@Devices@Windows@@V?$allocator@W4DeviceWatcherEventKind@Enumeration@Devices@Windows@@@std@@@std@@IP$01E$AAV?$WriteOnlyArray@W4DeviceWatcherEventKind@Enumeration@Devices@Windows@@$00@2@@Z 0000000180017830 f i _nodert_generated.obj
 0001:000168c0       ??$VectorIndexOf@PE$AAVString@Platform@@U?$equal_to@PE$AAVString@Platform@@@std@@@Details@Collections@Platform@@YA_NAEBV?$vector@PE$AAVString@Platform@@V?$allocator@PE$AAVString@Platform@@@std@@@std@@PE$AAVString@2@PEAI@Z 00000001800178c0 f i _nodert_generated.obj
 0001:000169d0       ??$_Assign@PEAPE$AAVString@Platform@@@?$vector@PE$AAVString@Platform@@V?$allocator@PE$AAVString@Platform@@@std@@@std@@QEAAXPEAPE$AAVString@Platform@@0Uforward_iterator_tag@1@@Z 00000001800179d0 f i _nodert_generated.obj
 0001:00016af0       ??$_Assign@PEAW4DeviceWatcherEventKind@Enumeration@Devices@Windows@@@?$vector@W4DeviceWatcherEventKind@Enumeration@Devices@Windows@@V?$allocator@W4DeviceWatcherEventKind@Enumeration@Devices@Windows@@@std@@@std@@QEAAXPEAW4DeviceWatcherEventKind@Enumeration@Devices@Windows@@0Uforward_iterator_tag@1@@Z 0000000180017af0 f i _nodert_generated.obj
 0001:00016c30       ??$_AsyncInit@II@_Task_impl_base@details@Concurrency@@SAXAEBV?$shared_ptr@U?$_Task_impl@I@details@Concurrency@@@std@@PE$AAU?$IAsyncOperation@I@Foundation@Windows@@@Z 0000000180017c30 f i _nodert_generated.obj
 0001:00016d20       ??$_AsyncInit@PE$AAUIBuffer@Streams@Storage@Windows@@PE$AAU1234@@_Task_impl_base@details@Concurrency@@SAXAEBV?$shared_ptr@U?$_Task_impl@PE$AAUIBuffer@Streams@Storage@Windows@@@details@Concurrency@@@std@@PE$AAU?$IAsyncOperation@PE$AAUIBuffer@Streams@Storage@Windows@@@Foundation@Windows@@@Z 0000000180017d20 f i _nodert_generated.obj
 0001:00016e10       ??$_AsyncInit@PE$AAVDeviceInformation@Enumeration@Devices@Windows@@PE$AAV1234@@_Task_impl_base@details@Concurrency@@SAXAEBV?$shared_ptr@U?$_Task_impl@PE$AAVDeviceInformation@Enumeration@Devices@Windows@@@details@Concurrency@@@std@@PE$AAU?$IAsyncOperation@PE$AAVDeviceInformation@Enumeration@Devices@Windows@@@Foundation@Windows@@@Z 0000000180017e10 f i _nodert_generated.obj
 0001:00016f00       ??$_AsyncInit@PE$AAVDeviceInformationCollection@Enumeration@Devices@Windows@@PE$AAV1234@@_Task_impl_base@details@Concurrency@@SAXAEBV?$shared_ptr@U?$_Task_impl@PE$AAVDeviceInformationCollection@Enumeration@Devices@Windows@@@details@Concurrency@@@std@@PE$AAU?$IAsyncOperation@PE$AAVDeviceInformationCollection@Enumeration@Devices@Windows@@@Foundation@Windows@@@Z 0000000180017f00 f i _nodert_generated.obj
 0001:00016ff0       ??$_AsyncInit@PE$AAVDevicePairingResult@Enumeration@Devices@Windows@@PE$AAV1234@@_Task_impl_base@details@Concurrency@@SAXAEBV?$shared_ptr@U?$_Task_impl@PE$AAVDevicePairingResult@Enumeration@Devices@Windows@@@details@Concurrency@@@std@@PE$AAU?$IAsyncOperation@PE$AAVDevicePairingResult@Enumeration@Devices@Windows@@@Foundation@Windows@@@Z 0000000180017ff0 f i _nodert_generated.obj
 0001:000170e0       ??$_AsyncInit@PE$AAVDeviceThumbnail@Enumeration@Devices@Windows@@PE$AAV1234@@_Task_impl_base@details@Concurrency@@SAXAEBV?$shared_ptr@U?$_Task_impl@PE$AAVDeviceThumbnail@Enumeration@Devices@Windows@@@details@Concurrency@@@std@@PE$AAU?$IAsyncOperation@PE$AAVDeviceThumbnail@Enumeration@Devices@Windows@@@Foundation@Windows@@@Z 00000001800180e0 f i _nodert_generated.obj
 0001:000171d0       ??$_AsyncInit@PE$AAVDeviceUnpairingResult@Enumeration@Devices@Windows@@PE$AAV1234@@_Task_impl_base@details@Concurrency@@SAXAEBV?$shared_ptr@U?$_Task_impl@PE$AAVDeviceUnpairingResult@Enumeration@Devices@Windows@@@details@Concurrency@@@std@@PE$AAU?$IAsyncOperation@PE$AAVDeviceUnpairingResult@Enumeration@Devices@Windows@@@Foundation@Windows@@@Z 00000001800181d0 f i _nodert_generated.obj
 0001:000172c0       ??$_AsyncInit@_N_N@_Task_impl_base@details@Concurrency@@SAXAEBV?$shared_ptr@U?$_Task_impl@_N@details@Concurrency@@@std@@PE$AAU?$IAsyncOperation@_N@Foundation@Windows@@@Z 00000001800182c0 f i _nodert_generated.obj
 0001:000173b0       ??$_Clone@X@?$_Func_impl@V<lambda_0f026b73064d388c4941d27674c0da0f>@@V?$allocator@H@std@@EV?$task@PE$AAVDeviceInformation@Enumeration@Devices@Windows@@@Concurrency@@@std@@AEBAPEAV?$_Func_base@EV?$task@PE$AAVDeviceInformation@Enumeration@Devices@Windows@@@Concurrency@@@1@PEAXU?$integral_constant@_N$00@1@@Z 00000001800183b0 f i _nodert_generated.obj
 0001:00017460       ??$_Clone@X@?$_Func_impl@V<lambda_48b29ce106f56fee2b9931f4f0d8ba5b>@@V?$allocator@H@std@@EV?$task@PE$AAVDevicePairingResult@Enumeration@Devices@Windows@@@Concurrency@@@std@@AEBAPEAV?$_Func_base@EV?$task@PE$AAVDevicePairingResult@Enumeration@Devices@Windows@@@Concurrency@@@1@PEAXU?$integral_constant@_N$00@1@@Z 0000000180018460 f i _nodert_generated.obj
 0001:00017510       ??$_Clone@X@?$_Func_impl@V<lambda_59c512ccbceb4a4aa79aea9f317c8729>@@V?$allocator@H@std@@EV?$task@I@Concurrency@@@std@@AEBAPEAV?$_Func_base@EV?$task@I@Concurrency@@@1@PEAXU?$integral_constant@_N$00@1@@Z 0000000180018510 f i _nodert_generated.obj
 0001:000175c0       ??$_Clone@X@?$_Func_impl@V<lambda_5a1c437f17fa466aabaf7b0153a0ecc3>@@V?$allocator@H@std@@EV?$task@_N@Concurrency@@@std@@AEBAPEAV?$_Func_base@EV?$task@_N@Concurrency@@@1@PEAXU?$integral_constant@_N$00@1@@Z 00000001800185c0 f i _nodert_generated.obj
 0001:00017670       ??$_Clone@X@?$_Func_impl@V<lambda_5a3867752bb24d418d4fe7d1b64439ce>@@V?$allocator@H@std@@EV?$task@PE$AAVDeviceThumbnail@Enumeration@Devices@Windows@@@Concurrency@@@std@@AEBAPEAV?$_Func_base@EV?$task@PE$AAVDeviceThumbnail@Enumeration@Devices@Windows@@@Concurrency@@@1@PEAXU?$integral_constant@_N$00@1@@Z 0000000180018670 f i _nodert_generated.obj
 0001:00017720       ??$_Clone@X@?$_Func_impl@V<lambda_7233ffe6b129a6ce3ddee2ef536800f2>@@V?$allocator@H@std@@EV?$task@PE$AAVDeviceUnpairingResult@Enumeration@Devices@Windows@@@Concurrency@@@std@@AEBAPEAV?$_Func_base@EV?$task@PE$AAVDeviceUnpairingResult@Enumeration@Devices@Windows@@@Concurrency@@@1@PEAXU?$integral_constant@_N$00@1@@Z 0000000180018720 f i _nodert_generated.obj
 0001:000177d0       ??$_Clone@X@?$_Func_impl@V<lambda_c6359c4706fd9bcaab3a9e08e7d5b809>@@V?$allocator@H@std@@EV?$task@PE$AAUIBuffer@Streams@Storage@Windows@@@Concurrency@@@std@@AEBAPEAV?$_Func_base@EV?$task@PE$AAUIBuffer@Streams@Storage@Windows@@@Concurrency@@@1@PEAXU?$integral_constant@_N$00@1@@Z 00000001800187d0 f i _nodert_generated.obj
 0001:00017880       ??$_Clone@X@?$_Func_impl@V<lambda_fdd502a3800f185e5a7b3c479e8ad973>@@V?$allocator@H@std@@EV?$task@PE$AAVDeviceInformationCollection@Enumeration@Devices@Windows@@@Concurrency@@@std@@AEBAPEAV?$_Func_base@EV?$task@PE$AAVDeviceInformationCollection@Enumeration@Devices@Windows@@@Concurrency@@@1@PEAXU?$integral_constant@_N$00@1@@Z 0000000180018880 f i _nodert_generated.obj
 0001:00017930       ??$_Construct@V?$_Vector_const_iterator@V?$_Vector_val@U?$_Simple_types@PE$AAVString@Platform@@@std@@@std@@@std@@@?$vector@PE$AAVString@Platform@@V?$allocator@PE$AAVString@Platform@@@std@@@std@@QEAAXV?$_Vector_const_iterator@V?$_Vector_val@U?$_Simple_types@PE$AAVString@Platform@@@std@@@std@@@1@0Uforward_iterator_tag@1@@Z 0000000180018930 f i _nodert_generated.obj
 0001:000179e0       ??$_Construct@V?$_Vector_const_iterator@V?$_Vector_val@U?$_Simple_types@W4DeviceWatcherEventKind@Enumeration@Devices@Windows@@@std@@@std@@@std@@@?$vector@W4DeviceWatcherEventKind@Enumeration@Devices@Windows@@V?$allocator@W4DeviceWatcherEventKind@Enumeration@Devices@Windows@@@std@@@std@@QEAAXV?$_Vector_const_iterator@V?$_Vector_val@U?$_Simple_types@W4DeviceWatcherEventKind@Enumeration@Devices@Windows@@@std@@@std@@@1@0Uforward_iterator_tag@1@@Z 00000001800189e0 f i _nodert_generated.obj
 0001:00017ab0       ??$_Copy_unchecked@PEAPEAXPEAPEAX@std@@YAPEAPEAXPEAPEAX00@Z 0000000180018ab0 f i _nodert_generated.obj
 0001:00017af0       ??$_Invoke_ret@PE$AAVDeviceWatcherEvent@Enumeration@Devices@Windows@@AEAV<lambda_c419c2aaec9143fa8b8a36a007ab213b>@@V?$Local@VValue@v8@@@v8@@@std@@YAPE$AAVDeviceWatcherEvent@Enumeration@Devices@Windows@@U?$_Forced@PE$AAVDeviceWatcherEvent@Enumeration@Devices@Windows@@$0A@@0@AEAV<lambda_c419c2aaec9143fa8b8a36a007ab213b>@@$$QEAV?$Local@VValue@v8@@@v8@@@Z 0000000180018af0 f i _nodert_generated.obj
 0001:00017b90       ??$_Invoke_ret@PE$AAVString@Platform@@AEAV<lambda_560edee77a3239947065bc88f6bce7bc>@@V?$Local@VValue@v8@@@v8@@@std@@YAPE$AAVString@Platform@@U?$_Forced@PE$AAVString@Platform@@$0A@@0@AEAV<lambda_560edee77a3239947065bc88f6bce7bc>@@$$QEAV?$Local@VValue@v8@@@v8@@@Z 0000000180018b90 f i _nodert_generated.obj
 0001:00017c60       ??$_Invoke_ret@PE$AAVString@Platform@@AEAV<lambda_865dc1c5144f92b57e161143446c13fa>@@V?$Local@VValue@v8@@@v8@@@std@@YAPE$AAVString@Platform@@U?$_Forced@PE$AAVString@Platform@@$0A@@0@AEAV<lambda_865dc1c5144f92b57e161143446c13fa>@@$$QEAV?$Local@VValue@v8@@@v8@@@Z 0000000180018c60 f i _nodert_generated.obj
 0001:00017d30       ??$_Invoke_ret@PE$AAVString@Platform@@AEAV<lambda_8ec31411949358aba4a01b593f0de4dd>@@V?$Local@VValue@v8@@@v8@@@std@@YAPE$AAVString@Platform@@U?$_Forced@PE$AAVString@Platform@@$0A@@0@AEAV<lambda_8ec31411949358aba4a01b593f0de4dd>@@$$QEAV?$Local@VValue@v8@@@v8@@@Z 0000000180018d30 f i _nodert_generated.obj
 0001:00017e00       ??$_Invoke_ret@PE$AAVString@Platform@@AEAV<lambda_988993e7b5ffc7b958aacacdd6a62e0b>@@V?$Local@VValue@v8@@@v8@@@std@@YAPE$AAVString@Platform@@U?$_Forced@PE$AAVString@Platform@@$0A@@0@AEAV<lambda_988993e7b5ffc7b958aacacdd6a62e0b>@@$$QEAV?$Local@VValue@v8@@@v8@@@Z 0000000180018e00 f i _nodert_generated.obj
 0001:00017ed0       ??$_Invoke_ret@PE$AAVString@Platform@@AEAV<lambda_ae13666b41b05240b4d593c72a58d1c0>@@V?$Local@VValue@v8@@@v8@@@std@@YAPE$AAVString@Platform@@U?$_Forced@PE$AAVString@Platform@@$0A@@0@AEAV<lambda_ae13666b41b05240b4d593c72a58d1c0>@@$$QEAV?$Local@VValue@v8@@@v8@@@Z 0000000180018ed0 f i _nodert_generated.obj
 0001:00017fa0       ??$_Invoke_ret@PE$AAVString@Platform@@AEAV<lambda_af4e454302585268d6adc8ac5957ad65>@@V?$Local@VValue@v8@@@v8@@@std@@YAPE$AAVString@Platform@@U?$_Forced@PE$AAVString@Platform@@$0A@@0@AEAV<lambda_af4e454302585268d6adc8ac5957ad65>@@$$QEAV?$Local@VValue@v8@@@v8@@@Z 0000000180018fa0 f i _nodert_generated.obj
 0001:00018070       ??$_Invoke_ret@PE$AAVString@Platform@@AEAV<lambda_c61f3b16e222639b1d481ed13c0b70c1>@@V?$Local@VValue@v8@@@v8@@@std@@YAPE$AAVString@Platform@@U?$_Forced@PE$AAVString@Platform@@$0A@@0@AEAV<lambda_c61f3b16e222639b1d481ed13c0b70c1>@@$$QEAV?$Local@VValue@v8@@@v8@@@Z 0000000180019070 f i _nodert_generated.obj
 0001:00018140       ??$_Invoke_ret@PE$AAVString@Platform@@AEAV<lambda_deee36ab30a13e1c2d60a14bf3bb5581>@@V?$Local@VValue@v8@@@v8@@@std@@YAPE$AAVString@Platform@@U?$_Forced@PE$AAVString@Platform@@$0A@@0@AEAV<lambda_deee36ab30a13e1c2d60a14bf3bb5581>@@$$QEAV?$Local@VValue@v8@@@v8@@@Z 0000000180019140 f i _nodert_generated.obj
 0001:00018210       ??$_Invoke_ret@PE$AAVString@Platform@@AEAV<lambda_e0e44bd6a0e9f8cd3d301f9306f4f087>@@V?$Local@VValue@v8@@@v8@@@std@@YAPE$AAVString@Platform@@U?$_Forced@PE$AAVString@Platform@@$0A@@0@AEAV<lambda_e0e44bd6a0e9f8cd3d301f9306f4f087>@@$$QEAV?$Local@VValue@v8@@@v8@@@Z 0000000180019210 f i _nodert_generated.obj
 0001:000182e0       ??$_Invoke_ret@PE$AAVString@Platform@@AEAV<lambda_f215970b1bea2a440d7171855a5ab2b0>@@V?$Local@VValue@v8@@@v8@@@std@@YAPE$AAVString@Platform@@U?$_Forced@PE$AAVString@Platform@@$0A@@0@AEAV<lambda_f215970b1bea2a440d7171855a5ab2b0>@@$$QEAV?$Local@VValue@v8@@@v8@@@Z 00000001800192e0 f i _nodert_generated.obj
 0001:000183b0       ??$_MakeTToUnitFunc@V?$task@I@Concurrency@@@details@Concurrency@@YA?AV?$function@$$A6AEV?$task@I@Concurrency@@@Z@std@@AEBV?$function@$$A6AXV?$task@I@Concurrency@@@Z@3@@Z 00000001800193b0 f i _nodert_generated.obj
 0001:00018460       ??$_MakeTToUnitFunc@V?$task@PE$AAUIBuffer@Streams@Storage@Windows@@@Concurrency@@@details@Concurrency@@YA?AV?$function@$$A6AEV?$task@PE$AAUIBuffer@Streams@Storage@Windows@@@Concurrency@@@Z@std@@AEBV?$function@$$A6AXV?$task@PE$AAUIBuffer@Streams@Storage@Windows@@@Concurrency@@@Z@3@@Z 0000000180019460 f i _nodert_generated.obj
 0001:00018510       ??$_MakeTToUnitFunc@V?$task@PE$AAVDeviceInformation@Enumeration@Devices@Windows@@@Concurrency@@@details@Concurrency@@YA?AV?$function@$$A6AEV?$task@PE$AAVDeviceInformation@Enumeration@Devices@Windows@@@Concurrency@@@Z@std@@AEBV?$function@$$A6AXV?$task@PE$AAVDeviceInformation@Enumeration@Devices@Windows@@@Concurrency@@@Z@3@@Z 0000000180019510 f i _nodert_generated.obj
 0001:000185c0       ??$_MakeTToUnitFunc@V?$task@PE$AAVDeviceInformationCollection@Enumeration@Devices@Windows@@@Concurrency@@@details@Concurrency@@YA?AV?$function@$$A6AEV?$task@PE$AAVDeviceInformationCollection@Enumeration@Devices@Windows@@@Concurrency@@@Z@std@@AEBV?$function@$$A6AXV?$task@PE$AAVDeviceInformationCollection@Enumeration@Devices@Windows@@@Concurrency@@@Z@3@@Z 00000001800195c0 f i _nodert_generated.obj
 0001:00018670       ??$_MakeTToUnitFunc@V?$task@PE$AAVDevicePairingResult@Enumeration@Devices@Windows@@@Concurrency@@@details@Concurrency@@YA?AV?$function@$$A6AEV?$task@PE$AAVDevicePairingResult@Enumeration@Devices@Windows@@@Concurrency@@@Z@std@@AEBV?$function@$$A6AXV?$task@PE$AAVDevicePairingResult@Enumeration@Devices@Windows@@@Concurrency@@@Z@3@@Z 0000000180019670 f i _nodert_generated.obj
 0001:00018720       ??$_MakeTToUnitFunc@V?$task@PE$AAVDeviceThumbnail@Enumeration@Devices@Windows@@@Concurrency@@@details@Concurrency@@YA?AV?$function@$$A6AEV?$task@PE$AAVDeviceThumbnail@Enumeration@Devices@Windows@@@Concurrency@@@Z@std@@AEBV?$function@$$A6AXV?$task@PE$AAVDeviceThumbnail@Enumeration@Devices@Windows@@@Concurrency@@@Z@3@@Z 0000000180019720 f i _nodert_generated.obj
 0001:000187d0       ??$_MakeTToUnitFunc@V?$task@PE$AAVDeviceUnpairingResult@Enumeration@Devices@Windows@@@Concurrency@@@details@Concurrency@@YA?AV?$function@$$A6AEV?$task@PE$AAVDeviceUnpairingResult@Enumeration@Devices@Windows@@@Concurrency@@@Z@std@@AEBV?$function@$$A6AXV?$task@PE$AAVDeviceUnpairingResult@Enumeration@Devices@Windows@@@Concurrency@@@Z@3@@Z 00000001800197d0 f i _nodert_generated.obj
 0001:00018880       ??$_MakeTToUnitFunc@V?$task@_N@Concurrency@@@details@Concurrency@@YA?AV?$function@$$A6AEV?$task@_N@Concurrency@@@Z@std@@AEBV?$function@$$A6AXV?$task@_N@Concurrency@@@Z@3@@Z 0000000180019880 f i _nodert_generated.obj
 0001:00018930       ??$_Move_unchecked1@PEAPE$AAVString@Platform@@PEAPE$AAV12@@std@@YAPEAPE$AAVString@Platform@@PEAPE$AAV12@00U_General_ptr_iterator_tag@0@@Z 0000000180019930 f i _nodert_generated.obj
 0001:000189e0       ??$_Reset@V<lambda_0f026b73064d388c4941d27674c0da0f>@@@?$_Func_class@EV?$task@PE$AAVDeviceInformation@Enumeration@Devices@Windows@@@Concurrency@@@std@@IEAAX$$QEAV<lambda_0f026b73064d388c4941d27674c0da0f>@@@Z 00000001800199e0 f i _nodert_generated.obj
 0001:00018a90       ??$_Reset@V<lambda_48b29ce106f56fee2b9931f4f0d8ba5b>@@@?$_Func_class@EV?$task@PE$AAVDevicePairingResult@Enumeration@Devices@Windows@@@Concurrency@@@std@@IEAAX$$QEAV<lambda_48b29ce106f56fee2b9931f4f0d8ba5b>@@@Z 0000000180019a90 f i _nodert_generated.obj
 0001:00018b40       ??$_Reset@V<lambda_59c512ccbceb4a4aa79aea9f317c8729>@@@?$_Func_class@EV?$task@I@Concurrency@@@std@@IEAAX$$QEAV<lambda_59c512ccbceb4a4aa79aea9f317c8729>@@@Z 0000000180019b40 f i _nodert_generated.obj
 0001:00018bf0       ??$_Reset@V<lambda_5a1c437f17fa466aabaf7b0153a0ecc3>@@@?$_Func_class@EV?$task@_N@Concurrency@@@std@@IEAAX$$QEAV<lambda_5a1c437f17fa466aabaf7b0153a0ecc3>@@@Z 0000000180019bf0 f i _nodert_generated.obj
 0001:00018ca0       ??$_Reset@V<lambda_5a3867752bb24d418d4fe7d1b64439ce>@@@?$_Func_class@EV?$task@PE$AAVDeviceThumbnail@Enumeration@Devices@Windows@@@Concurrency@@@std@@IEAAX$$QEAV<lambda_5a3867752bb24d418d4fe7d1b64439ce>@@@Z 0000000180019ca0 f i _nodert_generated.obj
 0001:00018d50       ??$_Reset@V<lambda_7233ffe6b129a6ce3ddee2ef536800f2>@@@?$_Func_class@EV?$task@PE$AAVDeviceUnpairingResult@Enumeration@Devices@Windows@@@Concurrency@@@std@@IEAAX$$QEAV<lambda_7233ffe6b129a6ce3ddee2ef536800f2>@@@Z 0000000180019d50 f i _nodert_generated.obj
 0001:00018e00       ??$_Reset@V<lambda_c6359c4706fd9bcaab3a9e08e7d5b809>@@@?$_Func_class@EV?$task@PE$AAUIBuffer@Streams@Storage@Windows@@@Concurrency@@@std@@IEAAX$$QEAV<lambda_c6359c4706fd9bcaab3a9e08e7d5b809>@@@Z 0000000180019e00 f i _nodert_generated.obj
 0001:00018eb0       ??$_Reset@V<lambda_fdd502a3800f185e5a7b3c479e8ad973>@@@?$_Func_class@EV?$task@PE$AAVDeviceInformationCollection@Enumeration@Devices@Windows@@@Concurrency@@@std@@IEAAX$$QEAV<lambda_fdd502a3800f185e5a7b3c479e8ad973>@@@Z 0000000180019eb0 f i _nodert_generated.obj
 0001:00018f60       ??$_Rotate_unchecked1@PEAPE$AAVString@Platform@@@std@@YAPEAPE$AAVString@Platform@@PEAPE$AAV12@00Urandom_access_iterator_tag@0@@Z 0000000180019f60 f i _nodert_generated.obj
 0001:00019070       ??$_Rotate_unchecked1@PEAW4DeviceWatcherEventKind@Enumeration@Devices@Windows@@@std@@YAPEAW4DeviceWatcherEventKind@Enumeration@Devices@Windows@@PEAW41234@00Urandom_access_iterator_tag@0@@Z 000000018001a070 f i _nodert_generated.obj
 0001:00019150       ??$_TaskInitNoFunctor@I@?$task@I@Concurrency@@AEAAXPE$AAU?$IAsyncOperationWithProgress@II@Foundation@Windows@@@Z 000000018001a150 f i _nodert_generated.obj
 0001:000191f0       ??$_TaskInitNoFunctor@I@?$task@PE$AAUIBuffer@Streams@Storage@Windows@@@Concurrency@@AEAAXPE$AAU?$IAsyncOperationWithProgress@PE$AAUIBuffer@Streams@Storage@Windows@@I@Foundation@Windows@@@Z 000000018001a1f0 f i _nodert_generated.obj
 0001:00019290       ??$_ThenImpl@IV?$function@$$A6AXV?$task@I@Concurrency@@@Z@std@@@?$task@I@Concurrency@@AEBA?AV?$task@X@1@AEBV?$function@$$A6AXV?$task@I@Concurrency@@@Z@std@@AEAU_ThenImplOptions@details@1@@Z 000000018001a290 f i _nodert_generated.obj
 0001:00019400       ??$_ThenImpl@PE$AAUIBuffer@Streams@Storage@Windows@@V?$function@$$A6AXV?$task@PE$AAUIBuffer@Streams@Storage@Windows@@@Concurrency@@@Z@std@@@?$task@PE$AAUIBuffer@Streams@Storage@Windows@@@Concurrency@@AEBA?AV?$task@X@1@AEBV?$function@$$A6AXV?$task@PE$AAUIBuffer@Streams@Storage@Windows@@@Concurrency@@@Z@std@@AEAU_ThenImplOptions@details@1@@Z 000000018001a400 f i _nodert_generated.obj
 0001:00019570       ??$_ThenImpl@PE$AAVDeviceInformation@Enumeration@Devices@Windows@@V?$function@$$A6AXV?$task@PE$AAVDeviceInformation@Enumeration@Devices@Windows@@@Concurrency@@@Z@std@@@?$task@PE$AAVDeviceInformation@Enumeration@Devices@Windows@@@Concurrency@@AEBA?AV?$task@X@1@AEBV?$function@$$A6AXV?$task@PE$AAVDeviceInformation@Enumeration@Devices@Windows@@@Concurrency@@@Z@std@@AEAU_ThenImplOptions@details@1@@Z 000000018001a570 f i _nodert_generated.obj
 0001:000196e0       ??$_ThenImpl@PE$AAVDeviceInformationCollection@Enumeration@Devices@Windows@@V?$function@$$A6AXV?$task@PE$AAVDeviceInformationCollection@Enumeration@Devices@Windows@@@Concurrency@@@Z@std@@@?$task@PE$AAVDeviceInformationCollection@Enumeration@Devices@Windows@@@Concurrency@@AEBA?AV?$task@X@1@AEBV?$function@$$A6AXV?$task@PE$AAVDeviceInformationCollection@Enumeration@Devices@Windows@@@Concurrency@@@Z@std@@AEAU_ThenImplOptions@details@1@@Z 000000018001a6e0 f i _nodert_generated.obj
 0001:00019850       ??$_ThenImpl@PE$AAVDevicePairingResult@Enumeration@Devices@Windows@@V?$function@$$A6AXV?$task@PE$AAVDevicePairingResult@Enumeration@Devices@Windows@@@Concurrency@@@Z@std@@@?$task@PE$AAVDevicePairingResult@Enumeration@Devices@Windows@@@Concurrency@@AEBA?AV?$task@X@1@AEBV?$function@$$A6AXV?$task@PE$AAVDevicePairingResult@Enumeration@Devices@Windows@@@Concurrency@@@Z@std@@AEAU_ThenImplOptions@details@1@@Z 000000018001a850 f i _nodert_generated.obj
 0001:000199c0       ??$_ThenImpl@PE$AAVDeviceThumbnail@Enumeration@Devices@Windows@@V?$function@$$A6AXV?$task@PE$AAVDeviceThumbnail@Enumeration@Devices@Windows@@@Concurrency@@@Z@std@@@?$task@PE$AAVDeviceThumbnail@Enumeration@Devices@Windows@@@Concurrency@@AEBA?AV?$task@X@1@AEBV?$function@$$A6AXV?$task@PE$AAVDeviceThumbnail@Enumeration@Devices@Windows@@@Concurrency@@@Z@std@@AEAU_ThenImplOptions@details@1@@Z 000000018001a9c0 f i _nodert_generated.obj
 0001:00019b30       ??$_ThenImpl@PE$AAVDeviceUnpairingResult@Enumeration@Devices@Windows@@V?$function@$$A6AXV?$task@PE$AAVDeviceUnpairingResult@Enumeration@Devices@Windows@@@Concurrency@@@Z@std@@@?$task@PE$AAVDeviceUnpairingResult@Enumeration@Devices@Windows@@@Concurrency@@AEBA?AV?$task@X@1@AEBV?$function@$$A6AXV?$task@PE$AAVDeviceUnpairingResult@Enumeration@Devices@Windows@@@Concurrency@@@Z@std@@AEAU_ThenImplOptions@details@1@@Z 000000018001ab30 f i _nodert_generated.obj
 0001:00019ca0       ??$_ThenImpl@_NV?$function@$$A6AXV?$task@_N@Concurrency@@@Z@std@@@?$task@_N@Concurrency@@AEBA?AV?$task@X@1@AEBV?$function@$$A6AXV?$task@_N@Concurrency@@@Z@std@@AEAU_ThenImplOptions@details@1@@Z 000000018001aca0 f i _nodert_generated.obj
 0001:00019e10       ??$_Uninitialized_copy_al_unchecked@PEAPE$AAVString@Platform@@PEAPE$AAV12@V?$allocator@PE$AAVString@Platform@@@std@@@std@@YAPEAPE$AAVString@Platform@@PEAPE$AAV12@00AEAU?$_Wrap_alloc@V?$allocator@PE$AAVString@Platform@@@std@@@0@@Z 000000018001ae10 f i _nodert_generated.obj
 0001:00019ec0       ??$_Uninitialized_copy_al_unchecked@PEBQE$AAVString@Platform@@PEAPE$AAV12@V?$allocator@PE$AAVString@Platform@@@std@@@std@@YAPEAPE$AAVString@Platform@@PEBQE$AAV12@0PEAPE$AAV12@AEAU?$_Wrap_alloc@V?$allocator@PE$AAVString@Platform@@@std@@@0@@Z 000000018001aec0 f i _nodert_generated.obj
 0001:00019f70       ??$_Uninitialized_move_al_unchecked@PEAPE$AAVString@Platform@@PEAPE$AAV12@V?$allocator@PE$AAVString@Platform@@@std@@@std@@YAPEAPE$AAVString@Platform@@PEAPE$AAV12@00AEAU?$_Wrap_alloc@V?$allocator@PE$AAVString@Platform@@@std@@@0@@Z 000000018001af70 f i _nodert_generated.obj
 0001:0001a020       ??$_ValidateTaskConstructorArgs@IPE$AAU?$IAsyncOperationWithProgress@II@Foundation@Windows@@@details@Concurrency@@YAXAEBQE$AAU?$IAsyncOperationWithProgress@II@Foundation@Windows@@@Z 000000018001b020 f i _nodert_generated.obj
 0001:0001a030       ??$_ValidateTaskConstructorArgs@PE$AAUIBuffer@Streams@Storage@Windows@@PE$AAU?$IAsyncOperationWithProgress@PE$AAUIBuffer@Streams@Storage@Windows@@I@Foundation@4@@details@Concurrency@@YAXAEBQE$AAU?$IAsyncOperationWithProgress@PE$AAUIBuffer@Streams@Storage@Windows@@I@Foundation@Windows@@@Z 000000018001b030 f i _nodert_generated.obj
 0001:0001a040       ??$_ValidateTaskConstructorArgs@PE$AAVDeviceInformation@Enumeration@Devices@Windows@@PE$AAU?$IAsyncOperation@PE$AAVDeviceInformation@Enumeration@Devices@Windows@@@Foundation@4@@details@Concurrency@@YAXAEBQE$AAU?$IAsyncOperation@PE$AAVDeviceInformation@Enumeration@Devices@Windows@@@Foundation@Windows@@@Z 000000018001b040 f i _nodert_generated.obj
 0001:0001a050       ??$_ValidateTaskConstructorArgs@PE$AAVDeviceInformationCollection@Enumeration@Devices@Windows@@PE$AAU?$IAsyncOperation@PE$AAVDeviceInformationCollection@Enumeration@Devices@Windows@@@Foundation@4@@details@Concurrency@@YAXAEBQE$AAU?$IAsyncOperation@PE$AAVDeviceInformationCollection@Enumeration@Devices@Windows@@@Foundation@Windows@@@Z 000000018001b050 f i _nodert_generated.obj
 0001:0001a060       ??$_ValidateTaskConstructorArgs@PE$AAVDevicePairingResult@Enumeration@Devices@Windows@@PE$AAU?$IAsyncOperation@PE$AAVDevicePairingResult@Enumeration@Devices@Windows@@@Foundation@4@@details@Concurrency@@YAXAEBQE$AAU?$IAsyncOperation@PE$AAVDevicePairingResult@Enumeration@Devices@Windows@@@Foundation@Windows@@@Z 000000018001b060 f i _nodert_generated.obj
 0001:0001a070       ??$_ValidateTaskConstructorArgs@PE$AAVDeviceThumbnail@Enumeration@Devices@Windows@@PE$AAU?$IAsyncOperation@PE$AAVDeviceThumbnail@Enumeration@Devices@Windows@@@Foundation@4@@details@Concurrency@@YAXAEBQE$AAU?$IAsyncOperation@PE$AAVDeviceThumbnail@Enumeration@Devices@Windows@@@Foundation@Windows@@@Z 000000018001b070 f i _nodert_generated.obj
 0001:0001a080       ??$_ValidateTaskConstructorArgs@PE$AAVDeviceUnpairingResult@Enumeration@Devices@Windows@@PE$AAU?$IAsyncOperation@PE$AAVDeviceUnpairingResult@Enumeration@Devices@Windows@@@Foundation@4@@details@Concurrency@@YAXAEBQE$AAU?$IAsyncOperation@PE$AAVDeviceUnpairingResult@Enumeration@Devices@Windows@@@Foundation@Windows@@@Z 000000018001b080 f i _nodert_generated.obj
 0001:0001a090       ??$_ValidateTaskConstructorArgs@_NPE$AAU?$IAsyncOperation@_N@Foundation@Windows@@@details@Concurrency@@YAXAEBQE$AAU?$IAsyncOperation@_N@Foundation@Windows@@@Z 000000018001b090 f i _nodert_generated.obj
 0001:0001a0a0       ??$__abi_array_to_raw@PE$AAVString@Platform@@PE$AAV12@$00@Details@Platform@@YAPEAPE$AAVString@1@P$01E$ABV?$Array@PE$AAVString@Platform@@$00@1@@Z 000000018001b0a0 f i _nodert_generated.obj
 0001:0001a0b0       ??$__abi_array_to_raw@W4DeviceClass@Enumeration@Devices@Windows@@W41234@$00@Details@Platform@@YAPEAW4DeviceClass@Enumeration@Devices@Windows@@P$01E$ABV?$Array@W4DeviceClass@Enumeration@Devices@Windows@@$00@1@@Z 000000018001b0b0 f i _nodert_generated.obj
 0001:0001a0c0       ??$__abi_create_box@W4DeviceClass@Enumeration@Devices@Windows@@@@YAPE$AAV?$Box@W4DeviceClass@Enumeration@Devices@Windows@@@Platform@@W4DeviceClass@Enumeration@Devices@Windows@@@Z 000000018001b0c0 f i _nodert_generated.obj
 0001:0001a100       ??$__abi_create_box@W4DeviceWatcherEventKind@Enumeration@Devices@Windows@@@@YAPE$AAV?$Box@W4DeviceWatcherEventKind@Enumeration@Devices@Windows@@@Platform@@W4DeviceWatcherEventKind@Enumeration@Devices@Windows@@@Z 000000018001b100 f i _nodert_generated.obj
 0001:0001a140       ??$__abi_unbox@W4DeviceWatcherEventKind@Enumeration@Devices@Windows@@@@YA?AW4DeviceWatcherEventKind@Enumeration@Devices@Windows@@PE$AAVObject@Platform@@@Z 000000018001b140 f i _nodert_generated.obj
 0001:0001a1d0       ??$__abi_unbox@_J@@YA_JPE$AAVObject@Platform@@@Z 000000018001b1d0 f i _nodert_generated.obj
 0001:0001a260       ??$__abi_winrt_ptrto_array_ctor@PE$AAVString@Platform@@$00@@YAPEAXQ$01E$ADV?$Array@PE$AAVString@Platform@@$00@Platform@@@Z 000000018001b260 f i _nodert_generated.obj
 0001:0001a2d0       ??$__abi_winrt_ptrto_array_ctor@W4DeviceClass@Enumeration@Devices@Windows@@$00@@YAPEAXQ$01E$ADV?$Array@W4DeviceClass@Enumeration@Devices@Windows@@$00@Platform@@@Z 000000018001b2d0 f i _nodert_generated.obj
 0001:0001a340       ??$__abi_winrt_ptrto_delegate_dtor@V?$AsyncOperationCompletedHandler@I@Foundation@Windows@@@@YAXPE$ADV?$AsyncOperationCompletedHandler@I@Foundation@Windows@@@Z 000000018001b340 f i _nodert_generated.obj
 0001:0001a350       ??$__abi_winrt_ptrto_delegate_dtor@V?$AsyncOperationCompletedHandler@PE$AAUIBuffer@Streams@Storage@Windows@@@Foundation@Windows@@@@YAXPE$ADV?$AsyncOperationCompletedHandler@PE$AAUIBuffer@Streams@Storage@Windows@@@Foundation@Windows@@@Z 000000018001b350 f i _nodert_generated.obj
 0001:0001a360       ??$__abi_winrt_ptrto_delegate_dtor@V?$AsyncOperationCompletedHandler@PE$AAVDeviceInformation@Enumeration@Devices@Windows@@@Foundation@Windows@@@@YAXPE$ADV?$AsyncOperationCompletedHandler@PE$AAVDeviceInformation@Enumeration@Devices@Windows@@@Foundation@Windows@@@Z 000000018001b360 f i _nodert_generated.obj
 0001:0001a370       ??$__abi_winrt_ptrto_delegate_dtor@V?$AsyncOperationCompletedHandler@PE$AAVDeviceInformationCollection@Enumeration@Devices@Windows@@@Foundation@Windows@@@@YAXPE$ADV?$AsyncOperationCompletedHandler@PE$AAVDeviceInformationCollection@Enumeration@Devices@Windows@@@Foundation@Windows@@@Z 000000018001b370 f i _nodert_generated.obj
 0001:0001a380       ??$__abi_winrt_ptrto_delegate_dtor@V?$AsyncOperationCompletedHandler@PE$AAVDevicePairingResult@Enumeration@Devices@Windows@@@Foundation@Windows@@@@YAXPE$ADV?$AsyncOperationCompletedHandler@PE$AAVDevicePairingResult@Enumeration@Devices@Windows@@@Foundation@Windows@@@Z 000000018001b380 f i _nodert_generated.obj
 0001:0001a390       ??$__abi_winrt_ptrto_delegate_dtor@V?$AsyncOperationCompletedHandler@PE$AAVDeviceThumbnail@Enumeration@Devices@Windows@@@Foundation@Windows@@@@YAXPE$ADV?$AsyncOperationCompletedHandler@PE$AAVDeviceThumbnail@Enumeration@Devices@Windows@@@Foundation@Windows@@@Z 000000018001b390 f i _nodert_generated.obj
 0001:0001a3a0       ??$__abi_winrt_ptrto_delegate_dtor@V?$AsyncOperationCompletedHandler@PE$AAVDeviceUnpairingResult@Enumeration@Devices@Windows@@@Foundation@Windows@@@@YAXPE$ADV?$AsyncOperationCompletedHandler@PE$AAVDeviceUnpairingResult@Enumeration@Devices@Windows@@@Foundation@Windows@@@Z 000000018001b3a0 f i _nodert_generated.obj
 0001:0001a3b0       ??$__abi_winrt_ptrto_delegate_dtor@V?$AsyncOperationCompletedHandler@_N@Foundation@Windows@@@@YAXPE$ADV?$AsyncOperationCompletedHandler@_N@Foundation@Windows@@@Z 000000018001b3b0 f i _nodert_generated.obj
 0001:0001a3c0       ??$__abi_winrt_ptrto_delegate_dtor@V?$AsyncOperationWithProgressCompletedHandler@II@Foundation@Windows@@@@YAXPE$ADV?$AsyncOperationWithProgressCompletedHandler@II@Foundation@Windows@@@Z 000000018001b3c0 f i _nodert_generated.obj
 0001:0001a3d0       ??$__abi_winrt_ptrto_delegate_dtor@V?$AsyncOperationWithProgressCompletedHandler@PE$AAUIBuffer@Streams@Storage@Windows@@I@Foundation@Windows@@@@YAXPE$ADV?$AsyncOperationWithProgressCompletedHandler@PE$AAUIBuffer@Streams@Storage@Windows@@I@Foundation@Windows@@@Z 000000018001b3d0 f i _nodert_generated.obj
 0001:0001a3e0       ??$__abi_winrt_ptrto_delegate_dtor@V?$TypedEventHandler@PE$AAVDeviceAccessInformation@Enumeration@Devices@Windows@@PE$AAVDeviceAccessChangedEventArgs@234@@Foundation@Windows@@@@YAXPE$ADV?$TypedEventHandler@PE$AAVDeviceAccessInformation@Enumeration@Devices@Windows@@PE$AAVDeviceAccessChangedEventArgs@234@@Foundation@Windows@@@Z 000000018001b3e0 f i _nodert_generated.obj
 0001:0001a3f0       ??$__abi_winrt_ptrto_delegate_dtor@V?$TypedEventHandler@PE$AAVDeviceInformationCustomPairing@Enumeration@Devices@Windows@@PE$AAVDevicePairingRequestedEventArgs@234@@Foundation@Windows@@@@YAXPE$ADV?$TypedEventHandler@PE$AAVDeviceInformationCustomPairing@Enumeration@Devices@Windows@@PE$AAVDevicePairingRequestedEventArgs@234@@Foundation@Windows@@@Z 000000018001b3f0 f i _nodert_generated.obj
 0001:0001a400       ??$__abi_winrt_ptrto_delegate_dtor@V?$TypedEventHandler@PE$AAVDevicePicker@Enumeration@Devices@Windows@@PE$AAVDeviceDisconnectButtonClickedEventArgs@234@@Foundation@Windows@@@@YAXPE$ADV?$TypedEventHandler@PE$AAVDevicePicker@Enumeration@Devices@Windows@@PE$AAVDeviceDisconnectButtonClickedEventArgs@234@@Foundation@Windows@@@Z 000000018001b400 f i _nodert_generated.obj
 0001:0001a410       ??$__abi_winrt_ptrto_delegate_dtor@V?$TypedEventHandler@PE$AAVDevicePicker@Enumeration@Devices@Windows@@PE$AAVDeviceSelectedEventArgs@234@@Foundation@Windows@@@@YAXPE$ADV?$TypedEventHandler@PE$AAVDevicePicker@Enumeration@Devices@Windows@@PE$AAVDeviceSelectedEventArgs@234@@Foundation@Windows@@@Z 000000018001b410 f i _nodert_generated.obj
 0001:0001a420       ??$__abi_winrt_ptrto_delegate_dtor@V?$TypedEventHandler@PE$AAVDevicePicker@Enumeration@Devices@Windows@@PE$AAVObject@Platform@@@Foundation@Windows@@@@YAXPE$ADV?$TypedEventHandler@PE$AAVDevicePicker@Enumeration@Devices@Windows@@PE$AAVObject@Platform@@@Foundation@Windows@@@Z 000000018001b420 f i _nodert_generated.obj
 0001:0001a430       ??$__abi_winrt_ptrto_delegate_dtor@V?$TypedEventHandler@PE$AAVDeviceWatcher@Enumeration@Devices@Windows@@PE$AAVDeviceInformation@234@@Foundation@Windows@@@@YAXPE$ADV?$TypedEventHandler@PE$AAVDeviceWatcher@Enumeration@Devices@Windows@@PE$AAVDeviceInformation@234@@Foundation@Windows@@@Z 000000018001b430 f i _nodert_generated.obj
 0001:0001a440       ??$__abi_winrt_ptrto_delegate_dtor@V?$TypedEventHandler@PE$AAVDeviceWatcher@Enumeration@Devices@Windows@@PE$AAVDeviceInformationUpdate@234@@Foundation@Windows@@@@YAXPE$ADV?$TypedEventHandler@PE$AAVDeviceWatcher@Enumeration@Devices@Windows@@PE$AAVDeviceInformationUpdate@234@@Foundation@Windows@@@Z 000000018001b440 f i _nodert_generated.obj
 0001:0001a450       ??$__abi_winrt_ptrto_delegate_dtor@V?$TypedEventHandler@PE$AAVDeviceWatcher@Enumeration@Devices@Windows@@PE$AAVObject@Platform@@@Foundation@Windows@@@@YAXPE$ADV?$TypedEventHandler@PE$AAVDeviceWatcher@Enumeration@Devices@Windows@@PE$AAVObject@Platform@@@Foundation@Windows@@@Z 000000018001b450 f i _nodert_generated.obj
 0001:0001a460       ??$__abi_winrt_ptrto_delegate_dtor@V?$VectorChangedEventHandler@PE$AAVString@Platform@@@Collections@Foundation@Windows@@@@YAXPE$ADV?$VectorChangedEventHandler@PE$AAVString@Platform@@@Collections@Foundation@Windows@@@Z 000000018001b460 f i _nodert_generated.obj
 0001:0001a470       ??$__abi_winrt_ptrto_delegate_dtor@V?$VectorChangedEventHandler@W4DeviceWatcherEventKind@Enumeration@Devices@Windows@@@Collections@Foundation@Windows@@@@YAXPE$ADV?$VectorChangedEventHandler@W4DeviceWatcherEventKind@Enumeration@Devices@Windows@@@Collections@Foundation@Windows@@@Z 000000018001b470 f i _nodert_generated.obj
 0001:0001a480       ??$__abi_winrt_ptrto_delegate_dtor@VBindableVectorChangedEventHandler@Interop@Xaml@UI@Windows@@@@YAXPE$ADVBindableVectorChangedEventHandler@Interop@Xaml@UI@Windows@@@Z 000000018001b480 f i _nodert_generated.obj
 0001:0001a490       ??$atomic_compare_exchange@J@details@Concurrency@@YAJAEAU?$atomic@J@std@@JJ@Z 000000018001b490 f i _nodert_generated.obj
 0001:0001a4b0       ??$atomic_exchange@J@details@Concurrency@@YAJAEAU?$atomic@J@std@@J@Z 000000018001b4b0 f i _nodert_generated.obj
 0001:0001a4c0       ??$create_task@PE$AAU?$IAsyncOperation@PE$AAVDeviceInformation@Enumeration@Devices@Windows@@@Foundation@Windows@@@Concurrency@@YA?AV?$task@PE$AAVDeviceInformation@Enumeration@Devices@Windows@@@0@PE$AAU?$IAsyncOperation@PE$AAVDeviceInformation@Enumeration@Devices@Windows@@@Foundation@Windows@@Vtask_options@0@@Z 000000018001b4c0 f i _nodert_generated.obj
 0001:0001a590       ??$create_task@PE$AAU?$IAsyncOperation@PE$AAVDeviceInformationCollection@Enumeration@Devices@Windows@@@Foundation@Windows@@@Concurrency@@YA?AV?$task@PE$AAVDeviceInformationCollection@Enumeration@Devices@Windows@@@0@PE$AAU?$IAsyncOperation@PE$AAVDeviceInformationCollection@Enumeration@Devices@Windows@@@Foundation@Windows@@Vtask_options@0@@Z 000000018001b590 f i _nodert_generated.obj
 0001:0001a660       ??$create_task@PE$AAU?$IAsyncOperation@PE$AAVDevicePairingResult@Enumeration@Devices@Windows@@@Foundation@Windows@@@Concurrency@@YA?AV?$task@PE$AAVDevicePairingResult@Enumeration@Devices@Windows@@@0@PE$AAU?$IAsyncOperation@PE$AAVDevicePairingResult@Enumeration@Devices@Windows@@@Foundation@Windows@@Vtask_options@0@@Z 000000018001b660 f i _nodert_generated.obj
 0001:0001a730       ??$create_task@PE$AAU?$IAsyncOperation@PE$AAVDeviceThumbnail@Enumeration@Devices@Windows@@@Foundation@Windows@@@Concurrency@@YA?AV?$task@PE$AAVDeviceThumbnail@Enumeration@Devices@Windows@@@0@PE$AAU?$IAsyncOperation@PE$AAVDeviceThumbnail@Enumeration@Devices@Windows@@@Foundation@Windows@@Vtask_options@0@@Z 000000018001b730 f i _nodert_generated.obj
 0001:0001a800       ??$create_task@PE$AAU?$IAsyncOperation@PE$AAVDeviceUnpairingResult@Enumeration@Devices@Windows@@@Foundation@Windows@@@Concurrency@@YA?AV?$task@PE$AAVDeviceUnpairingResult@Enumeration@Devices@Windows@@@0@PE$AAU?$IAsyncOperation@PE$AAVDeviceUnpairingResult@Enumeration@Devices@Windows@@@Foundation@Windows@@Vtask_options@0@@Z 000000018001b800 f i _nodert_generated.obj
 0001:0001a8d0       ??$create_task@PE$AAU?$IAsyncOperation@_N@Foundation@Windows@@@Concurrency@@YA?AV?$task@_N@0@PE$AAU?$IAsyncOperation@_N@Foundation@Windows@@Vtask_options@0@@Z 000000018001b8d0 f i _nodert_generated.obj
 0001:0001a9a0       ??$create_task@PE$AAU?$IAsyncOperationWithProgress@II@Foundation@Windows@@@Concurrency@@YA?AV?$task@I@0@PE$AAU?$IAsyncOperationWithProgress@II@Foundation@Windows@@Vtask_options@0@@Z 000000018001b9a0 f i _nodert_generated.obj
 0001:0001aa70       ??$create_task@PE$AAU?$IAsyncOperationWithProgress@PE$AAUIBuffer@Streams@Storage@Windows@@I@Foundation@Windows@@@Concurrency@@YA?AV?$task@PE$AAUIBuffer@Streams@Storage@Windows@@@0@PE$AAU?$IAsyncOperationWithProgress@PE$AAUIBuffer@Streams@Storage@Windows@@I@Foundation@Windows@@Vtask_options@0@@Z 000000018001ba70 f i _nodert_generated.obj
 0001:0001ab40       ??$make_exception_ptr@PE$AAVException@Platform@@@std@@YA?AVexception_ptr@0@PE$AAVException@Platform@@@Z 000000018001bb40 f i _nodert_generated.obj
 0001:0001abb0       ??$make_shared@IH@std@@YA?AV?$shared_ptr@I@0@$$QEAH@Z 000000018001bbb0 f i _nodert_generated.obj
 0001:0001ac70       ??$make_shared@U?$_Task_impl@E@details@Concurrency@@AEAPEAV_CancellationTokenState@23@AEAUscheduler_ptr@3@@std@@YA?AV?$shared_ptr@U?$_Task_impl@E@details@Concurrency@@@0@AEAPEAV_CancellationTokenState@details@Concurrency@@AEAUscheduler_ptr@4@@Z 000000018001bc70 f i _nodert_generated.obj
 0001:0001ada0       ??$make_shared@U?$_Task_impl@I@details@Concurrency@@AEAPEAV_CancellationTokenState@23@AEAUscheduler_ptr@3@@std@@YA?AV?$shared_ptr@U?$_Task_impl@I@details@Concurrency@@@0@AEAPEAV_CancellationTokenState@details@Concurrency@@AEAUscheduler_ptr@4@@Z 000000018001bda0 f i _nodert_generated.obj
 0001:0001aed0       ??$make_shared@U?$_Task_impl@PE$AAUIBuffer@Streams@Storage@Windows@@@details@Concurrency@@AEAPEAV_CancellationTokenState@23@AEAUscheduler_ptr@3@@std@@YA?AV?$shared_ptr@U?$_Task_impl@PE$AAUIBuffer@Streams@Storage@Windows@@@details@Concurrency@@@0@AEAPEAV_CancellationTokenState@details@Concurrency@@AEAUscheduler_ptr@4@@Z 000000018001bed0 f i _nodert_generated.obj
 0001:0001b000       ??$make_shared@U?$_Task_impl@PE$AAVDeviceInformation@Enumeration@Devices@Windows@@@details@Concurrency@@AEAPEAV_CancellationTokenState@23@AEAUscheduler_ptr@3@@std@@YA?AV?$shared_ptr@U?$_Task_impl@PE$AAVDeviceInformation@Enumeration@Devices@Windows@@@details@Concurrency@@@0@AEAPEAV_CancellationTokenState@details@Concurrency@@AEAUscheduler_ptr@4@@Z 000000018001c000 f i _nodert_generated.obj
 0001:0001b130       ??$make_shared@U?$_Task_impl@PE$AAVDeviceInformationCollection@Enumeration@Devices@Windows@@@details@Concurrency@@AEAPEAV_CancellationTokenState@23@AEAUscheduler_ptr@3@@std@@YA?AV?$shared_ptr@U?$_Task_impl@PE$AAVDeviceInformationCollection@Enumeration@Devices@Windows@@@details@Concurrency@@@0@AEAPEAV_CancellationTokenState@details@Concurrency@@AEAUscheduler_ptr@4@@Z 000000018001c130 f i _nodert_generated.obj
 0001:0001b260       ??$make_shared@U?$_Task_impl@PE$AAVDevicePairingResult@Enumeration@Devices@Windows@@@details@Concurrency@@AEAPEAV_CancellationTokenState@23@AEAUscheduler_ptr@3@@std@@YA?AV?$shared_ptr@U?$_Task_impl@PE$AAVDevicePairingResult@Enumeration@Devices@Windows@@@details@Concurrency@@@0@AEAPEAV_CancellationTokenState@details@Concurrency@@AEAUscheduler_ptr@4@@Z 000000018001c260 f i _nodert_generated.obj
 0001:0001b390       ??$make_shared@U?$_Task_impl@PE$AAVDeviceThumbnail@Enumeration@Devices@Windows@@@details@Concurrency@@AEAPEAV_CancellationTokenState@23@AEAUscheduler_ptr@3@@std@@YA?AV?$shared_ptr@U?$_Task_impl@PE$AAVDeviceThumbnail@Enumeration@Devices@Windows@@@details@Concurrency@@@0@AEAPEAV_CancellationTokenState@details@Concurrency@@AEAUscheduler_ptr@4@@Z 000000018001c390 f i _nodert_generated.obj
 0001:0001b4c0       ??$make_shared@U?$_Task_impl@PE$AAVDeviceUnpairingResult@Enumeration@Devices@Windows@@@details@Concurrency@@AEAPEAV_CancellationTokenState@23@AEAUscheduler_ptr@3@@std@@YA?AV?$shared_ptr@U?$_Task_impl@PE$AAVDeviceUnpairingResult@Enumeration@Devices@Windows@@@details@Concurrency@@@0@AEAPEAV_CancellationTokenState@details@Concurrency@@AEAUscheduler_ptr@4@@Z 000000018001c4c0 f i _nodert_generated.obj
 0001:0001b5f0       ??$make_shared@U?$_Task_impl@_N@details@Concurrency@@AEAPEAV_CancellationTokenState@23@AEAUscheduler_ptr@3@@std@@YA?AV?$shared_ptr@U?$_Task_impl@_N@details@Concurrency@@@0@AEAPEAV_CancellationTokenState@details@Concurrency@@AEAUscheduler_ptr@4@@Z 000000018001c5f0 f i _nodert_generated.obj
 0001:0001b720       ??$make_shared@U_ExceptionHolder@details@Concurrency@@AEBVexception_ptr@std@@V_TaskCreationCallstack@23@@std@@YA?AV?$shared_ptr@U_ExceptionHolder@details@Concurrency@@@0@AEBVexception_ptr@0@$$QEAV_TaskCreationCallstack@details@Concurrency@@@Z 000000018001c720 f i _nodert_generated.obj
 0001:0001b830       ??$make_shared@V?$vector@PE$AAVString@Platform@@V?$allocator@PE$AAVString@Platform@@@std@@@std@@V?$_Vector_const_iterator@V?$_Vector_val@U?$_Simple_types@PE$AAVString@Platform@@@std@@@std@@@2@V32@@std@@YA?AV?$shared_ptr@V?$vector@PE$AAVString@Platform@@V?$allocator@PE$AAVString@Platform@@@std@@@std@@@0@$$QEAV?$_Vector_const_iterator@V?$_Vector_val@U?$_Simple_types@PE$AAVString@Platform@@@std@@@std@@@0@0@Z 000000018001c830 f i _nodert_generated.obj
 0001:0001b930       ??$make_shared@V?$vector@W4DeviceWatcherEventKind@Enumeration@Devices@Windows@@V?$allocator@W4DeviceWatcherEventKind@Enumeration@Devices@Windows@@@std@@@std@@V?$_Vector_const_iterator@V?$_Vector_val@U?$_Simple_types@W4DeviceWatcherEventKind@Enumeration@Devices@Windows@@@std@@@std@@@2@V32@@std@@YA?AV?$shared_ptr@V?$vector@W4DeviceWatcherEventKind@Enumeration@Devices@Windows@@V?$allocator@W4DeviceWatcherEventKind@Enumeration@Devices@Windows@@@std@@@std@@@0@$$QEAV?$_Vector_const_iterator@V?$_Vector_val@U?$_Simple_types@W4DeviceWatcherEventKind@Enumeration@Devices@Windows@@@std@@@std@@@0@0@Z 000000018001c930 f i _nodert_generated.obj
 0001:0001ba30       ??$swap@PE$AAUIBuffer@Streams@Storage@Windows@@X@std@@YAXAEAPE$AAUIBuffer@Streams@Storage@Windows@@0@Z 000000018001ca30 f i _nodert_generated.obj
 0001:0001bb10       ??$swap@PE$AAVString@Platform@@X@std@@YAXAEAPE$AAVString@Platform@@0@Z 000000018001cb10 f i _nodert_generated.obj
 0001:0001bc30       ??$then@V<lambda_120b4087b4a5fb3353380db5f4bd64db>@@@?$task@PE$AAVDeviceUnpairingResult@Enumeration@Devices@Windows@@@Concurrency@@QEBA?AV?$task@X@1@AEBV<lambda_120b4087b4a5fb3353380db5f4bd64db>@@@Z 000000018001cc30 f i _nodert_generated.obj
 0001:0001bf30       ??$then@V<lambda_1eb828a456fd906201da4bdf8c87acc7>@@@?$task@I@Concurrency@@QEBA?AV?$task@X@1@AEBV<lambda_1eb828a456fd906201da4bdf8c87acc7>@@@Z 000000018001cf30 f i _nodert_generated.obj
 0001:0001c230       ??$then@V<lambda_2fe5a97852dd9750fca909335c649c88>@@@?$task@_N@Concurrency@@QEBA?AV?$task@X@1@AEBV<lambda_2fe5a97852dd9750fca909335c649c88>@@@Z 000000018001d230 f i _nodert_generated.obj
 0001:0001c530       ??$then@V<lambda_33dac395321372434e13e659f6691d2b>@@@?$task@PE$AAVDeviceInformationCollection@Enumeration@Devices@Windows@@@Concurrency@@QEBA?AV?$task@X@1@AEBV<lambda_33dac395321372434e13e659f6691d2b>@@@Z 000000018001d530 f i _nodert_generated.obj
 0001:0001c830       ??$then@V<lambda_36504d37d672f10d3dbf88850e37d034>@@@?$task@PE$AAVDeviceInformation@Enumeration@Devices@Windows@@@Concurrency@@QEBA?AV?$task@X@1@AEBV<lambda_36504d37d672f10d3dbf88850e37d034>@@@Z 000000018001d830 f i _nodert_generated.obj
 0001:0001cb30       ??$then@V<lambda_418bff8cbe9471ab2cc47b9ce55378cb>@@@?$task@PE$AAVDevicePairingResult@Enumeration@Devices@Windows@@@Concurrency@@QEBA?AV?$task@X@1@AEBV<lambda_418bff8cbe9471ab2cc47b9ce55378cb>@@@Z 000000018001db30 f i _nodert_generated.obj
 0001:0001ce30       ??$then@V<lambda_501307cb0ef324bd632ab813b42d6477>@@@?$task@PE$AAVDeviceThumbnail@Enumeration@Devices@Windows@@@Concurrency@@QEBA?AV?$task@X@1@AEBV<lambda_501307cb0ef324bd632ab813b42d6477>@@@Z 000000018001de30 f i _nodert_generated.obj
 0001:0001d130       ??$then@V<lambda_894463c39cec769f47b59c6862ca5741>@@@?$task@PE$AAUIBuffer@Streams@Storage@Windows@@@Concurrency@@QEBA?AV?$task@X@1@AEBV<lambda_894463c39cec769f47b59c6862ca5741>@@@Z 000000018001e130 f i _nodert_generated.obj
 0001:0001d430       ??$then@V<lambda_a0db4bb87296f5cf95bf193d59b80420>@@@?$task@PE$AAVDevicePairingResult@Enumeration@Devices@Windows@@@Concurrency@@QEBA?AV?$task@X@1@AEBV<lambda_a0db4bb87296f5cf95bf193d59b80420>@@@Z 000000018001e430 f i _nodert_generated.obj
 0001:0001d730       ??$then@V<lambda_a18157a77679b27ebbee14df8cc9551b>@@@?$task@PE$AAVDeviceThumbnail@Enumeration@Devices@Windows@@@Concurrency@@QEBA?AV?$task@X@1@AEBV<lambda_a18157a77679b27ebbee14df8cc9551b>@@@Z 000000018001e730 f i _nodert_generated.obj
 0001:0001da30       ??$then@V<lambda_ae9493837c227995ded26404960f2bae>@@@?$task@PE$AAVDeviceInformation@Enumeration@Devices@Windows@@@Concurrency@@QEBA?AV?$task@X@1@AEBV<lambda_ae9493837c227995ded26404960f2bae>@@@Z 000000018001ea30 f i _nodert_generated.obj
 0001:0001ec30       ??0?$Array@PE$AAVString@Platform@@$00@Platform@@QE$AAA@PEAPE$AAVString@1@I@Z 000000018001fc30 f i _nodert_generated.obj
 0001:0001ed20       ??0?$Array@W4DeviceClass@Enumeration@Devices@Windows@@$00@Platform@@QE$AAA@PEAW4DeviceClass@Enumeration@Devices@Windows@@I@Z 000000018001fd20 f i _nodert_generated.obj
 0001:0001ee10       ??0?$Array@W4DeviceWatcherEventKind@Enumeration@Devices@Windows@@$00@Platform@@QE$AAA@PEAW4DeviceWatcherEventKind@Enumeration@Devices@Windows@@I@Z 000000018001fe10 f i _nodert_generated.obj
 0001:0001ef00       ??0?$Box@W4DeviceClass@Enumeration@Devices@Windows@@@Platform@@QE$AAA@W4DeviceClass@Enumeration@Devices@Windows@@@Z 000000018001ff00 f i _nodert_generated.obj
 0001:0001f100       ??0?$Box@W4DeviceWatcherEventKind@Enumeration@Devices@Windows@@@Platform@@QE$AAA@W4DeviceWatcherEventKind@Enumeration@Devices@Windows@@@Z 0000000180020100 f i _nodert_generated.obj
 0001:0001f300       ??0?$CustomBox@W4DeviceClass@Enumeration@Devices@Windows@@@Details@Platform@@QE$AAA@W4DeviceClass@Enumeration@Devices@Windows@@@Z 0000000180020300 f i _nodert_generated.obj
 0001:0001f3e0       ??0?$CustomBox@W4DeviceWatcherEventKind@Enumeration@Devices@Windows@@@Details@Platform@@QE$AAA@W4DeviceWatcherEventKind@Enumeration@Devices@Windows@@@Z 00000001800203e0 f i _nodert_generated.obj
 0001:0001f4c0       ??0?$IteratorForVectorView@PE$AAVString@Platform@@@Details@Collections@Platform@@QE$AAA@AEBV?$shared_ptr@I@std@@AEBV?$shared_ptr@V?$vector@PE$AAVString@Platform@@V?$allocator@PE$AAVString@Platform@@@std@@@std@@@5@@Z 00000001800204c0 f i _nodert_generated.obj
 0001:0001f5f0       ??0?$IteratorForVectorView@W4DeviceWatcherEventKind@Enumeration@Devices@Windows@@@Details@Collections@Platform@@QE$AAA@AEBV?$shared_ptr@I@std@@AEBV?$shared_ptr@V?$vector@W4DeviceWatcherEventKind@Enumeration@Devices@Windows@@V?$allocator@W4DeviceWatcherEventKind@Enumeration@Devices@Windows@@@std@@@std@@@5@@Z 00000001800205f0 f i _nodert_generated.obj
 0001:0001f720       ??0?$IteratorWrapper@PE$AAU?$IKeyValuePair@PE$AAVString@Platform@@PE$AAVObject@2@@Collections@Foundation@Windows@@@Collections@NodeRT@@AEAA@PE$AAU?$IIterator@PE$AAU?$IKeyValuePair@PE$AAVString@Platform@@PE$AAVObject@2@@Collections@Foundation@Windows@@@1Foundation@Windows@@AEBV?$function@$$A6A?AV?$Local@VValue@v8@@@v8@@PE$AAU?$IKeyValuePair@PE$AAVString@Platform@@PE$AAVObject@2@@Collections@Foundation@Windows@@@Z@std@@@Z 0000000180020720 f i _nodert_generated.obj
 0001:0001f7d0       ??0?$IteratorWrapper@PE$AAVDeviceInformation@Enumeration@Devices@Windows@@@Collections@NodeRT@@AEAA@PE$AAU?$IIterator@PE$AAVDeviceInformation@Enumeration@Devices@Windows@@@1Foundation@Windows@@AEBV?$function@$$A6A?AV?$Local@VValue@v8@@@v8@@PE$AAVDeviceInformation@Enumeration@Devices@Windows@@@Z@std@@@Z 00000001800207d0 f i _nodert_generated.obj
 0001:0001f880       ??0?$IteratorWrapper@PE$AAVDeviceWatcherEvent@Enumeration@Devices@Windows@@@Collections@NodeRT@@AEAA@PE$AAU?$IIterator@PE$AAVDeviceWatcherEvent@Enumeration@Devices@Windows@@@1Foundation@Windows@@AEBV?$function@$$A6A?AV?$Local@VValue@v8@@@v8@@PE$AAVDeviceWatcherEvent@Enumeration@Devices@Windows@@@Z@std@@@Z 0000000180020880 f i _nodert_generated.obj
 0001:0001f930       ??0?$IteratorWrapper@PE$AAVString@Platform@@@Collections@NodeRT@@AEAA@PE$AAU?$IIterator@PE$AAVString@Platform@@@1Foundation@Windows@@AEBV?$function@$$A6A?AV?$Local@VValue@v8@@@v8@@PE$AAVString@Platform@@@Z@std@@@Z 0000000180020930 f i _nodert_generated.obj
 0001:0001f9e0       ??0?$IteratorWrapper@W4DeviceClass@Enumeration@Devices@Windows@@@Collections@NodeRT@@AEAA@PE$AAU?$IIterator@W4DeviceClass@Enumeration@Devices@Windows@@@1Foundation@Windows@@AEBV?$function@$$A6A?AV?$Local@VValue@v8@@@v8@@W4DeviceClass@Enumeration@Devices@Windows@@@Z@std@@@Z 00000001800209e0 f i _nodert_generated.obj
 0001:0001fa90       ??0?$KeyValuePairWrapper@PE$AAVString@Platform@@PE$AAVObject@2@@Collections@NodeRT@@AEAA@PE$AAU?$IKeyValuePair@PE$AAVString@Platform@@PE$AAVObject@2@@1Foundation@Windows@@AEBV?$function@$$A6A?AV?$Local@VValue@v8@@@v8@@PE$AAVString@Platform@@@Z@std@@AEBV?$function@$$A6A?AV?$Local@VValue@v8@@@v8@@PE$AAVObject@Platform@@@Z@7@@Z 0000000180020a90 f i _nodert_generated.obj
 0001:0001fb70       ??0?$Local@VValue@v8@@@v8@@QEAA@XZ 0000000180020b70 f i _nodert_generated.obj
 0001:0001fb80       ??0?$MapViewWrapper@PE$AAVString@Platform@@PE$AAVObject@2@@Collections@NodeRT@@AEAA@PE$AAU?$IMapView@PE$AAVString@Platform@@PE$AAVObject@2@@1Foundation@Windows@@AEBV?$function@$$A6A?AV?$Local@VValue@v8@@@v8@@PE$AAVString@Platform@@@Z@std@@AEBV?$function@$$A6A_NV?$Local@VValue@v8@@@v8@@@Z@7@AEBV?$function@$$A6APE$AAVString@Platform@@V?$Local@VValue@v8@@@v8@@@Z@7@AEBV?$function@$$A6A?AV?$Local@VValue@v8@@@v8@@PE$AAVObject@Platform@@@Z@7@@Z 0000000180020b80 f i _nodert_generated.obj
 0001:0001fcd0       ??0?$VectorView@PE$AAVString@Platform@@U?$equal_to@PE$AAVString@Platform@@@std@@$00@Collections@Platform@@AE$AAA@AEBV?$shared_ptr@I@std@@AEBV?$shared_ptr@V?$vector@PE$AAVString@Platform@@V?$allocator@PE$AAVString@Platform@@@std@@@std@@@4@@Z 0000000180020cd0 f i _nodert_generated.obj
 0001:0001fe10       ??0?$VectorView@W4DeviceWatcherEventKind@Enumeration@Devices@Windows@@U?$equal_to@W4DeviceWatcherEventKind@Enumeration@Devices@Windows@@@std@@$00@Collections@Platform@@AE$AAA@AEBV?$shared_ptr@I@std@@AEBV?$shared_ptr@V?$vector@W4DeviceWatcherEventKind@Enumeration@Devices@Windows@@V?$allocator@W4DeviceWatcherEventKind@Enumeration@Devices@Windows@@@std@@@std@@@4@@Z 0000000180020e10 f i _nodert_generated.obj
 0001:0001ff50       ??0?$VectorViewWrapper@PE$AAVDeviceWatcherEvent@Enumeration@Devices@Windows@@@Collections@NodeRT@@AEAA@PE$AAU?$IVectorView@PE$AAVDeviceWatcherEvent@Enumeration@Devices@Windows@@@1Foundation@Windows@@AEBV?$function@$$A6A?AV?$Local@VValue@v8@@@v8@@PE$AAVDeviceWatcherEvent@Enumeration@Devices@Windows@@@Z@std@@AEBV?$function@$$A6A_NV?$Local@VValue@v8@@@v8@@@Z@7@AEBV?$function@$$A6APE$AAVDeviceWatcherEvent@Enumeration@Devices@Windows@@V?$Local@VValue@v8@@@v8@@@Z@7@@Z 0000000180020f50 f i _nodert_generated.obj
 0001:00020060       ??0?$VectorViewWrapper@PE$AAVString@Platform@@@Collections@NodeRT@@AEAA@PE$AAU?$IVectorView@PE$AAVString@Platform@@@1Foundation@Windows@@AEBV?$function@$$A6A?AV?$Local@VValue@v8@@@v8@@PE$AAVString@Platform@@@Z@std@@AEBV?$function@$$A6A_NV?$Local@VValue@v8@@@v8@@@Z@7@AEBV?$function@$$A6APE$AAVString@Platform@@V?$Local@VValue@v8@@@v8@@@Z@7@@Z 0000000180021060 f i _nodert_generated.obj
 0001:00020170       ??0?$VectorViewWrapper@W4DeviceClass@Enumeration@Devices@Windows@@@Collections@NodeRT@@AEAA@PE$AAU?$IVectorView@W4DeviceClass@Enumeration@Devices@Windows@@@1Foundation@Windows@@AEBV?$function@$$A6A?AV?$Local@VValue@v8@@@v8@@W4DeviceClass@Enumeration@Devices@Windows@@@Z@std@@AEBV?$function@$$A6A_NV?$Local@VValue@v8@@@v8@@@Z@7@AEBV?$function@$$A6A?AW4DeviceClass@Enumeration@Devices@Windows@@V?$Local@VValue@v8@@@v8@@@Z@7@@Z 0000000180021170 f i _nodert_generated.obj
 0001:00020280       ??0?$VectorWrapper@PE$AAVString@Platform@@@Collections@NodeRT@@AEAA@PE$AAU?$IVector@PE$AAVString@Platform@@@1Foundation@Windows@@AEBV?$function@$$A6A?AV?$Local@VValue@v8@@@v8@@PE$AAVString@Platform@@@Z@std@@AEBV?$function@$$A6A_NV?$Local@VValue@v8@@@v8@@@Z@7@AEBV?$function@$$A6APE$AAVString@Platform@@V?$Local@VValue@v8@@@v8@@@Z@7@@Z 0000000180021280 f i _nodert_generated.obj
 0001:00020390       ??0?$VectorWrapper@W4DeviceClass@Enumeration@Devices@Windows@@@Collections@NodeRT@@AEAA@PE$AAU?$IVector@W4DeviceClass@Enumeration@Devices@Windows@@@1Foundation@Windows@@AEBV?$function@$$A6A?AV?$Local@VValue@v8@@@v8@@W4DeviceClass@Enumeration@Devices@Windows@@@Z@std@@AEBV?$function@$$A6A_NV?$Local@VValue@v8@@@v8@@@Z@7@AEBV?$function@$$A6A?AW4DeviceClass@Enumeration@Devices@Windows@@V?$Local@VValue@v8@@@v8@@@Z@7@@Z 0000000180021390 f i _nodert_generated.obj
 0001:000204a0       ??0?$WriteOnlyArray@PE$AAVString@Platform@@$00@Platform@@IE$AAA@PEAPE$AAVString@1@I@Z 00000001800214a0 f i _nodert_generated.obj
 0001:00020590       ??0?$WriteOnlyArray@W4DeviceClass@Enumeration@Devices@Windows@@$00@Platform@@IE$AAA@PEAW4DeviceClass@Enumeration@Devices@Windows@@I@Z 0000000180021590 f i _nodert_generated.obj
 0001:00020680       ??0?$WriteOnlyArray@W4DeviceWatcherEventKind@Enumeration@Devices@Windows@@$00@Platform@@IE$AAA@PEAW4DeviceWatcherEventKind@Enumeration@Devices@Windows@@I@Z 0000000180021680 f i _nodert_generated.obj
 0001:00020770       ??0?$_AsyncInfoImpl@PE$AAU?$IAsyncOperationWithProgress@II@Foundation@Windows@@V?$AsyncOperationWithProgressCompletedHandler@II@23@I@details@Concurrency@@QE$AAA@PE$AAU?$IAsyncOperationWithProgress@II@Foundation@Windows@@@Z 0000000180021770 f i _nodert_generated.obj
 0001:00020810       ??0?$_AsyncInfoImpl@PE$AAU?$IAsyncOperationWithProgress@PE$AAUIBuffer@Streams@Storage@Windows@@I@Foundation@Windows@@V?$AsyncOperationWithProgressCompletedHandler@PE$AAUIBuffer@Streams@Storage@Windows@@I@23@PE$AAUIBuffer@Streams@Storage@3@@details@Concurrency@@QE$AAA@PE$AAU?$IAsyncOperationWithProgress@PE$AAUIBuffer@Streams@Storage@Windows@@I@Foundation@Windows@@@Z 0000000180021810 f i _nodert_generated.obj
 0001:000208b0       ??0?$_CancellationTokenCallback@V<lambda_be3e5d9dce35d2c8dbfa8485373731d5>@@@details@Concurrency@@QEAA@AEBV<lambda_be3e5d9dce35d2c8dbfa8485373731d5>@@@Z 00000001800218b0 f i _nodert_generated.obj
 0001:000209b0       ??0?$_ContinuationTaskHandle@IXV?$function@$$A6AXV?$task@I@Concurrency@@@Z@std@@U?$integral_constant@_N$00@2@U_TypeSelectorNoAsync@details@Concurrency@@@?$task@I@Concurrency@@QEAA@AEBV?$shared_ptr@U?$_Task_impl@I@details@Concurrency@@@std@@AEBV?$shared_ptr@U?$_Task_impl@E@details@Concurrency@@@4@AEBV?$function@$$A6AXV?$task@I@Concurrency@@@Z@4@AEBVtask_continuation_context@2@W4_TaskInliningMode@details@2@@Z 00000001800219b0 f i _nodert_generated.obj
 0001:00020af0       ??0?$_ContinuationTaskHandle@PE$AAUIBuffer@Streams@Storage@Windows@@XV?$function@$$A6AXV?$task@PE$AAUIBuffer@Streams@Storage@Windows@@@Concurrency@@@Z@std@@U?$integral_constant@_N$00@6@U_TypeSelectorNoAsync@details@Concurrency@@@?$task@PE$AAUIBuffer@Streams@Storage@Windows@@@Concurrency@@QEAA@AEBV?$shared_ptr@U?$_Task_impl@PE$AAUIBuffer@Streams@Storage@Windows@@@details@Concurrency@@@std@@AEBV?$shared_ptr@U?$_Task_impl@E@details@Concurrency@@@4@AEBV?$function@$$A6AXV?$task@PE$AAUIBuffer@Streams@Storage@Windows@@@Concurrency@@@Z@4@AEBVtask_continuation_context@2@W4_TaskInliningMode@details@2@@Z 0000000180021af0 f i _nodert_generated.obj
 0001:00020c30       ??0?$_ContinuationTaskHandle@PE$AAVDeviceInformation@Enumeration@Devices@Windows@@XV?$function@$$A6AXV?$task@PE$AAVDeviceInformation@Enumeration@Devices@Windows@@@Concurrency@@@Z@std@@U?$integral_constant@_N$00@6@U_TypeSelectorNoAsync@details@Concurrency@@@?$task@PE$AAVDeviceInformation@Enumeration@Devices@Windows@@@Concurrency@@QEAA@AEBV?$shared_ptr@U?$_Task_impl@PE$AAVDeviceInformation@Enumeration@Devices@Windows@@@details@Concurrency@@@std@@AEBV?$shared_ptr@U?$_Task_impl@E@details@Concurrency@@@4@AEBV?$function@$$A6AXV?$task@PE$AAVDeviceInformation@Enumeration@Devices@Windows@@@Concurrency@@@Z@4@AEBVtask_continuation_context@2@W4_TaskInliningMode@details@2@@Z 0000000180021c30 f i _nodert_generated.obj
 0001:00020d70       ??0?$_ContinuationTaskHandle@PE$AAVDeviceInformationCollection@Enumeration@Devices@Windows@@XV?$function@$$A6AXV?$task@PE$AAVDeviceInformationCollection@Enumeration@Devices@Windows@@@Concurrency@@@Z@std@@U?$integral_constant@_N$00@6@U_TypeSelectorNoAsync@details@Concurrency@@@?$task@PE$AAVDeviceInformationCollection@Enumeration@Devices@Windows@@@Concurrency@@QEAA@AEBV?$shared_ptr@U?$_Task_impl@PE$AAVDeviceInformationCollection@Enumeration@Devices@Windows@@@details@Concurrency@@@std@@AEBV?$shared_ptr@U?$_Task_impl@E@details@Concurrency@@@4@AEBV?$function@$$A6AXV?$task@PE$AAVDeviceInformationCollection@Enumeration@Devices@Windows@@@Concurrency@@@Z@4@AEBVtask_continuation_context@2@W4_TaskInliningMode@details@2@@Z 0000000180021d70 f i _nodert_generated.obj
 0001:00020eb0       ??0?$_ContinuationTaskHandle@PE$AAVDevicePairingResult@Enumeration@Devices@Windows@@XV?$function@$$A6AXV?$task@PE$AAVDevicePairingResult@Enumeration@Devices@Windows@@@Concurrency@@@Z@std@@U?$integral_constant@_N$00@6@U_TypeSelectorNoAsync@details@Concurrency@@@?$task@PE$AAVDevicePairingResult@Enumeration@Devices@Windows@@@Concurrency@@QEAA@AEBV?$shared_ptr@U?$_Task_impl@PE$AAVDevicePairingResult@Enumeration@Devices@Windows@@@details@Concurrency@@@std@@AEBV?$shared_ptr@U?$_Task_impl@E@details@Concurrency@@@4@AEBV?$function@$$A6AXV?$task@PE$AAVDevicePairingResult@Enumeration@Devices@Windows@@@Concurrency@@@Z@4@AEBVtask_continuation_context@2@W4_TaskInliningMode@details@2@@Z 0000000180021eb0 f i _nodert_generated.obj
 0001:00020ff0       ??0?$_ContinuationTaskHandle@PE$AAVDeviceThumbnail@Enumeration@Devices@Windows@@XV?$function@$$A6AXV?$task@PE$AAVDeviceThumbnail@Enumeration@Devices@Windows@@@Concurrency@@@Z@std@@U?$integral_constant@_N$00@6@U_TypeSelectorNoAsync@details@Concurrency@@@?$task@PE$AAVDeviceThumbnail@Enumeration@Devices@Windows@@@Concurrency@@QEAA@AEBV?$shared_ptr@U?$_Task_impl@PE$AAVDeviceThumbnail@Enumeration@Devices@Windows@@@details@Concurrency@@@std@@AEBV?$shared_ptr@U?$_Task_impl@E@details@Concurrency@@@4@AEBV?$function@$$A6AXV?$task@PE$AAVDeviceThumbnail@Enumeration@Devices@Windows@@@Concurrency@@@Z@4@AEBVtask_continuation_context@2@W4_TaskInliningMode@details@2@@Z 0000000180021ff0 f i _nodert_generated.obj
 0001:00021130       ??0?$_ContinuationTaskHandle@PE$AAVDeviceUnpairingResult@Enumeration@Devices@Windows@@XV?$function@$$A6AXV?$task@PE$AAVDeviceUnpairingResult@Enumeration@Devices@Windows@@@Concurrency@@@Z@std@@U?$integral_constant@_N$00@6@U_TypeSelectorNoAsync@details@Concurrency@@@?$task@PE$AAVDeviceUnpairingResult@Enumeration@Devices@Windows@@@Concurrency@@QEAA@AEBV?$shared_ptr@U?$_Task_impl@PE$AAVDeviceUnpairingResult@Enumeration@Devices@Windows@@@details@Concurrency@@@std@@AEBV?$shared_ptr@U?$_Task_impl@E@details@Concurrency@@@4@AEBV?$function@$$A6AXV?$task@PE$AAVDeviceUnpairingResult@Enumeration@Devices@Windows@@@Concurrency@@@Z@4@AEBVtask_continuation_context@2@W4_TaskInliningMode@details@2@@Z 0000000180022130 f i _nodert_generated.obj
 0001:00021270       ??0?$_ContinuationTaskHandle@_NXV?$function@$$A6AXV?$task@_N@Concurrency@@@Z@std@@U?$integral_constant@_N$00@2@U_TypeSelectorNoAsync@details@Concurrency@@@?$task@_N@Concurrency@@QEAA@AEBV?$shared_ptr@U?$_Task_impl@_N@details@Concurrency@@@std@@AEBV?$shared_ptr@U?$_Task_impl@E@details@Concurrency@@@4@AEBV?$function@$$A6AXV?$task@_N@Concurrency@@@Z@4@AEBVtask_continuation_context@2@W4_TaskInliningMode@details@2@@Z 0000000180022270 f i _nodert_generated.obj
 0001:000213b0       ??0?$_IAsyncOperationWithProgressToAsyncOperationConverter@II@details@Concurrency@@QE$AAA@PE$AAU?$IAsyncOperationWithProgress@II@Foundation@Windows@@@Z 00000001800223b0 f i _nodert_generated.obj
 0001:00021460       ??0?$_IAsyncOperationWithProgressToAsyncOperationConverter@PE$AAUIBuffer@Streams@Storage@Windows@@I@details@Concurrency@@QE$AAA@PE$AAU?$IAsyncOperationWithProgress@PE$AAUIBuffer@Streams@Storage@Windows@@I@Foundation@Windows@@@Z 0000000180022460 f i _nodert_generated.obj
 0001:00021510       ??0?$_PPLTaskHandle@EU?$_ContinuationTaskHandle@IXV?$function@$$A6AXV?$task@I@Concurrency@@@Z@std@@U?$integral_constant@_N$00@2@U_TypeSelectorNoAsync@details@Concurrency@@@?$task@I@Concurrency@@U_ContinuationTaskHandleBase@details@3@@details@Concurrency@@QEAA@AEBV?$shared_ptr@U?$_Task_impl@E@details@Concurrency@@@std@@@Z 0000000180022510 f i _nodert_generated.obj
 0001:000215c0       ??0?$_PPLTaskHandle@EU?$_ContinuationTaskHandle@PE$AAUIBuffer@Streams@Storage@Windows@@XV?$function@$$A6AXV?$task@PE$AAUIBuffer@Streams@Storage@Windows@@@Concurrency@@@Z@std@@U?$integral_constant@_N$00@6@U_TypeSelectorNoAsync@details@Concurrency@@@?$task@PE$AAUIBuffer@Streams@Storage@Windows@@@Concurrency@@U_ContinuationTaskHandleBase@details@3@@details@Concurrency@@QEAA@AEBV?$shared_ptr@U?$_Task_impl@E@details@Concurrency@@@std@@@Z 00000001800225c0 f i _nodert_generated.obj
 0001:00021670       ??0?$_PPLTaskHandle@EU?$_ContinuationTaskHandle@PE$AAVDeviceInformation@Enumeration@Devices@Windows@@XV?$function@$$A6AXV?$task@PE$AAVDeviceInformation@Enumeration@Devices@Windows@@@Concurrency@@@Z@std@@U?$integral_constant@_N$00@6@U_TypeSelectorNoAsync@details@Concurrency@@@?$task@PE$AAVDeviceInformation@Enumeration@Devices@Windows@@@Concurrency@@U_ContinuationTaskHandleBase@details@3@@details@Concurrency@@QEAA@AEBV?$shared_ptr@U?$_Task_impl@E@details@Concurrency@@@std@@@Z 0000000180022670 f i _nodert_generated.obj
 0001:00021720       ??0?$_PPLTaskHandle@EU?$_ContinuationTaskHandle@PE$AAVDeviceInformationCollection@Enumeration@Devices@Windows@@XV?$function@$$A6AXV?$task@PE$AAVDeviceInformationCollection@Enumeration@Devices@Windows@@@Concurrency@@@Z@std@@U?$integral_constant@_N$00@6@U_TypeSelectorNoAsync@details@Concurrency@@@?$task@PE$AAVDeviceInformationCollection@Enumeration@Devices@Windows@@@Concurrency@@U_ContinuationTaskHandleBase@details@3@@details@Concurrency@@QEAA@AEBV?$shared_ptr@U?$_Task_impl@E@details@Concurrency@@@std@@@Z 0000000180022720 f i _nodert_generated.obj
 0001:000217d0       ??0?$_PPLTaskHandle@EU?$_ContinuationTaskHandle@PE$AAVDevicePairingResult@Enumeration@Devices@Windows@@XV?$function@$$A6AXV?$task@PE$AAVDevicePairingResult@Enumeration@Devices@Windows@@@Concurrency@@@Z@std@@U?$integral_constant@_N$00@6@U_TypeSelectorNoAsync@details@Concurrency@@@?$task@PE$AAVDevicePairingResult@Enumeration@Devices@Windows@@@Concurrency@@U_ContinuationTaskHandleBase@details@3@@details@Concurrency@@QEAA@AEBV?$shared_ptr@U?$_Task_impl@E@details@Concurrency@@@std@@@Z 00000001800227d0 f i _nodert_generated.obj
 0001:00021880       ??0?$_PPLTaskHandle@EU?$_ContinuationTaskHandle@PE$AAVDeviceThumbnail@Enumeration@Devices@Windows@@XV?$function@$$A6AXV?$task@PE$AAVDeviceThumbnail@Enumeration@Devices@Windows@@@Concurrency@@@Z@std@@U?$integral_constant@_N$00@6@U_TypeSelectorNoAsync@details@Concurrency@@@?$task@PE$AAVDeviceThumbnail@Enumeration@Devices@Windows@@@Concurrency@@U_ContinuationTaskHandleBase@details@3@@details@Concurrency@@QEAA@AEBV?$shared_ptr@U?$_Task_impl@E@details@Concurrency@@@std@@@Z 0000000180022880 f i _nodert_generated.obj
 0001:00021930       ??0?$_PPLTaskHandle@EU?$_ContinuationTaskHandle@PE$AAVDeviceUnpairingResult@Enumeration@Devices@Windows@@XV?$function@$$A6AXV?$task@PE$AAVDeviceUnpairingResult@Enumeration@Devices@Windows@@@Concurrency@@@Z@std@@U?$integral_constant@_N$00@6@U_TypeSelectorNoAsync@details@Concurrency@@@?$task@PE$AAVDeviceUnpairingResult@Enumeration@Devices@Windows@@@Concurrency@@U_ContinuationTaskHandleBase@details@3@@details@Concurrency@@QEAA@AEBV?$shared_ptr@U?$_Task_impl@E@details@Concurrency@@@std@@@Z 0000000180022930 f i _nodert_generated.obj
 0001:000219e0       ??0?$_PPLTaskHandle@EU?$_ContinuationTaskHandle@_NXV?$function@$$A6AXV?$task@_N@Concurrency@@@Z@std@@U?$integral_constant@_N$00@2@U_TypeSelectorNoAsync@details@Concurrency@@@?$task@_N@Concurrency@@U_ContinuationTaskHandleBase@details@3@@details@Concurrency@@QEAA@AEBV?$shared_ptr@U?$_Task_impl@E@details@Concurrency@@@std@@@Z 00000001800229e0 f i _nodert_generated.obj
 0001:00021a90       ??0?$_Task_impl@E@details@Concurrency@@QEAA@PEAV_CancellationTokenState@12@Uscheduler_ptr@2@@Z 0000000180022a90 f i _nodert_generated.obj
 0001:00021b80       ??0?$_Task_impl@I@details@Concurrency@@QEAA@PEAV_CancellationTokenState@12@Uscheduler_ptr@2@@Z 0000000180022b80 f i _nodert_generated.obj
 0001:00021c70       ??0?$_Task_impl@PE$AAUIBuffer@Streams@Storage@Windows@@@details@Concurrency@@QEAA@PEAV_CancellationTokenState@12@Uscheduler_ptr@2@@Z 0000000180022c70 f i _nodert_generated.obj
 0001:00021d90       ??0?$_Task_impl@PE$AAVDeviceInformation@Enumeration@Devices@Windows@@@details@Concurrency@@QEAA@PEAV_CancellationTokenState@12@Uscheduler_ptr@2@@Z 0000000180022d90 f i _nodert_generated.obj
 0001:00021e90       ??0?$_Task_impl@PE$AAVDeviceInformationCollection@Enumeration@Devices@Windows@@@details@Concurrency@@QEAA@PEAV_CancellationTokenState@12@Uscheduler_ptr@2@@Z 0000000180022e90 f i _nodert_generated.obj
 0001:00021f90       ??0?$_Task_impl@PE$AAVDevicePairingResult@Enumeration@Devices@Windows@@@details@Concurrency@@QEAA@PEAV_CancellationTokenState@12@Uscheduler_ptr@2@@Z 0000000180022f90 f i _nodert_generated.obj
 0001:00022090       ??0?$_Task_impl@PE$AAVDeviceThumbnail@Enumeration@Devices@Windows@@@details@Concurrency@@QEAA@PEAV_CancellationTokenState@12@Uscheduler_ptr@2@@Z 0000000180023090 f i _nodert_generated.obj
 0001:00022190       ??0?$_Task_impl@PE$AAVDeviceUnpairingResult@Enumeration@Devices@Windows@@@details@Concurrency@@QEAA@PEAV_CancellationTokenState@12@Uscheduler_ptr@2@@Z 0000000180023190 f i _nodert_generated.obj
 0001:00022290       ??0?$_Task_impl@_N@details@Concurrency@@QEAA@PEAV_CancellationTokenState@12@Uscheduler_ptr@2@@Z 0000000180023290 f i _nodert_generated.obj
 0001:00022380       ??0?$__abi_FunctorCapture@V<lambda_11ae5e2332e27c7defe3fc71b95bc051>@@XPE$AAVDeviceWatcher@Enumeration@Devices@Windows@@PE$AAVDeviceInformationUpdate@345@@Details@Platform@@QEAA@V<lambda_11ae5e2332e27c7defe3fc71b95bc051>@@@Z 0000000180023380 f i _nodert_generated.obj
 0001:00022440       ??0?$__abi_FunctorCapture@V<lambda_1c2c1434820349da43b21d405bb32470>@@XPE$AAVDeviceWatcher@Enumeration@Devices@Windows@@PE$AAVObject@Platform@@@Details@Platform@@QEAA@V<lambda_1c2c1434820349da43b21d405bb32470>@@@Z 0000000180023440 f i _nodert_generated.obj
 0001:00022500       ??0?$__abi_FunctorCapture@V<lambda_1c6c1b322bf2733cdee76baa2bd484e8>@@XPE$AAU?$IAsyncOperation@I@Foundation@Windows@@W4AsyncStatus@34@@Details@Platform@@QEAA@V<lambda_1c6c1b322bf2733cdee76baa2bd484e8>@@@Z 0000000180023500 f i _nodert_generated.obj
 0001:000225c0       ??0?$__abi_FunctorCapture@V<lambda_338a6eb91f8f0018d922c59d8cb00a90>@@XPE$AAVDevicePicker@Enumeration@Devices@Windows@@PE$AAVDeviceSelectedEventArgs@345@@Details@Platform@@QEAA@V<lambda_338a6eb91f8f0018d922c59d8cb00a90>@@@Z 00000001800235c0 f i _nodert_generated.obj
 0001:00022680       ??0?$__abi_FunctorCapture@V<lambda_362dddb56864f9b321daeb467199f068>@@XPE$AAVDevicePicker@Enumeration@Devices@Windows@@PE$AAVObject@Platform@@@Details@Platform@@QEAA@V<lambda_362dddb56864f9b321daeb467199f068>@@@Z 0000000180023680 f i _nodert_generated.obj
 0001:00022740       ??0?$__abi_FunctorCapture@V<lambda_3ff05d0f6e0fe947571a9cba4c871e9f>@@XPE$AAU?$IAsyncOperation@PE$AAVDevicePairingResult@Enumeration@Devices@Windows@@@Foundation@Windows@@W4AsyncStatus@34@@Details@Platform@@QEAA@V<lambda_3ff05d0f6e0fe947571a9cba4c871e9f>@@@Z 0000000180023740 f i _nodert_generated.obj
 0001:00022800       ??0?$__abi_FunctorCapture@V<lambda_417f9b9eb69d711fe281d2cc0f81e7e0>@@XPE$AAVDevicePicker@Enumeration@Devices@Windows@@PE$AAVDeviceDisconnectButtonClickedEventArgs@345@@Details@Platform@@QEAA@V<lambda_417f9b9eb69d711fe281d2cc0f81e7e0>@@@Z 0000000180023800 f i _nodert_generated.obj
 0001:000228c0       ??0?$__abi_FunctorCapture@V<lambda_7d19cc810d89fdff34731fdb4d4ddc6f>@@XPE$AAU?$IAsyncOperation@PE$AAVDeviceInformation@Enumeration@Devices@Windows@@@Foundation@Windows@@W4AsyncStatus@34@@Details@Platform@@QEAA@V<lambda_7d19cc810d89fdff34731fdb4d4ddc6f>@@@Z 00000001800238c0 f i _nodert_generated.obj
 0001:00022980       ??0?$__abi_FunctorCapture@V<lambda_8ec650b07ba0e505c408d2389def4a27>@@XPE$AAVDeviceWatcher@Enumeration@Devices@Windows@@PE$AAVDeviceInformationUpdate@345@@Details@Platform@@QEAA@V<lambda_8ec650b07ba0e505c408d2389def4a27>@@@Z 0000000180023980 f i _nodert_generated.obj
 0001:00022a40       ??0?$__abi_FunctorCapture@V<lambda_9c267cdafd8e064f323ec4e1c7ae30d4>@@XPE$AAU?$IAsyncOperation@_N@Foundation@Windows@@W4AsyncStatus@34@@Details@Platform@@QEAA@V<lambda_9c267cdafd8e064f323ec4e1c7ae30d4>@@@Z 0000000180023a40 f i _nodert_generated.obj
 0001:00022b00       ??0?$__abi_FunctorCapture@V<lambda_a8a5f85c2ff75d8631efb4d869983d5e>@@XPE$AAVDeviceWatcher@Enumeration@Devices@Windows@@PE$AAVObject@Platform@@@Details@Platform@@QEAA@V<lambda_a8a5f85c2ff75d8631efb4d869983d5e>@@@Z 0000000180023b00 f i _nodert_generated.obj
 0001:00022bc0       ??0?$__abi_FunctorCapture@V<lambda_aa70f50115a4b23afbc3f27a3b05f254>@@XPE$AAVDeviceWatcher@Enumeration@Devices@Windows@@PE$AAVDeviceInformation@345@@Details@Platform@@QEAA@V<lambda_aa70f50115a4b23afbc3f27a3b05f254>@@@Z 0000000180023bc0 f i _nodert_generated.obj
 0001:00022c80       ??0?$__abi_FunctorCapture@V<lambda_b74a78ddedb14b72dbcd1e76300ffed1>@@XPE$AAU?$IAsyncOperation@PE$AAUIBuffer@Streams@Storage@Windows@@@Foundation@Windows@@W4AsyncStatus@34@@Details@Platform@@QEAA@V<lambda_b74a78ddedb14b72dbcd1e76300ffed1>@@@Z 0000000180023c80 f i _nodert_generated.obj
 0001:00022d40       ??0?$__abi_FunctorCapture@V<lambda_b83406a5130f38b3e01bb5dca17ad557>@@XPE$AAU?$IAsyncOperation@PE$AAVDeviceUnpairingResult@Enumeration@Devices@Windows@@@Foundation@Windows@@W4AsyncStatus@34@@Details@Platform@@QEAA@V<lambda_b83406a5130f38b3e01bb5dca17ad557>@@@Z 0000000180023d40 f i _nodert_generated.obj
 0001:00022e00       ??0?$__abi_FunctorCapture@V<lambda_b9369a02f6f09aa97e757a7dfe343714>@@XPE$AAVDeviceAccessInformation@Enumeration@Devices@Windows@@PE$AAVDeviceAccessChangedEventArgs@345@@Details@Platform@@QEAA@V<lambda_b9369a02f6f09aa97e757a7dfe343714>@@@Z 0000000180023e00 f i _nodert_generated.obj
 0001:00022ec0       ??0?$__abi_FunctorCapture@V<lambda_d7eb2f43511abcfd21e1d924554a4a1f>@@XPE$AAVDeviceInformationCustomPairing@Enumeration@Devices@Windows@@PE$AAVDevicePairingRequestedEventArgs@345@@Details@Platform@@QEAA@V<lambda_d7eb2f43511abcfd21e1d924554a4a1f>@@@Z 0000000180023ec0 f i _nodert_generated.obj
 0001:00022f80       ??0?$__abi_FunctorCapture@V<lambda_f57cbd171cf6613ff499c37b18adf8a1>@@XPE$AAU?$IAsyncOperation@PE$AAVDeviceInformationCollection@Enumeration@Devices@Windows@@@Foundation@Windows@@W4AsyncStatus@34@@Details@Platform@@QEAA@V<lambda_f57cbd171cf6613ff499c37b18adf8a1>@@@Z 0000000180023f80 f i _nodert_generated.obj
 0001:00023040       ??0?$__abi_FunctorCapture@V<lambda_fc93eed9d04cbc3042fcb6316f5e3e92>@@XPE$AAU?$IAsyncOperation@PE$AAVDeviceThumbnail@Enumeration@Devices@Windows@@@Foundation@Windows@@W4AsyncStatus@34@@Details@Platform@@QEAA@V<lambda_fc93eed9d04cbc3042fcb6316f5e3e92>@@@Z 0000000180024040 f i _nodert_generated.obj
 0001:00023100       ??0?$function@$$A6AXHPEAV?$Local@VValue@v8@@@v8@@@Z@std@@QEAA@$$QEAV01@@Z 0000000180024100 f i _nodert_generated.obj
 0001:000231a0       ??0?$function@$$A6AXV?$function@$$A6AXHPEAV?$Local@VValue@v8@@@v8@@@Z@std@@@Z@std@@QEAA@$$QEAV01@@Z 00000001800241a0 f i _nodert_generated.obj
 0001:00023240       ??0?$vector@PEAXV?$allocator@PEAX@std@@@std@@QEAA@AEBV01@@Z 0000000180024240 f i _nodert_generated.obj
 0001:00023320       ??0DeviceAccessChangedEventArgs@Enumeration@Devices@Windows@NodeRT@@AEAA@PE$AAV0123@@Z 0000000180024320 f i _nodert_generated.obj
 0001:000233b0       ??0DeviceAccessInformation@Enumeration@Devices@Windows@NodeRT@@AEAA@PE$AAV0123@@Z 00000001800243b0 f i _nodert_generated.obj
 0001:00023440       ??0DeviceConnectionChangeTriggerDetails@Enumeration@Devices@Windows@NodeRT@@AEAA@PE$AAV0123@@Z 0000000180024440 f i _nodert_generated.obj
 0001:000234d0       ??0DeviceDisconnectButtonClickedEventArgs@Enumeration@Devices@Windows@NodeRT@@AEAA@PE$AAV0123@@Z 00000001800244d0 f i _nodert_generated.obj
 0001:00023560       ??0DeviceInformation@Enumeration@Devices@Windows@NodeRT@@AEAA@PE$AAV0123@@Z 0000000180024560 f i _nodert_generated.obj
 0001:000235f0       ??0DeviceInformationCollection@Enumeration@Devices@Windows@NodeRT@@AEAA@PE$AAV0123@@Z 00000001800245f0 f i _nodert_generated.obj
 0001:00023680       ??0DeviceInformationCustomPairing@Enumeration@Devices@Windows@NodeRT@@AEAA@PE$AAV0123@@Z 0000000180024680 f i _nodert_generated.obj
 0001:00023710       ??0DeviceInformationPairing@Enumeration@Devices@Windows@NodeRT@@AEAA@PE$AAV0123@@Z 0000000180024710 f i _nodert_generated.obj
 0001:000237a0       ??0DeviceInformationUpdate@Enumeration@Devices@Windows@NodeRT@@AEAA@PE$AAV0123@@Z 00000001800247a0 f i _nodert_generated.obj
 0001:00023830       ??0DevicePairingRequestedEventArgs@Enumeration@Devices@Windows@NodeRT@@AEAA@PE$AAV0123@@Z 0000000180024830 f i _nodert_generated.obj
 0001:000238c0       ??0DevicePairingResult@Enumeration@Devices@Windows@NodeRT@@AEAA@PE$AAV0123@@Z 00000001800248c0 f i _nodert_generated.obj
 0001:00023950       ??0DevicePicker@Enumeration@Devices@Windows@@QE$AAA@XZ 0000000180024950 f i _nodert_generated.obj
 0001:00023ac0       ??0DevicePicker@Enumeration@Devices@Windows@NodeRT@@AEAA@PE$AAV0123@@Z 0000000180024ac0 f i _nodert_generated.obj
 0001:00023b50       ??0DevicePickerAppearance@Enumeration@Devices@Windows@NodeRT@@AEAA@PE$AAV0123@@Z 0000000180024b50 f i _nodert_generated.obj
 0001:00023be0       ??0DevicePickerFilter@Enumeration@Devices@Windows@NodeRT@@AEAA@PE$AAV0123@@Z 0000000180024be0 f i _nodert_generated.obj
 0001:00023c70       ??0DeviceSelectedEventArgs@Enumeration@Devices@Windows@NodeRT@@AEAA@PE$AAV0123@@Z 0000000180024c70 f i _nodert_generated.obj
 0001:00023d00       ??0DeviceThumbnail@Enumeration@Devices@Windows@NodeRT@@AEAA@PE$AAV0123@@Z 0000000180024d00 f i _nodert_generated.obj
 0001:00023d90       ??0DeviceUnpairingResult@Enumeration@Devices@Windows@NodeRT@@AEAA@PE$AAV0123@@Z 0000000180024d90 f i _nodert_generated.obj
 0001:00023e20       ??0DeviceWatcher@Enumeration@Devices@Windows@NodeRT@@AEAA@PE$AAV0123@@Z 0000000180024e20 f i _nodert_generated.obj
 0001:00023eb0       ??0DeviceWatcherEvent@Enumeration@Devices@Windows@NodeRT@@AEAA@PE$AAV0123@@Z 0000000180024eb0 f i _nodert_generated.obj
 0001:00023f40       ??0DeviceWatcherTriggerDetails@Enumeration@Devices@Windows@NodeRT@@AEAA@PE$AAV0123@@Z 0000000180024f40 f i _nodert_generated.obj
 0001:00023fd0       ??0EnclosureLocation@Enumeration@Devices@Windows@NodeRT@@AEAA@PE$AAV0123@@Z 0000000180024fd0 f i _nodert_generated.obj
 0001:00024060       ??0IDevicePairingSettings@Enumeration@Devices@Windows@NodeRT@@AEAA@PE$AAU0123@@Z 0000000180025060 f i _nodert_generated.obj
 0001:000240f0       ??0String@Platform@@QE$AAA@PEB_W@Z 00000001800250f0 f i _nodert_generated.obj
 0001:00024150       ??0VectorChangedEventArgs@Details@Collections@Platform@@QE$AAA@W4CollectionChange@2Foundation@Windows@@I@Z 0000000180025150 f i _nodert_generated.obj
 0001:00024210       ??0_TaskCollectionBaseImpl@details@Concurrency@@QEAA@Uscheduler_ptr@2@@Z 0000000180025210 f i _nodert_generated.obj
 0001:00024300       ??0_Task_impl_base@details@Concurrency@@QEAA@PEAV_CancellationTokenState@12@Uscheduler_ptr@2@@Z 0000000180025300 f i _nodert_generated.obj
 0001:00024460       ??0_ThenImplOptions@details@Concurrency@@QEAA@PEAV_CancellationTokenState@12@PEBVtask_continuation_context@2@Uscheduler_ptr@2@V_TaskCreationCallstack@12@W4_TaskInliningMode@12@@Z 0000000180025460 f i _nodert_generated.obj
 0001:000245a0       ??0exception@stdext@@QEAA@AEBV01@@Z 00000001800255a0 f i _nodert_generated.obj
 0001:000245c0       ??0runtime_error@std@@QEAA@AEBV01@@Z 00000001800255c0 f i _nodert_generated.obj
 0001:000245f0       ??0scheduler_ptr@Concurrency@@QEAA@V?$shared_ptr@Uscheduler_interface@Concurrency@@@std@@@Z 00000001800255f0 f i _nodert_generated.obj
 0001:000246a0       ??0task_options@Concurrency@@QEAA@XZ 00000001800256a0 f i _nodert_generated.obj
 0001:00025c00       ??1?$Agile@PE$AAU?$IAsyncOperationWithProgress@II@Foundation@Windows@@$00@Platform@@QEAA@XZ 0000000180026c00 f i _nodert_generated.obj
 0001:00025c50       ??1?$Agile@PE$AAU?$IAsyncOperationWithProgress@PE$AAUIBuffer@Streams@Storage@Windows@@I@Foundation@Windows@@$00@Platform@@QEAA@XZ 0000000180026c50 f i _nodert_generated.obj
 0001:00025ca0       ??1?$Array@PE$AAVString@Platform@@$00@Platform@@QE$AAA@XZ 0000000180026ca0 f i _nodert_generated.obj
 0001:00025cc0       ??1?$Array@W4DeviceClass@Enumeration@Devices@Windows@@$00@Platform@@QE$AAA@XZ 0000000180026cc0 f i _nodert_generated.obj
 0001:00025d10       ??1?$Array@W4DeviceWatcherEventKind@Enumeration@Devices@Windows@@$00@Platform@@QE$AAA@XZ 0000000180026d10 f i _nodert_generated.obj
 0001:00025d60       ??1?$ComPtr@UIAgileObject@@@WRL@Microsoft@@QEAA@XZ 0000000180026d60 f i _nodert_generated.obj
 0001:00025d80       ??1?$IteratorForVectorView@PE$AAVString@Platform@@@Details@Collections@Platform@@AE$AAA@XZ 0000000180026d80 f i _nodert_generated.obj
 0001:00025e30       ??1?$IteratorForVectorView@W4DeviceWatcherEventKind@Enumeration@Devices@Windows@@@Details@Collections@Platform@@AE$AAA@XZ 0000000180026e30 f i _nodert_generated.obj
 0001:00025ee0       ??1?$KeyValuePairWrapper@PE$AAVString@Platform@@PE$AAVObject@2@@Collections@NodeRT@@UEAA@XZ 0000000180026ee0 f i _nodert_generated.obj
 0001:00025f80       ??1?$MapViewWrapper@PE$AAVString@Platform@@PE$AAVObject@2@@Collections@NodeRT@@UEAA@XZ 0000000180026f80 f i _nodert_generated.obj
 0001:000260a0       ??1?$Vector@PE$AAVString@Platform@@U?$equal_to@PE$AAVString@Platform@@@std@@$00@Collections@Platform@@AE$AAA@XZ 00000001800270a0 f i _nodert_generated.obj
 0001:00026170       ??1?$Vector@W4DeviceWatcherEventKind@Enumeration@Devices@Windows@@U?$equal_to@W4DeviceWatcherEventKind@Enumeration@Devices@Windows@@@std@@$00@Collections@Platform@@AE$AAA@XZ 0000000180027170 f i _nodert_generated.obj
 0001:00026240       ??1?$VectorView@PE$AAVString@Platform@@U?$equal_to@PE$AAVString@Platform@@@std@@$00@Collections@Platform@@AE$AAA@XZ 0000000180027240 f i _nodert_generated.obj
 0001:000262f0       ??1?$VectorView@W4DeviceWatcherEventKind@Enumeration@Devices@Windows@@U?$equal_to@W4DeviceWatcherEventKind@Enumeration@Devices@Windows@@@std@@$00@Collections@Platform@@AE$AAA@XZ 00000001800272f0 f i _nodert_generated.obj
 0001:000263a0       ??1?$VectorViewWrapper@PE$AAVDeviceWatcherEvent@Enumeration@Devices@Windows@@@Collections@NodeRT@@UEAA@XZ 00000001800273a0 f i _nodert_generated.obj
 0001:00026470       ??1?$VectorViewWrapper@PE$AAVString@Platform@@@Collections@NodeRT@@UEAA@XZ 0000000180027470 f i _nodert_generated.obj
 0001:00026540       ??1?$VectorViewWrapper@W4DeviceClass@Enumeration@Devices@Windows@@@Collections@NodeRT@@UEAA@XZ 0000000180027540 f i _nodert_generated.obj
 0001:00026610       ??1?$VectorWrapper@PE$AAVString@Platform@@@Collections@NodeRT@@UEAA@XZ 0000000180027610 f i _nodert_generated.obj
 0001:000266e0       ??1?$VectorWrapper@W4DeviceClass@Enumeration@Devices@Windows@@@Collections@NodeRT@@UEAA@XZ 00000001800276e0 f i _nodert_generated.obj
 0001:000267b0       ??1?$WriteOnlyArray@PE$AAVString@Platform@@$00@Platform@@QE$AAA@XZ 00000001800277b0 f i _nodert_generated.obj
 0001:00026840       ??1?$WriteOnlyArray@W4DeviceClass@Enumeration@Devices@Windows@@$00@Platform@@QE$AAA@XZ 0000000180027840 f i _nodert_generated.obj
 0001:00026880       ??1?$WriteOnlyArray@W4DeviceWatcherEventKind@Enumeration@Devices@Windows@@$00@Platform@@QE$AAA@XZ 0000000180027880 f i _nodert_generated.obj
 0001:000268c0       ??1?$_ContinuationTaskHandle@IXV?$function@$$A6AXV?$task@I@Concurrency@@@Z@std@@U?$integral_constant@_N$00@2@U_TypeSelectorNoAsync@details@Concurrency@@@?$task@I@Concurrency@@UEAA@XZ 00000001800278c0 f i _nodert_generated.obj
 0001:00026980       ??1?$_ContinuationTaskHandle@PE$AAUIBuffer@Streams@Storage@Windows@@XV?$function@$$A6AXV?$task@PE$AAUIBuffer@Streams@Storage@Windows@@@Concurrency@@@Z@std@@U?$integral_constant@_N$00@6@U_TypeSelectorNoAsync@details@Concurrency@@@?$task@PE$AAUIBuffer@Streams@Storage@Windows@@@Concurrency@@UEAA@XZ 0000000180027980 f i _nodert_generated.obj
 0001:00026a40       ??1?$_ContinuationTaskHandle@PE$AAVDeviceInformation@Enumeration@Devices@Windows@@XV?$function@$$A6AXV?$task@PE$AAVDeviceInformation@Enumeration@Devices@Windows@@@Concurrency@@@Z@std@@U?$integral_constant@_N$00@6@U_TypeSelectorNoAsync@details@Concurrency@@@?$task@PE$AAVDeviceInformation@Enumeration@Devices@Windows@@@Concurrency@@UEAA@XZ 0000000180027a40 f i _nodert_generated.obj
 0001:00026b00       ??1?$_ContinuationTaskHandle@PE$AAVDeviceInformationCollection@Enumeration@Devices@Windows@@XV?$function@$$A6AXV?$task@PE$AAVDeviceInformationCollection@Enumeration@Devices@Windows@@@Concurrency@@@Z@std@@U?$integral_constant@_N$00@6@U_TypeSelectorNoAsync@details@Concurrency@@@?$task@PE$AAVDeviceInformationCollection@Enumeration@Devices@Windows@@@Concurrency@@UEAA@XZ 0000000180027b00 f i _nodert_generated.obj
 0001:00026bc0       ??1?$_ContinuationTaskHandle@PE$AAVDevicePairingResult@Enumeration@Devices@Windows@@XV?$function@$$A6AXV?$task@PE$AAVDevicePairingResult@Enumeration@Devices@Windows@@@Concurrency@@@Z@std@@U?$integral_constant@_N$00@6@U_TypeSelectorNoAsync@details@Concurrency@@@?$task@PE$AAVDevicePairingResult@Enumeration@Devices@Windows@@@Concurrency@@UEAA@XZ 0000000180027bc0 f i _nodert_generated.obj
 0001:00026c80       ??1?$_ContinuationTaskHandle@PE$AAVDeviceThumbnail@Enumeration@Devices@Windows@@XV?$function@$$A6AXV?$task@PE$AAVDeviceThumbnail@Enumeration@Devices@Windows@@@Concurrency@@@Z@std@@U?$integral_constant@_N$00@6@U_TypeSelectorNoAsync@details@Concurrency@@@?$task@PE$AAVDeviceThumbnail@Enumeration@Devices@Windows@@@Concurrency@@UEAA@XZ 0000000180027c80 f i _nodert_generated.obj
 0001:00026d40       ??1?$_ContinuationTaskHandle@PE$AAVDeviceUnpairingResult@Enumeration@Devices@Windows@@XV?$function@$$A6AXV?$task@PE$AAVDeviceUnpairingResult@Enumeration@Devices@Windows@@@Concurrency@@@Z@std@@U?$integral_constant@_N$00@6@U_TypeSelectorNoAsync@details@Concurrency@@@?$task@PE$AAVDeviceUnpairingResult@Enumeration@Devices@Windows@@@Concurrency@@UEAA@XZ 0000000180027d40 f i _nodert_generated.obj
 0001:00026e00       ??1?$_ContinuationTaskHandle@_NXV?$function@$$A6AXV?$task@_N@Concurrency@@@Z@std@@U?$integral_constant@_N$00@2@U_TypeSelectorNoAsync@details@Concurrency@@@?$task@_N@Concurrency@@UEAA@XZ 0000000180027e00 f i _nodert_generated.obj
 0001:00026ec0       ??1?$_Func_base@EV?$task@I@Concurrency@@@std@@QEAA@XZ 0000000180027ec0 f i _nodert_generated.obj
 0001:00026ed0       ??1?$_Func_base@EV?$task@PE$AAUIBuffer@Streams@Storage@Windows@@@Concurrency@@@std@@QEAA@XZ 0000000180027ed0 f i _nodert_generated.obj
 0001:00026ee0       ??1?$_Func_base@EV?$task@PE$AAVDeviceInformation@Enumeration@Devices@Windows@@@Concurrency@@@std@@QEAA@XZ 0000000180027ee0 f i _nodert_generated.obj
 0001:00026ef0       ??1?$_Func_base@EV?$task@PE$AAVDeviceInformationCollection@Enumeration@Devices@Windows@@@Concurrency@@@std@@QEAA@XZ 0000000180027ef0 f i _nodert_generated.obj
 0001:00026f00       ??1?$_Func_base@EV?$task@PE$AAVDevicePairingResult@Enumeration@Devices@Windows@@@Concurrency@@@std@@QEAA@XZ 0000000180027f00 f i _nodert_generated.obj
 0001:00026f10       ??1?$_Func_base@EV?$task@PE$AAVDeviceThumbnail@Enumeration@Devices@Windows@@@Concurrency@@@std@@QEAA@XZ 0000000180027f10 f i _nodert_generated.obj
 0001:00026f20       ??1?$_Func_base@EV?$task@PE$AAVDeviceUnpairingResult@Enumeration@Devices@Windows@@@Concurrency@@@std@@QEAA@XZ 0000000180027f20 f i _nodert_generated.obj
 0001:00026f30       ??1?$_Func_base@EV?$task@_N@Concurrency@@@std@@QEAA@XZ 0000000180027f30 f i _nodert_generated.obj
 0001:00026f40       ??1?$_Func_base@V?$Local@VValue@v8@@@v8@@PE$AAU?$IKeyValuePair@PE$AAVString@Platform@@PE$AAVObject@2@@Collections@Foundation@Windows@@@std@@QEAA@XZ 0000000180027f40 f i _nodert_generated.obj
 0001:00026f50       ??1?$_Func_base@X$$V@std@@QEAA@XZ 0000000180027f50 f i _nodert_generated.obj
 0001:00026f60       ??1?$_Func_class@EV?$task@I@Concurrency@@@std@@QEAA@XZ 0000000180027f60 f i _nodert_generated.obj
 0001:00026fa0       ??1?$_Func_class@EV?$task@PE$AAUIBuffer@Streams@Storage@Windows@@@Concurrency@@@std@@QEAA@XZ 0000000180027fa0 f i _nodert_generated.obj
 0001:00026fe0       ??1?$_Func_class@EV?$task@PE$AAVDeviceInformation@Enumeration@Devices@Windows@@@Concurrency@@@std@@QEAA@XZ 0000000180027fe0 f i _nodert_generated.obj
 0001:00027020       ??1?$_Func_class@EV?$task@PE$AAVDeviceInformationCollection@Enumeration@Devices@Windows@@@Concurrency@@@std@@QEAA@XZ 0000000180028020 f i _nodert_generated.obj
 0001:00027060       ??1?$_Func_class@EV?$task@PE$AAVDevicePairingResult@Enumeration@Devices@Windows@@@Concurrency@@@std@@QEAA@XZ 0000000180028060 f i _nodert_generated.obj
 0001:000270a0       ??1?$_Func_class@EV?$task@PE$AAVDeviceThumbnail@Enumeration@Devices@Windows@@@Concurrency@@@std@@QEAA@XZ 00000001800280a0 f i _nodert_generated.obj
 0001:000270e0       ??1?$_Func_class@EV?$task@PE$AAVDeviceUnpairingResult@Enumeration@Devices@Windows@@@Concurrency@@@std@@QEAA@XZ 00000001800280e0 f i _nodert_generated.obj
 0001:00027120       ??1?$_Func_class@EV?$task@_N@Concurrency@@@std@@QEAA@XZ 0000000180028120 f i _nodert_generated.obj
 0001:00027160       ??1?$_Func_class@PE$AAVDeviceWatcherEvent@Enumeration@Devices@Windows@@V?$Local@VValue@v8@@@v8@@@std@@QEAA@XZ 0000000180028160 f i _nodert_generated.obj
 0001:000271a0       ??1?$_Func_class@PE$AAVString@Platform@@V?$Local@VValue@v8@@@v8@@@std@@QEAA@XZ 00000001800281a0 f i _nodert_generated.obj
 0001:000271e0       ??1?$_Func_class@V?$Local@VValue@v8@@@v8@@PE$AAU?$IKeyValuePair@PE$AAVString@Platform@@PE$AAVObject@2@@Collections@Foundation@Windows@@@std@@QEAA@XZ 00000001800281e0 f i _nodert_generated.obj
 0001:00027220       ??1?$_Func_class@V?$Local@VValue@v8@@@v8@@PE$AAVDeviceInformation@Enumeration@Devices@Windows@@@std@@QEAA@XZ 0000000180028220 f i _nodert_generated.obj
 0001:00027260       ??1?$_Func_class@V?$Local@VValue@v8@@@v8@@PE$AAVDeviceWatcherEvent@Enumeration@Devices@Windows@@@std@@QEAA@XZ 0000000180028260 f i _nodert_generated.obj
 0001:000272a0       ??1?$_Func_class@V?$Local@VValue@v8@@@v8@@PE$AAVObject@Platform@@@std@@QEAA@XZ 00000001800282a0 f i _nodert_generated.obj
 0001:000272e0       ??1?$_Func_class@V?$Local@VValue@v8@@@v8@@PE$AAVString@Platform@@@std@@QEAA@XZ 00000001800282e0 f i _nodert_generated.obj
 0001:00027320       ??1?$_Func_class@V?$Local@VValue@v8@@@v8@@W4DeviceClass@Enumeration@Devices@Windows@@@std@@QEAA@XZ 0000000180028320 f i _nodert_generated.obj
 0001:00027360       ??1?$_Func_class@W4DeviceClass@Enumeration@Devices@Windows@@V?$Local@VValue@v8@@@v8@@@std@@QEAA@XZ 0000000180028360 f i _nodert_generated.obj
 0001:000273a0       ??1?$_Func_class@X$$V@std@@QEAA@XZ 00000001800283a0 f i _nodert_generated.obj
 0001:000273e0       ??1?$_Func_class@XHPEAV?$Local@VValue@v8@@@v8@@@std@@QEAA@XZ 00000001800283e0 f i _nodert_generated.obj
 0001:00027420       ??1?$_Func_class@XV?$function@$$A6AXHPEAV?$Local@VValue@v8@@@v8@@@Z@std@@@std@@QEAA@XZ 0000000180028420 f i _nodert_generated.obj
 0001:00027460       ??1?$_Func_class@XV?$task@I@Concurrency@@@std@@QEAA@XZ 0000000180028460 f i _nodert_generated.obj
 0001:000274a0       ??1?$_Func_class@XV?$task@PE$AAUIBuffer@Streams@Storage@Windows@@@Concurrency@@@std@@QEAA@XZ 00000001800284a0 f i _nodert_generated.obj
 0001:000274e0       ??1?$_Func_class@XV?$task@PE$AAVDeviceInformation@Enumeration@Devices@Windows@@@Concurrency@@@std@@QEAA@XZ 00000001800284e0 f i _nodert_generated.obj
 0001:00027520       ??1?$_Func_class@XV?$task@PE$AAVDeviceInformationCollection@Enumeration@Devices@Windows@@@Concurrency@@@std@@QEAA@XZ 0000000180028520 f i _nodert_generated.obj
 0001:00027560       ??1?$_Func_class@XV?$task@PE$AAVDevicePairingResult@Enumeration@Devices@Windows@@@Concurrency@@@std@@QEAA@XZ 0000000180028560 f i _nodert_generated.obj
 0001:000275a0       ??1?$_Func_class@XV?$task@PE$AAVDeviceThumbnail@Enumeration@Devices@Windows@@@Concurrency@@@std@@QEAA@XZ 00000001800285a0 f i _nodert_generated.obj
 0001:000275e0       ??1?$_Func_class@XV?$task@PE$AAVDeviceUnpairingResult@Enumeration@Devices@Windows@@@Concurrency@@@std@@QEAA@XZ 00000001800285e0 f i _nodert_generated.obj
 0001:00027620       ??1?$_Func_class@XV?$task@_N@Concurrency@@@std@@QEAA@XZ 0000000180028620 f i _nodert_generated.obj
 0001:00027660       ??1?$_Func_class@_NV?$Local@VValue@v8@@@v8@@@std@@QEAA@XZ 0000000180028660 f i _nodert_generated.obj
 0001:000276a0       ??1?$_Func_impl@V<lambda_7c85cdcc7b722a73124a4747dd95cece>@@V?$allocator@H@std@@V?$Local@VValue@v8@@@v8@@PE$AAU?$IKeyValuePair@PE$AAVString@Platform@@PE$AAVObject@2@@Collections@Foundation@Windows@@@std@@QEAA@XZ 00000001800286a0 f i _nodert_generated.obj
 0001:00027740       ??1?$_Func_impl@V<lambda_f25c37099038263181b5186a3fa41b37>@@V?$allocator@H@std@@X$$V@std@@QEAA@XZ 0000000180028740 f i _nodert_generated.obj
 0001:00027800       ??1?$_Func_impl@V<lambda_fc55a96778b695da9907353a9fdacbca>@@V?$allocator@H@std@@X$$V@std@@QEAA@XZ 0000000180028800 f i _nodert_generated.obj
 0001:000278a0       ??1?$_IAsyncOperationWithProgressToAsyncOperationConverter@II@details@Concurrency@@AE$AAA@XZ 00000001800288a0 f i _nodert_generated.obj
 0001:00027920       ??1?$_IAsyncOperationWithProgressToAsyncOperationConverter@PE$AAUIBuffer@Streams@Storage@Windows@@I@details@Concurrency@@AE$AAA@XZ 0000000180028920 f i _nodert_generated.obj
 0001:000279a0       ??1?$_PPLTaskHandle@EU?$_ContinuationTaskHandle@IXV?$function@$$A6AXV?$task@I@Concurrency@@@Z@std@@U?$integral_constant@_N$00@2@U_TypeSelectorNoAsync@details@Concurrency@@@?$task@I@Concurrency@@U_ContinuationTaskHandleBase@details@3@@details@Concurrency@@UEAA@XZ 00000001800289a0 f i _nodert_generated.obj
 0001:00027a70       ??1?$_PPLTaskHandle@EU?$_ContinuationTaskHandle@PE$AAUIBuffer@Streams@Storage@Windows@@XV?$function@$$A6AXV?$task@PE$AAUIBuffer@Streams@Storage@Windows@@@Concurrency@@@Z@std@@U?$integral_constant@_N$00@6@U_TypeSelectorNoAsync@details@Concurrency@@@?$task@PE$AAUIBuffer@Streams@Storage@Windows@@@Concurrency@@U_ContinuationTaskHandleBase@details@3@@details@Concurrency@@UEAA@XZ 0000000180028a70 f i _nodert_generated.obj
 0001:00027b40       ??1?$_PPLTaskHandle@EU?$_ContinuationTaskHandle@PE$AAVDeviceInformation@Enumeration@Devices@Windows@@XV?$function@$$A6AXV?$task@PE$AAVDeviceInformation@Enumeration@Devices@Windows@@@Concurrency@@@Z@std@@U?$integral_constant@_N$00@6@U_TypeSelectorNoAsync@details@Concurrency@@@?$task@PE$AAVDeviceInformation@Enumeration@Devices@Windows@@@Concurrency@@U_ContinuationTaskHandleBase@details@3@@details@Concurrency@@UEAA@XZ 0000000180028b40 f i _nodert_generated.obj
 0001:00027c10       ??1?$_PPLTaskHandle@EU?$_ContinuationTaskHandle@PE$AAVDeviceInformationCollection@Enumeration@Devices@Windows@@XV?$function@$$A6AXV?$task@PE$AAVDeviceInformationCollection@Enumeration@Devices@Windows@@@Concurrency@@@Z@std@@U?$integral_constant@_N$00@6@U_TypeSelectorNoAsync@details@Concurrency@@@?$task@PE$AAVDeviceInformationCollection@Enumeration@Devices@Windows@@@Concurrency@@U_ContinuationTaskHandleBase@details@3@@details@Concurrency@@UEAA@XZ 0000000180028c10 f i _nodert_generated.obj
 0001:00027ce0       ??1?$_PPLTaskHandle@EU?$_ContinuationTaskHandle@PE$AAVDevicePairingResult@Enumeration@Devices@Windows@@XV?$function@$$A6AXV?$task@PE$AAVDevicePairingResult@Enumeration@Devices@Windows@@@Concurrency@@@Z@std@@U?$integral_constant@_N$00@6@U_TypeSelectorNoAsync@details@Concurrency@@@?$task@PE$AAVDevicePairingResult@Enumeration@Devices@Windows@@@Concurrency@@U_ContinuationTaskHandleBase@details@3@@details@Concurrency@@UEAA@XZ 0000000180028ce0 f i _nodert_generated.obj
 0001:00027db0       ??1?$_PPLTaskHandle@EU?$_ContinuationTaskHandle@PE$AAVDeviceThumbnail@Enumeration@Devices@Windows@@XV?$function@$$A6AXV?$task@PE$AAVDeviceThumbnail@Enumeration@Devices@Windows@@@Concurrency@@@Z@std@@U?$integral_constant@_N$00@6@U_TypeSelectorNoAsync@details@Concurrency@@@?$task@PE$AAVDeviceThumbnail@Enumeration@Devices@Windows@@@Concurrency@@U_ContinuationTaskHandleBase@details@3@@details@Concurrency@@UEAA@XZ 0000000180028db0 f i _nodert_generated.obj
 0001:00027e80       ??1?$_PPLTaskHandle@EU?$_ContinuationTaskHandle@PE$AAVDeviceUnpairingResult@Enumeration@Devices@Windows@@XV?$function@$$A6AXV?$task@PE$AAVDeviceUnpairingResult@Enumeration@Devices@Windows@@@Concurrency@@@Z@std@@U?$integral_constant@_N$00@6@U_TypeSelectorNoAsync@details@Concurrency@@@?$task@PE$AAVDeviceUnpairingResult@Enumeration@Devices@Windows@@@Concurrency@@U_ContinuationTaskHandleBase@details@3@@details@Concurrency@@UEAA@XZ 0000000180028e80 f i _nodert_generated.obj
 0001:00027f50       ??1?$_PPLTaskHandle@EU?$_ContinuationTaskHandle@_NXV?$function@$$A6AXV?$task@_N@Concurrency@@@Z@std@@U?$integral_constant@_N$00@2@U_TypeSelectorNoAsync@details@Concurrency@@@?$task@_N@Concurrency@@U_ContinuationTaskHandleBase@details@3@@details@Concurrency@@UEAA@XZ 0000000180028f50 f i _nodert_generated.obj
 0001:00028020       ??1?$_Task_impl@E@details@Concurrency@@UEAA@XZ 0000000180029020 f i _nodert_generated.obj
 0001:000280e0       ??1?$_Task_impl@I@details@Concurrency@@UEAA@XZ 00000001800290e0 f i _nodert_generated.obj
 0001:000281a0       ??1?$_Task_impl@PE$AAUIBuffer@Streams@Storage@Windows@@@details@Concurrency@@UEAA@XZ 00000001800291a0 f i _nodert_generated.obj
 0001:000282b0       ??1?$_Task_impl@PE$AAVDeviceInformation@Enumeration@Devices@Windows@@@details@Concurrency@@UEAA@XZ 00000001800292b0 f i _nodert_generated.obj
 0001:000283b0       ??1?$_Task_impl@PE$AAVDeviceInformationCollection@Enumeration@Devices@Windows@@@details@Concurrency@@UEAA@XZ 00000001800293b0 f i _nodert_generated.obj
 0001:000284b0       ??1?$_Task_impl@PE$AAVDevicePairingResult@Enumeration@Devices@Windows@@@details@Concurrency@@UEAA@XZ 00000001800294b0 f i _nodert_generated.obj
 0001:000285b0       ??1?$_Task_impl@PE$AAVDeviceThumbnail@Enumeration@Devices@Windows@@@details@Concurrency@@UEAA@XZ 00000001800295b0 f i _nodert_generated.obj
 0001:000286b0       ??1?$_Task_impl@PE$AAVDeviceUnpairingResult@Enumeration@Devices@Windows@@@details@Concurrency@@UEAA@XZ 00000001800296b0 f i _nodert_generated.obj
 0001:000287b0       ??1?$_Task_impl@_N@details@Concurrency@@UEAA@XZ 00000001800297b0 f i _nodert_generated.obj
 0001:00028870       ??1?$__abi_FunctorCapture@V<lambda_11ae5e2332e27c7defe3fc71b95bc051>@@XPE$AAVDeviceWatcher@Enumeration@Devices@Windows@@PE$AAVDeviceInformationUpdate@345@@Details@Platform@@UEAA@XZ 0000000180029870 f i _nodert_generated.obj
 0001:00028910       ??1?$__abi_FunctorCapture@V<lambda_1c2c1434820349da43b21d405bb32470>@@XPE$AAVDeviceWatcher@Enumeration@Devices@Windows@@PE$AAVObject@Platform@@@Details@Platform@@UEAA@XZ 0000000180029910 f i _nodert_generated.obj
 0001:000289b0       ??1?$__abi_FunctorCapture@V<lambda_1c6c1b322bf2733cdee76baa2bd484e8>@@XPE$AAU?$IAsyncOperation@I@Foundation@Windows@@W4AsyncStatus@34@@Details@Platform@@UEAA@XZ 00000001800299b0 f i _nodert_generated.obj
 0001:00028a50       ??1?$__abi_FunctorCapture@V<lambda_338a6eb91f8f0018d922c59d8cb00a90>@@XPE$AAVDevicePicker@Enumeration@Devices@Windows@@PE$AAVDeviceSelectedEventArgs@345@@Details@Platform@@UEAA@XZ 0000000180029a50 f i _nodert_generated.obj
 0001:00028af0       ??1?$__abi_FunctorCapture@V<lambda_362dddb56864f9b321daeb467199f068>@@XPE$AAVDevicePicker@Enumeration@Devices@Windows@@PE$AAVObject@Platform@@@Details@Platform@@UEAA@XZ 0000000180029af0 f i _nodert_generated.obj
 0001:00028b90       ??1?$__abi_FunctorCapture@V<lambda_3ff05d0f6e0fe947571a9cba4c871e9f>@@XPE$AAU?$IAsyncOperation@PE$AAVDevicePairingResult@Enumeration@Devices@Windows@@@Foundation@Windows@@W4AsyncStatus@34@@Details@Platform@@UEAA@XZ 0000000180029b90 f i _nodert_generated.obj
 0001:00028c30       ??1?$__abi_FunctorCapture@V<lambda_417f9b9eb69d711fe281d2cc0f81e7e0>@@XPE$AAVDevicePicker@Enumeration@Devices@Windows@@PE$AAVDeviceDisconnectButtonClickedEventArgs@345@@Details@Platform@@UEAA@XZ 0000000180029c30 f i _nodert_generated.obj
 0001:00028cd0       ??1?$__abi_FunctorCapture@V<lambda_7d19cc810d89fdff34731fdb4d4ddc6f>@@XPE$AAU?$IAsyncOperation@PE$AAVDeviceInformation@Enumeration@Devices@Windows@@@Foundation@Windows@@W4AsyncStatus@34@@Details@Platform@@UEAA@XZ 0000000180029cd0 f i _nodert_generated.obj
 0001:00028d70       ??1?$__abi_FunctorCapture@V<lambda_8ec650b07ba0e505c408d2389def4a27>@@XPE$AAVDeviceWatcher@Enumeration@Devices@Windows@@PE$AAVDeviceInformationUpdate@345@@Details@Platform@@UEAA@XZ 0000000180029d70 f i _nodert_generated.obj
 0001:00028e10       ??1?$__abi_FunctorCapture@V<lambda_9c267cdafd8e064f323ec4e1c7ae30d4>@@XPE$AAU?$IAsyncOperation@_N@Foundation@Windows@@W4AsyncStatus@34@@Details@Platform@@UEAA@XZ 0000000180029e10 f i _nodert_generated.obj
 0001:00028eb0       ??1?$__abi_FunctorCapture@V<lambda_a8a5f85c2ff75d8631efb4d869983d5e>@@XPE$AAVDeviceWatcher@Enumeration@Devices@Windows@@PE$AAVObject@Platform@@@Details@Platform@@UEAA@XZ 0000000180029eb0 f i _nodert_generated.obj
 0001:00028f50       ??1?$__abi_FunctorCapture@V<lambda_aa70f50115a4b23afbc3f27a3b05f254>@@XPE$AAVDeviceWatcher@Enumeration@Devices@Windows@@PE$AAVDeviceInformation@345@@Details@Platform@@UEAA@XZ 0000000180029f50 f i _nodert_generated.obj
 0001:00028ff0       ??1?$__abi_FunctorCapture@V<lambda_b74a78ddedb14b72dbcd1e76300ffed1>@@XPE$AAU?$IAsyncOperation@PE$AAUIBuffer@Streams@Storage@Windows@@@Foundation@Windows@@W4AsyncStatus@34@@Details@Platform@@UEAA@XZ 0000000180029ff0 f i _nodert_generated.obj
 0001:00029090       ??1?$__abi_FunctorCapture@V<lambda_b83406a5130f38b3e01bb5dca17ad557>@@XPE$AAU?$IAsyncOperation@PE$AAVDeviceUnpairingResult@Enumeration@Devices@Windows@@@Foundation@Windows@@W4AsyncStatus@34@@Details@Platform@@UEAA@XZ 000000018002a090 f i _nodert_generated.obj
 0001:00029130       ??1?$__abi_FunctorCapture@V<lambda_b9369a02f6f09aa97e757a7dfe343714>@@XPE$AAVDeviceAccessInformation@Enumeration@Devices@Windows@@PE$AAVDeviceAccessChangedEventArgs@345@@Details@Platform@@UEAA@XZ 000000018002a130 f i _nodert_generated.obj
 0001:000291d0       ??1?$__abi_FunctorCapture@V<lambda_d7eb2f43511abcfd21e1d924554a4a1f>@@XPE$AAVDeviceInformationCustomPairing@Enumeration@Devices@Windows@@PE$AAVDevicePairingRequestedEventArgs@345@@Details@Platform@@UEAA@XZ 000000018002a1d0 f i _nodert_generated.obj
 0001:00029270       ??1?$__abi_FunctorCapture@V<lambda_f57cbd171cf6613ff499c37b18adf8a1>@@XPE$AAU?$IAsyncOperation@PE$AAVDeviceInformationCollection@Enumeration@Devices@Windows@@@Foundation@Windows@@W4AsyncStatus@34@@Details@Platform@@UEAA@XZ 000000018002a270 f i _nodert_generated.obj
 0001:00029310       ??1?$__abi_FunctorCapture@V<lambda_fc93eed9d04cbc3042fcb6316f5e3e92>@@XPE$AAU?$IAsyncOperation@PE$AAVDeviceThumbnail@Enumeration@Devices@Windows@@@Foundation@Windows@@W4AsyncStatus@34@@Details@Platform@@UEAA@XZ 000000018002a310 f i _nodert_generated.obj
 0001:000293b0       ??1?$function@$$A6A?AV?$Local@VValue@v8@@@v8@@PE$AAU?$IKeyValuePair@PE$AAVString@Platform@@PE$AAVObject@2@@Collections@Foundation@Windows@@@Z@std@@QEAA@XZ 000000018002a3b0 f i _nodert_generated.obj
 0001:000293f0       ??1?$function@$$A6A?AV?$Local@VValue@v8@@@v8@@PE$AAVDeviceInformation@Enumeration@Devices@Windows@@@Z@std@@QEAA@XZ 000000018002a3f0 f i _nodert_generated.obj
 0001:00029430       ??1?$function@$$A6A?AV?$Local@VValue@v8@@@v8@@PE$AAVDeviceWatcherEvent@Enumeration@Devices@Windows@@@Z@std@@QEAA@XZ 000000018002a430 f i _nodert_generated.obj
 0001:00029470       ??1?$function@$$A6A?AV?$Local@VValue@v8@@@v8@@PE$AAVObject@Platform@@@Z@std@@QEAA@XZ 000000018002a470 f i _nodert_generated.obj
 0001:000294b0       ??1?$function@$$A6A?AV?$Local@VValue@v8@@@v8@@PE$AAVString@Platform@@@Z@std@@QEAA@XZ 000000018002a4b0 f i _nodert_generated.obj
 0001:000294f0       ??1?$function@$$A6A?AV?$Local@VValue@v8@@@v8@@W4DeviceClass@Enumeration@Devices@Windows@@@Z@std@@QEAA@XZ 000000018002a4f0 f i _nodert_generated.obj
 0001:00029530       ??1?$function@$$A6A?AW4DeviceClass@Enumeration@Devices@Windows@@V?$Local@VValue@v8@@@v8@@@Z@std@@QEAA@XZ 000000018002a530 f i _nodert_generated.obj
 0001:00029570       ??1?$function@$$A6A?AW4DeviceWatcherEventKind@Enumeration@Devices@Windows@@V?$Local@VValue@v8@@@v8@@@Z@std@@QEAA@XZ 000000018002a570 f i _nodert_generated.obj
 0001:000295b0       ??1?$function@$$A6AEV?$task@I@Concurrency@@@Z@std@@QEAA@XZ 000000018002a5b0 f i _nodert_generated.obj
 0001:000295f0       ??1?$function@$$A6AEV?$task@PE$AAUIBuffer@Streams@Storage@Windows@@@Concurrency@@@Z@std@@QEAA@XZ 000000018002a5f0 f i _nodert_generated.obj
 0001:00029630       ??1?$function@$$A6AEV?$task@PE$AAVDeviceInformation@Enumeration@Devices@Windows@@@Concurrency@@@Z@std@@QEAA@XZ 000000018002a630 f i _nodert_generated.obj
 0001:00029670       ??1?$function@$$A6AEV?$task@PE$AAVDeviceInformationCollection@Enumeration@Devices@Windows@@@Concurrency@@@Z@std@@QEAA@XZ 000000018002a670 f i _nodert_generated.obj
 0001:000296b0       ??1?$function@$$A6AEV?$task@PE$AAVDevicePairingResult@Enumeration@Devices@Windows@@@Concurrency@@@Z@std@@QEAA@XZ 000000018002a6b0 f i _nodert_generated.obj
 0001:000296f0       ??1?$function@$$A6AEV?$task@PE$AAVDeviceThumbnail@Enumeration@Devices@Windows@@@Concurrency@@@Z@std@@QEAA@XZ 000000018002a6f0 f i _nodert_generated.obj
 0001:00029730       ??1?$function@$$A6AEV?$task@PE$AAVDeviceUnpairingResult@Enumeration@Devices@Windows@@@Concurrency@@@Z@std@@QEAA@XZ 000000018002a730 f i _nodert_generated.obj
 0001:00029770       ??1?$function@$$A6AEV?$task@_N@Concurrency@@@Z@std@@QEAA@XZ 000000018002a770 f i _nodert_generated.obj
 0001:000297b0       ??1?$function@$$A6APE$AAVDeviceWatcherEvent@Enumeration@Devices@Windows@@V?$Local@VValue@v8@@@v8@@@Z@std@@QEAA@XZ 000000018002a7b0 f i _nodert_generated.obj
 0001:000297f0       ??1?$function@$$A6APE$AAVString@Platform@@V?$Local@VValue@v8@@@v8@@@Z@std@@QEAA@XZ 000000018002a7f0 f i _nodert_generated.obj
 0001:00029830       ??1?$function@$$A6AXHPEAV?$Local@VValue@v8@@@v8@@@Z@std@@QEAA@XZ 000000018002a830 f i _nodert_generated.obj
 0001:00029870       ??1?$function@$$A6AXV?$function@$$A6AXHPEAV?$Local@VValue@v8@@@v8@@@Z@std@@@Z@std@@QEAA@XZ 000000018002a870 f i _nodert_generated.obj
 0001:000298b0       ??1?$function@$$A6AXV?$task@I@Concurrency@@@Z@std@@QEAA@XZ 000000018002a8b0 f i _nodert_generated.obj
 0001:000298f0       ??1?$function@$$A6AXV?$task@PE$AAUIBuffer@Streams@Storage@Windows@@@Concurrency@@@Z@std@@QEAA@XZ 000000018002a8f0 f i _nodert_generated.obj
 0001:00029930       ??1?$function@$$A6AXV?$task@PE$AAVDeviceInformation@Enumeration@Devices@Windows@@@Concurrency@@@Z@std@@QEAA@XZ 000000018002a930 f i _nodert_generated.obj
 0001:00029970       ??1?$function@$$A6AXV?$task@PE$AAVDeviceInformationCollection@Enumeration@Devices@Windows@@@Concurrency@@@Z@std@@QEAA@XZ 000000018002a970 f i _nodert_generated.obj
 0001:000299b0       ??1?$function@$$A6AXV?$task@PE$AAVDevicePairingResult@Enumeration@Devices@Windows@@@Concurrency@@@Z@std@@QEAA@XZ 000000018002a9b0 f i _nodert_generated.obj
 0001:000299f0       ??1?$function@$$A6AXV?$task@PE$AAVDeviceThumbnail@Enumeration@Devices@Windows@@@Concurrency@@@Z@std@@QEAA@XZ 000000018002a9f0 f i _nodert_generated.obj
 0001:00029a30       ??1?$function@$$A6AXV?$task@PE$AAVDeviceUnpairingResult@Enumeration@Devices@Windows@@@Concurrency@@@Z@std@@QEAA@XZ 000000018002aa30 f i _nodert_generated.obj
 0001:00029a70       ??1?$function@$$A6AXV?$task@_N@Concurrency@@@Z@std@@QEAA@XZ 000000018002aa70 f i _nodert_generated.obj
 0001:00029ab0       ??1?$function@$$A6AXXZ@std@@QEAA@XZ 000000018002aab0 f i _nodert_generated.obj
 0001:00029af0       ??1?$function@$$A6A_NV?$Local@VValue@v8@@@v8@@@Z@std@@QEAA@XZ 000000018002aaf0 f i _nodert_generated.obj
 0001:00029b30       ??1?$lock_guard@Vmutex@std@@@std@@QEAA@XZ 000000018002ab30 f i _nodert_generated.obj
 0001:00029b60       ??1?$shared_ptr@I@std@@QEAA@XZ 000000018002ab60 f i _nodert_generated.obj
 0001:00029bc0       ??1?$shared_ptr@U?$_Task_impl@E@details@Concurrency@@@std@@QEAA@XZ 000000018002abc0 f i _nodert_generated.obj
 0001:00029c20       ??1?$shared_ptr@U?$_Task_impl@I@details@Concurrency@@@std@@QEAA@XZ 000000018002ac20 f i _nodert_generated.obj
 0001:00029c80       ??1?$shared_ptr@U?$_Task_impl@PE$AAUIBuffer@Streams@Storage@Windows@@@details@Concurrency@@@std@@QEAA@XZ 000000018002ac80 f i _nodert_generated.obj
 0001:00029ce0       ??1?$shared_ptr@U?$_Task_impl@PE$AAVDeviceInformation@Enumeration@Devices@Windows@@@details@Concurrency@@@std@@QEAA@XZ 000000018002ace0 f i _nodert_generated.obj
 0001:00029d40       ??1?$shared_ptr@U?$_Task_impl@PE$AAVDeviceInformationCollection@Enumeration@Devices@Windows@@@details@Concurrency@@@std@@QEAA@XZ 000000018002ad40 f i _nodert_generated.obj
 0001:00029da0       ??1?$shared_ptr@U?$_Task_impl@PE$AAVDevicePairingResult@Enumeration@Devices@Windows@@@details@Concurrency@@@std@@QEAA@XZ 000000018002ada0 f i _nodert_generated.obj
 0001:00029e00       ??1?$shared_ptr@U?$_Task_impl@PE$AAVDeviceThumbnail@Enumeration@Devices@Windows@@@details@Concurrency@@@std@@QEAA@XZ 000000018002ae00 f i _nodert_generated.obj
 0001:00029e60       ??1?$shared_ptr@U?$_Task_impl@PE$AAVDeviceUnpairingResult@Enumeration@Devices@Windows@@@details@Concurrency@@@std@@QEAA@XZ 000000018002ae60 f i _nodert_generated.obj
 0001:00029ec0       ??1?$shared_ptr@U?$_Task_impl@_N@details@Concurrency@@@std@@QEAA@XZ 000000018002aec0 f i _nodert_generated.obj
 0001:00029f20       ??1?$shared_ptr@U_ExceptionHolder@details@Concurrency@@@std@@QEAA@XZ 000000018002af20 f i _nodert_generated.obj
 0001:00029f80       ??1?$shared_ptr@U_Task_impl_base@details@Concurrency@@@std@@QEAA@XZ 000000018002af80 f i _nodert_generated.obj
 0001:00029fe0       ??1?$shared_ptr@Uscheduler_interface@Concurrency@@@std@@QEAA@XZ 000000018002afe0 f i _nodert_generated.obj
 0001:0002a040       ??1?$shared_ptr@V?$Persistent@VObject@v8@@V?$NonCopyablePersistentTraits@VObject@v8@@@2@@Nan@@@std@@QEAA@XZ 000000018002b040 f i _nodert_generated.obj
 0001:0002a0a0       ??1?$shared_ptr@V?$vector@PE$AAVString@Platform@@V?$allocator@PE$AAVString@Platform@@@std@@@std@@@std@@QEAA@XZ 000000018002b0a0 f i _nodert_generated.obj
 0001:0002a100       ??1?$shared_ptr@V?$vector@W4DeviceWatcherEventKind@Enumeration@Devices@Windows@@V?$allocator@W4DeviceWatcherEventKind@Enumeration@Devices@Windows@@@std@@@std@@@std@@QEAA@XZ 000000018002b100 f i _nodert_generated.obj
 0001:0002a160       ??1?$task@I@Concurrency@@QEAA@XZ 000000018002b160 f i _nodert_generated.obj
 0001:0002a1d0       ??1?$task@PE$AAUIBuffer@Streams@Storage@Windows@@@Concurrency@@QEAA@XZ 000000018002b1d0 f i _nodert_generated.obj
 0001:0002a240       ??1?$task@PE$AAVDeviceInformation@Enumeration@Devices@Windows@@@Concurrency@@QEAA@XZ 000000018002b240 f i _nodert_generated.obj
 0001:0002a2b0       ??1?$task@PE$AAVDeviceInformationCollection@Enumeration@Devices@Windows@@@Concurrency@@QEAA@XZ 000000018002b2b0 f i _nodert_generated.obj
 0001:0002a320       ??1?$task@PE$AAVDevicePairingResult@Enumeration@Devices@Windows@@@Concurrency@@QEAA@XZ 000000018002b320 f i _nodert_generated.obj
 0001:0002a390       ??1?$task@PE$AAVDeviceThumbnail@Enumeration@Devices@Windows@@@Concurrency@@QEAA@XZ 000000018002b390 f i _nodert_generated.obj
 0001:0002a400       ??1?$task@PE$AAVDeviceUnpairingResult@Enumeration@Devices@Windows@@@Concurrency@@QEAA@XZ 000000018002b400 f i _nodert_generated.obj
 0001:0002a470       ??1?$task@X@Concurrency@@QEAA@XZ 000000018002b470 f i _nodert_generated.obj
 0001:0002a4e0       ??1?$task@_N@Concurrency@@QEAA@XZ 000000018002b4e0 f i _nodert_generated.obj
 0001:0002a550       ??1?$unique_lock@Vmutex@std@@@std@@QEAA@XZ 000000018002b550 f i _nodert_generated.obj
 0001:0002a590       ??1?$unique_ptr@$$BY0A@V?$Local@VValue@v8@@@v8@@U?$default_delete@$$BY0A@V?$Local@VValue@v8@@@v8@@@std@@@std@@QEAA@XZ 000000018002b590 f i _nodert_generated.obj
 0001:0002a5a0       ??1?$unique_ptr@U_TaskProcHandle@details@Concurrency@@U?$default_delete@U_TaskProcHandle@details@Concurrency@@@std@@@std@@QEAA@XZ 000000018002b5a0 f i _nodert_generated.obj
 0001:0002a5c0       ??1?$unique_ptr@V_PPLTaskChore@_DefaultPPLTaskScheduler@details@Concurrency@@U?$default_delete@V_PPLTaskChore@_DefaultPPLTaskScheduler@details@Concurrency@@@std@@@std@@QEAA@XZ 000000018002b5c0 f i _nodert_generated.obj
 0001:0002a610       ??1?$vector@PE$AAVString@Platform@@V?$allocator@PE$AAVString@Platform@@@std@@@std@@QEAA@XZ 000000018002b610 f i _nodert_generated.obj
 0001:0002a620       ??1?$vector@W4DeviceWatcherEventKind@Enumeration@Devices@Windows@@V?$allocator@W4DeviceWatcherEventKind@Enumeration@Devices@Windows@@@std@@@std@@QEAA@XZ 000000018002b620 f i _nodert_generated.obj
 0001:0002a670       ??1?$weak_ptr@U_Task_impl_base@details@Concurrency@@@std@@QEAA@XZ 000000018002b670 f i _nodert_generated.obj
 0001:0002a6a0       ??1AsyncResource@Nan@@QEAA@XZ 000000018002b6a0 f i _nodert_generated.obj
 0001:0002a6f0       ??1EscapableHandleScope@Nan@@QEAA@XZ 000000018002b6f0 f i _nodert_generated.obj
 0001:0002a700       ??1EventSource@Platform@@QEAA@XZ 000000018002b700 f i _nodert_generated.obj
 0001:0002a720       ??1HandleScope@Nan@@QEAA@XZ 000000018002b720 f i _nodert_generated.obj
 0001:0002a730       ??1ObjectWrap@Nan@@UEAA@XZ 000000018002b730 f i _nodert_generated.obj
 0001:0002a7d0       ??1TokenData@Async@NodeUtils@@UEAA@XZ 000000018002b7d0 f i _nodert_generated.obj
 0001:0002a850       ??1TryCatch@Nan@@QEAA@XZ   000000018002b850 f i _nodert_generated.obj
 0001:0002a860       ??1WrapperBase@NodeRT@@UEAA@XZ 000000018002b860 f i _nodert_generated.obj
 0001:0002a870       ??1_CancellationTokenRegistration@details@Concurrency@@MEAA@XZ 000000018002b870 f i _nodert_generated.obj
 0001:0002a8c0       ??1_ContextCallback@details@Concurrency@@QEAA@XZ 000000018002b8c0 f i _nodert_generated.obj
 0001:0002a8e0       ??1_ContinuationTaskHandleBase@details@Concurrency@@UEAA@XZ 000000018002b8e0 f i _nodert_generated.obj
 0001:0002a930       ??1_ExceptionHolder@details@Concurrency@@QEAA@XZ 000000018002b930 f i _nodert_generated.obj
 0001:0002a9c0       ??1_Holder@_TaskProcThunk@details@Concurrency@@QEAA@XZ 000000018002b9c0 f i _nodert_generated.obj
 0001:0002aa20       ??1_Internal_task_options@details@Concurrency@@QEAA@XZ 000000018002ba20 f i _nodert_generated.obj
 0001:0002aa70       ??1_RefCounter@details@Concurrency@@UEAA@XZ 000000018002ba70 f i _nodert_generated.obj
 0001:0002aa80       ??1_Ref_count_base@std@@UEAA@XZ 000000018002ba80 f i _nodert_generated.obj
 0001:0002aa90       ??1_TaskCollectionBaseImpl@details@Concurrency@@QEAA@XZ 000000018002ba90 f i _nodert_generated.obj
 0001:0002ab30       ??1_TaskCreationCallstack@details@Concurrency@@QEAA@XZ 000000018002bb30 f i _nodert_generated.obj
 0001:0002ab80       ??1_TaskProcHandle@details@Concurrency@@UEAA@XZ 000000018002bb80 f i _nodert_generated.obj
 0001:0002ab90       ??1_TaskWorkItemRAIILogger@details@Concurrency@@QEAA@XZ 000000018002bb90 f i _nodert_generated.obj
 0001:0002abc0       ??1_Task_impl_base@details@Concurrency@@UEAA@XZ 000000018002bbc0 f i _nodert_generated.obj
 0001:0002acd0       ??1_ThenImplOptions@details@Concurrency@@QEAA@XZ 000000018002bcd0 f i _nodert_generated.obj
 0001:0002ad80       ??1__abi_CaptureBase@Details@Platform@@MEAA@XZ 000000018002bd80 f i _nodert_generated.obj
 0001:0002ad90       ??1__abi_CapturePtr@Details@Platform@@QEAA@XZ 000000018002bd90 f i _nodert_generated.obj
 0001:0002adf0       ??1cancellation_token@Concurrency@@QEAA@XZ 000000018002bdf0 f i _nodert_generated.obj
 0001:0002ae40       ??1exception@stdext@@UEAA@XZ 000000018002be40 f i _nodert_generated.obj
 0001:0002ae50       ??1exception_ptr@std@@QEAA@XZ 000000018002be50 f i _nodert_generated.obj
 0001:0002ae60       ??1invalid_operation@Concurrency@@UEAA@XZ 000000018002be60 f i _nodert_generated.obj
 0001:0002ae70       ??1mutex@std@@QEAA@XZ      000000018002be70 f i _nodert_generated.obj
 0001:0002ae80       ??1runtime_error@std@@UEAA@XZ 000000018002be80 f i _nodert_generated.obj
 0001:0002ae90       ??1scheduler_ptr@Concurrency@@QEAA@XZ 000000018002be90 f i _nodert_generated.obj
 0001:0002af00       ??1task_canceled@Concurrency@@UEAA@XZ 000000018002bf00 f i _nodert_generated.obj
 0001:0002af10       ??1task_continuation_context@Concurrency@@QEAA@XZ 000000018002bf10 f i _nodert_generated.obj
 0001:0002af30       ??1task_options@Concurrency@@QEAA@XZ 000000018002bf30 f i _nodert_generated.obj
 0001:0002b020       ??3@YAXPEAX0@Z             000000018002c020 f i _nodert_generated.obj
 0001:0002b030       ??3__abi_CaptureBase@Details@Platform@@SAXPEAX0@Z 000000018002c030 f i _nodert_generated.obj
 0001:0002b080       ??4?$Agile@PE$AAUIBuffer@Streams@Storage@Windows@@$00@Platform@@QEAAAEAV01@PE$AAUIBuffer@Streams@Storage@Windows@@@Z 000000018002c080 f i _nodert_generated.obj
 0001:0002b300       ??4?$shared_ptr@I@std@@QEAAAEAV01@$$QEAV01@@Z 000000018002c300 f i _nodert_generated.obj
 0001:0002b3b0       ??4?$shared_ptr@U?$_Task_impl@E@details@Concurrency@@@std@@QEAAAEAV01@$$QEAV01@@Z 000000018002c3b0 f i _nodert_generated.obj
 0001:0002b460       ??4?$shared_ptr@U?$_Task_impl@I@details@Concurrency@@@std@@QEAAAEAV01@$$QEAV01@@Z 000000018002c460 f i _nodert_generated.obj
 0001:0002b510       ??4?$shared_ptr@U?$_Task_impl@I@details@Concurrency@@@std@@QEAAAEAV01@AEBV01@@Z 000000018002c510 f i _nodert_generated.obj
 0001:0002b5c0       ??4?$shared_ptr@U?$_Task_impl@PE$AAUIBuffer@Streams@Storage@Windows@@@details@Concurrency@@@std@@QEAAAEAV01@$$QEAV01@@Z 000000018002c5c0 f i _nodert_generated.obj
 0001:0002b670       ??4?$shared_ptr@U?$_Task_impl@PE$AAUIBuffer@Streams@Storage@Windows@@@details@Concurrency@@@std@@QEAAAEAV01@AEBV01@@Z 000000018002c670 f i _nodert_generated.obj
 0001:0002b720       ??4?$shared_ptr@U?$_Task_impl@PE$AAVDeviceInformation@Enumeration@Devices@Windows@@@details@Concurrency@@@std@@QEAAAEAV01@$$QEAV01@@Z 000000018002c720 f i _nodert_generated.obj
 0001:0002b7d0       ??4?$shared_ptr@U?$_Task_impl@PE$AAVDeviceInformation@Enumeration@Devices@Windows@@@details@Concurrency@@@std@@QEAAAEAV01@AEBV01@@Z 000000018002c7d0 f i _nodert_generated.obj
 0001:0002b880       ??4?$shared_ptr@U?$_Task_impl@PE$AAVDeviceInformationCollection@Enumeration@Devices@Windows@@@details@Concurrency@@@std@@QEAAAEAV01@$$QEAV01@@Z 000000018002c880 f i _nodert_generated.obj
 0001:0002b930       ??4?$shared_ptr@U?$_Task_impl@PE$AAVDeviceInformationCollection@Enumeration@Devices@Windows@@@details@Concurrency@@@std@@QEAAAEAV01@AEBV01@@Z 000000018002c930 f i _nodert_generated.obj
 0001:0002b9e0       ??4?$shared_ptr@U?$_Task_impl@PE$AAVDevicePairingResult@Enumeration@Devices@Windows@@@details@Concurrency@@@std@@QEAAAEAV01@$$QEAV01@@Z 000000018002c9e0 f i _nodert_generated.obj
 0001:0002ba90       ??4?$shared_ptr@U?$_Task_impl@PE$AAVDevicePairingResult@Enumeration@Devices@Windows@@@details@Concurrency@@@std@@QEAAAEAV01@AEBV01@@Z 000000018002ca90 f i _nodert_generated.obj
 0001:0002bb40       ??4?$shared_ptr@U?$_Task_impl@PE$AAVDeviceThumbnail@Enumeration@Devices@Windows@@@details@Concurrency@@@std@@QEAAAEAV01@$$QEAV01@@Z 000000018002cb40 f i _nodert_generated.obj
 0001:0002bbf0       ??4?$shared_ptr@U?$_Task_impl@PE$AAVDeviceThumbnail@Enumeration@Devices@Windows@@@details@Concurrency@@@std@@QEAAAEAV01@AEBV01@@Z 000000018002cbf0 f i _nodert_generated.obj
 0001:0002bca0       ??4?$shared_ptr@U?$_Task_impl@PE$AAVDeviceUnpairingResult@Enumeration@Devices@Windows@@@details@Concurrency@@@std@@QEAAAEAV01@$$QEAV01@@Z 000000018002cca0 f i _nodert_generated.obj
 0001:0002bd50       ??4?$shared_ptr@U?$_Task_impl@PE$AAVDeviceUnpairingResult@Enumeration@Devices@Windows@@@details@Concurrency@@@std@@QEAAAEAV01@AEBV01@@Z 000000018002cd50 f i _nodert_generated.obj
 0001:0002be00       ??4?$shared_ptr@U?$_Task_impl@_N@details@Concurrency@@@std@@QEAAAEAV01@$$QEAV01@@Z 000000018002ce00 f i _nodert_generated.obj
 0001:0002beb0       ??4?$shared_ptr@U?$_Task_impl@_N@details@Concurrency@@@std@@QEAAAEAV01@AEBV01@@Z 000000018002ceb0 f i _nodert_generated.obj
 0001:0002bf60       ??4?$shared_ptr@U_ExceptionHolder@details@Concurrency@@@std@@QEAAAEAV01@AEBV01@@Z 000000018002cf60 f i _nodert_generated.obj
 0001:0002c010       ??4?$shared_ptr@V?$vector@PE$AAVString@Platform@@V?$allocator@PE$AAVString@Platform@@@std@@@std@@@std@@QEAAAEAV01@$$QEAV01@@Z 000000018002d010 f i _nodert_generated.obj
 0001:0002c0c0       ??4?$shared_ptr@V?$vector@W4DeviceWatcherEventKind@Enumeration@Devices@Windows@@V?$allocator@W4DeviceWatcherEventKind@Enumeration@Devices@Windows@@@std@@@std@@@std@@QEAAAEAV01@$$QEAV01@@Z 000000018002d0c0 f i _nodert_generated.obj
 0001:0002c170       ??4?$vector@PEAXV?$allocator@PEAX@std@@@std@@QEAAAEAV01@AEBV01@@Z 000000018002d170 f i _nodert_generated.obj
 0001:0002c300       ??B?$Box@W4DeviceWatcherEventKind@Enumeration@Devices@Windows@@@Platform@@QE$AAA?AW4DeviceWatcherEventKind@Enumeration@Devices@Windows@@XZ 000000018002d300 f i _nodert_generated.obj
 0001:0002c3f0       ??B?$Box@_J@Platform@@QE$AAA_JXZ 000000018002d3f0 f i _nodert_generated.obj
 0001:000328c0       ??R?$_Func_class@EV?$task@I@Concurrency@@@std@@QEBAEV?$task@I@Concurrency@@@Z 00000001800338c0 f i _nodert_generated.obj
 0001:00032960       ??R?$_Func_class@EV?$task@PE$AAUIBuffer@Streams@Storage@Windows@@@Concurrency@@@std@@QEBAEV?$task@PE$AAUIBuffer@Streams@Storage@Windows@@@Concurrency@@@Z 0000000180033960 f i _nodert_generated.obj
 0001:00032a00       ??R?$_Func_class@EV?$task@PE$AAVDeviceInformation@Enumeration@Devices@Windows@@@Concurrency@@@std@@QEBAEV?$task@PE$AAVDeviceInformation@Enumeration@Devices@Windows@@@Concurrency@@@Z 0000000180033a00 f i _nodert_generated.obj
 0001:00032aa0       ??R?$_Func_class@EV?$task@PE$AAVDeviceInformationCollection@Enumeration@Devices@Windows@@@Concurrency@@@std@@QEBAEV?$task@PE$AAVDeviceInformationCollection@Enumeration@Devices@Windows@@@Concurrency@@@Z 0000000180033aa0 f i _nodert_generated.obj
 0001:00032b40       ??R?$_Func_class@EV?$task@PE$AAVDevicePairingResult@Enumeration@Devices@Windows@@@Concurrency@@@std@@QEBAEV?$task@PE$AAVDevicePairingResult@Enumeration@Devices@Windows@@@Concurrency@@@Z 0000000180033b40 f i _nodert_generated.obj
 0001:00032be0       ??R?$_Func_class@EV?$task@PE$AAVDeviceThumbnail@Enumeration@Devices@Windows@@@Concurrency@@@std@@QEBAEV?$task@PE$AAVDeviceThumbnail@Enumeration@Devices@Windows@@@Concurrency@@@Z 0000000180033be0 f i _nodert_generated.obj
 0001:00032c80       ??R?$_Func_class@EV?$task@PE$AAVDeviceUnpairingResult@Enumeration@Devices@Windows@@@Concurrency@@@std@@QEBAEV?$task@PE$AAVDeviceUnpairingResult@Enumeration@Devices@Windows@@@Concurrency@@@Z 0000000180033c80 f i _nodert_generated.obj
 0001:00032d20       ??R?$_Func_class@EV?$task@_N@Concurrency@@@std@@QEBAEV?$task@_N@Concurrency@@@Z 0000000180033d20 f i _nodert_generated.obj
 0001:00032dc0       ??R?$_Func_class@PE$AAVDeviceWatcherEvent@Enumeration@Devices@Windows@@V?$Local@VValue@v8@@@v8@@@std@@QEBAPE$AAVDeviceWatcherEvent@Enumeration@Devices@Windows@@V?$Local@VValue@v8@@@v8@@@Z 0000000180033dc0 f i _nodert_generated.obj
 0001:00032e10       ??R?$_Func_class@PE$AAVString@Platform@@V?$Local@VValue@v8@@@v8@@@std@@QEBAPE$AAVString@Platform@@V?$Local@VValue@v8@@@v8@@@Z 0000000180033e10 f i _nodert_generated.obj
 0001:00032e80       ??R?$_Func_class@V?$Local@VValue@v8@@@v8@@PE$AAU?$IKeyValuePair@PE$AAVString@Platform@@PE$AAVObject@2@@Collections@Foundation@Windows@@@std@@QEBA?AV?$Local@VValue@v8@@@v8@@PE$AAU?$IKeyValuePair@PE$AAVString@Platform@@PE$AAVObject@2@@Collections@Foundation@Windows@@@Z 0000000180033e80 f i _nodert_generated.obj
 0001:00032f20       ??R?$_Func_class@V?$Local@VValue@v8@@@v8@@PE$AAVDeviceInformation@Enumeration@Devices@Windows@@@std@@QEBA?AV?$Local@VValue@v8@@@v8@@PE$AAVDeviceInformation@Enumeration@Devices@Windows@@@Z 0000000180033f20 f i _nodert_generated.obj
 0001:00032fc0       ??R?$_Func_class@V?$Local@VValue@v8@@@v8@@PE$AAVDeviceWatcherEvent@Enumeration@Devices@Windows@@@std@@QEBA?AV?$Local@VValue@v8@@@v8@@PE$AAVDeviceWatcherEvent@Enumeration@Devices@Windows@@@Z 0000000180033fc0 f i _nodert_generated.obj
 0001:00033060       ??R?$_Func_class@V?$Local@VValue@v8@@@v8@@PE$AAVObject@Platform@@@std@@QEBA?AV?$Local@VValue@v8@@@v8@@PE$AAVObject@Platform@@@Z 0000000180034060 f i _nodert_generated.obj
 0001:00033100       ??R?$_Func_class@V?$Local@VValue@v8@@@v8@@PE$AAVString@Platform@@@std@@QEBA?AV?$Local@VValue@v8@@@v8@@PE$AAVString@Platform@@@Z 0000000180034100 f i _nodert_generated.obj
 0001:000331b0       ??R?$_Func_class@XV?$function@$$A6AXHPEAV?$Local@VValue@v8@@@v8@@@Z@std@@@std@@QEBAXV?$function@$$A6AXHPEAV?$Local@VValue@v8@@@v8@@@Z@1@@Z 00000001800341b0 f i _nodert_generated.obj
 0001:00033240       ??R?$_Func_class@XV?$task@I@Concurrency@@@std@@QEBAXV?$task@I@Concurrency@@@Z 0000000180034240 f i _nodert_generated.obj
 0001:000332d0       ??R?$_Func_class@XV?$task@PE$AAUIBuffer@Streams@Storage@Windows@@@Concurrency@@@std@@QEBAXV?$task@PE$AAUIBuffer@Streams@Storage@Windows@@@Concurrency@@@Z 00000001800342d0 f i _nodert_generated.obj
 0001:00033360       ??R?$_Func_class@XV?$task@PE$AAVDeviceInformation@Enumeration@Devices@Windows@@@Concurrency@@@std@@QEBAXV?$task@PE$AAVDeviceInformation@Enumeration@Devices@Windows@@@Concurrency@@@Z 0000000180034360 f i _nodert_generated.obj
 0001:000333f0       ??R?$_Func_class@XV?$task@PE$AAVDeviceInformationCollection@Enumeration@Devices@Windows@@@Concurrency@@@std@@QEBAXV?$task@PE$AAVDeviceInformationCollection@Enumeration@Devices@Windows@@@Concurrency@@@Z 00000001800343f0 f i _nodert_generated.obj
 0001:00033480       ??R?$_Func_class@XV?$task@PE$AAVDevicePairingResult@Enumeration@Devices@Windows@@@Concurrency@@@std@@QEBAXV?$task@PE$AAVDevicePairingResult@Enumeration@Devices@Windows@@@Concurrency@@@Z 0000000180034480 f i _nodert_generated.obj
 0001:00033510       ??R?$_Func_class@XV?$task@PE$AAVDeviceThumbnail@Enumeration@Devices@Windows@@@Concurrency@@@std@@QEBAXV?$task@PE$AAVDeviceThumbnail@Enumeration@Devices@Windows@@@Concurrency@@@Z 0000000180034510 f i _nodert_generated.obj
 0001:000335a0       ??R?$_Func_class@XV?$task@PE$AAVDeviceUnpairingResult@Enumeration@Devices@Windows@@@Concurrency@@@std@@QEBAXV?$task@PE$AAVDeviceUnpairingResult@Enumeration@Devices@Windows@@@Concurrency@@@Z 00000001800345a0 f i _nodert_generated.obj
 0001:00033630       ??R?$_Func_class@XV?$task@_N@Concurrency@@@std@@QEBAXV?$task@_N@Concurrency@@@Z 0000000180034630 f i _nodert_generated.obj
 0001:000336c0       ??_G?$IteratorWrapper@PE$AAU?$IKeyValuePair@PE$AAVString@Platform@@PE$AAVObject@2@@Collections@Foundation@Windows@@@Collections@NodeRT@@UEAAPEAXI@Z 00000001800346c0 f i _nodert_generated.obj
 0001:000336c0       ??_E?$IteratorWrapper@PE$AAU?$IKeyValuePair@PE$AAVString@Platform@@PE$AAVObject@2@@Collections@Foundation@Windows@@@Collections@NodeRT@@UEAAPEAXI@Z 00000001800346c0 f i _nodert_generated.obj
 0001:00033760       ??_E?$IteratorWrapper@PE$AAVDeviceInformation@Enumeration@Devices@Windows@@@Collections@NodeRT@@UEAAPEAXI@Z 0000000180034760 f i _nodert_generated.obj
 0001:00033760       ??_G?$IteratorWrapper@PE$AAVDeviceInformation@Enumeration@Devices@Windows@@@Collections@NodeRT@@UEAAPEAXI@Z 0000000180034760 f i _nodert_generated.obj
 0001:00033800       ??_G?$IteratorWrapper@PE$AAVDeviceWatcherEvent@Enumeration@Devices@Windows@@@Collections@NodeRT@@UEAAPEAXI@Z 0000000180034800 f i _nodert_generated.obj
 0001:00033800       ??_E?$IteratorWrapper@PE$AAVDeviceWatcherEvent@Enumeration@Devices@Windows@@@Collections@NodeRT@@UEAAPEAXI@Z 0000000180034800 f i _nodert_generated.obj
 0001:000338a0       ??_E?$IteratorWrapper@PE$AAVString@Platform@@@Collections@NodeRT@@UEAAPEAXI@Z 00000001800348a0 f i _nodert_generated.obj
 0001:000338a0       ??_G?$IteratorWrapper@PE$AAVString@Platform@@@Collections@NodeRT@@UEAAPEAXI@Z 00000001800348a0 f i _nodert_generated.obj
 0001:00033940       ??_E?$IteratorWrapper@W4DeviceClass@Enumeration@Devices@Windows@@@Collections@NodeRT@@UEAAPEAXI@Z 0000000180034940 f i _nodert_generated.obj
 0001:00033940       ??_G?$IteratorWrapper@W4DeviceClass@Enumeration@Devices@Windows@@@Collections@NodeRT@@UEAAPEAXI@Z 0000000180034940 f i _nodert_generated.obj
 0001:000339e0       ??_E?$KeyValuePairWrapper@PE$AAVString@Platform@@PE$AAVObject@2@@Collections@NodeRT@@UEAAPEAXI@Z 00000001800349e0 f i _nodert_generated.obj
 0001:000339e0       ??_G?$KeyValuePairWrapper@PE$AAVString@Platform@@PE$AAVObject@2@@Collections@NodeRT@@UEAAPEAXI@Z 00000001800349e0 f i _nodert_generated.obj
 0001:00033a30       ??_E?$MapViewWrapper@PE$AAVString@Platform@@PE$AAVObject@2@@Collections@NodeRT@@UEAAPEAXI@Z 0000000180034a30 f i _nodert_generated.obj
 0001:00033a30       ??_G?$MapViewWrapper@PE$AAVString@Platform@@PE$AAVObject@2@@Collections@NodeRT@@UEAAPEAXI@Z 0000000180034a30 f i _nodert_generated.obj
 0001:00033a80       ??_G?$VectorViewWrapper@PE$AAVDeviceWatcherEvent@Enumeration@Devices@Windows@@@Collections@NodeRT@@UEAAPEAXI@Z 0000000180034a80 f i _nodert_generated.obj
 0001:00033a80       ??_E?$VectorViewWrapper@PE$AAVDeviceWatcherEvent@Enumeration@Devices@Windows@@@Collections@NodeRT@@UEAAPEAXI@Z 0000000180034a80 f i _nodert_generated.obj
 0001:00033ad0       ??_E?$VectorViewWrapper@PE$AAVString@Platform@@@Collections@NodeRT@@UEAAPEAXI@Z 0000000180034ad0 f i _nodert_generated.obj
 0001:00033ad0       ??_G?$VectorViewWrapper@PE$AAVString@Platform@@@Collections@NodeRT@@UEAAPEAXI@Z 0000000180034ad0 f i _nodert_generated.obj
 0001:00033b20       ??_E?$VectorViewWrapper@W4DeviceClass@Enumeration@Devices@Windows@@@Collections@NodeRT@@UEAAPEAXI@Z 0000000180034b20 f i _nodert_generated.obj
 0001:00033b20       ??_G?$VectorViewWrapper@W4DeviceClass@Enumeration@Devices@Windows@@@Collections@NodeRT@@UEAAPEAXI@Z 0000000180034b20 f i _nodert_generated.obj
 0001:00033b70       ??_G?$VectorWrapper@PE$AAVString@Platform@@@Collections@NodeRT@@UEAAPEAXI@Z 0000000180034b70 f i _nodert_generated.obj
 0001:00033b70       ??_E?$VectorWrapper@PE$AAVString@Platform@@@Collections@NodeRT@@UEAAPEAXI@Z 0000000180034b70 f i _nodert_generated.obj
 0001:00033bc0       ??_E?$VectorWrapper@W4DeviceClass@Enumeration@Devices@Windows@@@Collections@NodeRT@@UEAAPEAXI@Z 0000000180034bc0 f i _nodert_generated.obj
 0001:00033bc0       ??_G?$VectorWrapper@W4DeviceClass@Enumeration@Devices@Windows@@@Collections@NodeRT@@UEAAPEAXI@Z 0000000180034bc0 f i _nodert_generated.obj
 0001:00033c10       ??_E?$_CancellationTokenCallback@V<lambda_be3e5d9dce35d2c8dbfa8485373731d5>@@@details@Concurrency@@UEAAPEAXI@Z 0000000180034c10 f i _nodert_generated.obj
 0001:00033c10       ??_G?$_CancellationTokenCallback@V<lambda_be3e5d9dce35d2c8dbfa8485373731d5>@@@details@Concurrency@@UEAAPEAXI@Z 0000000180034c10 f i _nodert_generated.obj
 0001:00033cc0       ??_E?$_ContinuationTaskHandle@IXV?$function@$$A6AXV?$task@I@Concurrency@@@Z@std@@U?$integral_constant@_N$00@2@U_TypeSelectorNoAsync@details@Concurrency@@@?$task@I@Concurrency@@UEAAPEAXI@Z 0000000180034cc0 f i _nodert_generated.obj
 0001:00033cc0       ??_G?$_ContinuationTaskHandle@IXV?$function@$$A6AXV?$task@I@Concurrency@@@Z@std@@U?$integral_constant@_N$00@2@U_TypeSelectorNoAsync@details@Concurrency@@@?$task@I@Concurrency@@UEAAPEAXI@Z 0000000180034cc0 f i _nodert_generated.obj
 0001:00033d10       ??_E?$_ContinuationTaskHandle@PE$AAUIBuffer@Streams@Storage@Windows@@XV?$function@$$A6AXV?$task@PE$AAUIBuffer@Streams@Storage@Windows@@@Concurrency@@@Z@std@@U?$integral_constant@_N$00@6@U_TypeSelectorNoAsync@details@Concurrency@@@?$task@PE$AAUIBuffer@Streams@Storage@Windows@@@Concurrency@@UEAAPEAXI@Z 0000000180034d10 f i _nodert_generated.obj
 0001:00033d10       ??_G?$_ContinuationTaskHandle@PE$AAUIBuffer@Streams@Storage@Windows@@XV?$function@$$A6AXV?$task@PE$AAUIBuffer@Streams@Storage@Windows@@@Concurrency@@@Z@std@@U?$integral_constant@_N$00@6@U_TypeSelectorNoAsync@details@Concurrency@@@?$task@PE$AAUIBuffer@Streams@Storage@Windows@@@Concurrency@@UEAAPEAXI@Z 0000000180034d10 f i _nodert_generated.obj
 0001:00033d60       ??_E?$_ContinuationTaskHandle@PE$AAVDeviceInformation@Enumeration@Devices@Windows@@XV?$function@$$A6AXV?$task@PE$AAVDeviceInformation@Enumeration@Devices@Windows@@@Concurrency@@@Z@std@@U?$integral_constant@_N$00@6@U_TypeSelectorNoAsync@details@Concurrency@@@?$task@PE$AAVDeviceInformation@Enumeration@Devices@Windows@@@Concurrency@@UEAAPEAXI@Z 0000000180034d60 f i _nodert_generated.obj
 0001:00033d60       ??_G?$_ContinuationTaskHandle@PE$AAVDeviceInformation@Enumeration@Devices@Windows@@XV?$function@$$A6AXV?$task@PE$AAVDeviceInformation@Enumeration@Devices@Windows@@@Concurrency@@@Z@std@@U?$integral_constant@_N$00@6@U_TypeSelectorNoAsync@details@Concurrency@@@?$task@PE$AAVDeviceInformation@Enumeration@Devices@Windows@@@Concurrency@@UEAAPEAXI@Z 0000000180034d60 f i _nodert_generated.obj
 0001:00033db0       ??_G?$_ContinuationTaskHandle@PE$AAVDeviceInformationCollection@Enumeration@Devices@Windows@@XV?$function@$$A6AXV?$task@PE$AAVDeviceInformationCollection@Enumeration@Devices@Windows@@@Concurrency@@@Z@std@@U?$integral_constant@_N$00@6@U_TypeSelectorNoAsync@details@Concurrency@@@?$task@PE$AAVDeviceInformationCollection@Enumeration@Devices@Windows@@@Concurrency@@UEAAPEAXI@Z 0000000180034db0 f i _nodert_generated.obj
 0001:00033db0       ??_E?$_ContinuationTaskHandle@PE$AAVDeviceInformationCollection@Enumeration@Devices@Windows@@XV?$function@$$A6AXV?$task@PE$AAVDeviceInformationCollection@Enumeration@Devices@Windows@@@Concurrency@@@Z@std@@U?$integral_constant@_N$00@6@U_TypeSelectorNoAsync@details@Concurrency@@@?$task@PE$AAVDeviceInformationCollection@Enumeration@Devices@Windows@@@Concurrency@@UEAAPEAXI@Z 0000000180034db0 f i _nodert_generated.obj
 0001:00033e00       ??_G?$_ContinuationTaskHandle@PE$AAVDevicePairingResult@Enumeration@Devices@Windows@@XV?$function@$$A6AXV?$task@PE$AAVDevicePairingResult@Enumeration@Devices@Windows@@@Concurrency@@@Z@std@@U?$integral_constant@_N$00@6@U_TypeSelectorNoAsync@details@Concurrency@@@?$task@PE$AAVDevicePairingResult@Enumeration@Devices@Windows@@@Concurrency@@UEAAPEAXI@Z 0000000180034e00 f i _nodert_generated.obj
 0001:00033e00       ??_E?$_ContinuationTaskHandle@PE$AAVDevicePairingResult@Enumeration@Devices@Windows@@XV?$function@$$A6AXV?$task@PE$AAVDevicePairingResult@Enumeration@Devices@Windows@@@Concurrency@@@Z@std@@U?$integral_constant@_N$00@6@U_TypeSelectorNoAsync@details@Concurrency@@@?$task@PE$AAVDevicePairingResult@Enumeration@Devices@Windows@@@Concurrency@@UEAAPEAXI@Z 0000000180034e00 f i _nodert_generated.obj
 0001:00033e50       ??_E?$_ContinuationTaskHandle@PE$AAVDeviceThumbnail@Enumeration@Devices@Windows@@XV?$function@$$A6AXV?$task@PE$AAVDeviceThumbnail@Enumeration@Devices@Windows@@@Concurrency@@@Z@std@@U?$integral_constant@_N$00@6@U_TypeSelectorNoAsync@details@Concurrency@@@?$task@PE$AAVDeviceThumbnail@Enumeration@Devices@Windows@@@Concurrency@@UEAAPEAXI@Z 0000000180034e50 f i _nodert_generated.obj
 0001:00033e50       ??_G?$_ContinuationTaskHandle@PE$AAVDeviceThumbnail@Enumeration@Devices@Windows@@XV?$function@$$A6AXV?$task@PE$AAVDeviceThumbnail@Enumeration@Devices@Windows@@@Concurrency@@@Z@std@@U?$integral_constant@_N$00@6@U_TypeSelectorNoAsync@details@Concurrency@@@?$task@PE$AAVDeviceThumbnail@Enumeration@Devices@Windows@@@Concurrency@@UEAAPEAXI@Z 0000000180034e50 f i _nodert_generated.obj
 0001:00033ea0       ??_E?$_ContinuationTaskHandle@PE$AAVDeviceUnpairingResult@Enumeration@Devices@Windows@@XV?$function@$$A6AXV?$task@PE$AAVDeviceUnpairingResult@Enumeration@Devices@Windows@@@Concurrency@@@Z@std@@U?$integral_constant@_N$00@6@U_TypeSelectorNoAsync@details@Concurrency@@@?$task@PE$AAVDeviceUnpairingResult@Enumeration@Devices@Windows@@@Concurrency@@UEAAPEAXI@Z 0000000180034ea0 f i _nodert_generated.obj
 0001:00033ea0       ??_G?$_ContinuationTaskHandle@PE$AAVDeviceUnpairingResult@Enumeration@Devices@Windows@@XV?$function@$$A6AXV?$task@PE$AAVDeviceUnpairingResult@Enumeration@Devices@Windows@@@Concurrency@@@Z@std@@U?$integral_constant@_N$00@6@U_TypeSelectorNoAsync@details@Concurrency@@@?$task@PE$AAVDeviceUnpairingResult@Enumeration@Devices@Windows@@@Concurrency@@UEAAPEAXI@Z 0000000180034ea0 f i _nodert_generated.obj
 0001:00033ef0       ??_E?$_ContinuationTaskHandle@_NXV?$function@$$A6AXV?$task@_N@Concurrency@@@Z@std@@U?$integral_constant@_N$00@2@U_TypeSelectorNoAsync@details@Concurrency@@@?$task@_N@Concurrency@@UEAAPEAXI@Z 0000000180034ef0 f i _nodert_generated.obj
 0001:00033ef0       ??_G?$_ContinuationTaskHandle@_NXV?$function@$$A6AXV?$task@_N@Concurrency@@@Z@std@@U?$integral_constant@_N$00@2@U_TypeSelectorNoAsync@details@Concurrency@@@?$task@_N@Concurrency@@UEAAPEAXI@Z 0000000180034ef0 f i _nodert_generated.obj
 0001:00033f40       ??_G?$_PPLTaskHandle@EU?$_ContinuationTaskHandle@IXV?$function@$$A6AXV?$task@I@Concurrency@@@Z@std@@U?$integral_constant@_N$00@2@U_TypeSelectorNoAsync@details@Concurrency@@@?$task@I@Concurrency@@U_ContinuationTaskHandleBase@details@3@@details@Concurrency@@UEAAPEAXI@Z 0000000180034f40 f i _nodert_generated.obj
 0001:00033f40       ??_E?$_PPLTaskHandle@EU?$_ContinuationTaskHandle@IXV?$function@$$A6AXV?$task@I@Concurrency@@@Z@std@@U?$integral_constant@_N$00@2@U_TypeSelectorNoAsync@details@Concurrency@@@?$task@I@Concurrency@@U_ContinuationTaskHandleBase@details@3@@details@Concurrency@@UEAAPEAXI@Z 0000000180034f40 f i _nodert_generated.obj
 0001:00033f90       ??_E?$_PPLTaskHandle@EU?$_ContinuationTaskHandle@PE$AAUIBuffer@Streams@Storage@Windows@@XV?$function@$$A6AXV?$task@PE$AAUIBuffer@Streams@Storage@Windows@@@Concurrency@@@Z@std@@U?$integral_constant@_N$00@6@U_TypeSelectorNoAsync@details@Concurrency@@@?$task@PE$AAUIBuffer@Streams@Storage@Windows@@@Concurrency@@U_ContinuationTaskHandleBase@details@3@@details@Concurrency@@UEAAPEAXI@Z 0000000180034f90 f i _nodert_generated.obj
 0001:00033f90       ??_G?$_PPLTaskHandle@EU?$_ContinuationTaskHandle@PE$AAUIBuffer@Streams@Storage@Windows@@XV?$function@$$A6AXV?$task@PE$AAUIBuffer@Streams@Storage@Windows@@@Concurrency@@@Z@std@@U?$integral_constant@_N$00@6@U_TypeSelectorNoAsync@details@Concurrency@@@?$task@PE$AAUIBuffer@Streams@Storage@Windows@@@Concurrency@@U_ContinuationTaskHandleBase@details@3@@details@Concurrency@@UEAAPEAXI@Z 0000000180034f90 f i _nodert_generated.obj
 0001:00033fe0       ??_G?$_PPLTaskHandle@EU?$_ContinuationTaskHandle@PE$AAVDeviceInformation@Enumeration@Devices@Windows@@XV?$function@$$A6AXV?$task@PE$AAVDeviceInformation@Enumeration@Devices@Windows@@@Concurrency@@@Z@std@@U?$integral_constant@_N$00@6@U_TypeSelectorNoAsync@details@Concurrency@@@?$task@PE$AAVDeviceInformation@Enumeration@Devices@Windows@@@Concurrency@@U_ContinuationTaskHandleBase@details@3@@details@Concurrency@@UEAAPEAXI@Z 0000000180034fe0 f i _nodert_generated.obj
 0001:00033fe0       ??_E?$_PPLTaskHandle@EU?$_ContinuationTaskHandle@PE$AAVDeviceInformation@Enumeration@Devices@Windows@@XV?$function@$$A6AXV?$task@PE$AAVDeviceInformation@Enumeration@Devices@Windows@@@Concurrency@@@Z@std@@U?$integral_constant@_N$00@6@U_TypeSelectorNoAsync@details@Concurrency@@@?$task@PE$AAVDeviceInformation@Enumeration@Devices@Windows@@@Concurrency@@U_ContinuationTaskHandleBase@details@3@@details@Concurrency@@UEAAPEAXI@Z 0000000180034fe0 f i _nodert_generated.obj
 0001:00034030       ??_G?$_PPLTaskHandle@EU?$_ContinuationTaskHandle@PE$AAVDeviceInformationCollection@Enumeration@Devices@Windows@@XV?$function@$$A6AXV?$task@PE$AAVDeviceInformationCollection@Enumeration@Devices@Windows@@@Concurrency@@@Z@std@@U?$integral_constant@_N$00@6@U_TypeSelectorNoAsync@details@Concurrency@@@?$task@PE$AAVDeviceInformationCollection@Enumeration@Devices@Windows@@@Concurrency@@U_ContinuationTaskHandleBase@details@3@@details@Concurrency@@UEAAPEAXI@Z 0000000180035030 f i _nodert_generated.obj
 0001:00034030       ??_E?$_PPLTaskHandle@EU?$_ContinuationTaskHandle@PE$AAVDeviceInformationCollection@Enumeration@Devices@Windows@@XV?$function@$$A6AXV?$task@PE$AAVDeviceInformationCollection@Enumeration@Devices@Windows@@@Concurrency@@@Z@std@@U?$integral_constant@_N$00@6@U_TypeSelectorNoAsync@details@Concurrency@@@?$task@PE$AAVDeviceInformationCollection@Enumeration@Devices@Windows@@@Concurrency@@U_ContinuationTaskHandleBase@details@3@@details@Concurrency@@UEAAPEAXI@Z 0000000180035030 f i _nodert_generated.obj
 0001:00034080       ??_E?$_PPLTaskHandle@EU?$_ContinuationTaskHandle@PE$AAVDevicePairingResult@Enumeration@Devices@Windows@@XV?$function@$$A6AXV?$task@PE$AAVDevicePairingResult@Enumeration@Devices@Windows@@@Concurrency@@@Z@std@@U?$integral_constant@_N$00@6@U_TypeSelectorNoAsync@details@Concurrency@@@?$task@PE$AAVDevicePairingResult@Enumeration@Devices@Windows@@@Concurrency@@U_ContinuationTaskHandleBase@details@3@@details@Concurrency@@UEAAPEAXI@Z 0000000180035080 f i _nodert_generated.obj
 0001:00034080       ??_G?$_PPLTaskHandle@EU?$_ContinuationTaskHandle@PE$AAVDevicePairingResult@Enumeration@Devices@Windows@@XV?$function@$$A6AXV?$task@PE$AAVDevicePairingResult@Enumeration@Devices@Windows@@@Concurrency@@@Z@std@@U?$integral_constant@_N$00@6@U_TypeSelectorNoAsync@details@Concurrency@@@?$task@PE$AAVDevicePairingResult@Enumeration@Devices@Windows@@@Concurrency@@U_ContinuationTaskHandleBase@details@3@@details@Concurrency@@UEAAPEAXI@Z 0000000180035080 f i _nodert_generated.obj
 0001:000340d0       ??_G?$_PPLTaskHandle@EU?$_ContinuationTaskHandle@PE$AAVDeviceThumbnail@Enumeration@Devices@Windows@@XV?$function@$$A6AXV?$task@PE$AAVDeviceThumbnail@Enumeration@Devices@Windows@@@Concurrency@@@Z@std@@U?$integral_constant@_N$00@6@U_TypeSelectorNoAsync@details@Concurrency@@@?$task@PE$AAVDeviceThumbnail@Enumeration@Devices@Windows@@@Concurrency@@U_ContinuationTaskHandleBase@details@3@@details@Concurrency@@UEAAPEAXI@Z 00000001800350d0 f i _nodert_generated.obj
 0001:000340d0       ??_E?$_PPLTaskHandle@EU?$_ContinuationTaskHandle@PE$AAVDeviceThumbnail@Enumeration@Devices@Windows@@XV?$function@$$A6AXV?$task@PE$AAVDeviceThumbnail@Enumeration@Devices@Windows@@@Concurrency@@@Z@std@@U?$integral_constant@_N$00@6@U_TypeSelectorNoAsync@details@Concurrency@@@?$task@PE$AAVDeviceThumbnail@Enumeration@Devices@Windows@@@Concurrency@@U_ContinuationTaskHandleBase@details@3@@details@Concurrency@@UEAAPEAXI@Z 00000001800350d0 f i _nodert_generated.obj
 0001:00034120       ??_E?$_PPLTaskHandle@EU?$_ContinuationTaskHandle@PE$AAVDeviceUnpairingResult@Enumeration@Devices@Windows@@XV?$function@$$A6AXV?$task@PE$AAVDeviceUnpairingResult@Enumeration@Devices@Windows@@@Concurrency@@@Z@std@@U?$integral_constant@_N$00@6@U_TypeSelectorNoAsync@details@Concurrency@@@?$task@PE$AAVDeviceUnpairingResult@Enumeration@Devices@Windows@@@Concurrency@@U_ContinuationTaskHandleBase@details@3@@details@Concurrency@@UEAAPEAXI@Z 0000000180035120 f i _nodert_generated.obj
 0001:00034120       ??_G?$_PPLTaskHandle@EU?$_ContinuationTaskHandle@PE$AAVDeviceUnpairingResult@Enumeration@Devices@Windows@@XV?$function@$$A6AXV?$task@PE$AAVDeviceUnpairingResult@Enumeration@Devices@Windows@@@Concurrency@@@Z@std@@U?$integral_constant@_N$00@6@U_TypeSelectorNoAsync@details@Concurrency@@@?$task@PE$AAVDeviceUnpairingResult@Enumeration@Devices@Windows@@@Concurrency@@U_ContinuationTaskHandleBase@details@3@@details@Concurrency@@UEAAPEAXI@Z 0000000180035120 f i _nodert_generated.obj
 0001:00034170       ??_E?$_PPLTaskHandle@EU?$_ContinuationTaskHandle@_NXV?$function@$$A6AXV?$task@_N@Concurrency@@@Z@std@@U?$integral_constant@_N$00@2@U_TypeSelectorNoAsync@details@Concurrency@@@?$task@_N@Concurrency@@U_ContinuationTaskHandleBase@details@3@@details@Concurrency@@UEAAPEAXI@Z 0000000180035170 f i _nodert_generated.obj
 0001:00034170       ??_G?$_PPLTaskHandle@EU?$_ContinuationTaskHandle@_NXV?$function@$$A6AXV?$task@_N@Concurrency@@@Z@std@@U?$integral_constant@_N$00@2@U_TypeSelectorNoAsync@details@Concurrency@@@?$task@_N@Concurrency@@U_ContinuationTaskHandleBase@details@3@@details@Concurrency@@UEAAPEAXI@Z 0000000180035170 f i _nodert_generated.obj
 0001:000341c0       ??_G?$_Ref_count_del@V?$Persistent@VObject@v8@@V?$NonCopyablePersistentTraits@VObject@v8@@@2@@Nan@@V<lambda_18a7ef68a7fc27270dd9db6361522c43>@@@std@@UEAAPEAXI@Z 00000001800351c0 f i _nodert_generated.obj
 0001:000341c0       ??_E?$_Ref_count_del@V?$Persistent@VObject@v8@@V?$NonCopyablePersistentTraits@VObject@v8@@@2@@Nan@@V<lambda_18a7ef68a7fc27270dd9db6361522c43>@@@std@@UEAAPEAXI@Z 00000001800351c0 f i _nodert_generated.obj
 0001:00034200       ??_G?$_Ref_count_del@V?$Persistent@VObject@v8@@V?$NonCopyablePersistentTraits@VObject@v8@@@2@@Nan@@V<lambda_489f10613ba28f5d3822122d3875cbdd>@@@std@@UEAAPEAXI@Z 0000000180035200 f i _nodert_generated.obj
 0001:00034200       ??_E?$_Ref_count_del@V?$Persistent@VObject@v8@@V?$NonCopyablePersistentTraits@VObject@v8@@@2@@Nan@@V<lambda_489f10613ba28f5d3822122d3875cbdd>@@@std@@UEAAPEAXI@Z 0000000180035200 f i _nodert_generated.obj
 0001:00034240       ??_G?$_Ref_count_del@V?$Persistent@VObject@v8@@V?$NonCopyablePersistentTraits@VObject@v8@@@2@@Nan@@V<lambda_50870d27297a67d2040df7ea63e22c2f>@@@std@@UEAAPEAXI@Z 0000000180035240 f i _nodert_generated.obj
 0001:00034240       ??_E?$_Ref_count_del@V?$Persistent@VObject@v8@@V?$NonCopyablePersistentTraits@VObject@v8@@@2@@Nan@@V<lambda_50870d27297a67d2040df7ea63e22c2f>@@@std@@UEAAPEAXI@Z 0000000180035240 f i _nodert_generated.obj
 0001:00034280       ??_E?$_Ref_count_del@V?$Persistent@VObject@v8@@V?$NonCopyablePersistentTraits@VObject@v8@@@2@@Nan@@V<lambda_58c0afa2d72683382214bb714b46c30e>@@@std@@UEAAPEAXI@Z 0000000180035280 f i _nodert_generated.obj
 0001:00034280       ??_G?$_Ref_count_del@V?$Persistent@VObject@v8@@V?$NonCopyablePersistentTraits@VObject@v8@@@2@@Nan@@V<lambda_58c0afa2d72683382214bb714b46c30e>@@@std@@UEAAPEAXI@Z 0000000180035280 f i _nodert_generated.obj
 0001:000342c0       ??_E?$_Ref_count_del@V?$Persistent@VObject@v8@@V?$NonCopyablePersistentTraits@VObject@v8@@@2@@Nan@@V<lambda_8fcea7dc39e7c4728a6e3a9370b66fd3>@@@std@@UEAAPEAXI@Z 00000001800352c0 f i _nodert_generated.obj
 0001:000342c0       ??_G?$_Ref_count_del@V?$Persistent@VObject@v8@@V?$NonCopyablePersistentTraits@VObject@v8@@@2@@Nan@@V<lambda_8fcea7dc39e7c4728a6e3a9370b66fd3>@@@std@@UEAAPEAXI@Z 00000001800352c0 f i _nodert_generated.obj
 0001:00034300       ??_G?$_Ref_count_del@V?$Persistent@VObject@v8@@V?$NonCopyablePersistentTraits@VObject@v8@@@2@@Nan@@V<lambda_9623744b63ea9b261950a1cf126ce800>@@@std@@UEAAPEAXI@Z 0000000180035300 f i _nodert_generated.obj
 0001:00034300       ??_E?$_Ref_count_del@V?$Persistent@VObject@v8@@V?$NonCopyablePersistentTraits@VObject@v8@@@2@@Nan@@V<lambda_9623744b63ea9b261950a1cf126ce800>@@@std@@UEAAPEAXI@Z 0000000180035300 f i _nodert_generated.obj
 0001:00034340       ??_G?$_Ref_count_del@V?$Persistent@VObject@v8@@V?$NonCopyablePersistentTraits@VObject@v8@@@2@@Nan@@V<lambda_c816b6a9bfd163bb2b9fb73212f95534>@@@std@@UEAAPEAXI@Z 0000000180035340 f i _nodert_generated.obj
 0001:00034340       ??_E?$_Ref_count_del@V?$Persistent@VObject@v8@@V?$NonCopyablePersistentTraits@VObject@v8@@@2@@Nan@@V<lambda_c816b6a9bfd163bb2b9fb73212f95534>@@@std@@UEAAPEAXI@Z 0000000180035340 f i _nodert_generated.obj
 0001:00034380       ??_G?$_Ref_count_del@V?$Persistent@VObject@v8@@V?$NonCopyablePersistentTraits@VObject@v8@@@2@@Nan@@V<lambda_d849e9626af8cc9e54bf6028b71df756>@@@std@@UEAAPEAXI@Z 0000000180035380 f i _nodert_generated.obj
 0001:00034380       ??_E?$_Ref_count_del@V?$Persistent@VObject@v8@@V?$NonCopyablePersistentTraits@VObject@v8@@@2@@Nan@@V<lambda_d849e9626af8cc9e54bf6028b71df756>@@@std@@UEAAPEAXI@Z 0000000180035380 f i _nodert_generated.obj
 0001:000343c0       ??_G?$_Ref_count_del@V?$Persistent@VObject@v8@@V?$NonCopyablePersistentTraits@VObject@v8@@@2@@Nan@@V<lambda_f6b5807503ec79e3463ff21dedaf47c5>@@@std@@UEAAPEAXI@Z 00000001800353c0 f i _nodert_generated.obj
 0001:000343c0       ??_E?$_Ref_count_del@V?$Persistent@VObject@v8@@V?$NonCopyablePersistentTraits@VObject@v8@@@2@@Nan@@V<lambda_f6b5807503ec79e3463ff21dedaf47c5>@@@std@@UEAAPEAXI@Z 00000001800353c0 f i _nodert_generated.obj
 0001:00034400       ??_G?$_Ref_count_del@V?$Persistent@VObject@v8@@V?$NonCopyablePersistentTraits@VObject@v8@@@2@@Nan@@V<lambda_fc54f20e3d35a13a69ff970029de927f>@@@std@@UEAAPEAXI@Z 0000000180035400 f i _nodert_generated.obj
 0001:00034400       ??_E?$_Ref_count_del@V?$Persistent@VObject@v8@@V?$NonCopyablePersistentTraits@VObject@v8@@@2@@Nan@@V<lambda_fc54f20e3d35a13a69ff970029de927f>@@@std@@UEAAPEAXI@Z 0000000180035400 f i _nodert_generated.obj
 0001:00034440       ??_G?$_Ref_count_obj@I@std@@UEAAPEAXI@Z 0000000180035440 f i _nodert_generated.obj
 0001:00034440       ??_E?$_Ref_count_obj@I@std@@UEAAPEAXI@Z 0000000180035440 f i _nodert_generated.obj
 0001:00034480       ??_E?$_Ref_count_obj@U?$_Task_impl@E@details@Concurrency@@@std@@UEAAPEAXI@Z 0000000180035480 f i _nodert_generated.obj
 0001:00034480       ??_G?$_Ref_count_obj@U?$_Task_impl@E@details@Concurrency@@@std@@UEAAPEAXI@Z 0000000180035480 f i _nodert_generated.obj
 0001:000344c0       ??_G?$_Ref_count_obj@U?$_Task_impl@I@details@Concurrency@@@std@@UEAAPEAXI@Z 00000001800354c0 f i _nodert_generated.obj
 0001:000344c0       ??_E?$_Ref_count_obj@U?$_Task_impl@I@details@Concurrency@@@std@@UEAAPEAXI@Z 00000001800354c0 f i _nodert_generated.obj
 0001:00034500       ??_G?$_Ref_count_obj@U?$_Task_impl@PE$AAUIBuffer@Streams@Storage@Windows@@@details@Concurrency@@@std@@UEAAPEAXI@Z 0000000180035500 f i _nodert_generated.obj
 0001:00034500       ??_E?$_Ref_count_obj@U?$_Task_impl@PE$AAUIBuffer@Streams@Storage@Windows@@@details@Concurrency@@@std@@UEAAPEAXI@Z 0000000180035500 f i _nodert_generated.obj
 0001:00034540       ??_E?$_Ref_count_obj@U?$_Task_impl@PE$AAVDeviceInformation@Enumeration@Devices@Windows@@@details@Concurrency@@@std@@UEAAPEAXI@Z 0000000180035540 f i _nodert_generated.obj
 0001:00034540       ??_G?$_Ref_count_obj@U?$_Task_impl@PE$AAVDeviceInformation@Enumeration@Devices@Windows@@@details@Concurrency@@@std@@UEAAPEAXI@Z 0000000180035540 f i _nodert_generated.obj
 0001:00034580       ??_G?$_Ref_count_obj@U?$_Task_impl@PE$AAVDeviceInformationCollection@Enumeration@Devices@Windows@@@details@Concurrency@@@std@@UEAAPEAXI@Z 0000000180035580 f i _nodert_generated.obj
 0001:00034580       ??_E?$_Ref_count_obj@U?$_Task_impl@PE$AAVDeviceInformationCollection@Enumeration@Devices@Windows@@@details@Concurrency@@@std@@UEAAPEAXI@Z 0000000180035580 f i _nodert_generated.obj
 0001:000345c0       ??_G?$_Ref_count_obj@U?$_Task_impl@PE$AAVDevicePairingResult@Enumeration@Devices@Windows@@@details@Concurrency@@@std@@UEAAPEAXI@Z 00000001800355c0 f i _nodert_generated.obj
 0001:000345c0       ??_E?$_Ref_count_obj@U?$_Task_impl@PE$AAVDevicePairingResult@Enumeration@Devices@Windows@@@details@Concurrency@@@std@@UEAAPEAXI@Z 00000001800355c0 f i _nodert_generated.obj
 0001:00034600       ??_E?$_Ref_count_obj@U?$_Task_impl@PE$AAVDeviceThumbnail@Enumeration@Devices@Windows@@@details@Concurrency@@@std@@UEAAPEAXI@Z 0000000180035600 f i _nodert_generated.obj
 0001:00034600       ??_G?$_Ref_count_obj@U?$_Task_impl@PE$AAVDeviceThumbnail@Enumeration@Devices@Windows@@@details@Concurrency@@@std@@UEAAPEAXI@Z 0000000180035600 f i _nodert_generated.obj
 0001:00034640       ??_G?$_Ref_count_obj@U?$_Task_impl@PE$AAVDeviceUnpairingResult@Enumeration@Devices@Windows@@@details@Concurrency@@@std@@UEAAPEAXI@Z 0000000180035640 f i _nodert_generated.obj
 0001:00034640       ??_E?$_Ref_count_obj@U?$_Task_impl@PE$AAVDeviceUnpairingResult@Enumeration@Devices@Windows@@@details@Concurrency@@@std@@UEAAPEAXI@Z 0000000180035640 f i _nodert_generated.obj
 0001:00034680       ??_G?$_Ref_count_obj@U?$_Task_impl@_N@details@Concurrency@@@std@@UEAAPEAXI@Z 0000000180035680 f i _nodert_generated.obj
 0001:00034680       ??_E?$_Ref_count_obj@U?$_Task_impl@_N@details@Concurrency@@@std@@UEAAPEAXI@Z 0000000180035680 f i _nodert_generated.obj
 0001:000346c0       ??_G?$_Ref_count_obj@U_ExceptionHolder@details@Concurrency@@@std@@UEAAPEAXI@Z 00000001800356c0 f i _nodert_generated.obj
 0001:000346c0       ??_E?$_Ref_count_obj@U_ExceptionHolder@details@Concurrency@@@std@@UEAAPEAXI@Z 00000001800356c0 f i _nodert_generated.obj
 0001:00034700       ??_G?$_Ref_count_obj@V?$vector@PE$AAVString@Platform@@V?$allocator@PE$AAVString@Platform@@@std@@@std@@@std@@UEAAPEAXI@Z 0000000180035700 f i _nodert_generated.obj
 0001:00034700       ??_E?$_Ref_count_obj@V?$vector@PE$AAVString@Platform@@V?$allocator@PE$AAVString@Platform@@@std@@@std@@@std@@UEAAPEAXI@Z 0000000180035700 f i _nodert_generated.obj
 0001:00034740       ??_G?$_Ref_count_obj@V?$vector@W4DeviceWatcherEventKind@Enumeration@Devices@Windows@@V?$allocator@W4DeviceWatcherEventKind@Enumeration@Devices@Windows@@@std@@@std@@@std@@UEAAPEAXI@Z 0000000180035740 f i _nodert_generated.obj
 0001:00034740       ??_E?$_Ref_count_obj@V?$vector@W4DeviceWatcherEventKind@Enumeration@Devices@Windows@@V?$allocator@W4DeviceWatcherEventKind@Enumeration@Devices@Windows@@@std@@@std@@@std@@UEAAPEAXI@Z 0000000180035740 f i _nodert_generated.obj
 0001:00034780       ??_G?$_Task_impl@E@details@Concurrency@@UEAAPEAXI@Z 0000000180035780 f i _nodert_generated.obj
 0001:00034780       ??_E?$_Task_impl@E@details@Concurrency@@UEAAPEAXI@Z 0000000180035780 f i _nodert_generated.obj
 0001:000347d0       ??_G?$_Task_impl@I@details@Concurrency@@UEAAPEAXI@Z 00000001800357d0 f i _nodert_generated.obj
 0001:000347d0       ??_E?$_Task_impl@I@details@Concurrency@@UEAAPEAXI@Z 00000001800357d0 f i _nodert_generated.obj
 0001:00034820       ??_E?$_Task_impl@PE$AAUIBuffer@Streams@Storage@Windows@@@details@Concurrency@@UEAAPEAXI@Z 0000000180035820 f i _nodert_generated.obj
 0001:00034820       ??_G?$_Task_impl@PE$AAUIBuffer@Streams@Storage@Windows@@@details@Concurrency@@UEAAPEAXI@Z 0000000180035820 f i _nodert_generated.obj
 0001:00034870       ??_G?$_Task_impl@PE$AAVDeviceInformation@Enumeration@Devices@Windows@@@details@Concurrency@@UEAAPEAXI@Z 0000000180035870 f i _nodert_generated.obj
 0001:00034870       ??_E?$_Task_impl@PE$AAVDeviceInformation@Enumeration@Devices@Windows@@@details@Concurrency@@UEAAPEAXI@Z 0000000180035870 f i _nodert_generated.obj
 0001:000348c0       ??_G?$_Task_impl@PE$AAVDeviceInformationCollection@Enumeration@Devices@Windows@@@details@Concurrency@@UEAAPEAXI@Z 00000001800358c0 f i _nodert_generated.obj
 0001:000348c0       ??_E?$_Task_impl@PE$AAVDeviceInformationCollection@Enumeration@Devices@Windows@@@details@Concurrency@@UEAAPEAXI@Z 00000001800358c0 f i _nodert_generated.obj
 0001:00034910       ??_E?$_Task_impl@PE$AAVDevicePairingResult@Enumeration@Devices@Windows@@@details@Concurrency@@UEAAPEAXI@Z 0000000180035910 f i _nodert_generated.obj
 0001:00034910       ??_G?$_Task_impl@PE$AAVDevicePairingResult@Enumeration@Devices@Windows@@@details@Concurrency@@UEAAPEAXI@Z 0000000180035910 f i _nodert_generated.obj
 0001:00034960       ??_G?$_Task_impl@PE$AAVDeviceThumbnail@Enumeration@Devices@Windows@@@details@Concurrency@@UEAAPEAXI@Z 0000000180035960 f i _nodert_generated.obj
 0001:00034960       ??_E?$_Task_impl@PE$AAVDeviceThumbnail@Enumeration@Devices@Windows@@@details@Concurrency@@UEAAPEAXI@Z 0000000180035960 f i _nodert_generated.obj
 0001:000349b0       ??_G?$_Task_impl@PE$AAVDeviceUnpairingResult@Enumeration@Devices@Windows@@@details@Concurrency@@UEAAPEAXI@Z 00000001800359b0 f i _nodert_generated.obj
 0001:000349b0       ??_E?$_Task_impl@PE$AAVDeviceUnpairingResult@Enumeration@Devices@Windows@@@details@Concurrency@@UEAAPEAXI@Z 00000001800359b0 f i _nodert_generated.obj
 0001:00034a00       ??_G?$_Task_impl@_N@details@Concurrency@@UEAAPEAXI@Z 0000000180035a00 f i _nodert_generated.obj
 0001:00034a00       ??_E?$_Task_impl@_N@details@Concurrency@@UEAAPEAXI@Z 0000000180035a00 f i _nodert_generated.obj
 0001:00034a50       ??_G?$__abi_FunctorCapture@V<lambda_11ae5e2332e27c7defe3fc71b95bc051>@@XPE$AAVDeviceWatcher@Enumeration@Devices@Windows@@PE$AAVDeviceInformationUpdate@345@@Details@Platform@@UEAAPEAXI@Z 0000000180035a50 f i _nodert_generated.obj
 0001:00034a50       ??_E?$__abi_FunctorCapture@V<lambda_11ae5e2332e27c7defe3fc71b95bc051>@@XPE$AAVDeviceWatcher@Enumeration@Devices@Windows@@PE$AAVDeviceInformationUpdate@345@@Details@Platform@@UEAAPEAXI@Z 0000000180035a50 f i _nodert_generated.obj
 0001:00034aa0       ??_E?$__abi_FunctorCapture@V<lambda_1c2c1434820349da43b21d405bb32470>@@XPE$AAVDeviceWatcher@Enumeration@Devices@Windows@@PE$AAVObject@Platform@@@Details@Platform@@UEAAPEAXI@Z 0000000180035aa0 f i _nodert_generated.obj
 0001:00034aa0       ??_G?$__abi_FunctorCapture@V<lambda_1c2c1434820349da43b21d405bb32470>@@XPE$AAVDeviceWatcher@Enumeration@Devices@Windows@@PE$AAVObject@Platform@@@Details@Platform@@UEAAPEAXI@Z 0000000180035aa0 f i _nodert_generated.obj
 0001:00034af0       ??_E?$__abi_FunctorCapture@V<lambda_1c6c1b322bf2733cdee76baa2bd484e8>@@XPE$AAU?$IAsyncOperation@I@Foundation@Windows@@W4AsyncStatus@34@@Details@Platform@@UEAAPEAXI@Z 0000000180035af0 f i _nodert_generated.obj
 0001:00034af0       ??_G?$__abi_FunctorCapture@V<lambda_1c6c1b322bf2733cdee76baa2bd484e8>@@XPE$AAU?$IAsyncOperation@I@Foundation@Windows@@W4AsyncStatus@34@@Details@Platform@@UEAAPEAXI@Z 0000000180035af0 f i _nodert_generated.obj
 0001:00034b40       ??_G?$__abi_FunctorCapture@V<lambda_338a6eb91f8f0018d922c59d8cb00a90>@@XPE$AAVDevicePicker@Enumeration@Devices@Windows@@PE$AAVDeviceSelectedEventArgs@345@@Details@Platform@@UEAAPEAXI@Z 0000000180035b40 f i _nodert_generated.obj
 0001:00034b40       ??_E?$__abi_FunctorCapture@V<lambda_338a6eb91f8f0018d922c59d8cb00a90>@@XPE$AAVDevicePicker@Enumeration@Devices@Windows@@PE$AAVDeviceSelectedEventArgs@345@@Details@Platform@@UEAAPEAXI@Z 0000000180035b40 f i _nodert_generated.obj
 0001:00034b90       ??_E?$__abi_FunctorCapture@V<lambda_362dddb56864f9b321daeb467199f068>@@XPE$AAVDevicePicker@Enumeration@Devices@Windows@@PE$AAVObject@Platform@@@Details@Platform@@UEAAPEAXI@Z 0000000180035b90 f i _nodert_generated.obj
 0001:00034b90       ??_G?$__abi_FunctorCapture@V<lambda_362dddb56864f9b321daeb467199f068>@@XPE$AAVDevicePicker@Enumeration@Devices@Windows@@PE$AAVObject@Platform@@@Details@Platform@@UEAAPEAXI@Z 0000000180035b90 f i _nodert_generated.obj
 0001:00034be0       ??_G?$__abi_FunctorCapture@V<lambda_3de33062496515ca77dec742d5341371>@@XPE$AAU?$IAsyncOperationWithProgress@PE$AAUIBuffer@Streams@Storage@Windows@@I@Foundation@Windows@@W4AsyncStatus@34@@Details@Platform@@UEAAPEAXI@Z 0000000180035be0 f i _nodert_generated.obj
 0001:00034be0       ??_E?$__abi_FunctorCapture@V<lambda_3de33062496515ca77dec742d5341371>@@XPE$AAU?$IAsyncOperationWithProgress@PE$AAUIBuffer@Streams@Storage@Windows@@I@Foundation@Windows@@W4AsyncStatus@34@@Details@Platform@@UEAAPEAXI@Z 0000000180035be0 f i _nodert_generated.obj
 0001:00034c50       ??_G?$__abi_FunctorCapture@V<lambda_3ff05d0f6e0fe947571a9cba4c871e9f>@@XPE$AAU?$IAsyncOperation@PE$AAVDevicePairingResult@Enumeration@Devices@Windows@@@Foundation@Windows@@W4AsyncStatus@34@@Details@Platform@@UEAAPEAXI@Z 0000000180035c50 f i _nodert_generated.obj
 0001:00034c50       ??_E?$__abi_FunctorCapture@V<lambda_3ff05d0f6e0fe947571a9cba4c871e9f>@@XPE$AAU?$IAsyncOperation@PE$AAVDevicePairingResult@Enumeration@Devices@Windows@@@Foundation@Windows@@W4AsyncStatus@34@@Details@Platform@@UEAAPEAXI@Z 0000000180035c50 f i _nodert_generated.obj
 0001:00034ca0       ??_G?$__abi_FunctorCapture@V<lambda_417f9b9eb69d711fe281d2cc0f81e7e0>@@XPE$AAVDevicePicker@Enumeration@Devices@Windows@@PE$AAVDeviceDisconnectButtonClickedEventArgs@345@@Details@Platform@@UEAAPEAXI@Z 0000000180035ca0 f i _nodert_generated.obj
 0001:00034ca0       ??_E?$__abi_FunctorCapture@V<lambda_417f9b9eb69d711fe281d2cc0f81e7e0>@@XPE$AAVDevicePicker@Enumeration@Devices@Windows@@PE$AAVDeviceDisconnectButtonClickedEventArgs@345@@Details@Platform@@UEAAPEAXI@Z 0000000180035ca0 f i _nodert_generated.obj
 0001:00034cf0       ??_E?$__abi_FunctorCapture@V<lambda_560cc8e7509601e5a0821fd4ffda23ec>@@XPE$AAU?$IAsyncOperationWithProgress@II@Foundation@Windows@@W4AsyncStatus@34@@Details@Platform@@UEAAPEAXI@Z 0000000180035cf0 f i _nodert_generated.obj
 0001:00034cf0       ??_G?$__abi_FunctorCapture@V<lambda_560cc8e7509601e5a0821fd4ffda23ec>@@XPE$AAU?$IAsyncOperationWithProgress@II@Foundation@Windows@@W4AsyncStatus@34@@Details@Platform@@UEAAPEAXI@Z 0000000180035cf0 f i _nodert_generated.obj
 0001:00034d60       ??_E?$__abi_FunctorCapture@V<lambda_7d19cc810d89fdff34731fdb4d4ddc6f>@@XPE$AAU?$IAsyncOperation@PE$AAVDeviceInformation@Enumeration@Devices@Windows@@@Foundation@Windows@@W4AsyncStatus@34@@Details@Platform@@UEAAPEAXI@Z 0000000180035d60 f i _nodert_generated.obj
 0001:00034d60       ??_G?$__abi_FunctorCapture@V<lambda_7d19cc810d89fdff34731fdb4d4ddc6f>@@XPE$AAU?$IAsyncOperation@PE$AAVDeviceInformation@Enumeration@Devices@Windows@@@Foundation@Windows@@W4AsyncStatus@34@@Details@Platform@@UEAAPEAXI@Z 0000000180035d60 f i _nodert_generated.obj
 0001:00034db0       ??_G?$__abi_FunctorCapture@V<lambda_8ec650b07ba0e505c408d2389def4a27>@@XPE$AAVDeviceWatcher@Enumeration@Devices@Windows@@PE$AAVDeviceInformationUpdate@345@@Details@Platform@@UEAAPEAXI@Z 0000000180035db0 f i _nodert_generated.obj
 0001:00034db0       ??_E?$__abi_FunctorCapture@V<lambda_8ec650b07ba0e505c408d2389def4a27>@@XPE$AAVDeviceWatcher@Enumeration@Devices@Windows@@PE$AAVDeviceInformationUpdate@345@@Details@Platform@@UEAAPEAXI@Z 0000000180035db0 f i _nodert_generated.obj
 0001:00034e00       ??_E?$__abi_FunctorCapture@V<lambda_9c267cdafd8e064f323ec4e1c7ae30d4>@@XPE$AAU?$IAsyncOperation@_N@Foundation@Windows@@W4AsyncStatus@34@@Details@Platform@@UEAAPEAXI@Z 0000000180035e00 f i _nodert_generated.obj
 0001:00034e00       ??_G?$__abi_FunctorCapture@V<lambda_9c267cdafd8e064f323ec4e1c7ae30d4>@@XPE$AAU?$IAsyncOperation@_N@Foundation@Windows@@W4AsyncStatus@34@@Details@Platform@@UEAAPEAXI@Z 0000000180035e00 f i _nodert_generated.obj
 0001:00034e50       ??_E?$__abi_FunctorCapture@V<lambda_a8a5f85c2ff75d8631efb4d869983d5e>@@XPE$AAVDeviceWatcher@Enumeration@Devices@Windows@@PE$AAVObject@Platform@@@Details@Platform@@UEAAPEAXI@Z 0000000180035e50 f i _nodert_generated.obj
 0001:00034e50       ??_G?$__abi_FunctorCapture@V<lambda_a8a5f85c2ff75d8631efb4d869983d5e>@@XPE$AAVDeviceWatcher@Enumeration@Devices@Windows@@PE$AAVObject@Platform@@@Details@Platform@@UEAAPEAXI@Z 0000000180035e50 f i _nodert_generated.obj
 0001:00034ea0       ??_G?$__abi_FunctorCapture@V<lambda_aa70f50115a4b23afbc3f27a3b05f254>@@XPE$AAVDeviceWatcher@Enumeration@Devices@Windows@@PE$AAVDeviceInformation@345@@Details@Platform@@UEAAPEAXI@Z 0000000180035ea0 f i _nodert_generated.obj
 0001:00034ea0       ??_E?$__abi_FunctorCapture@V<lambda_aa70f50115a4b23afbc3f27a3b05f254>@@XPE$AAVDeviceWatcher@Enumeration@Devices@Windows@@PE$AAVDeviceInformation@345@@Details@Platform@@UEAAPEAXI@Z 0000000180035ea0 f i _nodert_generated.obj
 0001:00034ef0       ??_G?$__abi_FunctorCapture@V<lambda_b74a78ddedb14b72dbcd1e76300ffed1>@@XPE$AAU?$IAsyncOperation@PE$AAUIBuffer@Streams@Storage@Windows@@@Foundation@Windows@@W4AsyncStatus@34@@Details@Platform@@UEAAPEAXI@Z 0000000180035ef0 f i _nodert_generated.obj
 0001:00034ef0       ??_E?$__abi_FunctorCapture@V<lambda_b74a78ddedb14b72dbcd1e76300ffed1>@@XPE$AAU?$IAsyncOperation@PE$AAUIBuffer@Streams@Storage@Windows@@@Foundation@Windows@@W4AsyncStatus@34@@Details@Platform@@UEAAPEAXI@Z 0000000180035ef0 f i _nodert_generated.obj
 0001:00034f40       ??_G?$__abi_FunctorCapture@V<lambda_b83406a5130f38b3e01bb5dca17ad557>@@XPE$AAU?$IAsyncOperation@PE$AAVDeviceUnpairingResult@Enumeration@Devices@Windows@@@Foundation@Windows@@W4AsyncStatus@34@@Details@Platform@@UEAAPEAXI@Z 0000000180035f40 f i _nodert_generated.obj
 0001:00034f40       ??_E?$__abi_FunctorCapture@V<lambda_b83406a5130f38b3e01bb5dca17ad557>@@XPE$AAU?$IAsyncOperation@PE$AAVDeviceUnpairingResult@Enumeration@Devices@Windows@@@Foundation@Windows@@W4AsyncStatus@34@@Details@Platform@@UEAAPEAXI@Z 0000000180035f40 f i _nodert_generated.obj
 0001:00034f90       ??_E?$__abi_FunctorCapture@V<lambda_b9369a02f6f09aa97e757a7dfe343714>@@XPE$AAVDeviceAccessInformation@Enumeration@Devices@Windows@@PE$AAVDeviceAccessChangedEventArgs@345@@Details@Platform@@UEAAPEAXI@Z 0000000180035f90 f i _nodert_generated.obj
 0001:00034f90       ??_G?$__abi_FunctorCapture@V<lambda_b9369a02f6f09aa97e757a7dfe343714>@@XPE$AAVDeviceAccessInformation@Enumeration@Devices@Windows@@PE$AAVDeviceAccessChangedEventArgs@345@@Details@Platform@@UEAAPEAXI@Z 0000000180035f90 f i _nodert_generated.obj
 0001:00034fe0       ??_E?$__abi_FunctorCapture@V<lambda_d7eb2f43511abcfd21e1d924554a4a1f>@@XPE$AAVDeviceInformationCustomPairing@Enumeration@Devices@Windows@@PE$AAVDevicePairingRequestedEventArgs@345@@Details@Platform@@UEAAPEAXI@Z 0000000180035fe0 f i _nodert_generated.obj
 0001:00034fe0       ??_G?$__abi_FunctorCapture@V<lambda_d7eb2f43511abcfd21e1d924554a4a1f>@@XPE$AAVDeviceInformationCustomPairing@Enumeration@Devices@Windows@@PE$AAVDevicePairingRequestedEventArgs@345@@Details@Platform@@UEAAPEAXI@Z 0000000180035fe0 f i _nodert_generated.obj
 0001:00035030       ??_E?$__abi_FunctorCapture@V<lambda_f57cbd171cf6613ff499c37b18adf8a1>@@XPE$AAU?$IAsyncOperation@PE$AAVDeviceInformationCollection@Enumeration@Devices@Windows@@@Foundation@Windows@@W4AsyncStatus@34@@Details@Platform@@UEAAPEAXI@Z 0000000180036030 f i _nodert_generated.obj
 0001:00035030       ??_G?$__abi_FunctorCapture@V<lambda_f57cbd171cf6613ff499c37b18adf8a1>@@XPE$AAU?$IAsyncOperation@PE$AAVDeviceInformationCollection@Enumeration@Devices@Windows@@@Foundation@Windows@@W4AsyncStatus@34@@Details@Platform@@UEAAPEAXI@Z 0000000180036030 f i _nodert_generated.obj
 0001:00035080       ??_E?$__abi_FunctorCapture@V<lambda_fc93eed9d04cbc3042fcb6316f5e3e92>@@XPE$AAU?$IAsyncOperation@PE$AAVDeviceThumbnail@Enumeration@Devices@Windows@@@Foundation@Windows@@W4AsyncStatus@34@@Details@Platform@@UEAAPEAXI@Z 0000000180036080 f i _nodert_generated.obj
 0001:00035080       ??_G?$__abi_FunctorCapture@V<lambda_fc93eed9d04cbc3042fcb6316f5e3e92>@@XPE$AAU?$IAsyncOperation@PE$AAVDeviceThumbnail@Enumeration@Devices@Windows@@@Foundation@Windows@@W4AsyncStatus@34@@Details@Platform@@UEAAPEAXI@Z 0000000180036080 f i _nodert_generated.obj
 0001:000350d0       ??_EDeviceAccessChangedEventArgs@Enumeration@Devices@Windows@NodeRT@@UEAAPEAXI@Z 00000001800360d0 f i _nodert_generated.obj
 0001:000350d0       ??_GDeviceAccessChangedEventArgs@Enumeration@Devices@Windows@NodeRT@@UEAAPEAXI@Z 00000001800360d0 f i _nodert_generated.obj
 0001:00035140       ??_EDeviceAccessInformation@Enumeration@Devices@Windows@NodeRT@@UEAAPEAXI@Z 0000000180036140 f i _nodert_generated.obj
 0001:00035140       ??_GDeviceAccessInformation@Enumeration@Devices@Windows@NodeRT@@UEAAPEAXI@Z 0000000180036140 f i _nodert_generated.obj
 0001:000351b0       ??_EDeviceConnectionChangeTriggerDetails@Enumeration@Devices@Windows@NodeRT@@UEAAPEAXI@Z 00000001800361b0 f i _nodert_generated.obj
 0001:000351b0       ??_GDeviceConnectionChangeTriggerDetails@Enumeration@Devices@Windows@NodeRT@@UEAAPEAXI@Z 00000001800361b0 f i _nodert_generated.obj
 0001:00035220       ??_EDeviceDisconnectButtonClickedEventArgs@Enumeration@Devices@Windows@NodeRT@@UEAAPEAXI@Z 0000000180036220 f i _nodert_generated.obj
 0001:00035220       ??_GDeviceDisconnectButtonClickedEventArgs@Enumeration@Devices@Windows@NodeRT@@UEAAPEAXI@Z 0000000180036220 f i _nodert_generated.obj
 0001:00035290       ??_GDeviceInformation@Enumeration@Devices@Windows@NodeRT@@UEAAPEAXI@Z 0000000180036290 f i _nodert_generated.obj
 0001:00035290       ??_EDeviceInformation@Enumeration@Devices@Windows@NodeRT@@UEAAPEAXI@Z 0000000180036290 f i _nodert_generated.obj
 0001:00035300       ??_GDeviceInformationCollection@Enumeration@Devices@Windows@NodeRT@@UEAAPEAXI@Z 0000000180036300 f i _nodert_generated.obj
 0001:00035300       ??_EDeviceInformationCollection@Enumeration@Devices@Windows@NodeRT@@UEAAPEAXI@Z 0000000180036300 f i _nodert_generated.obj
 0001:00035370       ??_GDeviceInformationCustomPairing@Enumeration@Devices@Windows@NodeRT@@UEAAPEAXI@Z 0000000180036370 f i _nodert_generated.obj
 0001:00035370       ??_EDeviceInformationCustomPairing@Enumeration@Devices@Windows@NodeRT@@UEAAPEAXI@Z 0000000180036370 f i _nodert_generated.obj
 0001:000353e0       ??_GDeviceInformationPairing@Enumeration@Devices@Windows@NodeRT@@UEAAPEAXI@Z 00000001800363e0 f i _nodert_generated.obj
 0001:000353e0       ??_EDeviceInformationPairing@Enumeration@Devices@Windows@NodeRT@@UEAAPEAXI@Z 00000001800363e0 f i _nodert_generated.obj
 0001:00035450       ??_GDeviceInformationUpdate@Enumeration@Devices@Windows@NodeRT@@UEAAPEAXI@Z 0000000180036450 f i _nodert_generated.obj
 0001:00035450       ??_EDeviceInformationUpdate@Enumeration@Devices@Windows@NodeRT@@UEAAPEAXI@Z 0000000180036450 f i _nodert_generated.obj
 0001:000354c0       ??_EDevicePairingRequestedEventArgs@Enumeration@Devices@Windows@NodeRT@@UEAAPEAXI@Z 00000001800364c0 f i _nodert_generated.obj
 0001:000354c0       ??_GDevicePairingRequestedEventArgs@Enumeration@Devices@Windows@NodeRT@@UEAAPEAXI@Z 00000001800364c0 f i _nodert_generated.obj
 0001:00035530       ??_GDevicePairingResult@Enumeration@Devices@Windows@NodeRT@@UEAAPEAXI@Z 0000000180036530 f i _nodert_generated.obj
 0001:00035530       ??_EDevicePairingResult@Enumeration@Devices@Windows@NodeRT@@UEAAPEAXI@Z 0000000180036530 f i _nodert_generated.obj
 0001:000355a0       ??_GDevicePicker@Enumeration@Devices@Windows@NodeRT@@UEAAPEAXI@Z 00000001800365a0 f i _nodert_generated.obj
 0001:000355a0       ??_EDevicePicker@Enumeration@Devices@Windows@NodeRT@@UEAAPEAXI@Z 00000001800365a0 f i _nodert_generated.obj
 0001:00035610       ??_GDevicePickerAppearance@Enumeration@Devices@Windows@NodeRT@@UEAAPEAXI@Z 0000000180036610 f i _nodert_generated.obj
 0001:00035610       ??_EDevicePickerAppearance@Enumeration@Devices@Windows@NodeRT@@UEAAPEAXI@Z 0000000180036610 f i _nodert_generated.obj
 0001:00035680       ??_GDevicePickerFilter@Enumeration@Devices@Windows@NodeRT@@UEAAPEAXI@Z 0000000180036680 f i _nodert_generated.obj
 0001:00035680       ??_EDevicePickerFilter@Enumeration@Devices@Windows@NodeRT@@UEAAPEAXI@Z 0000000180036680 f i _nodert_generated.obj
 0001:000356f0       ??_EDeviceSelectedEventArgs@Enumeration@Devices@Windows@NodeRT@@UEAAPEAXI@Z 00000001800366f0 f i _nodert_generated.obj
 0001:000356f0       ??_GDeviceSelectedEventArgs@Enumeration@Devices@Windows@NodeRT@@UEAAPEAXI@Z 00000001800366f0 f i _nodert_generated.obj
 0001:00035760       ??_EDeviceThumbnail@Enumeration@Devices@Windows@NodeRT@@UEAAPEAXI@Z 0000000180036760 f i _nodert_generated.obj
 0001:00035760       ??_GDeviceThumbnail@Enumeration@Devices@Windows@NodeRT@@UEAAPEAXI@Z 0000000180036760 f i _nodert_generated.obj
 0001:000357d0       ??_GDeviceUnpairingResult@Enumeration@Devices@Windows@NodeRT@@UEAAPEAXI@Z 00000001800367d0 f i _nodert_generated.obj
 0001:000357d0       ??_EDeviceUnpairingResult@Enumeration@Devices@Windows@NodeRT@@UEAAPEAXI@Z 00000001800367d0 f i _nodert_generated.obj
 0001:00035840       ??_EDeviceWatcher@Enumeration@Devices@Windows@NodeRT@@UEAAPEAXI@Z 0000000180036840 f i _nodert_generated.obj
 0001:00035840       ??_GDeviceWatcher@Enumeration@Devices@Windows@NodeRT@@UEAAPEAXI@Z 0000000180036840 f i _nodert_generated.obj
 0001:000358b0       ??_GDeviceWatcherEvent@Enumeration@Devices@Windows@NodeRT@@UEAAPEAXI@Z 00000001800368b0 f i _nodert_generated.obj
 0001:000358b0       ??_EDeviceWatcherEvent@Enumeration@Devices@Windows@NodeRT@@UEAAPEAXI@Z 00000001800368b0 f i _nodert_generated.obj
 0001:00035920       ??_GDeviceWatcherTriggerDetails@Enumeration@Devices@Windows@NodeRT@@UEAAPEAXI@Z 0000000180036920 f i _nodert_generated.obj
 0001:00035920       ??_EDeviceWatcherTriggerDetails@Enumeration@Devices@Windows@NodeRT@@UEAAPEAXI@Z 0000000180036920 f i _nodert_generated.obj
 0001:00035990       ??_GEnclosureLocation@Enumeration@Devices@Windows@NodeRT@@UEAAPEAXI@Z 0000000180036990 f i _nodert_generated.obj
 0001:00035990       ??_EEnclosureLocation@Enumeration@Devices@Windows@NodeRT@@UEAAPEAXI@Z 0000000180036990 f i _nodert_generated.obj
 0001:00035a00       ??_GIDevicePairingSettings@Enumeration@Devices@Windows@NodeRT@@UEAAPEAXI@Z 0000000180036a00 f i _nodert_generated.obj
 0001:00035a00       ??_EIDevicePairingSettings@Enumeration@Devices@Windows@NodeRT@@UEAAPEAXI@Z 0000000180036a00 f i _nodert_generated.obj
 0001:00035a70       ??_EObjectWrap@Nan@@UEAAPEAXI@Z 0000000180036a70 f i _nodert_generated.obj
 0001:00035a70       ??_GObjectWrap@Nan@@UEAAPEAXI@Z 0000000180036a70 f i _nodert_generated.obj
 0001:00035ac0       ??_ETokenData@Async@NodeUtils@@UEAAPEAXI@Z 0000000180036ac0 f i _nodert_generated.obj
 0001:00035ac0       ??_GTokenData@Async@NodeUtils@@UEAAPEAXI@Z 0000000180036ac0 f i _nodert_generated.obj
 0001:00035b70       ??_GWrapperBase@NodeRT@@UEAAPEAXI@Z 0000000180036b70 f i _nodert_generated.obj
 0001:00035b70       ??_EWrapperBase@NodeRT@@UEAAPEAXI@Z 0000000180036b70 f i _nodert_generated.obj
 0001:00035bc0       ??_G_CancellationTokenRegistration@details@Concurrency@@MEAAPEAXI@Z 0000000180036bc0 f i _nodert_generated.obj
 0001:00035bc0       ??_E_CancellationTokenRegistration@details@Concurrency@@MEAAPEAXI@Z 0000000180036bc0 f i _nodert_generated.obj
 0001:00035c30       ??_E_ContinuationTaskHandleBase@details@Concurrency@@UEAAPEAXI@Z 0000000180036c30 f i _nodert_generated.obj
 0001:00035c30       ??_G_ContinuationTaskHandleBase@details@Concurrency@@UEAAPEAXI@Z 0000000180036c30 f i _nodert_generated.obj
 0001:00035ca0       ??_E_RefCounter@details@Concurrency@@UEAAPEAXI@Z 0000000180036ca0 f i _nodert_generated.obj
 0001:00035ca0       ??_G_RefCounter@details@Concurrency@@UEAAPEAXI@Z 0000000180036ca0 f i _nodert_generated.obj
 0001:00035ce0       ??_E_Ref_count_base@std@@UEAAPEAXI@Z 0000000180036ce0 f i _nodert_generated.obj
 0001:00035ce0       ??_G_Ref_count_base@std@@UEAAPEAXI@Z 0000000180036ce0 f i _nodert_generated.obj
 0001:00035d20       ??_E_TaskProcHandle@details@Concurrency@@UEAAPEAXI@Z 0000000180036d20 f i _nodert_generated.obj
 0001:00035d20       ??_G_TaskProcHandle@details@Concurrency@@UEAAPEAXI@Z 0000000180036d20 f i _nodert_generated.obj
 0001:00035d60       ??_G_Task_impl_base@details@Concurrency@@UEAAPEAXI@Z 0000000180036d60 f i _nodert_generated.obj
 0001:00035d60       ??_E_Task_impl_base@details@Concurrency@@UEAAPEAXI@Z 0000000180036d60 f i _nodert_generated.obj
 0001:00035db0       ??_G__abi_CaptureBase@Details@Platform@@MEAAPEAXI@Z 0000000180036db0 f i _nodert_generated.obj
 0001:00035db0       ??_E__abi_CaptureBase@Details@Platform@@MEAAPEAXI@Z 0000000180036db0 f i _nodert_generated.obj
 0001:00035df0       ??_Ebad_weak_ptr@std@@UEAAPEAXI@Z 0000000180036df0 f i _nodert_generated.obj
 0001:00035df0       ??_Gbad_weak_ptr@std@@UEAAPEAXI@Z 0000000180036df0 f i _nodert_generated.obj
 0001:00035e30       ??_Eexception@stdext@@UEAAPEAXI@Z 0000000180036e30 f i _nodert_generated.obj
 0001:00035e30       ??_Gexception@stdext@@UEAAPEAXI@Z 0000000180036e30 f i _nodert_generated.obj
 0001:00035e70       ??_Einvalid_operation@Concurrency@@UEAAPEAXI@Z 0000000180036e70 f i _nodert_generated.obj
 0001:00035e70       ??_Ginvalid_operation@Concurrency@@UEAAPEAXI@Z 0000000180036e70 f i _nodert_generated.obj
 0001:00035eb0       ??_Eruntime_error@std@@UEAAPEAXI@Z 0000000180036eb0 f i _nodert_generated.obj
 0001:00035eb0       ??_Gruntime_error@std@@UEAAPEAXI@Z 0000000180036eb0 f i _nodert_generated.obj
 0001:00035ef0       ??_Gtask_canceled@Concurrency@@UEAAPEAXI@Z 0000000180036ef0 f i _nodert_generated.obj
 0001:00035ef0       ??_Etask_canceled@Concurrency@@UEAAPEAXI@Z 0000000180036ef0 f i _nodert_generated.obj
 0001:00035f30       ??_H@YAXPEAX_K1P6APEAX0@Z@Z 0000000180036f30 f i _nodert_generated.obj
 0001:00035f90       ?AccentColorGetter@DevicePickerAppearance@Enumeration@Devices@Windows@NodeRT@@CAXV?$Local@VString@v8@@@v8@@AEBV?$PropertyCallbackInfo@VValue@v8@@@Nan@@@Z 0000000180036f90 f i _nodert_generated.obj
 0001:00036080       ?AccentColorSetter@DevicePickerAppearance@Enumeration@Devices@Windows@NodeRT@@CAXV?$Local@VString@v8@@@v8@@V?$Local@VValue@v8@@@7@AEBV?$PropertyCallbackInfo@X@Nan@@@Z 0000000180037080 f i _nodert_generated.obj
 0001:00036190       ?Accept@DevicePairingRequestedEventArgs@Enumeration@Devices@Windows@NodeRT@@CAXAEBV?$FunctionCallbackInfo@VValue@v8@@@Nan@@@Z 0000000180037190 f i _nodert_generated.obj
 0001:000363d0       ?Accept@IDevicePairingRequestedEventArgs@Enumeration@Devices@Windows@@UE$AAAXPE$AAVString@Platform@@@Z 00000001800373d0 f i _nodert_generated.obj
 0001:00036400       ?Accept@IDevicePairingRequestedEventArgs@Enumeration@Devices@Windows@@UE$AAAXXZ 0000000180037400 f i _nodert_generated.obj
 0001:00036430       ?ActivateInstance@IActivationFactory@Details@Platform@@UE$AAAPE$AAVObject@3@XZ 0000000180037430 f i _nodert_generated.obj
 0001:000364b0       ?AddListener@DeviceAccessInformation@Enumeration@Devices@Windows@NodeRT@@CAXAEBV?$FunctionCallbackInfo@VValue@v8@@@Nan@@@Z 00000001800374b0 f i _nodert_generated.obj
 0001:00036b40       ?AddListener@DeviceInformationCustomPairing@Enumeration@Devices@Windows@NodeRT@@CAXAEBV?$FunctionCallbackInfo@VValue@v8@@@Nan@@@Z 0000000180037b40 f i _nodert_generated.obj
 0001:000371d0       ?AddListener@DevicePicker@Enumeration@Devices@Windows@NodeRT@@CAXAEBV?$FunctionCallbackInfo@VValue@v8@@@Nan@@@Z 00000001800381d0 f i _nodert_generated.obj
 0001:00037d60       ?AddListener@DeviceWatcher@Enumeration@Devices@Windows@NodeRT@@CAXAEBV?$FunctionCallbackInfo@VValue@v8@@@Nan@@@Z 0000000180038d60 f i _nodert_generated.obj
 0001:00038de0       ?AllocateAndCopyElements@?$WriteOnlyArray@PE$AAVString@Platform@@$00@Platform@@KAPEAPE$AAVString@2@PEBQE$AAV32@I@Z 0000000180039de0 f i _nodert_generated.obj
 0001:00038f00       ?AllocateAndCopyElements@?$WriteOnlyArray@W4DeviceClass@Enumeration@Devices@Windows@@$00@Platform@@KAPEAW4DeviceClass@Enumeration@Devices@Windows@@PEBW43456@I@Z 0000000180039f00 f i _nodert_generated.obj
 0001:00038fd0       ?AllocateAndCopyElements@?$WriteOnlyArray@W4DeviceWatcherEventKind@Enumeration@Devices@Windows@@$00@Platform@@KAPEAW4DeviceWatcherEventKind@Enumeration@Devices@Windows@@PEBW43456@I@Z 0000000180039fd0 f i _nodert_generated.obj
 0001:000390a0       ?AppearanceGetter@DevicePicker@Enumeration@Devices@Windows@NodeRT@@CAXV?$Local@VString@v8@@@v8@@AEBV?$PropertyCallbackInfo@VValue@v8@@@Nan@@@Z 000000018003a0a0 f i _nodert_generated.obj
 0001:000391f0       ?Append@?$IVector@PE$AAVString@Platform@@@Collections@Foundation@Windows@@UE$AAAXPE$AAVString@Platform@@@Z 000000018003a1f0 f i _nodert_generated.obj
 0001:00039220       ?Append@?$IVector@W4DeviceClass@Enumeration@Devices@Windows@@@Collections@Foundation@Windows@@UE$AAAXW4DeviceClass@Enumeration@Devices@4@@Z 000000018003a220 f i _nodert_generated.obj
 0001:00039250       ?Append@?$VectorWrapper@PE$AAVString@Platform@@@Collections@NodeRT@@CAXAEBV?$FunctionCallbackInfo@VValue@v8@@@Nan@@@Z 000000018003a250 f i _nodert_generated.obj
 0001:00039430       ?Append@?$VectorWrapper@W4DeviceClass@Enumeration@Devices@Windows@@@Collections@NodeRT@@CAXAEBV?$FunctionCallbackInfo@VValue@v8@@@Nan@@@Z 000000018003a430 f i _nodert_generated.obj
 0001:000395d0       ?Append@?Q?$IVector@PE$AAVString@Platform@@@Collections@Foundation@Windows@@?$Vector@PE$AAVString@Platform@@U?$equal_to@PE$AAVString@Platform@@@std@@$00@2Platform@@UE$AAAXPE$AAVString@6@@Z 000000018003a5d0 f i _nodert_generated.obj
 0001:00039778       ?Append@?Q?$IVector@PE$AAVString@Platform@@@Collections@Foundation@Windows@@?$Vector@PE$AAVString@Platform@@U?$equal_to@PE$AAVString@Platform@@@std@@$00@2Platform@@W7E$AAAXPE$AAVString@6@@Z 000000018003a778 f i _nodert_generated.obj
 0001:00039790       ?Append@?Q?$IVector@W4DeviceWatcherEventKind@Enumeration@Devices@Windows@@@Collections@Foundation@Windows@@?$Vector@W4DeviceWatcherEventKind@Enumeration@Devices@Windows@@U?$equal_to@W4DeviceWatcherEventKind@Enumeration@Devices@Windows@@@std@@$00@2Platform@@UE$AAAXW4DeviceWatcherEventKind@Enumeration@Devices@4@@Z 000000018003a790 f i _nodert_generated.obj
 0001:000398a8       ?Append@?Q?$IVector@W4DeviceWatcherEventKind@Enumeration@Devices@Windows@@@Collections@Foundation@Windows@@?$Vector@W4DeviceWatcherEventKind@Enumeration@Devices@Windows@@U?$equal_to@W4DeviceWatcherEventKind@Enumeration@Devices@Windows@@@std@@$00@2Platform@@W7E$AAAXW4DeviceWatcherEventKind@Enumeration@Devices@4@@Z 000000018003a8a8 f i _nodert_generated.obj
 0001:000398c0       ?AsyncCb@Async@NodeUtils@@CAXPEAUuv_async_s@@@Z 000000018003a8c0 f i _nodert_generated.obj
 0001:00039930       ?AyncCloseCb@Async@NodeUtils@@CAXPEAUuv_handle_s@@@Z 000000018003a930 f i _nodert_generated.obj
 0001:00039950       ?BackgroundColorGetter@DevicePickerAppearance@Enumeration@Devices@Windows@NodeRT@@CAXV?$Local@VString@v8@@@v8@@AEBV?$PropertyCallbackInfo@VValue@v8@@@Nan@@@Z 000000018003a950 f i _nodert_generated.obj
 0001:00039a40       ?BackgroundColorSetter@DevicePickerAppearance@Enumeration@Devices@Windows@NodeRT@@CAXV?$Local@VString@v8@@@v8@@V?$Local@VValue@v8@@@7@AEBV?$PropertyCallbackInfo@X@Nan@@@Z 000000018003aa40 f i _nodert_generated.obj
 0001:00039b50       ?BindableAppend@?QIBindableVector@Interop@Xaml@UI@Windows@@?$Vector@PE$AAVString@Platform@@U?$equal_to@PE$AAVString@Platform@@@std@@$00@Collections@Platform@@EE$AAAXPE$AAVObject@8@@Z 000000018003ab50 f i _nodert_generated.obj
 0001:00039ba8       ?BindableAppend@?QIBindableVector@Interop@Xaml@UI@Windows@@?$Vector@PE$AAVString@Platform@@U?$equal_to@PE$AAVString@Platform@@@std@@$00@Collections@Platform@@GCI@E$AAAXPE$AAVObject@8@@Z 000000018003aba8 f i _nodert_generated.obj
 0001:00039bc0       ?BindableAppend@?QIBindableVector@Interop@Xaml@UI@Windows@@?$Vector@W4DeviceWatcherEventKind@Enumeration@Devices@Windows@@U?$equal_to@W4DeviceWatcherEventKind@Enumeration@Devices@Windows@@@std@@$00@Collections@Platform@@EE$AAAXPE$AAVObject@8@@Z 000000018003abc0 f i _nodert_generated.obj
 0001:00039be8       ?BindableAppend@?QIBindableVector@Interop@Xaml@UI@Windows@@?$Vector@W4DeviceWatcherEventKind@Enumeration@Devices@Windows@@U?$equal_to@W4DeviceWatcherEventKind@Enumeration@Devices@Windows@@@std@@$00@Collections@Platform@@GCI@E$AAAXPE$AAVObject@8@@Z 000000018003abe8 f i _nodert_generated.obj
 0001:00039c00       ?BindableCurrent@?QCurrent@IBindableIterator@Interop@Xaml@UI@Windows@@?$IteratorForVectorView@PE$AAVString@Platform@@@Details@Collections@Platform@@EE$AAAPE$AAVObject@Platform@@XZ 000000018003ac00 f i _nodert_generated.obj
 0001:00039c68       ?BindableCurrent@?QCurrent@IBindableIterator@Interop@Xaml@UI@Windows@@?$IteratorForVectorView@PE$AAVString@Platform@@@Details@Collections@Platform@@GBA@E$AAAPE$AAVObject@Platform@@XZ 000000018003ac68 f i _nodert_generated.obj
 0001:00039c80       ?BindableCurrent@?QCurrent@IBindableIterator@Interop@Xaml@UI@Windows@@?$IteratorForVectorView@W4DeviceWatcherEventKind@Enumeration@Devices@Windows@@@Details@Collections@Platform@@EE$AAAPE$AAVObject@Platform@@XZ 000000018003ac80 f i _nodert_generated.obj
 0001:00039cd8       ?BindableCurrent@?QCurrent@IBindableIterator@Interop@Xaml@UI@Windows@@?$IteratorForVectorView@W4DeviceWatcherEventKind@Enumeration@Devices@Windows@@@Details@Collections@Platform@@GBA@E$AAAPE$AAVObject@Platform@@XZ 000000018003acd8 f i _nodert_generated.obj
 0001:00039cf0       ?BindableEventAdd@?QVectorChanged@IBindableObservableVector@Interop@Xaml@UI@Windows@@?$Vector@PE$AAVString@Platform@@U?$equal_to@PE$AAVString@Platform@@@std@@$00@Collections@Platform@@EE$AAA?AVEventRegistrationToken@Foundation@6@PE$AAVBindableVectorChangedEventHandler@3456@@Z 000000018003acf0 f i _nodert_generated.obj
 0001:00039d24       ?BindableEventAdd@?QVectorChanged@IBindableObservableVector@Interop@Xaml@UI@Windows@@?$Vector@PE$AAVString@Platform@@U?$equal_to@PE$AAVString@Platform@@@std@@$00@Collections@Platform@@GCA@E$AAA?AVEventRegistrationToken@Foundation@6@PE$AAVBindableVectorChangedEventHandler@3456@@Z 000000018003ad24 f i _nodert_generated.obj
 0001:00039d30       ?BindableEventAdd@?QVectorChanged@IBindableObservableVector@Interop@Xaml@UI@Windows@@?$Vector@W4DeviceWatcherEventKind@Enumeration@Devices@Windows@@U?$equal_to@W4DeviceWatcherEventKind@Enumeration@Devices@Windows@@@std@@$00@Collections@Platform@@EE$AAA?AVEventRegistrationToken@Foundation@6@PE$AAVBindableVectorChangedEventHandler@3456@@Z 000000018003ad30 f i _nodert_generated.obj
 0001:00039d64       ?BindableEventAdd@?QVectorChanged@IBindableObservableVector@Interop@Xaml@UI@Windows@@?$Vector@W4DeviceWatcherEventKind@Enumeration@Devices@Windows@@U?$equal_to@W4DeviceWatcherEventKind@Enumeration@Devices@Windows@@@std@@$00@Collections@Platform@@GCA@E$AAA?AVEventRegistrationToken@Foundation@6@PE$AAVBindableVectorChangedEventHandler@3456@@Z 000000018003ad64 f i _nodert_generated.obj
 0001:00039d70       ?BindableEventRemove@?QVectorChanged@IBindableObservableVector@Interop@Xaml@UI@Windows@@?$Vector@PE$AAVString@Platform@@U?$equal_to@PE$AAVString@Platform@@@std@@$00@Collections@Platform@@EE$AAAXVEventRegistrationToken@Foundation@6@@Z 000000018003ad70 f i _nodert_generated.obj
 0001:00039d94       ?BindableEventRemove@?QVectorChanged@IBindableObservableVector@Interop@Xaml@UI@Windows@@?$Vector@PE$AAVString@Platform@@U?$equal_to@PE$AAVString@Platform@@@std@@$00@Collections@Platform@@GCA@E$AAAXVEventRegistrationToken@Foundation@6@@Z 000000018003ad94 f i _nodert_generated.obj
 0001:00039da0       ?BindableEventRemove@?QVectorChanged@IBindableObservableVector@Interop@Xaml@UI@Windows@@?$Vector@W4DeviceWatcherEventKind@Enumeration@Devices@Windows@@U?$equal_to@W4DeviceWatcherEventKind@Enumeration@Devices@Windows@@@std@@$00@Collections@Platform@@EE$AAAXVEventRegistrationToken@Foundation@6@@Z 000000018003ada0 f i _nodert_generated.obj
 0001:00039dc4       ?BindableEventRemove@?QVectorChanged@IBindableObservableVector@Interop@Xaml@UI@Windows@@?$Vector@W4DeviceWatcherEventKind@Enumeration@Devices@Windows@@U?$equal_to@W4DeviceWatcherEventKind@Enumeration@Devices@Windows@@@std@@$00@Collections@Platform@@GCA@E$AAAXVEventRegistrationToken@Foundation@6@@Z 000000018003adc4 f i _nodert_generated.obj
 0001:00039dd0       ?BindableFirst@?QIBindableIterable@Interop@Xaml@UI@Windows@@?$Vector@PE$AAVString@Platform@@U?$equal_to@PE$AAVString@Platform@@@std@@$00@Collections@Platform@@EE$AAAPE$AAUIBindableIterator@2345@XZ 000000018003add0 f i _nodert_generated.obj
 0001:00039ed8       ?BindableFirst@?QIBindableIterable@Interop@Xaml@UI@Windows@@?$Vector@PE$AAVString@Platform@@U?$equal_to@PE$AAVString@Platform@@@std@@$00@Collections@Platform@@GDA@E$AAAPE$AAUIBindableIterator@2345@XZ 000000018003aed8 f i _nodert_generated.obj
 0001:00039ef0       ?BindableFirst@?QIBindableIterable@Interop@Xaml@UI@Windows@@?$Vector@W4DeviceWatcherEventKind@Enumeration@Devices@Windows@@U?$equal_to@W4DeviceWatcherEventKind@Enumeration@Devices@Windows@@@std@@$00@Collections@Platform@@EE$AAAPE$AAUIBindableIterator@2345@XZ 000000018003aef0 f i _nodert_generated.obj
 0001:00039ff8       ?BindableFirst@?QIBindableIterable@Interop@Xaml@UI@Windows@@?$Vector@W4DeviceWatcherEventKind@Enumeration@Devices@Windows@@U?$equal_to@W4DeviceWatcherEventKind@Enumeration@Devices@Windows@@@std@@$00@Collections@Platform@@GDA@E$AAAPE$AAUIBindableIterator@2345@XZ 000000018003aff8 f i _nodert_generated.obj
 0001:0003a010       ?BindableFirst@?QIBindableIterable@Interop@Xaml@UI@Windows@@?$VectorView@PE$AAVString@Platform@@U?$equal_to@PE$AAVString@Platform@@@std@@$00@Collections@Platform@@EE$AAAPE$AAUIBindableIterator@2345@XZ 000000018003b010 f i _nodert_generated.obj
 0001:0003a0c8       ?BindableFirst@?QIBindableIterable@Interop@Xaml@UI@Windows@@?$VectorView@PE$AAVString@Platform@@U?$equal_to@PE$AAVString@Platform@@@std@@$00@Collections@Platform@@GCA@E$AAAPE$AAUIBindableIterator@2345@XZ 000000018003b0c8 f i _nodert_generated.obj
 0001:0003a0e0       ?BindableFirst@?QIBindableIterable@Interop@Xaml@UI@Windows@@?$VectorView@W4DeviceWatcherEventKind@Enumeration@Devices@Windows@@U?$equal_to@W4DeviceWatcherEventKind@Enumeration@Devices@Windows@@@std@@$00@Collections@Platform@@EE$AAAPE$AAUIBindableIterator@2345@XZ 000000018003b0e0 f i _nodert_generated.obj
 0001:0003a198       ?BindableFirst@?QIBindableIterable@Interop@Xaml@UI@Windows@@?$VectorView@W4DeviceWatcherEventKind@Enumeration@Devices@Windows@@U?$equal_to@W4DeviceWatcherEventKind@Enumeration@Devices@Windows@@@std@@$00@Collections@Platform@@GCA@E$AAAPE$AAUIBindableIterator@2345@XZ 000000018003b198 f i _nodert_generated.obj
 0001:0003a1b0       ?BindableGetAt@?QIBindableVector@Interop@Xaml@UI@Windows@@?$Vector@PE$AAVString@Platform@@U?$equal_to@PE$AAVString@Platform@@@std@@$00@Collections@Platform@@EE$AAAPE$AAVObject@8@I@Z 000000018003b1b0 f i _nodert_generated.obj
 0001:0003a218       ?BindableGetAt@?QIBindableVector@Interop@Xaml@UI@Windows@@?$Vector@PE$AAVString@Platform@@U?$equal_to@PE$AAVString@Platform@@@std@@$00@Collections@Platform@@GCI@E$AAAPE$AAVObject@8@I@Z 000000018003b218 f i _nodert_generated.obj
 0001:0003a230       ?BindableGetAt@?QIBindableVector@Interop@Xaml@UI@Windows@@?$Vector@W4DeviceWatcherEventKind@Enumeration@Devices@Windows@@U?$equal_to@W4DeviceWatcherEventKind@Enumeration@Devices@Windows@@@std@@$00@Collections@Platform@@EE$AAAPE$AAVObject@8@I@Z 000000018003b230 f i _nodert_generated.obj
 0001:0003a288       ?BindableGetAt@?QIBindableVector@Interop@Xaml@UI@Windows@@?$Vector@W4DeviceWatcherEventKind@Enumeration@Devices@Windows@@U?$equal_to@W4DeviceWatcherEventKind@Enumeration@Devices@Windows@@@std@@$00@Collections@Platform@@GCI@E$AAAPE$AAVObject@8@I@Z 000000018003b288 f i _nodert_generated.obj
 0001:0003a2a0       ?BindableGetAt@?QIBindableVectorView@Interop@Xaml@UI@Windows@@?$VectorView@PE$AAVString@Platform@@U?$equal_to@PE$AAVString@Platform@@@std@@$00@Collections@Platform@@EE$AAAPE$AAVObject@8@I@Z 000000018003b2a0 f i _nodert_generated.obj
 0001:0003a308       ?BindableGetAt@?QIBindableVectorView@Interop@Xaml@UI@Windows@@?$VectorView@PE$AAVString@Platform@@U?$equal_to@PE$AAVString@Platform@@@std@@$00@Collections@Platform@@GBI@E$AAAPE$AAVObject@8@I@Z 000000018003b308 f i _nodert_generated.obj
 0001:0003a320       ?BindableGetAt@?QIBindableVectorView@Interop@Xaml@UI@Windows@@?$VectorView@W4DeviceWatcherEventKind@Enumeration@Devices@Windows@@U?$equal_to@W4DeviceWatcherEventKind@Enumeration@Devices@Windows@@@std@@$00@Collections@Platform@@EE$AAAPE$AAVObject@8@I@Z 000000018003b320 f i _nodert_generated.obj
 0001:0003a378       ?BindableGetAt@?QIBindableVectorView@Interop@Xaml@UI@Windows@@?$VectorView@W4DeviceWatcherEventKind@Enumeration@Devices@Windows@@U?$equal_to@W4DeviceWatcherEventKind@Enumeration@Devices@Windows@@@std@@$00@Collections@Platform@@GBI@E$AAAPE$AAVObject@8@I@Z 000000018003b378 f i _nodert_generated.obj
 0001:0003a390       ?BindableGetView@?QIBindableVector@Interop@Xaml@UI@Windows@@?$Vector@PE$AAVString@Platform@@U?$equal_to@PE$AAVString@Platform@@@std@@$00@Collections@Platform@@EE$AAAPE$AAUIBindableVectorView@2345@XZ 000000018003b390 f i _nodert_generated.obj
 0001:0003a498       ?BindableGetView@?QIBindableVector@Interop@Xaml@UI@Windows@@?$Vector@PE$AAVString@Platform@@U?$equal_to@PE$AAVString@Platform@@@std@@$00@Collections@Platform@@GCI@E$AAAPE$AAUIBindableVectorView@2345@XZ 000000018003b498 f i _nodert_generated.obj
 0001:0003a4b0       ?BindableGetView@?QIBindableVector@Interop@Xaml@UI@Windows@@?$Vector@W4DeviceWatcherEventKind@Enumeration@Devices@Windows@@U?$equal_to@W4DeviceWatcherEventKind@Enumeration@Devices@Windows@@@std@@$00@Collections@Platform@@EE$AAAPE$AAUIBindableVectorView@2345@XZ 000000018003b4b0 f i _nodert_generated.obj
 0001:0003a5b8       ?BindableGetView@?QIBindableVector@Interop@Xaml@UI@Windows@@?$Vector@W4DeviceWatcherEventKind@Enumeration@Devices@Windows@@U?$equal_to@W4DeviceWatcherEventKind@Enumeration@Devices@Windows@@@std@@$00@Collections@Platform@@GCI@E$AAAPE$AAUIBindableVectorView@2345@XZ 000000018003b5b8 f i _nodert_generated.obj
 0001:0003a5d0       ?BindableIndexOf@?QIBindableVector@Interop@Xaml@UI@Windows@@?$Vector@PE$AAVString@Platform@@U?$equal_to@PE$AAVString@Platform@@@std@@$00@Collections@Platform@@EE$AAA_NPE$AAVObject@8@PEAI@Z 000000018003b5d0 f i _nodert_generated.obj
 0001:0003a5f4       ?BindableIndexOf@?QIBindableVector@Interop@Xaml@UI@Windows@@?$Vector@PE$AAVString@Platform@@U?$equal_to@PE$AAVString@Platform@@@std@@$00@Collections@Platform@@GCI@E$AAA_NPE$AAVObject@8@PEAI@Z 000000018003b5f4 f i _nodert_generated.obj
 0001:0003a600       ?BindableIndexOf@?QIBindableVector@Interop@Xaml@UI@Windows@@?$Vector@W4DeviceWatcherEventKind@Enumeration@Devices@Windows@@U?$equal_to@W4DeviceWatcherEventKind@Enumeration@Devices@Windows@@@std@@$00@Collections@Platform@@EE$AAA_NPE$AAVObject@8@PEAI@Z 000000018003b600 f i _nodert_generated.obj
 0001:0003a624       ?BindableIndexOf@?QIBindableVector@Interop@Xaml@UI@Windows@@?$Vector@W4DeviceWatcherEventKind@Enumeration@Devices@Windows@@U?$equal_to@W4DeviceWatcherEventKind@Enumeration@Devices@Windows@@@std@@$00@Collections@Platform@@GCI@E$AAA_NPE$AAVObject@8@PEAI@Z 000000018003b624 f i _nodert_generated.obj
 0001:0003a630       ?BindableIndexOf@?QIBindableVectorView@Interop@Xaml@UI@Windows@@?$VectorView@PE$AAVString@Platform@@U?$equal_to@PE$AAVString@Platform@@@std@@$00@Collections@Platform@@EE$AAA_NPE$AAVObject@8@PEAI@Z 000000018003b630 f i _nodert_generated.obj
 0001:0003a6d4       ?BindableIndexOf@?QIBindableVectorView@Interop@Xaml@UI@Windows@@?$VectorView@PE$AAVString@Platform@@U?$equal_to@PE$AAVString@Platform@@@std@@$00@Collections@Platform@@GBI@E$AAA_NPE$AAVObject@8@PEAI@Z 000000018003b6d4 f i _nodert_generated.obj
 0001:0003a6e0       ?BindableIndexOf@?QIBindableVectorView@Interop@Xaml@UI@Windows@@?$VectorView@W4DeviceWatcherEventKind@Enumeration@Devices@Windows@@U?$equal_to@W4DeviceWatcherEventKind@Enumeration@Devices@Windows@@@std@@$00@Collections@Platform@@EE$AAA_NPE$AAVObject@8@PEAI@Z 000000018003b6e0 f i _nodert_generated.obj
 0001:0003a784       ?BindableIndexOf@?QIBindableVectorView@Interop@Xaml@UI@Windows@@?$VectorView@W4DeviceWatcherEventKind@Enumeration@Devices@Windows@@U?$equal_to@W4DeviceWatcherEventKind@Enumeration@Devices@Windows@@@std@@$00@Collections@Platform@@GBI@E$AAA_NPE$AAVObject@8@PEAI@Z 000000018003b784 f i _nodert_generated.obj
 0001:0003a790       ?BindableInsertAt@?QIBindableVector@Interop@Xaml@UI@Windows@@?$Vector@PE$AAVString@Platform@@U?$equal_to@PE$AAVString@Platform@@@std@@$00@Collections@Platform@@EE$AAAXIPE$AAVObject@8@@Z 000000018003b790 f i _nodert_generated.obj
 0001:0003a7fc       ?BindableInsertAt@?QIBindableVector@Interop@Xaml@UI@Windows@@?$Vector@PE$AAVString@Platform@@U?$equal_to@PE$AAVString@Platform@@@std@@$00@Collections@Platform@@GCI@E$AAAXIPE$AAVObject@8@@Z 000000018003b7fc f i _nodert_generated.obj
 0001:0003a810       ?BindableInsertAt@?QIBindableVector@Interop@Xaml@UI@Windows@@?$Vector@W4DeviceWatcherEventKind@Enumeration@Devices@Windows@@U?$equal_to@W4DeviceWatcherEventKind@Enumeration@Devices@Windows@@@std@@$00@Collections@Platform@@EE$AAAXIPE$AAVObject@8@@Z 000000018003b810 f i _nodert_generated.obj
 0001:0003a84c       ?BindableInsertAt@?QIBindableVector@Interop@Xaml@UI@Windows@@?$Vector@W4DeviceWatcherEventKind@Enumeration@Devices@Windows@@U?$equal_to@W4DeviceWatcherEventKind@Enumeration@Devices@Windows@@@std@@$00@Collections@Platform@@GCI@E$AAAXIPE$AAVObject@8@@Z 000000018003b84c f i _nodert_generated.obj
 0001:0003a860       ?BindableSetAt@?QIBindableVector@Interop@Xaml@UI@Windows@@?$Vector@PE$AAVString@Platform@@U?$equal_to@PE$AAVString@Platform@@@std@@$00@Collections@Platform@@EE$AAAXIPE$AAVObject@8@@Z 000000018003b860 f i _nodert_generated.obj
 0001:0003a8cc       ?BindableSetAt@?QIBindableVector@Interop@Xaml@UI@Windows@@?$Vector@PE$AAVString@Platform@@U?$equal_to@PE$AAVString@Platform@@@std@@$00@Collections@Platform@@GCI@E$AAAXIPE$AAVObject@8@@Z 000000018003b8cc f i _nodert_generated.obj
 0001:0003a8e0       ?BindableSetAt@?QIBindableVector@Interop@Xaml@UI@Windows@@?$Vector@W4DeviceWatcherEventKind@Enumeration@Devices@Windows@@U?$equal_to@W4DeviceWatcherEventKind@Enumeration@Devices@Windows@@@std@@$00@Collections@Platform@@EE$AAAXIPE$AAVObject@8@@Z 000000018003b8e0 f i _nodert_generated.obj
 0001:0003a91c       ?BindableSetAt@?QIBindableVector@Interop@Xaml@UI@Windows@@?$Vector@W4DeviceWatcherEventKind@Enumeration@Devices@Windows@@U?$equal_to@W4DeviceWatcherEventKind@Enumeration@Devices@Windows@@@std@@$00@Collections@Platform@@GCI@E$AAAXIPE$AAVObject@8@@Z 000000018003b91c f i _nodert_generated.obj
 0001:0003a930       ?CanPairGetter@DeviceInformationPairing@Enumeration@Devices@Windows@NodeRT@@CAXV?$Local@VString@v8@@@v8@@AEBV?$PropertyCallbackInfo@VValue@v8@@@Nan@@@Z 000000018003b930 f i _nodert_generated.obj
 0001:0003aa20       ?CanReadGetter@DeviceThumbnail@Enumeration@Devices@Windows@NodeRT@@CAXV?$Local@VString@v8@@@v8@@AEBV?$PropertyCallbackInfo@VValue@v8@@@Nan@@@Z 000000018003ba20 f i _nodert_generated.obj
 0001:0003ab70       ?CanWriteGetter@DeviceThumbnail@Enumeration@Devices@Windows@NodeRT@@CAXV?$Local@VString@v8@@@v8@@AEBV?$PropertyCallbackInfo@VValue@v8@@@Nan@@@Z 000000018003bb70 f i _nodert_generated.obj
 0001:0003acc0       ?Cancel@?QIAsyncInfo@Foundation@Windows@@?$_AsyncInfoImpl@PE$AAU?$IAsyncOperationWithProgress@II@Foundation@Windows@@V?$AsyncOperationWithProgressCompletedHandler@II@23@I@details@Concurrency@@UE$AAAXXZ 000000018003bcc0 f i _nodert_generated.obj
 0001:0003ad7c       ?Cancel@?QIAsyncInfo@Foundation@Windows@@?$_AsyncInfoImpl@PE$AAU?$IAsyncOperationWithProgress@II@Foundation@Windows@@V?$AsyncOperationWithProgressCompletedHandler@II@23@I@details@Concurrency@@WBA@E$AAAXXZ 000000018003bd7c f i _nodert_generated.obj
 0001:0003ad90       ?Cancel@?QIAsyncInfo@Foundation@Windows@@?$_AsyncInfoImpl@PE$AAU?$IAsyncOperationWithProgress@PE$AAUIBuffer@Streams@Storage@Windows@@I@Foundation@Windows@@V?$AsyncOperationWithProgressCompletedHandler@PE$AAUIBuffer@Streams@Storage@Windows@@I@23@PE$AAUIBuffer@Streams@Storage@3@@details@Concurrency@@UE$AAAXXZ 000000018003bd90 f i _nodert_generated.obj
 0001:0003ae4c       ?Cancel@?QIAsyncInfo@Foundation@Windows@@?$_AsyncInfoImpl@PE$AAU?$IAsyncOperationWithProgress@PE$AAUIBuffer@Streams@Storage@Windows@@I@Foundation@Windows@@V?$AsyncOperationWithProgressCompletedHandler@PE$AAUIBuffer@Streams@Storage@Windows@@I@23@PE$AAUIBuffer@Streams@Storage@3@@details@Concurrency@@WBA@E$AAAXXZ 000000018003be4c f i _nodert_generated.obj
 0001:0003ae60       ?Cancel@IAsyncInfo@Foundation@Windows@@UE$AAAXXZ 000000018003be60 f i _nodert_generated.obj
 0001:0003ae90       ?CaptureContext@?$Agile@PE$AAU?$IAsyncOperationWithProgress@II@Foundation@Windows@@$00@Platform@@AEAAXXZ 000000018003be90 f i _nodert_generated.obj
 0001:0003af10       ?CaptureContext@?$Agile@PE$AAU?$IAsyncOperationWithProgress@PE$AAUIBuffer@Streams@Storage@Windows@@I@Foundation@Windows@@$00@Platform@@AEAAXXZ 000000018003bf10 f i _nodert_generated.obj
 0001:0003af90       ?CastFrom@DeviceAccessChangedEventArgs@Enumeration@Devices@Windows@NodeRT@@CAXAEBV?$FunctionCallbackInfo@VValue@v8@@@Nan@@@Z 000000018003bf90 f i _nodert_generated.obj
 0001:0003b1c0       ?CastFrom@DeviceAccessInformation@Enumeration@Devices@Windows@NodeRT@@CAXAEBV?$FunctionCallbackInfo@VValue@v8@@@Nan@@@Z 000000018003c1c0 f i _nodert_generated.obj
 0001:0003b3f0       ?CastFrom@DeviceConnectionChangeTriggerDetails@Enumeration@Devices@Windows@NodeRT@@CAXAEBV?$FunctionCallbackInfo@VValue@v8@@@Nan@@@Z 000000018003c3f0 f i _nodert_generated.obj
 0001:0003b620       ?CastFrom@DeviceDisconnectButtonClickedEventArgs@Enumeration@Devices@Windows@NodeRT@@CAXAEBV?$FunctionCallbackInfo@VValue@v8@@@Nan@@@Z 000000018003c620 f i _nodert_generated.obj
 0001:0003b850       ?CastFrom@DeviceInformation@Enumeration@Devices@Windows@NodeRT@@CAXAEBV?$FunctionCallbackInfo@VValue@v8@@@Nan@@@Z 000000018003c850 f i _nodert_generated.obj
 0001:0003ba80       ?CastFrom@DeviceInformationCollection@Enumeration@Devices@Windows@NodeRT@@CAXAEBV?$FunctionCallbackInfo@VValue@v8@@@Nan@@@Z 000000018003ca80 f i _nodert_generated.obj
 0001:0003bcb0       ?CastFrom@DeviceInformationCustomPairing@Enumeration@Devices@Windows@NodeRT@@CAXAEBV?$FunctionCallbackInfo@VValue@v8@@@Nan@@@Z 000000018003ccb0 f i _nodert_generated.obj
 0001:0003bee0       ?CastFrom@DeviceInformationPairing@Enumeration@Devices@Windows@NodeRT@@CAXAEBV?$FunctionCallbackInfo@VValue@v8@@@Nan@@@Z 000000018003cee0 f i _nodert_generated.obj
 0001:0003c110       ?CastFrom@DeviceInformationUpdate@Enumeration@Devices@Windows@NodeRT@@CAXAEBV?$FunctionCallbackInfo@VValue@v8@@@Nan@@@Z 000000018003d110 f i _nodert_generated.obj
 0001:0003c340       ?CastFrom@DevicePairingRequestedEventArgs@Enumeration@Devices@Windows@NodeRT@@CAXAEBV?$FunctionCallbackInfo@VValue@v8@@@Nan@@@Z 000000018003d340 f i _nodert_generated.obj
 0001:0003c570       ?CastFrom@DevicePairingResult@Enumeration@Devices@Windows@NodeRT@@CAXAEBV?$FunctionCallbackInfo@VValue@v8@@@Nan@@@Z 000000018003d570 f i _nodert_generated.obj
 0001:0003c7a0       ?CastFrom@DevicePicker@Enumeration@Devices@Windows@NodeRT@@CAXAEBV?$FunctionCallbackInfo@VValue@v8@@@Nan@@@Z 000000018003d7a0 f i _nodert_generated.obj
 0001:0003c9d0       ?CastFrom@DevicePickerAppearance@Enumeration@Devices@Windows@NodeRT@@CAXAEBV?$FunctionCallbackInfo@VValue@v8@@@Nan@@@Z 000000018003d9d0 f i _nodert_generated.obj
 0001:0003cc00       ?CastFrom@DevicePickerFilter@Enumeration@Devices@Windows@NodeRT@@CAXAEBV?$FunctionCallbackInfo@VValue@v8@@@Nan@@@Z 000000018003dc00 f i _nodert_generated.obj
 0001:0003ce30       ?CastFrom@DeviceSelectedEventArgs@Enumeration@Devices@Windows@NodeRT@@CAXAEBV?$FunctionCallbackInfo@VValue@v8@@@Nan@@@Z 000000018003de30 f i _nodert_generated.obj
 0001:0003d060       ?CastFrom@DeviceThumbnail@Enumeration@Devices@Windows@NodeRT@@CAXAEBV?$FunctionCallbackInfo@VValue@v8@@@Nan@@@Z 000000018003e060 f i _nodert_generated.obj
 0001:0003d290       ?CastFrom@DeviceUnpairingResult@Enumeration@Devices@Windows@NodeRT@@CAXAEBV?$FunctionCallbackInfo@VValue@v8@@@Nan@@@Z 000000018003e290 f i _nodert_generated.obj
 0001:0003d4c0       ?CastFrom@DeviceWatcher@Enumeration@Devices@Windows@NodeRT@@CAXAEBV?$FunctionCallbackInfo@VValue@v8@@@Nan@@@Z 000000018003e4c0 f i _nodert_generated.obj
 0001:0003d6f0       ?CastFrom@DeviceWatcherEvent@Enumeration@Devices@Windows@NodeRT@@CAXAEBV?$FunctionCallbackInfo@VValue@v8@@@Nan@@@Z 000000018003e6f0 f i _nodert_generated.obj
 0001:0003d920       ?CastFrom@DeviceWatcherTriggerDetails@Enumeration@Devices@Windows@NodeRT@@CAXAEBV?$FunctionCallbackInfo@VValue@v8@@@Nan@@@Z 000000018003e920 f i _nodert_generated.obj
 0001:0003db50       ?CastFrom@EnclosureLocation@Enumeration@Devices@Windows@NodeRT@@CAXAEBV?$FunctionCallbackInfo@VValue@v8@@@Nan@@@Z 000000018003eb50 f i _nodert_generated.obj
 0001:0003dd80       ?CastFrom@IDevicePairingSettings@Enumeration@Devices@Windows@NodeRT@@CAXAEBV?$FunctionCallbackInfo@VValue@v8@@@Nan@@@Z 000000018003ed80 f i _nodert_generated.obj
 0001:0003dfb0       ?Clear@?$IVector@PE$AAVString@Platform@@@Collections@Foundation@Windows@@UE$AAAXXZ 000000018003efb0 f i _nodert_generated.obj
 0001:0003dfe0       ?Clear@?$IVector@W4DeviceClass@Enumeration@Devices@Windows@@@Collections@Foundation@Windows@@UE$AAAXXZ 000000018003efe0 f i _nodert_generated.obj
 0001:0003e010       ?Clear@?$VectorWrapper@PE$AAVString@Platform@@@Collections@NodeRT@@CAXAEBV?$FunctionCallbackInfo@VValue@v8@@@Nan@@@Z 000000018003f010 f i _nodert_generated.obj
 0001:0003e100       ?Clear@?$VectorWrapper@W4DeviceClass@Enumeration@Devices@Windows@@@Collections@NodeRT@@CAXAEBV?$FunctionCallbackInfo@VValue@v8@@@Nan@@@Z 000000018003f100 f i _nodert_generated.obj
 0001:0003e1f0       ?Clear@?Q?$IVector@PE$AAVString@Platform@@@Collections@Foundation@Windows@@?$Vector@PE$AAVString@Platform@@U?$equal_to@PE$AAVString@Platform@@@std@@$00@2Platform@@UE$AAAXXZ 000000018003f1f0 f i _nodert_generated.obj
 0001:0003e238       ?Clear@?Q?$IVector@PE$AAVString@Platform@@@Collections@Foundation@Windows@@?$Vector@PE$AAVString@Platform@@U?$equal_to@PE$AAVString@Platform@@@std@@$00@2Platform@@W7E$AAAXXZ 000000018003f238 f i _nodert_generated.obj
 0001:0003e244       ?Clear@?Q?$IVector@PE$AAVString@Platform@@@Collections@Foundation@Windows@@?$Vector@PE$AAVString@Platform@@U?$equal_to@PE$AAVString@Platform@@@std@@$00@2Platform@@WCI@E$AAAXXZ 000000018003f244 f i _nodert_generated.obj
 0001:0003e250       ?Clear@?Q?$IVector@W4DeviceWatcherEventKind@Enumeration@Devices@Windows@@@Collections@Foundation@Windows@@?$Vector@W4DeviceWatcherEventKind@Enumeration@Devices@Windows@@U?$equal_to@W4DeviceWatcherEventKind@Enumeration@Devices@Windows@@@std@@$00@2Platform@@UE$AAAXXZ 000000018003f250 f i _nodert_generated.obj
 0001:0003e298       ?Clear@?Q?$IVector@W4DeviceWatcherEventKind@Enumeration@Devices@Windows@@@Collections@Foundation@Windows@@?$Vector@W4DeviceWatcherEventKind@Enumeration@Devices@Windows@@U?$equal_to@W4DeviceWatcherEventKind@Enumeration@Devices@Windows@@@std@@$00@2Platform@@W7E$AAAXXZ 000000018003f298 f i _nodert_generated.obj
 0001:0003e2a4       ?Clear@?Q?$IVector@W4DeviceWatcherEventKind@Enumeration@Devices@Windows@@@Collections@Foundation@Windows@@?$Vector@W4DeviceWatcherEventKind@Enumeration@Devices@Windows@@U?$equal_to@W4DeviceWatcherEventKind@Enumeration@Devices@Windows@@@std@@$00@2Platform@@WCI@E$AAAXXZ 000000018003f2a4 f i _nodert_generated.obj
 0001:0003e2b0       ?CloneStream@DeviceThumbnail@Enumeration@Devices@Windows@NodeRT@@CAXAEBV?$FunctionCallbackInfo@VValue@v8@@@Nan@@@Z 000000018003f2b0 f i _nodert_generated.obj
 0001:0003e4d0       ?CloneStream@IRandomAccessStream@Streams@Storage@Windows@@UE$AAAPE$AAU1234@XZ 000000018003f4d0 f i _nodert_generated.obj
 0001:0003e550       ?Close@?QIAsyncInfo@Foundation@Windows@@?$_AsyncInfoImpl@PE$AAU?$IAsyncOperationWithProgress@II@Foundation@Windows@@V?$AsyncOperationWithProgressCompletedHandler@II@23@I@details@Concurrency@@UE$AAAXXZ 000000018003f550 f i _nodert_generated.obj
 0001:0003e60c       ?Close@?QIAsyncInfo@Foundation@Windows@@?$_AsyncInfoImpl@PE$AAU?$IAsyncOperationWithProgress@II@Foundation@Windows@@V?$AsyncOperationWithProgressCompletedHandler@II@23@I@details@Concurrency@@WBA@E$AAAXXZ 000000018003f60c f i _nodert_generated.obj
 0001:0003e620       ?Close@?QIAsyncInfo@Foundation@Windows@@?$_AsyncInfoImpl@PE$AAU?$IAsyncOperationWithProgress@PE$AAUIBuffer@Streams@Storage@Windows@@I@Foundation@Windows@@V?$AsyncOperationWithProgressCompletedHandler@PE$AAUIBuffer@Streams@Storage@Windows@@I@23@PE$AAUIBuffer@Streams@Storage@3@@details@Concurrency@@UE$AAAXXZ 000000018003f620 f i _nodert_generated.obj
 0001:0003e6dc       ?Close@?QIAsyncInfo@Foundation@Windows@@?$_AsyncInfoImpl@PE$AAU?$IAsyncOperationWithProgress@PE$AAUIBuffer@Streams@Storage@Windows@@I@Foundation@Windows@@V?$AsyncOperationWithProgressCompletedHandler@PE$AAUIBuffer@Streams@Storage@Windows@@I@23@PE$AAUIBuffer@Streams@Storage@3@@details@Concurrency@@WBA@E$AAAXXZ 000000018003f6dc f i _nodert_generated.obj
 0001:0003e6f0       ?Close@DeviceThumbnail@Enumeration@Devices@Windows@NodeRT@@CAXAEBV?$FunctionCallbackInfo@VValue@v8@@@Nan@@@Z 000000018003f6f0 f i _nodert_generated.obj
 0001:0003e880       ?Close@IAsyncInfo@Foundation@Windows@@UE$AAAXXZ 000000018003f880 f i _nodert_generated.obj
 0001:0003e8b0       ?ColorFromJsObject@Enumeration@Devices@Windows@NodeRT@@YA?AVColor@UI@3@V?$Local@VValue@v8@@@v8@@@Z 000000018003f8b0 f   _nodert_generated.obj
 0001:0003e990       ?ColorToJsObject@Enumeration@Devices@Windows@NodeRT@@YA?AV?$Local@VValue@v8@@@v8@@VColor@UI@3@@Z 000000018003f990 f   _nodert_generated.obj
 0001:0003ea10       ?ContentTypeGetter@DeviceThumbnail@Enumeration@Devices@Windows@NodeRT@@CAXV?$Local@VString@v8@@@v8@@AEBV?$PropertyCallbackInfo@VValue@v8@@@Nan@@@Z 000000018003fa10 f i _nodert_generated.obj
 0001:0003ebc0       ?CopyToOrDetach@?$Array@PE$AAVString@Platform@@$00@Platform@@AE$AAAXPEAPEAPE$AAVString@2@PEAI@Z 000000018003fbc0 f i _nodert_generated.obj
 0001:0003ece0       ?CopyToOrDetach@?$Array@W4DeviceClass@Enumeration@Devices@Windows@@$00@Platform@@AE$AAAXPEAPEAW4DeviceClass@Enumeration@Devices@Windows@@PEAI@Z 000000018003fce0 f i _nodert_generated.obj
 0001:0003ee00       ?CopyToOrDetach@?$Array@W4DeviceWatcherEventKind@Enumeration@Devices@Windows@@$00@Platform@@AE$AAAXPEAPEAW4DeviceWatcherEventKind@Enumeration@Devices@Windows@@PEAI@Z 000000018003fe00 f i _nodert_generated.obj
 0001:0003ef20       ?CreateCallbackData@Async@NodeUtils@@CA?AV?$Local@VObject@v8@@@v8@@V?$Local@VFunction@v8@@@4@V?$Local@VValue@v8@@@4@@Z 000000018003ff20 f i _nodert_generated.obj
 0001:0003f200       ?CreateFromDeviceClass@DeviceAccessInformation@Enumeration@Devices@Windows@@SAPE$AAV1234@W4DeviceClass@234@@Z 0000000180040200 f i _nodert_generated.obj
 0001:0003f310       ?CreateFromDeviceClass@DeviceAccessInformation@Enumeration@Devices@Windows@NodeRT@@CAXAEBV?$FunctionCallbackInfo@VValue@v8@@@Nan@@@Z 0000000180040310 f i _nodert_generated.obj
 0001:0003f4d0       ?CreateFromDeviceClass@IDeviceAccessInformationStatics@Enumeration@Devices@Windows@@UE$AAAPE$AAVDeviceAccessInformation@234@W4DeviceClass@234@@Z 00000001800404d0 f i _nodert_generated.obj
 0001:0003f550       ?CreateFromDeviceClassId@DeviceAccessInformation@Enumeration@Devices@Windows@@SAPE$AAV1234@VGuid@Platform@@@Z 0000000180040550 f i _nodert_generated.obj
 0001:0003f670       ?CreateFromDeviceClassId@DeviceAccessInformation@Enumeration@Devices@Windows@NodeRT@@CAXAEBV?$FunctionCallbackInfo@VValue@v8@@@Nan@@@Z 0000000180040670 f i _nodert_generated.obj
 0001:0003f850       ?CreateFromDeviceClassId@IDeviceAccessInformationStatics@Enumeration@Devices@Windows@@UE$AAAPE$AAVDeviceAccessInformation@234@VGuid@Platform@@@Z 0000000180040850 f i _nodert_generated.obj
 0001:0003f8e0       ?CreateFromId@DeviceAccessInformation@Enumeration@Devices@Windows@@SAPE$AAV1234@PE$AAVString@Platform@@@Z 00000001800408e0 f i _nodert_generated.obj
 0001:0003f9f0       ?CreateFromId@DeviceAccessInformation@Enumeration@Devices@Windows@NodeRT@@CAXAEBV?$FunctionCallbackInfo@VValue@v8@@@Nan@@@Z 00000001800409f0 f i _nodert_generated.obj
 0001:0003fc80       ?CreateFromId@IDeviceAccessInformationStatics@Enumeration@Devices@Windows@@UE$AAAPE$AAVDeviceAccessInformation@234@PE$AAVString@Platform@@@Z 0000000180040c80 f i _nodert_generated.obj
 0001:0003fd00       ?CreateFromIdAsync@DeviceInformation@Enumeration@Devices@Windows@@SAPE$AAU?$IAsyncOperation@PE$AAVDeviceInformation@Enumeration@Devices@Windows@@@Foundation@4@PE$AAVString@Platform@@@Z 0000000180040d00 f i _nodert_generated.obj
 0001:0003fe10       ?CreateFromIdAsync@DeviceInformation@Enumeration@Devices@Windows@@SAPE$AAU?$IAsyncOperation@PE$AAVDeviceInformation@Enumeration@Devices@Windows@@@Foundation@4@PE$AAVString@Platform@@PE$AAU?$IIterable@PE$AAVString@Platform@@@Collections@64@@Z 0000000180040e10 f i _nodert_generated.obj
 0001:0003ff20       ?CreateFromIdAsync@DeviceInformation@Enumeration@Devices@Windows@@SAPE$AAU?$IAsyncOperation@PE$AAVDeviceInformation@Enumeration@Devices@Windows@@@Foundation@4@PE$AAVString@Platform@@PE$AAU?$IIterable@PE$AAVString@Platform@@@Collections@64@W4DeviceInformationKind@234@@Z 0000000180040f20 f i _nodert_generated.obj
 0001:00040050       ?CreateFromIdAsync@DeviceInformation@Enumeration@Devices@Windows@NodeRT@@CAXAEBV?$FunctionCallbackInfo@VValue@v8@@@Nan@@@Z 0000000180041050 f i _nodert_generated.obj
 0001:00040940       ?CreateFromIdAsync@IDeviceInformationStatics2@Enumeration@Devices@Windows@@UE$AAAPE$AAU?$IAsyncOperation@PE$AAVDeviceInformation@Enumeration@Devices@Windows@@@Foundation@4@PE$AAVString@Platform@@PE$AAU?$IIterable@PE$AAVString@Platform@@@Collections@64@W4DeviceInformationKind@234@@Z 0000000180041940 f i _nodert_generated.obj
 0001:000409c0       ?CreateFromIdAsync@IDeviceInformationStatics@Enumeration@Devices@Windows@@UE$AAAPE$AAU?$IAsyncOperation@PE$AAVDeviceInformation@Enumeration@Devices@Windows@@@Foundation@4@PE$AAVString@Platform@@@Z 00000001800419c0 f i _nodert_generated.obj
 0001:00040a40       ?CreateFromIdAsync@IDeviceInformationStatics@Enumeration@Devices@Windows@@UE$AAAPE$AAU?$IAsyncOperation@PE$AAVDeviceInformation@Enumeration@Devices@Windows@@@Foundation@4@PE$AAVString@Platform@@PE$AAU?$IIterable@PE$AAVString@Platform@@@Collections@64@@Z 0000000180041a40 f i _nodert_generated.obj
 0001:00040ac0       ?CreateInt64@IPropertyValueStatics@Foundation@Windows@@UE$AAAPE$AAVObject@Platform@@_J@Z 0000000180041ac0 f i _nodert_generated.obj
 0001:00040b40       ?CreateInt64@PropertyValue@Foundation@Windows@@SAPE$AAVObject@Platform@@_J@Z 0000000180041b40 f i _nodert_generated.obj
 0001:00040c50       ?CreateIteratorWrapper@?$IteratorWrapper@PE$AAU?$IKeyValuePair@PE$AAVString@Platform@@PE$AAVObject@2@@Collections@Foundation@Windows@@@Collections@NodeRT@@SA?AV?$Local@VValue@v8@@@v8@@PE$AAU?$IIterator@PE$AAU?$IKeyValuePair@PE$AAVString@Platform@@PE$AAVObject@2@@Collections@Foundation@Windows@@@2Foundation@Windows@@AEBV?$function@$$A6A?AV?$Local@VValue@v8@@@v8@@PE$AAU?$IKeyValuePair@PE$AAVString@Platform@@PE$AAVObject@2@@Collections@Foundation@Windows@@@Z@std@@@Z 0000000180041c50 f i _nodert_generated.obj
 0001:00040df0       ?CreateIteratorWrapper@?$IteratorWrapper@PE$AAVDeviceInformation@Enumeration@Devices@Windows@@@Collections@NodeRT@@SA?AV?$Local@VValue@v8@@@v8@@PE$AAU?$IIterator@PE$AAVDeviceInformation@Enumeration@Devices@Windows@@@2Foundation@Windows@@AEBV?$function@$$A6A?AV?$Local@VValue@v8@@@v8@@PE$AAVDeviceInformation@Enumeration@Devices@Windows@@@Z@std@@@Z 0000000180041df0 f i _nodert_generated.obj
 0001:00040f90       ?CreateIteratorWrapper@?$IteratorWrapper@PE$AAVDeviceWatcherEvent@Enumeration@Devices@Windows@@@Collections@NodeRT@@SA?AV?$Local@VValue@v8@@@v8@@PE$AAU?$IIterator@PE$AAVDeviceWatcherEvent@Enumeration@Devices@Windows@@@2Foundation@Windows@@AEBV?$function@$$A6A?AV?$Local@VValue@v8@@@v8@@PE$AAVDeviceWatcherEvent@Enumeration@Devices@Windows@@@Z@std@@@Z 0000000180041f90 f i _nodert_generated.obj
 0001:00041130       ?CreateIteratorWrapper@?$IteratorWrapper@PE$AAVString@Platform@@@Collections@NodeRT@@SA?AV?$Local@VValue@v8@@@v8@@PE$AAU?$IIterator@PE$AAVString@Platform@@@2Foundation@Windows@@AEBV?$function@$$A6A?AV?$Local@VValue@v8@@@v8@@PE$AAVString@Platform@@@Z@std@@@Z 0000000180042130 f i _nodert_generated.obj
 0001:000412d0       ?CreateIteratorWrapper@?$IteratorWrapper@W4DeviceClass@Enumeration@Devices@Windows@@@Collections@NodeRT@@SA?AV?$Local@VValue@v8@@@v8@@PE$AAU?$IIterator@W4DeviceClass@Enumeration@Devices@Windows@@@2Foundation@Windows@@AEBV?$function@$$A6A?AV?$Local@VValue@v8@@@v8@@W4DeviceClass@Enumeration@Devices@Windows@@@Z@std@@@Z 00000001800422d0 f i _nodert_generated.obj
 0001:00041470       ?CreateKeyValuePairWrapper@?$KeyValuePairWrapper@PE$AAVString@Platform@@PE$AAVObject@2@@Collections@NodeRT@@SA?AV?$Local@VValue@v8@@@v8@@PE$AAU?$IKeyValuePair@PE$AAVString@Platform@@PE$AAVObject@2@@2Foundation@Windows@@AEBV?$function@$$A6A?AV?$Local@VValue@v8@@@v8@@PE$AAVString@Platform@@@Z@std@@AEBV?$function@$$A6A?AV?$Local@VValue@v8@@@v8@@PE$AAVObject@Platform@@@Z@std@@@Z 0000000180042470 f i _nodert_generated.obj
 0001:00041620       ?CreateMapViewWrapper@?$MapViewWrapper@PE$AAVString@Platform@@PE$AAVObject@2@@Collections@NodeRT@@SA?AV?$Local@VValue@v8@@@v8@@PE$AAU?$IMapView@PE$AAVString@Platform@@PE$AAVObject@2@@2Foundation@Windows@@AEBV?$function@$$A6A?AV?$Local@VValue@v8@@@v8@@PE$AAVString@Platform@@@Z@std@@AEBV?$function@$$A6A_NV?$Local@VValue@v8@@@v8@@@Z@std@@AEBV?$function@$$A6APE$AAVString@Platform@@V?$Local@VValue@v8@@@v8@@@Z@std@@AEBV?$function@$$A6A?AV?$Local@VValue@v8@@@v8@@PE$AAVObject@Platform@@@Z@std@@@Z 0000000180042620 f i _nodert_generated.obj
 0001:000417f0       ?CreateVectorViewWrapper@?$VectorViewWrapper@PE$AAVDeviceWatcherEvent@Enumeration@Devices@Windows@@@Collections@NodeRT@@SA?AV?$Local@VValue@v8@@@v8@@PE$AAU?$IVectorView@PE$AAVDeviceWatcherEvent@Enumeration@Devices@Windows@@@2Foundation@Windows@@AEBV?$function@$$A6A?AV?$Local@VValue@v8@@@v8@@PE$AAVDeviceWatcherEvent@Enumeration@Devices@Windows@@@Z@std@@AEBV?$function@$$A6A_NV?$Local@VValue@v8@@@v8@@@Z@std@@AEBV?$function@$$A6APE$AAVDeviceWatcherEvent@Enumeration@Devices@Windows@@V?$Local@VValue@v8@@@v8@@@Z@std@@@Z 00000001800427f0 f i _nodert_generated.obj
 0001:00041a90       ?CreateVectorViewWrapper@?$VectorViewWrapper@PE$AAVString@Platform@@@Collections@NodeRT@@SA?AV?$Local@VValue@v8@@@v8@@PE$AAU?$IVectorView@PE$AAVString@Platform@@@2Foundation@Windows@@AEBV?$function@$$A6A?AV?$Local@VValue@v8@@@v8@@PE$AAVString@Platform@@@Z@std@@AEBV?$function@$$A6A_NV?$Local@VValue@v8@@@v8@@@Z@std@@AEBV?$function@$$A6APE$AAVString@Platform@@V?$Local@VValue@v8@@@v8@@@Z@std@@@Z 0000000180042a90 f i _nodert_generated.obj
 0001:00041d30       ?CreateVectorViewWrapper@?$VectorViewWrapper@W4DeviceClass@Enumeration@Devices@Windows@@@Collections@NodeRT@@SA?AV?$Local@VValue@v8@@@v8@@PE$AAU?$IVectorView@W4DeviceClass@Enumeration@Devices@Windows@@@2Foundation@Windows@@AEBV?$function@$$A6A?AV?$Local@VValue@v8@@@v8@@W4DeviceClass@Enumeration@Devices@Windows@@@Z@std@@AEBV?$function@$$A6A_NV?$Local@VValue@v8@@@v8@@@Z@std@@AEBV?$function@$$A6A?AW4DeviceClass@Enumeration@Devices@Windows@@V?$Local@VValue@v8@@@v8@@@Z@std@@@Z 0000000180042d30 f i _nodert_generated.obj
 0001:00041fd0       ?CreateVectorWrapper@?$VectorWrapper@PE$AAVString@Platform@@@Collections@NodeRT@@SA?AV?$Local@VValue@v8@@@v8@@PE$AAU?$IVector@PE$AAVString@Platform@@@2Foundation@Windows@@AEBV?$function@$$A6A?AV?$Local@VValue@v8@@@v8@@PE$AAVString@Platform@@@Z@std@@AEBV?$function@$$A6A_NV?$Local@VValue@v8@@@v8@@@Z@std@@AEBV?$function@$$A6APE$AAVString@Platform@@V?$Local@VValue@v8@@@v8@@@Z@std@@@Z 0000000180042fd0 f i _nodert_generated.obj
 0001:00042190       ?CreateVectorWrapper@?$VectorWrapper@W4DeviceClass@Enumeration@Devices@Windows@@@Collections@NodeRT@@SA?AV?$Local@VValue@v8@@@v8@@PE$AAU?$IVector@W4DeviceClass@Enumeration@Devices@Windows@@@2Foundation@Windows@@AEBV?$function@$$A6A?AV?$Local@VValue@v8@@@v8@@W4DeviceClass@Enumeration@Devices@Windows@@@Z@std@@AEBV?$function@$$A6A_NV?$Local@VValue@v8@@@v8@@@Z@std@@AEBV?$function@$$A6A?AW4DeviceClass@Enumeration@Devices@Windows@@V?$Local@VValue@v8@@@v8@@@Z@std@@@Z 0000000180043190 f i _nodert_generated.obj
 0001:00042350       ?CreateWatcher@DeviceInformation@Enumeration@Devices@Windows@@SAPE$AAVDeviceWatcher@234@PE$AAVString@Platform@@@Z 0000000180043350 f i _nodert_generated.obj
 0001:00042460       ?CreateWatcher@DeviceInformation@Enumeration@Devices@Windows@@SAPE$AAVDeviceWatcher@234@PE$AAVString@Platform@@PE$AAU?$IIterable@PE$AAVString@Platform@@@Collections@Foundation@4@@Z 0000000180043460 f i _nodert_generated.obj
 0001:00042570       ?CreateWatcher@DeviceInformation@Enumeration@Devices@Windows@@SAPE$AAVDeviceWatcher@234@PE$AAVString@Platform@@PE$AAU?$IIterable@PE$AAVString@Platform@@@Collections@Foundation@4@W4DeviceInformationKind@234@@Z 0000000180043570 f i _nodert_generated.obj
 0001:000426a0       ?CreateWatcher@DeviceInformation@Enumeration@Devices@Windows@@SAPE$AAVDeviceWatcher@234@W4DeviceClass@234@@Z 00000001800436a0 f i _nodert_generated.obj
 0001:000427b0       ?CreateWatcher@DeviceInformation@Enumeration@Devices@Windows@@SAPE$AAVDeviceWatcher@234@XZ 00000001800437b0 f i _nodert_generated.obj
 0001:000428c0       ?CreateWatcher@DeviceInformation@Enumeration@Devices@Windows@NodeRT@@CAXAEBV?$FunctionCallbackInfo@VValue@v8@@@Nan@@@Z 00000001800438c0 f i _nodert_generated.obj
 0001:00043320       ?CreateWatcher@IDeviceInformationStatics2@Enumeration@Devices@Windows@@UE$AAAPE$AAVDeviceWatcher@234@PE$AAVString@Platform@@PE$AAU?$IIterable@PE$AAVString@Platform@@@Collections@Foundation@4@W4DeviceInformationKind@234@@Z 0000000180044320 f i _nodert_generated.obj
 0001:000433a0       ?CreateWatcher@IDeviceInformationStatics@Enumeration@Devices@Windows@@UE$AAAPE$AAVDeviceWatcher@234@PE$AAVString@Platform@@@Z 00000001800443a0 f i _nodert_generated.obj
 0001:00043420       ?CreateWatcher@IDeviceInformationStatics@Enumeration@Devices@Windows@@UE$AAAPE$AAVDeviceWatcher@234@PE$AAVString@Platform@@PE$AAU?$IIterable@PE$AAVString@Platform@@@Collections@Foundation@4@@Z 0000000180044420 f i _nodert_generated.obj
 0001:000434a0       ?CreateWatcher@IDeviceInformationStatics@Enumeration@Devices@Windows@@UE$AAAPE$AAVDeviceWatcher@234@W4DeviceClass@234@@Z 00000001800444a0 f i _nodert_generated.obj
 0001:00043520       ?CreateWatcher@IDeviceInformationStatics@Enumeration@Devices@Windows@@UE$AAAPE$AAVDeviceWatcher@234@XZ 0000000180044520 f i _nodert_generated.obj
 0001:000435a0       ?CurrentGetter@?$IteratorWrapper@PE$AAU?$IKeyValuePair@PE$AAVString@Platform@@PE$AAVObject@2@@Collections@Foundation@Windows@@@Collections@NodeRT@@CAXV?$Local@VString@v8@@@v8@@AEBV?$PropertyCallbackInfo@VValue@v8@@@Nan@@@Z 00000001800445a0 f i _nodert_generated.obj
 0001:00043730       ?CurrentGetter@?$IteratorWrapper@PE$AAVDeviceInformation@Enumeration@Devices@Windows@@@Collections@NodeRT@@CAXV?$Local@VString@v8@@@v8@@AEBV?$PropertyCallbackInfo@VValue@v8@@@Nan@@@Z 0000000180044730 f i _nodert_generated.obj
 0001:000438c0       ?CurrentGetter@?$IteratorWrapper@PE$AAVDeviceWatcherEvent@Enumeration@Devices@Windows@@@Collections@NodeRT@@CAXV?$Local@VString@v8@@@v8@@AEBV?$PropertyCallbackInfo@VValue@v8@@@Nan@@@Z 00000001800448c0 f i _nodert_generated.obj
 0001:00043a50       ?CurrentGetter@?$IteratorWrapper@PE$AAVString@Platform@@@Collections@NodeRT@@CAXV?$Local@VString@v8@@@v8@@AEBV?$PropertyCallbackInfo@VValue@v8@@@Nan@@@Z 0000000180044a50 f i _nodert_generated.obj
 0001:00043c00       ?CurrentGetter@?$IteratorWrapper@W4DeviceClass@Enumeration@Devices@Windows@@@Collections@NodeRT@@CAXV?$Local@VString@v8@@@v8@@AEBV?$PropertyCallbackInfo@VValue@v8@@@Nan@@@Z 0000000180044c00 f i _nodert_generated.obj
 0001:00043db0       ?CurrentStatusGetter@DeviceAccessInformation@Enumeration@Devices@Windows@NodeRT@@CAXV?$Local@VString@v8@@@v8@@AEBV?$PropertyCallbackInfo@VValue@v8@@@Nan@@@Z 0000000180044db0 f i _nodert_generated.obj
 0001:00043ed0       ?CustomGetter@DeviceInformationPairing@Enumeration@Devices@Windows@NodeRT@@CAXV?$Local@VString@v8@@@v8@@AEBV?$PropertyCallbackInfo@VValue@v8@@@Nan@@@Z 0000000180044ed0 f i _nodert_generated.obj
 0001:00044090       ?Decrement@__abi_FTMWeakRefData@@QECAKXZ 0000000180045090 f i _nodert_generated.obj
 0001:00044140       ?Delete@Nan@@YA?AV?$Maybe@_N@v8@@V?$Local@VObject@v8@@@3@V?$Local@VString@v8@@@3@@Z 0000000180045140 f i _nodert_generated.obj
 0001:000441e0       ?DeviceGetter@DeviceDisconnectButtonClickedEventArgs@Enumeration@Devices@Windows@NodeRT@@CAXV?$Local@VString@v8@@@v8@@AEBV?$PropertyCallbackInfo@VValue@v8@@@Nan@@@Z 00000001800451e0 f i _nodert_generated.obj
 0001:00044330       ?DeviceIdGetter@DeviceConnectionChangeTriggerDetails@Enumeration@Devices@Windows@NodeRT@@CAXV?$Local@VString@v8@@@v8@@AEBV?$PropertyCallbackInfo@VValue@v8@@@Nan@@@Z 0000000180045330 f i _nodert_generated.obj
 0001:00044470       ?DeviceInformationGetter@DevicePairingRequestedEventArgs@Enumeration@Devices@Windows@NodeRT@@CAXV?$Local@VString@v8@@@v8@@AEBV?$PropertyCallbackInfo@VValue@v8@@@Nan@@@Z 0000000180045470 f i _nodert_generated.obj
 0001:000445c0       ?DeviceInformationGetter@DeviceWatcherEvent@Enumeration@Devices@Windows@NodeRT@@CAXV?$Local@VString@v8@@@v8@@AEBV?$PropertyCallbackInfo@VValue@v8@@@Nan@@@Z 00000001800455c0 f i _nodert_generated.obj
 0001:00044710       ?DeviceInformationUpdateGetter@DeviceWatcherEvent@Enumeration@Devices@Windows@NodeRT@@CAXV?$Local@VString@v8@@@v8@@AEBV?$PropertyCallbackInfo@VValue@v8@@@Nan@@@Z 0000000180045710 f i _nodert_generated.obj
 0001:00044860       ?DeviceWatcherEventsGetter@DeviceWatcherTriggerDetails@Enumeration@Devices@Windows@NodeRT@@CAXV?$Local@VString@v8@@@v8@@AEBV?$PropertyCallbackInfo@VValue@v8@@@Nan@@@Z 0000000180045860 f i _nodert_generated.obj
 0001:00044b00       ?EnclosureLocationGetter@DeviceInformation@Enumeration@Devices@Windows@NodeRT@@CAXV?$Local@VString@v8@@@v8@@AEBV?$PropertyCallbackInfo@VValue@v8@@@Nan@@@Z 0000000180045b00 f i _nodert_generated.obj
 0001:00044c50       ?Equals@Nan@@YA?AV?$Maybe@_N@v8@@V?$Local@VValue@v8@@@3@0@Z 0000000180045c50 f i _nodert_generated.obj
 0001:00044ce0       ?FilterGetter@DevicePicker@Enumeration@Devices@Windows@NodeRT@@CAXV?$Local@VString@v8@@@v8@@AEBV?$PropertyCallbackInfo@VValue@v8@@@Nan@@@Z 0000000180045ce0 f i _nodert_generated.obj
 0001:00044e30       ?FindAllAsync@DeviceInformation@Enumeration@Devices@Windows@@SAPE$AAU?$IAsyncOperation@PE$AAVDeviceInformationCollection@Enumeration@Devices@Windows@@@Foundation@4@PE$AAVString@Platform@@@Z 0000000180045e30 f i _nodert_generated.obj
 0001:00044f40       ?FindAllAsync@DeviceInformation@Enumeration@Devices@Windows@@SAPE$AAU?$IAsyncOperation@PE$AAVDeviceInformationCollection@Enumeration@Devices@Windows@@@Foundation@4@PE$AAVString@Platform@@PE$AAU?$IIterable@PE$AAVString@Platform@@@Collections@64@@Z 0000000180045f40 f i _nodert_generated.obj
 0001:00045050       ?FindAllAsync@DeviceInformation@Enumeration@Devices@Windows@@SAPE$AAU?$IAsyncOperation@PE$AAVDeviceInformationCollection@Enumeration@Devices@Windows@@@Foundation@4@PE$AAVString@Platform@@PE$AAU?$IIterable@PE$AAVString@Platform@@@Collections@64@W4DeviceInformationKind@234@@Z 0000000180046050 f i _nodert_generated.obj
 0001:00045180       ?FindAllAsync@DeviceInformation@Enumeration@Devices@Windows@@SAPE$AAU?$IAsyncOperation@PE$AAVDeviceInformationCollection@Enumeration@Devices@Windows@@@Foundation@4@W4DeviceClass@234@@Z 0000000180046180 f i _nodert_generated.obj
 0001:00045290       ?FindAllAsync@DeviceInformation@Enumeration@Devices@Windows@@SAPE$AAU?$IAsyncOperation@PE$AAVDeviceInformationCollection@Enumeration@Devices@Windows@@@Foundation@4@XZ 0000000180046290 f i _nodert_generated.obj
 0001:000453a0       ?FindAllAsync@DeviceInformation@Enumeration@Devices@Windows@NodeRT@@CAXAEBV?$FunctionCallbackInfo@VValue@v8@@@Nan@@@Z 00000001800463a0 f i _nodert_generated.obj
 0001:00045d80       ?FindAllAsync@IDeviceInformationStatics2@Enumeration@Devices@Windows@@UE$AAAPE$AAU?$IAsyncOperation@PE$AAVDeviceInformationCollection@Enumeration@Devices@Windows@@@Foundation@4@PE$AAVString@Platform@@PE$AAU?$IIterable@PE$AAVString@Platform@@@Collections@64@W4DeviceInformationKind@234@@Z 0000000180046d80 f i _nodert_generated.obj
 0001:00045e00       ?FindAllAsync@IDeviceInformationStatics@Enumeration@Devices@Windows@@UE$AAAPE$AAU?$IAsyncOperation@PE$AAVDeviceInformationCollection@Enumeration@Devices@Windows@@@Foundation@4@PE$AAVString@Platform@@@Z 0000000180046e00 f i _nodert_generated.obj
 0001:00045e80       ?FindAllAsync@IDeviceInformationStatics@Enumeration@Devices@Windows@@UE$AAAPE$AAU?$IAsyncOperation@PE$AAVDeviceInformationCollection@Enumeration@Devices@Windows@@@Foundation@4@PE$AAVString@Platform@@PE$AAU?$IIterable@PE$AAVString@Platform@@@Collections@64@@Z 0000000180046e80 f i _nodert_generated.obj
 0001:00045f00       ?FindAllAsync@IDeviceInformationStatics@Enumeration@Devices@Windows@@UE$AAAPE$AAU?$IAsyncOperation@PE$AAVDeviceInformationCollection@Enumeration@Devices@Windows@@@Foundation@4@W4DeviceClass@234@@Z 0000000180046f00 f i _nodert_generated.obj
 0001:00045f80       ?FindAllAsync@IDeviceInformationStatics@Enumeration@Devices@Windows@@UE$AAAPE$AAU?$IAsyncOperation@PE$AAVDeviceInformationCollection@Enumeration@Devices@Windows@@@Foundation@4@XZ 0000000180046f80 f i _nodert_generated.obj
 0001:00046000       ?First@?$IIterable@PE$AAU?$IKeyValuePair@PE$AAVString@Platform@@PE$AAVObject@2@@Collections@Foundation@Windows@@@Collections@Foundation@Windows@@UE$AAAPE$AAU?$IIterator@PE$AAU?$IKeyValuePair@PE$AAVString@Platform@@PE$AAVObject@2@@Collections@Foundation@Windows@@@234@XZ 0000000180047000 f i _nodert_generated.obj
 0001:00046080       ?First@?$IIterable@PE$AAVDeviceInformation@Enumeration@Devices@Windows@@@Collections@Foundation@Windows@@UE$AAAPE$AAU?$IIterator@PE$AAVDeviceInformation@Enumeration@Devices@Windows@@@234@XZ 0000000180047080 f i _nodert_generated.obj
 0001:00046100       ?First@?$IIterable@PE$AAVDeviceWatcherEvent@Enumeration@Devices@Windows@@@Collections@Foundation@Windows@@UE$AAAPE$AAU?$IIterator@PE$AAVDeviceWatcherEvent@Enumeration@Devices@Windows@@@234@XZ 0000000180047100 f i _nodert_generated.obj
 0001:00046180       ?First@?$IIterable@PE$AAVString@Platform@@@Collections@Foundation@Windows@@UE$AAAPE$AAU?$IIterator@PE$AAVString@Platform@@@234@XZ 0000000180047180 f i _nodert_generated.obj
 0001:00046200       ?First@?$IIterable@W4DeviceClass@Enumeration@Devices@Windows@@@Collections@Foundation@Windows@@UE$AAAPE$AAU?$IIterator@W4DeviceClass@Enumeration@Devices@Windows@@@234@XZ 0000000180047200 f i _nodert_generated.obj
 0001:00046280       ?First@?$MapViewWrapper@PE$AAVString@Platform@@PE$AAVObject@2@@Collections@NodeRT@@CAXAEBV?$FunctionCallbackInfo@VValue@v8@@@Nan@@@Z 0000000180047280 f i _nodert_generated.obj
 0001:00046570       ?First@?$VectorViewWrapper@PE$AAVDeviceWatcherEvent@Enumeration@Devices@Windows@@@Collections@NodeRT@@CAXAEBV?$FunctionCallbackInfo@VValue@v8@@@Nan@@@Z 0000000180047570 f i _nodert_generated.obj
 0001:00046740       ?First@?$VectorViewWrapper@PE$AAVString@Platform@@@Collections@NodeRT@@CAXAEBV?$FunctionCallbackInfo@VValue@v8@@@Nan@@@Z 0000000180047740 f i _nodert_generated.obj
 0001:00046910       ?First@?$VectorViewWrapper@W4DeviceClass@Enumeration@Devices@Windows@@@Collections@NodeRT@@CAXAEBV?$FunctionCallbackInfo@VValue@v8@@@Nan@@@Z 0000000180047910 f i _nodert_generated.obj
 0001:00046ae0       ?First@?$VectorWrapper@PE$AAVString@Platform@@@Collections@NodeRT@@CAXAEBV?$FunctionCallbackInfo@VValue@v8@@@Nan@@@Z 0000000180047ae0 f i _nodert_generated.obj
 0001:00046cb0       ?First@?$VectorWrapper@W4DeviceClass@Enumeration@Devices@Windows@@@Collections@NodeRT@@CAXAEBV?$FunctionCallbackInfo@VValue@v8@@@Nan@@@Z 0000000180047cb0 f i _nodert_generated.obj
 0001:00046e80       ?First@?Q?$IIterable@PE$AAVString@Platform@@@Collections@Foundation@Windows@@?$Vector@PE$AAVString@Platform@@U?$equal_to@PE$AAVString@Platform@@@std@@$00@2Platform@@UE$AAAPE$AAU?$IIterator@PE$AAVString@Platform@@@234@XZ 0000000180047e80 f i _nodert_generated.obj
 0001:00046edc       ?First@?Q?$IIterable@PE$AAVString@Platform@@@Collections@Foundation@Windows@@?$Vector@PE$AAVString@Platform@@U?$equal_to@PE$AAVString@Platform@@@std@@$00@2Platform@@WBA@E$AAAPE$AAU?$IIterator@PE$AAVString@Platform@@@234@XZ 0000000180047edc f i _nodert_generated.obj
 0001:00046ef0       ?First@?Q?$IIterable@PE$AAVString@Platform@@@Collections@Foundation@Windows@@?$VectorView@PE$AAVString@Platform@@U?$equal_to@PE$AAVString@Platform@@@std@@$00@2Platform@@UE$AAAPE$AAU?$IIterator@PE$AAVString@Platform@@@234@XZ 0000000180047ef0 f i _nodert_generated.obj
 0001:00046fc0       ?First@?Q?$IIterable@PE$AAVString@Platform@@@Collections@Foundation@Windows@@?$VectorView@PE$AAVString@Platform@@U?$equal_to@PE$AAVString@Platform@@@std@@$00@2Platform@@W7E$AAAPE$AAU?$IIterator@PE$AAVString@Platform@@@234@XZ 0000000180047fc0 f i _nodert_generated.obj
 0001:00046fd0       ?First@?Q?$IIterable@W4DeviceWatcherEventKind@Enumeration@Devices@Windows@@@Collections@Foundation@Windows@@?$Vector@W4DeviceWatcherEventKind@Enumeration@Devices@Windows@@U?$equal_to@W4DeviceWatcherEventKind@Enumeration@Devices@Windows@@@std@@$00@2Platform@@UE$AAAPE$AAU?$IIterator@W4DeviceWatcherEventKind@Enumeration@Devices@Windows@@@234@XZ 0000000180047fd0 f i _nodert_generated.obj
 0001:0004702c       ?First@?Q?$IIterable@W4DeviceWatcherEventKind@Enumeration@Devices@Windows@@@Collections@Foundation@Windows@@?$Vector@W4DeviceWatcherEventKind@Enumeration@Devices@Windows@@U?$equal_to@W4DeviceWatcherEventKind@Enumeration@Devices@Windows@@@std@@$00@2Platform@@WBA@E$AAAPE$AAU?$IIterator@W4DeviceWatcherEventKind@Enumeration@Devices@Windows@@@234@XZ 000000018004802c f i _nodert_generated.obj
 0001:00047040       ?First@?Q?$IIterable@W4DeviceWatcherEventKind@Enumeration@Devices@Windows@@@Collections@Foundation@Windows@@?$VectorView@W4DeviceWatcherEventKind@Enumeration@Devices@Windows@@U?$equal_to@W4DeviceWatcherEventKind@Enumeration@Devices@Windows@@@std@@$00@2Platform@@UE$AAAPE$AAU?$IIterator@W4DeviceWatcherEventKind@Enumeration@Devices@Windows@@@234@XZ 0000000180048040 f i _nodert_generated.obj
 0001:00047110       ?First@?Q?$IIterable@W4DeviceWatcherEventKind@Enumeration@Devices@Windows@@@Collections@Foundation@Windows@@?$VectorView@W4DeviceWatcherEventKind@Enumeration@Devices@Windows@@U?$equal_to@W4DeviceWatcherEventKind@Enumeration@Devices@Windows@@@std@@$00@2Platform@@W7E$AAAPE$AAU?$IIterator@W4DeviceWatcherEventKind@Enumeration@Devices@Windows@@@234@XZ 0000000180048110 f i _nodert_generated.obj
 0001:00047120       ?First@DeviceInformationCollection@Enumeration@Devices@Windows@NodeRT@@CAXAEBV?$FunctionCallbackInfo@VValue@v8@@@Nan@@@Z 0000000180048120 f i _nodert_generated.obj
 0001:000473a0       ?FlushAsync@DeviceThumbnail@Enumeration@Devices@Windows@NodeRT@@CAXAEBV?$FunctionCallbackInfo@VValue@v8@@@Nan@@@Z 00000001800483a0 f i _nodert_generated.obj
 0001:00047760       ?FlushAsync@IOutputStream@Streams@Storage@Windows@@UE$AAAPE$AAU?$IAsyncOperation@_N@Foundation@4@XZ 0000000180048760 f i _nodert_generated.obj
 0001:000477e0       ?ForegroundColorGetter@DevicePickerAppearance@Enumeration@Devices@Windows@NodeRT@@CAXV?$Local@VString@v8@@@v8@@AEBV?$PropertyCallbackInfo@VValue@v8@@@Nan@@@Z 00000001800487e0 f i _nodert_generated.obj
 0001:000478d0       ?ForegroundColorSetter@DevicePickerAppearance@Enumeration@Devices@Windows@NodeRT@@CAXV?$Local@VString@v8@@@v8@@V?$Local@VValue@v8@@@7@AEBV?$PropertyCallbackInfo@X@Nan@@@Z 00000001800488d0 f i _nodert_generated.obj
 0001:00047af0       ?Get@?$Agile@PE$AAU?$IAsyncOperationWithProgress@II@Foundation@Windows@@$00@Platform@@QEBAPE$AAU?$IAsyncOperationWithProgress@II@Foundation@Windows@@XZ 0000000180048af0 f i _nodert_generated.obj
 0001:00047cb0       ?Get@?$Agile@PE$AAU?$IAsyncOperationWithProgress@PE$AAUIBuffer@Streams@Storage@Windows@@I@Foundation@Windows@@$00@Platform@@QEBAPE$AAU?$IAsyncOperationWithProgress@PE$AAUIBuffer@Streams@Storage@Windows@@I@Foundation@Windows@@XZ 0000000180048cb0 f i _nodert_generated.obj
 0001:00047e70       ?Get@?$Agile@PE$AAUIBuffer@Streams@Storage@Windows@@$00@Platform@@QEBAPE$AAUIBuffer@Streams@Storage@Windows@@XZ 0000000180048e70 f i _nodert_generated.obj
 0001:00048030       ?Get@?$VectorViewWrapper@PE$AAVDeviceWatcherEvent@Enumeration@Devices@Windows@@@Collections@NodeRT@@CAXIAEBV?$PropertyCallbackInfo@VValue@v8@@@Nan@@@Z 0000000180049030 f i _nodert_generated.obj
 0001:000481a0       ?Get@?$VectorViewWrapper@PE$AAVString@Platform@@@Collections@NodeRT@@CAXIAEBV?$PropertyCallbackInfo@VValue@v8@@@Nan@@@Z 00000001800491a0 f i _nodert_generated.obj
 0001:00048330       ?Get@?$VectorViewWrapper@W4DeviceClass@Enumeration@Devices@Windows@@@Collections@NodeRT@@CAXIAEBV?$PropertyCallbackInfo@VValue@v8@@@Nan@@@Z 0000000180049330 f i _nodert_generated.obj
 0001:00048510       ?Get@?$VectorWrapper@PE$AAVString@Platform@@@Collections@NodeRT@@CAXIAEBV?$PropertyCallbackInfo@VValue@v8@@@Nan@@@Z 0000000180049510 f i _nodert_generated.obj
 0001:000486a0       ?Get@?$VectorWrapper@W4DeviceClass@Enumeration@Devices@Windows@@@Collections@NodeRT@@CAXIAEBV?$PropertyCallbackInfo@VValue@v8@@@Nan@@@Z 00000001800496a0 f i _nodert_generated.obj
 0001:00048880       ?Get@Nan@@YA?AV?$MaybeLocal@VValue@v8@@@v8@@V?$Local@VObject@v8@@@3@I@Z 0000000180049880 f i _nodert_generated.obj
 0001:00048940       ?Get@Nan@@YA?AV?$MaybeLocal@VValue@v8@@@v8@@V?$Local@VObject@v8@@@3@V?$Local@VValue@v8@@@3@@Z 0000000180049940 f i _nodert_generated.obj
 0001:000489f0       ?GetAqsFilterFromDeviceClass@DeviceInformation@Enumeration@Devices@Windows@@SAPE$AAVString@Platform@@W4DeviceClass@234@@Z 00000001800499f0 f i _nodert_generated.obj
 0001:00048b10       ?GetAqsFilterFromDeviceClass@DeviceInformation@Enumeration@Devices@Windows@NodeRT@@CAXAEBV?$FunctionCallbackInfo@VValue@v8@@@Nan@@@Z 0000000180049b10 f i _nodert_generated.obj
 0001:00048cf0       ?GetAqsFilterFromDeviceClass@IDeviceInformationStatics2@Enumeration@Devices@Windows@@UE$AAAPE$AAVString@Platform@@W4DeviceClass@234@@Z 0000000180049cf0 f i _nodert_generated.obj
 0001:00048d70       ?GetAt@?$IVector@PE$AAVString@Platform@@@Collections@Foundation@Windows@@UE$AAAPE$AAVString@Platform@@I@Z 0000000180049d70 f i _nodert_generated.obj
 0001:00048df0       ?GetAt@?$IVector@W4DeviceClass@Enumeration@Devices@Windows@@@Collections@Foundation@Windows@@UE$AAA?AW4DeviceClass@Enumeration@Devices@4@I@Z 0000000180049df0 f i _nodert_generated.obj
 0001:00048e30       ?GetAt@?$IVectorView@PE$AAVDeviceInformation@Enumeration@Devices@Windows@@@Collections@Foundation@Windows@@UE$AAAPE$AAVDeviceInformation@Enumeration@Devices@4@I@Z 0000000180049e30 f i _nodert_generated.obj
 0001:00048eb0       ?GetAt@?$IVectorView@PE$AAVDeviceWatcherEvent@Enumeration@Devices@Windows@@@Collections@Foundation@Windows@@UE$AAAPE$AAVDeviceWatcherEvent@Enumeration@Devices@4@I@Z 0000000180049eb0 f i _nodert_generated.obj
 0001:00048f30       ?GetAt@?$IVectorView@PE$AAVString@Platform@@@Collections@Foundation@Windows@@UE$AAAPE$AAVString@Platform@@I@Z 0000000180049f30 f i _nodert_generated.obj
 0001:00048fb0       ?GetAt@?$IVectorView@W4DeviceClass@Enumeration@Devices@Windows@@@Collections@Foundation@Windows@@UE$AAA?AW4DeviceClass@Enumeration@Devices@4@I@Z 0000000180049fb0 f i _nodert_generated.obj
 0001:00048ff0       ?GetAt@?$VectorViewWrapper@PE$AAVDeviceWatcherEvent@Enumeration@Devices@Windows@@@Collections@NodeRT@@CAXAEBV?$FunctionCallbackInfo@VValue@v8@@@Nan@@@Z 0000000180049ff0 f i _nodert_generated.obj
 0001:00049230       ?GetAt@?$VectorViewWrapper@PE$AAVString@Platform@@@Collections@NodeRT@@CAXAEBV?$FunctionCallbackInfo@VValue@v8@@@Nan@@@Z 000000018004a230 f i _nodert_generated.obj
 0001:00049480       ?GetAt@?$VectorViewWrapper@W4DeviceClass@Enumeration@Devices@Windows@@@Collections@NodeRT@@CAXAEBV?$FunctionCallbackInfo@VValue@v8@@@Nan@@@Z 000000018004a480 f i _nodert_generated.obj
 0001:00049690       ?GetAt@?$VectorWrapper@PE$AAVString@Platform@@@Collections@NodeRT@@CAXAEBV?$FunctionCallbackInfo@VValue@v8@@@Nan@@@Z 000000018004a690 f i _nodert_generated.obj
 0001:000498e0       ?GetAt@?$VectorWrapper@W4DeviceClass@Enumeration@Devices@Windows@@@Collections@NodeRT@@CAXAEBV?$FunctionCallbackInfo@VValue@v8@@@Nan@@@Z 000000018004a8e0 f i _nodert_generated.obj
 0001:00049af0       ?GetAt@?Q?$IVector@PE$AAVString@Platform@@@Collections@Foundation@Windows@@?$Vector@PE$AAVString@Platform@@U?$equal_to@PE$AAVString@Platform@@@std@@$00@2Platform@@UE$AAAPE$AAVString@6@I@Z 000000018004aaf0 f i _nodert_generated.obj
 0001:00049bb4       ?GetAt@?Q?$IVector@PE$AAVString@Platform@@@Collections@Foundation@Windows@@?$Vector@PE$AAVString@Platform@@U?$equal_to@PE$AAVString@Platform@@@std@@$00@2Platform@@W7E$AAAPE$AAVString@6@I@Z 000000018004abb4 f i _nodert_generated.obj
 0001:00049bc0       ?GetAt@?Q?$IVector@W4DeviceWatcherEventKind@Enumeration@Devices@Windows@@@Collections@Foundation@Windows@@?$Vector@W4DeviceWatcherEventKind@Enumeration@Devices@Windows@@U?$equal_to@W4DeviceWatcherEventKind@Enumeration@Devices@Windows@@@std@@$00@2Platform@@UE$AAA?AW4DeviceWatcherEventKind@Enumeration@Devices@4@I@Z 000000018004abc0 f i _nodert_generated.obj
 0001:00049c58       ?GetAt@?Q?$IVector@W4DeviceWatcherEventKind@Enumeration@Devices@Windows@@@Collections@Foundation@Windows@@?$Vector@W4DeviceWatcherEventKind@Enumeration@Devices@Windows@@U?$equal_to@W4DeviceWatcherEventKind@Enumeration@Devices@Windows@@@std@@$00@2Platform@@W7E$AAA?AW4DeviceWatcherEventKind@Enumeration@Devices@4@I@Z 000000018004ac58 f i _nodert_generated.obj
 0001:00049c70       ?GetAt@?Q?$IVectorView@PE$AAVString@Platform@@@Collections@Foundation@Windows@@?$VectorView@PE$AAVString@Platform@@U?$equal_to@PE$AAVString@Platform@@@std@@$00@2Platform@@UE$AAAPE$AAVString@6@I@Z 000000018004ac70 f i _nodert_generated.obj
 0001:00049da0       ?GetAt@?Q?$IVectorView@W4DeviceWatcherEventKind@Enumeration@Devices@Windows@@@Collections@Foundation@Windows@@?$VectorView@W4DeviceWatcherEventKind@Enumeration@Devices@Windows@@U?$equal_to@W4DeviceWatcherEventKind@Enumeration@Devices@Windows@@@std@@$00@2Platform@@UE$AAA?AW4DeviceWatcherEventKind@Enumeration@Devices@4@I@Z 000000018004ada0 f i _nodert_generated.obj
 0001:00049eb0       ?GetAt@DeviceInformationCollection@Enumeration@Devices@Windows@NodeRT@@CAXAEBV?$FunctionCallbackInfo@VValue@v8@@@Nan@@@Z 000000018004aeb0 f i _nodert_generated.obj
 0001:0004a0a0       ?GetBackgroundTrigger@DeviceWatcher@Enumeration@Devices@Windows@NodeRT@@CAXAEBV?$FunctionCallbackInfo@VValue@v8@@@Nan@@@Z 000000018004b0a0 f i _nodert_generated.obj
 0001:0004a3a0       ?GetBackgroundTrigger@IDeviceWatcher2@Enumeration@Devices@Windows@@UE$AAAPE$AAVDeviceWatcherTrigger@Background@ApplicationModel@4@PE$AAU?$IIterable@W4DeviceWatcherEventKind@Enumeration@Devices@Windows@@@Collections@Foundation@4@@Z 000000018004b3a0 f i _nodert_generated.obj
 0001:0004a420       ?GetDeferral@DevicePairingRequestedEventArgs@Enumeration@Devices@Windows@NodeRT@@CAXAEBV?$FunctionCallbackInfo@VValue@v8@@@Nan@@@Z 000000018004b420 f i _nodert_generated.obj
 0001:0004a5c0       ?GetDeferral@IDevicePairingRequestedEventArgs@Enumeration@Devices@Windows@@UE$AAAPE$AAVDeferral@Foundation@4@XZ 000000018004b5c0 f i _nodert_generated.obj
 0001:0004a640       ?GetFunction@Nan@@YA?AV?$MaybeLocal@VFunction@v8@@@v8@@V?$Local@VFunctionTemplate@v8@@@3@@Z 000000018004b640 f i _nodert_generated.obj
 0001:0004a6e0       ?GetGlyphThumbnailAsync@DeviceInformation@Enumeration@Devices@Windows@NodeRT@@CAXAEBV?$FunctionCallbackInfo@VValue@v8@@@Nan@@@Z 000000018004b6e0 f i _nodert_generated.obj
 0001:0004aa30       ?GetGlyphThumbnailAsync@IDeviceInformation@Enumeration@Devices@Windows@@UE$AAAPE$AAU?$IAsyncOperation@PE$AAVDeviceThumbnail@Enumeration@Devices@Windows@@@Foundation@4@XZ 000000018004ba30 f i _nodert_generated.obj
 0001:0004aab0       ?GetInputStreamAt@DeviceThumbnail@Enumeration@Devices@Windows@NodeRT@@CAXAEBV?$FunctionCallbackInfo@VValue@v8@@@Nan@@@Z 000000018004bab0 f i _nodert_generated.obj
 0001:0004ad40       ?GetInputStreamAt@IRandomAccessStream@Streams@Storage@Windows@@UE$AAAPE$AAUIInputStream@234@_K@Z 000000018004bd40 f i _nodert_generated.obj
 0001:0004adc0       ?GetMany@?$IteratorWrapper@PE$AAU?$IKeyValuePair@PE$AAVString@Platform@@PE$AAVObject@2@@Collections@Foundation@Windows@@@Collections@NodeRT@@CAXAEBV?$FunctionCallbackInfo@VValue@v8@@@Nan@@@Z 000000018004bdc0 f i _nodert_generated.obj
 0001:0004ae50       ?GetMany@?$IteratorWrapper@PE$AAVDeviceInformation@Enumeration@Devices@Windows@@@Collections@NodeRT@@CAXAEBV?$FunctionCallbackInfo@VValue@v8@@@Nan@@@Z 000000018004be50 f i _nodert_generated.obj
 0001:0004aee0       ?GetMany@?$IteratorWrapper@PE$AAVDeviceWatcherEvent@Enumeration@Devices@Windows@@@Collections@NodeRT@@CAXAEBV?$FunctionCallbackInfo@VValue@v8@@@Nan@@@Z 000000018004bee0 f i _nodert_generated.obj
 0001:0004af70       ?GetMany@?$IteratorWrapper@PE$AAVString@Platform@@@Collections@NodeRT@@CAXAEBV?$FunctionCallbackInfo@VValue@v8@@@Nan@@@Z 000000018004bf70 f i _nodert_generated.obj
 0001:0004b000       ?GetMany@?$IteratorWrapper@W4DeviceClass@Enumeration@Devices@Windows@@@Collections@NodeRT@@CAXAEBV?$FunctionCallbackInfo@VValue@v8@@@Nan@@@Z 000000018004c000 f i _nodert_generated.obj
 0001:0004b090       ?GetMany@?$VectorViewWrapper@PE$AAVDeviceWatcherEvent@Enumeration@Devices@Windows@@@Collections@NodeRT@@CAXAEBV?$FunctionCallbackInfo@VValue@v8@@@Nan@@@Z 000000018004c090 f i _nodert_generated.obj
 0001:0004b120       ?GetMany@?$VectorViewWrapper@PE$AAVString@Platform@@@Collections@NodeRT@@CAXAEBV?$FunctionCallbackInfo@VValue@v8@@@Nan@@@Z 000000018004c120 f i _nodert_generated.obj
 0001:0004b1b0       ?GetMany@?$VectorViewWrapper@W4DeviceClass@Enumeration@Devices@Windows@@@Collections@NodeRT@@CAXAEBV?$FunctionCallbackInfo@VValue@v8@@@Nan@@@Z 000000018004c1b0 f i _nodert_generated.obj
 0001:0004b240       ?GetMany@?$VectorWrapper@PE$AAVString@Platform@@@Collections@NodeRT@@CAXAEBV?$FunctionCallbackInfo@VValue@v8@@@Nan@@@Z 000000018004c240 f i _nodert_generated.obj
 0001:0004b2d0       ?GetMany@?$VectorWrapper@W4DeviceClass@Enumeration@Devices@Windows@@@Collections@NodeRT@@CAXAEBV?$FunctionCallbackInfo@VValue@v8@@@Nan@@@Z 000000018004c2d0 f i _nodert_generated.obj
 0001:0004b360       ?GetMany@?Q?$IIterator@PE$AAVString@Platform@@@Collections@Foundation@Windows@@?$IteratorForVectorView@PE$AAVString@Platform@@@Details@2Platform@@UE$AAAIP$01E$AAV?$WriteOnlyArray@PE$AAVString@Platform@@$00@7@@Z 000000018004c360 f i _nodert_generated.obj
 0001:0004b400       ?GetMany@?Q?$IIterator@W4DeviceWatcherEventKind@Enumeration@Devices@Windows@@@Collections@Foundation@Windows@@?$IteratorForVectorView@W4DeviceWatcherEventKind@Enumeration@Devices@Windows@@@Details@2Platform@@UE$AAAIP$01E$AAV?$WriteOnlyArray@W4DeviceWatcherEventKind@Enumeration@Devices@Windows@@$00@7@@Z 000000018004c400 f i _nodert_generated.obj
 0001:0004b4a0       ?GetMany@?Q?$IVector@PE$AAVString@Platform@@@Collections@Foundation@Windows@@?$Vector@PE$AAVString@Platform@@U?$equal_to@PE$AAVString@Platform@@@std@@$00@2Platform@@UE$AAAIIP$01E$AAV?$WriteOnlyArray@PE$AAVString@Platform@@$00@6@@Z 000000018004c4a0 f i _nodert_generated.obj
 0001:0004b538       ?GetMany@?Q?$IVector@PE$AAVString@Platform@@@Collections@Foundation@Windows@@?$Vector@PE$AAVString@Platform@@U?$equal_to@PE$AAVString@Platform@@@std@@$00@2Platform@@W7E$AAAIIP$01E$AAV?$WriteOnlyArray@PE$AAVString@Platform@@$00@6@@Z 000000018004c538 f i _nodert_generated.obj
 0001:0004b550       ?GetMany@?Q?$IVector@W4DeviceWatcherEventKind@Enumeration@Devices@Windows@@@Collections@Foundation@Windows@@?$Vector@W4DeviceWatcherEventKind@Enumeration@Devices@Windows@@U?$equal_to@W4DeviceWatcherEventKind@Enumeration@Devices@Windows@@@std@@$00@2Platform@@UE$AAAIIP$01E$AAV?$WriteOnlyArray@W4DeviceWatcherEventKind@Enumeration@Devices@Windows@@$00@6@@Z 000000018004c550 f i _nodert_generated.obj
 0001:0004b5e8       ?GetMany@?Q?$IVector@W4DeviceWatcherEventKind@Enumeration@Devices@Windows@@@Collections@Foundation@Windows@@?$Vector@W4DeviceWatcherEventKind@Enumeration@Devices@Windows@@U?$equal_to@W4DeviceWatcherEventKind@Enumeration@Devices@Windows@@@std@@$00@2Platform@@W7E$AAAIIP$01E$AAV?$WriteOnlyArray@W4DeviceWatcherEventKind@Enumeration@Devices@Windows@@$00@6@@Z 000000018004c5e8 f i _nodert_generated.obj
 0001:0004b600       ?GetMany@?Q?$IVectorView@PE$AAVString@Platform@@@Collections@Foundation@Windows@@?$VectorView@PE$AAVString@Platform@@U?$equal_to@PE$AAVString@Platform@@@std@@$00@2Platform@@UE$AAAIIP$01E$AAV?$WriteOnlyArray@PE$AAVString@Platform@@$00@6@@Z 000000018004c600 f i _nodert_generated.obj
 0001:0004b700       ?GetMany@?Q?$IVectorView@W4DeviceWatcherEventKind@Enumeration@Devices@Windows@@@Collections@Foundation@Windows@@?$VectorView@W4DeviceWatcherEventKind@Enumeration@Devices@Windows@@U?$equal_to@W4DeviceWatcherEventKind@Enumeration@Devices@Windows@@@std@@$00@2Platform@@UE$AAAIIP$01E$AAV?$WriteOnlyArray@W4DeviceWatcherEventKind@Enumeration@Devices@Windows@@$00@6@@Z 000000018004c700 f i _nodert_generated.obj
 0001:0004b800       ?GetMany@DeviceInformationCollection@Enumeration@Devices@Windows@NodeRT@@CAXAEBV?$FunctionCallbackInfo@VValue@v8@@@Nan@@@Z 000000018004c800 f i _nodert_generated.obj
 0001:0004b890       ?GetObjectInstance@?$IteratorWrapper@PE$AAU?$IKeyValuePair@PE$AAVString@Platform@@PE$AAVObject@2@@Collections@Foundation@Windows@@@Collections@NodeRT@@UEBAPE$AAVObject@Platform@@XZ 000000018004c890 f i _nodert_generated.obj
 0001:0004b8c0       ?GetObjectInstance@?$IteratorWrapper@PE$AAVDeviceInformation@Enumeration@Devices@Windows@@@Collections@NodeRT@@UEBAPE$AAVObject@Platform@@XZ 000000018004c8c0 f i _nodert_generated.obj
 0001:0004b8f0       ?GetObjectInstance@?$IteratorWrapper@PE$AAVDeviceWatcherEvent@Enumeration@Devices@Windows@@@Collections@NodeRT@@UEBAPE$AAVObject@Platform@@XZ 000000018004c8f0 f i _nodert_generated.obj
 0001:0004b920       ?GetObjectInstance@?$IteratorWrapper@PE$AAVString@Platform@@@Collections@NodeRT@@UEBAPE$AAVObject@Platform@@XZ 000000018004c920 f i _nodert_generated.obj
 0001:0004b950       ?GetObjectInstance@?$IteratorWrapper@W4DeviceClass@Enumeration@Devices@Windows@@@Collections@NodeRT@@UEBAPE$AAVObject@Platform@@XZ 000000018004c950 f i _nodert_generated.obj
 0001:0004b980       ?GetObjectInstance@?$KeyValuePairWrapper@PE$AAVString@Platform@@PE$AAVObject@2@@Collections@NodeRT@@UEBAPE$AAVObject@Platform@@XZ 000000018004c980 f i _nodert_generated.obj
 0001:0004b9b0       ?GetObjectInstance@?$MapViewWrapper@PE$AAVString@Platform@@PE$AAVObject@2@@Collections@NodeRT@@UEBAPE$AAVObject@Platform@@XZ 000000018004c9b0 f i _nodert_generated.obj
 0001:0004b9e0       ?GetObjectInstance@?$VectorViewWrapper@PE$AAVDeviceWatcherEvent@Enumeration@Devices@Windows@@@Collections@NodeRT@@UEBAPE$AAVObject@Platform@@XZ 000000018004c9e0 f i _nodert_generated.obj
 0001:0004ba10       ?GetObjectInstance@?$VectorViewWrapper@PE$AAVString@Platform@@@Collections@NodeRT@@UEBAPE$AAVObject@Platform@@XZ 000000018004ca10 f i _nodert_generated.obj
 0001:0004ba40       ?GetObjectInstance@?$VectorViewWrapper@W4DeviceClass@Enumeration@Devices@Windows@@@Collections@NodeRT@@UEBAPE$AAVObject@Platform@@XZ 000000018004ca40 f i _nodert_generated.obj
 0001:0004ba70       ?GetObjectInstance@?$VectorWrapper@PE$AAVString@Platform@@@Collections@NodeRT@@UEBAPE$AAVObject@Platform@@XZ 000000018004ca70 f i _nodert_generated.obj
 0001:0004baa0       ?GetObjectInstance@?$VectorWrapper@W4DeviceClass@Enumeration@Devices@Windows@@@Collections@NodeRT@@UEBAPE$AAVObject@Platform@@XZ 000000018004caa0 f i _nodert_generated.obj
 0001:0004bad0       ?GetObjectInstance@DeviceAccessChangedEventArgs@Enumeration@Devices@Windows@NodeRT@@UEBAPE$AAVObject@Platform@@XZ 000000018004cad0 f i _nodert_generated.obj
 0001:0004bb00       ?GetObjectInstance@DeviceAccessInformation@Enumeration@Devices@Windows@NodeRT@@UEBAPE$AAVObject@Platform@@XZ 000000018004cb00 f i _nodert_generated.obj
 0001:0004bb30       ?GetObjectInstance@DeviceConnectionChangeTriggerDetails@Enumeration@Devices@Windows@NodeRT@@UEBAPE$AAVObject@Platform@@XZ 000000018004cb30 f i _nodert_generated.obj
 0001:0004bb60       ?GetObjectInstance@DeviceDisconnectButtonClickedEventArgs@Enumeration@Devices@Windows@NodeRT@@UEBAPE$AAVObject@Platform@@XZ 000000018004cb60 f i _nodert_generated.obj
 0001:0004bb90       ?GetObjectInstance@DeviceInformation@Enumeration@Devices@Windows@NodeRT@@UEBAPE$AAVObject@Platform@@XZ 000000018004cb90 f i _nodert_generated.obj
 0001:0004bbc0       ?GetObjectInstance@DeviceInformationCollection@Enumeration@Devices@Windows@NodeRT@@UEBAPE$AAVObject@Platform@@XZ 000000018004cbc0 f i _nodert_generated.obj
 0001:0004bbf0       ?GetObjectInstance@DeviceInformationCustomPairing@Enumeration@Devices@Windows@NodeRT@@UEBAPE$AAVObject@Platform@@XZ 000000018004cbf0 f i _nodert_generated.obj
 0001:0004bc20       ?GetObjectInstance@DeviceInformationPairing@Enumeration@Devices@Windows@NodeRT@@UEBAPE$AAVObject@Platform@@XZ 000000018004cc20 f i _nodert_generated.obj
 0001:0004bc50       ?GetObjectInstance@DeviceInformationUpdate@Enumeration@Devices@Windows@NodeRT@@UEBAPE$AAVObject@Platform@@XZ 000000018004cc50 f i _nodert_generated.obj
 0001:0004bc80       ?GetObjectInstance@DevicePairingRequestedEventArgs@Enumeration@Devices@Windows@NodeRT@@UEBAPE$AAVObject@Platform@@XZ 000000018004cc80 f i _nodert_generated.obj
 0001:0004bcb0       ?GetObjectInstance@DevicePairingResult@Enumeration@Devices@Windows@NodeRT@@UEBAPE$AAVObject@Platform@@XZ 000000018004ccb0 f i _nodert_generated.obj
 0001:0004bce0       ?GetObjectInstance@DevicePicker@Enumeration@Devices@Windows@NodeRT@@UEBAPE$AAVObject@Platform@@XZ 000000018004cce0 f i _nodert_generated.obj
 0001:0004bd10       ?GetObjectInstance@DevicePickerAppearance@Enumeration@Devices@Windows@NodeRT@@UEBAPE$AAVObject@Platform@@XZ 000000018004cd10 f i _nodert_generated.obj
 0001:0004bd40       ?GetObjectInstance@DevicePickerFilter@Enumeration@Devices@Windows@NodeRT@@UEBAPE$AAVObject@Platform@@XZ 000000018004cd40 f i _nodert_generated.obj
 0001:0004bd70       ?GetObjectInstance@DeviceSelectedEventArgs@Enumeration@Devices@Windows@NodeRT@@UEBAPE$AAVObject@Platform@@XZ 000000018004cd70 f i _nodert_generated.obj
 0001:0004bda0       ?GetObjectInstance@DeviceThumbnail@Enumeration@Devices@Windows@NodeRT@@UEBAPE$AAVObject@Platform@@XZ 000000018004cda0 f i _nodert_generated.obj
 0001:0004bdd0       ?GetObjectInstance@DeviceUnpairingResult@Enumeration@Devices@Windows@NodeRT@@UEBAPE$AAVObject@Platform@@XZ 000000018004cdd0 f i _nodert_generated.obj
 0001:0004be00       ?GetObjectInstance@DeviceWatcher@Enumeration@Devices@Windows@NodeRT@@UEBAPE$AAVObject@Platform@@XZ 000000018004ce00 f i _nodert_generated.obj
 0001:0004be30       ?GetObjectInstance@DeviceWatcherEvent@Enumeration@Devices@Windows@NodeRT@@UEBAPE$AAVObject@Platform@@XZ 000000018004ce30 f i _nodert_generated.obj
 0001:0004be60       ?GetObjectInstance@DeviceWatcherTriggerDetails@Enumeration@Devices@Windows@NodeRT@@UEBAPE$AAVObject@Platform@@XZ 000000018004ce60 f i _nodert_generated.obj
 0001:0004be90       ?GetObjectInstance@EnclosureLocation@Enumeration@Devices@Windows@NodeRT@@UEBAPE$AAVObject@Platform@@XZ 000000018004ce90 f i _nodert_generated.obj
 0001:0004bec0       ?GetObjectInstance@IDevicePairingSettings@Enumeration@Devices@Windows@NodeRT@@UEBAPE$AAVObject@Platform@@XZ 000000018004cec0 f i _nodert_generated.obj
 0001:0004bef0       ?GetOutputStreamAt@DeviceThumbnail@Enumeration@Devices@Windows@NodeRT@@CAXAEBV?$FunctionCallbackInfo@VValue@v8@@@Nan@@@Z 000000018004cef0 f i _nodert_generated.obj
 0001:0004c180       ?GetOutputStreamAt@IRandomAccessStream@Streams@Storage@Windows@@UE$AAAPE$AAUIOutputStream@234@_K@Z 000000018004d180 f i _nodert_generated.obj
 0001:0004c200       ?GetResults@?$IAsyncOperation@I@Foundation@Windows@@UE$AAAIXZ 000000018004d200 f i _nodert_generated.obj
 0001:0004c230       ?GetResults@?$IAsyncOperation@PE$AAUIBuffer@Streams@Storage@Windows@@@Foundation@Windows@@UE$AAAPE$AAUIBuffer@Streams@Storage@3@XZ 000000018004d230 f i _nodert_generated.obj
 0001:0004c2b0       ?GetResults@?$IAsyncOperation@PE$AAVDeviceInformation@Enumeration@Devices@Windows@@@Foundation@Windows@@UE$AAAPE$AAVDeviceInformation@Enumeration@Devices@3@XZ 000000018004d2b0 f i _nodert_generated.obj
 0001:0004c330       ?GetResults@?$IAsyncOperation@PE$AAVDeviceInformationCollection@Enumeration@Devices@Windows@@@Foundation@Windows@@UE$AAAPE$AAVDeviceInformationCollection@Enumeration@Devices@3@XZ 000000018004d330 f i _nodert_generated.obj
 0001:0004c3b0       ?GetResults@?$IAsyncOperation@PE$AAVDevicePairingResult@Enumeration@Devices@Windows@@@Foundation@Windows@@UE$AAAPE$AAVDevicePairingResult@Enumeration@Devices@3@XZ 000000018004d3b0 f i _nodert_generated.obj
 0001:0004c430       ?GetResults@?$IAsyncOperation@PE$AAVDeviceThumbnail@Enumeration@Devices@Windows@@@Foundation@Windows@@UE$AAAPE$AAVDeviceThumbnail@Enumeration@Devices@3@XZ 000000018004d430 f i _nodert_generated.obj
 0001:0004c4b0       ?GetResults@?$IAsyncOperation@PE$AAVDeviceUnpairingResult@Enumeration@Devices@Windows@@@Foundation@Windows@@UE$AAAPE$AAVDeviceUnpairingResult@Enumeration@Devices@3@XZ 000000018004d4b0 f i _nodert_generated.obj
 0001:0004c530       ?GetResults@?$IAsyncOperation@_N@Foundation@Windows@@UE$AAA_NXZ 000000018004d530 f i _nodert_generated.obj
 0001:0004c560       ?GetResults@?$IAsyncOperationWithProgress@II@Foundation@Windows@@UE$AAAIXZ 000000018004d560 f i _nodert_generated.obj
 0001:0004c590       ?GetResults@?$IAsyncOperationWithProgress@PE$AAUIBuffer@Streams@Storage@Windows@@I@Foundation@Windows@@UE$AAAPE$AAUIBuffer@Streams@Storage@3@XZ 000000018004d590 f i _nodert_generated.obj
 0001:0004c610       ?GetResults@?Q?$IAsyncOperation@I@Foundation@Windows@@?$_AsyncInfoImpl@PE$AAU?$IAsyncOperationWithProgress@II@Foundation@Windows@@V?$AsyncOperationWithProgressCompletedHandler@II@23@I@details@Concurrency@@UE$AAAIXZ 000000018004d610 f i _nodert_generated.obj
 0001:0004c64c       ?GetResults@?Q?$IAsyncOperation@I@Foundation@Windows@@?$_AsyncInfoImpl@PE$AAU?$IAsyncOperationWithProgress@II@Foundation@Windows@@V?$AsyncOperationWithProgressCompletedHandler@II@23@I@details@Concurrency@@W7E$AAAIXZ 000000018004d64c f i _nodert_generated.obj
 0001:0004c660       ?GetResults@?Q?$IAsyncOperation@I@Foundation@Windows@@?$_IAsyncOperationWithProgressToAsyncOperationConverter@II@details@Concurrency@@UE$AAAIXZ 000000018004d660 f i _nodert_generated.obj
 0001:0004c6c4       ?GetResults@?Q?$IAsyncOperation@I@Foundation@Windows@@?$_IAsyncOperationWithProgressToAsyncOperationConverter@II@details@Concurrency@@WBA@E$AAAIXZ 000000018004d6c4 f i _nodert_generated.obj
 0001:0004c6d0       ?GetResults@?Q?$IAsyncOperation@PE$AAUIBuffer@Streams@Storage@Windows@@@Foundation@Windows@@?$_AsyncInfoImpl@PE$AAU?$IAsyncOperationWithProgress@PE$AAUIBuffer@Streams@Storage@Windows@@I@Foundation@Windows@@V?$AsyncOperationWithProgressCompletedHandler@PE$AAUIBuffer@Streams@Storage@Windows@@I@23@PE$AAUIBuffer@Streams@Storage@3@@details@Concurrency@@UE$AAAPE$AAUIBuffer@Streams@Storage@3@XZ 000000018004d6d0 f i _nodert_generated.obj
 0001:0004c70c       ?GetResults@?Q?$IAsyncOperation@PE$AAUIBuffer@Streams@Storage@Windows@@@Foundation@Windows@@?$_AsyncInfoImpl@PE$AAU?$IAsyncOperationWithProgress@PE$AAUIBuffer@Streams@Storage@Windows@@I@Foundation@Windows@@V?$AsyncOperationWithProgressCompletedHandler@PE$AAUIBuffer@Streams@Storage@Windows@@I@23@PE$AAUIBuffer@Streams@Storage@3@@details@Concurrency@@W7E$AAAPE$AAUIBuffer@Streams@Storage@3@XZ 000000018004d70c f i _nodert_generated.obj
 0001:0004c720       ?GetResults@?Q?$IAsyncOperation@PE$AAUIBuffer@Streams@Storage@Windows@@@Foundation@Windows@@?$_IAsyncOperationWithProgressToAsyncOperationConverter@PE$AAUIBuffer@Streams@Storage@Windows@@I@details@Concurrency@@UE$AAAPE$AAUIBuffer@Streams@Storage@3@XZ 000000018004d720 f i _nodert_generated.obj
 0001:0004c7d8       ?GetResults@?Q?$IAsyncOperation@PE$AAUIBuffer@Streams@Storage@Windows@@@Foundation@Windows@@?$_IAsyncOperationWithProgressToAsyncOperationConverter@PE$AAUIBuffer@Streams@Storage@Windows@@I@details@Concurrency@@WBA@E$AAAPE$AAUIBuffer@Streams@Storage@3@XZ 000000018004d7d8 f i _nodert_generated.obj
 0001:0004c7f0       ?GetThumbnailAsync@DeviceInformation@Enumeration@Devices@Windows@NodeRT@@CAXAEBV?$FunctionCallbackInfo@VValue@v8@@@Nan@@@Z 000000018004d7f0 f i _nodert_generated.obj
 0001:0004cb40       ?GetThumbnailAsync@IDeviceInformation@Enumeration@Devices@Windows@@UE$AAAPE$AAU?$IAsyncOperation@PE$AAVDeviceThumbnail@Enumeration@Devices@Windows@@@Foundation@4@XZ 000000018004db40 f i _nodert_generated.obj
 0001:0004cbc0       ?GetView@?$IVector@PE$AAVString@Platform@@@Collections@Foundation@Windows@@UE$AAAPE$AAU?$IVectorView@PE$AAVString@Platform@@@234@XZ 000000018004dbc0 f i _nodert_generated.obj
 0001:0004cc40       ?GetView@?$IVector@W4DeviceClass@Enumeration@Devices@Windows@@@Collections@Foundation@Windows@@UE$AAAPE$AAU?$IVectorView@W4DeviceClass@Enumeration@Devices@Windows@@@234@XZ 000000018004dc40 f i _nodert_generated.obj
 0001:0004ccc0       ?GetView@?$VectorWrapper@PE$AAVString@Platform@@@Collections@NodeRT@@CAXAEBV?$FunctionCallbackInfo@VValue@v8@@@Nan@@@Z 000000018004dcc0 f i _nodert_generated.obj
 0001:0004ce60       ?GetView@?$VectorWrapper@W4DeviceClass@Enumeration@Devices@Windows@@@Collections@NodeRT@@CAXAEBV?$FunctionCallbackInfo@VValue@v8@@@Nan@@@Z 000000018004de60 f i _nodert_generated.obj
 0001:0004d000       ?GetView@?Q?$IVector@PE$AAVString@Platform@@@Collections@Foundation@Windows@@?$Vector@PE$AAVString@Platform@@U?$equal_to@PE$AAVString@Platform@@@std@@$00@2Platform@@UE$AAAPE$AAU?$IVectorView@PE$AAVString@Platform@@@234@XZ 000000018004e000 f i _nodert_generated.obj
 0001:0004d05c       ?GetView@?Q?$IVector@PE$AAVString@Platform@@@Collections@Foundation@Windows@@?$Vector@PE$AAVString@Platform@@U?$equal_to@PE$AAVString@Platform@@@std@@$00@2Platform@@W7E$AAAPE$AAU?$IVectorView@PE$AAVString@Platform@@@234@XZ 000000018004e05c f i _nodert_generated.obj
 0001:0004d070       ?GetView@?Q?$IVector@W4DeviceWatcherEventKind@Enumeration@Devices@Windows@@@Collections@Foundation@Windows@@?$Vector@W4DeviceWatcherEventKind@Enumeration@Devices@Windows@@U?$equal_to@W4DeviceWatcherEventKind@Enumeration@Devices@Windows@@@std@@$00@2Platform@@UE$AAAPE$AAU?$IVectorView@W4DeviceWatcherEventKind@Enumeration@Devices@Windows@@@234@XZ 000000018004e070 f i _nodert_generated.obj
 0001:0004d0cc       ?GetView@?Q?$IVector@W4DeviceWatcherEventKind@Enumeration@Devices@Windows@@@Collections@Foundation@Windows@@?$Vector@W4DeviceWatcherEventKind@Enumeration@Devices@Windows@@U?$equal_to@W4DeviceWatcherEventKind@Enumeration@Devices@Windows@@@std@@$00@2Platform@@W7E$AAAPE$AAU?$IVectorView@W4DeviceWatcherEventKind@Enumeration@Devices@Windows@@@234@XZ 000000018004e0cc f i _nodert_generated.obj
 0001:0004d0e0       ?GetWeakReference@?QIWeakReferenceSource@Details@Platform@@?$Array@PE$AAVString@Platform@@$00@3@UE$AAAPE$AAUIWeakReference@23@XZ 000000018004e0e0 f i _nodert_generated.obj
 0001:0004d128       ?GetWeakReference@?QIWeakReferenceSource@Details@Platform@@?$Array@PE$AAVString@Platform@@$00@3@WDI@E$AAAPE$AAUIWeakReference@23@XZ 000000018004e128 f i _nodert_generated.obj
 0001:0004d134       ?GetWeakReference@?QIWeakReferenceSource@Details@Platform@@?$Array@PE$AAVString@Platform@@$00@3@WHA@E$AAAPE$AAUIWeakReference@23@XZ 000000018004e134 f i _nodert_generated.obj
 0001:0004d140       ?GetWeakReference@?QIWeakReferenceSource@Details@Platform@@?$Array@W4DeviceClass@Enumeration@Devices@Windows@@$00@3@UE$AAAPE$AAUIWeakReference@23@XZ 000000018004e140 f i _nodert_generated.obj
 0001:0004d188       ?GetWeakReference@?QIWeakReferenceSource@Details@Platform@@?$Array@W4DeviceClass@Enumeration@Devices@Windows@@$00@3@WDI@E$AAAPE$AAUIWeakReference@23@XZ 000000018004e188 f i _nodert_generated.obj
 0001:0004d194       ?GetWeakReference@?QIWeakReferenceSource@Details@Platform@@?$Array@W4DeviceClass@Enumeration@Devices@Windows@@$00@3@WHA@E$AAAPE$AAUIWeakReference@23@XZ 000000018004e194 f i _nodert_generated.obj
 0001:0004d1a0       ?GetWeakReference@?QIWeakReferenceSource@Details@Platform@@?$Array@W4DeviceWatcherEventKind@Enumeration@Devices@Windows@@$00@3@UE$AAAPE$AAUIWeakReference@23@XZ 000000018004e1a0 f i _nodert_generated.obj
 0001:0004d1e8       ?GetWeakReference@?QIWeakReferenceSource@Details@Platform@@?$Array@W4DeviceWatcherEventKind@Enumeration@Devices@Windows@@$00@3@WDI@E$AAAPE$AAUIWeakReference@23@XZ 000000018004e1e8 f i _nodert_generated.obj
 0001:0004d1f4       ?GetWeakReference@?QIWeakReferenceSource@Details@Platform@@?$Array@W4DeviceWatcherEventKind@Enumeration@Devices@Windows@@$00@3@WHA@E$AAAPE$AAUIWeakReference@23@XZ 000000018004e1f4 f i _nodert_generated.obj
 0001:0004d200       ?GetWeakReference@?QIWeakReferenceSource@Details@Platform@@?$CustomBox@W4DeviceClass@Enumeration@Devices@Windows@@@23@UE$AAAPE$AAUIWeakReference@23@XZ 000000018004e200 f i _nodert_generated.obj
 0001:0004d248       ?GetWeakReference@?QIWeakReferenceSource@Details@Platform@@?$CustomBox@W4DeviceClass@Enumeration@Devices@Windows@@@23@WCA@E$AAAPE$AAUIWeakReference@23@XZ 000000018004e248 f i _nodert_generated.obj
 0001:0004d260       ?GetWeakReference@?QIWeakReferenceSource@Details@Platform@@?$CustomBox@W4DeviceWatcherEventKind@Enumeration@Devices@Windows@@@23@UE$AAAPE$AAUIWeakReference@23@XZ 000000018004e260 f i _nodert_generated.obj
 0001:0004d2a8       ?GetWeakReference@?QIWeakReferenceSource@Details@Platform@@?$CustomBox@W4DeviceWatcherEventKind@Enumeration@Devices@Windows@@@23@WCA@E$AAAPE$AAUIWeakReference@23@XZ 000000018004e2a8 f i _nodert_generated.obj
 0001:0004d2c0       ?GetWeakReference@?QIWeakReferenceSource@Details@Platform@@?$IteratorForVectorView@PE$AAVString@Platform@@@2Collections@3@UE$AAAPE$AAUIWeakReference@23@XZ 000000018004e2c0 f i _nodert_generated.obj
 0001:0004d308       ?GetWeakReference@?QIWeakReferenceSource@Details@Platform@@?$IteratorForVectorView@PE$AAVString@Platform@@@2Collections@3@WCA@E$AAAPE$AAUIWeakReference@23@XZ 000000018004e308 f i _nodert_generated.obj
 0001:0004d320       ?GetWeakReference@?QIWeakReferenceSource@Details@Platform@@?$IteratorForVectorView@W4DeviceWatcherEventKind@Enumeration@Devices@Windows@@@2Collections@3@UE$AAAPE$AAUIWeakReference@23@XZ 000000018004e320 f i _nodert_generated.obj
 0001:0004d368       ?GetWeakReference@?QIWeakReferenceSource@Details@Platform@@?$IteratorForVectorView@W4DeviceWatcherEventKind@Enumeration@Devices@Windows@@@2Collections@3@WCA@E$AAAPE$AAUIWeakReference@23@XZ 000000018004e368 f i _nodert_generated.obj
 0001:0004d380       ?GetWeakReference@?QIWeakReferenceSource@Details@Platform@@?$Vector@PE$AAVString@Platform@@U?$equal_to@PE$AAVString@Platform@@@std@@$00@Collections@3@UE$AAAPE$AAUIWeakReference@23@XZ 000000018004e380 f i _nodert_generated.obj
 0001:0004d3cc       ?GetWeakReference@?QIWeakReferenceSource@Details@Platform@@?$Vector@PE$AAVString@Platform@@U?$equal_to@PE$AAVString@Platform@@@std@@$00@Collections@3@WEA@E$AAAPE$AAUIWeakReference@23@XZ 000000018004e3cc f i _nodert_generated.obj
 0001:0004d3e0       ?GetWeakReference@?QIWeakReferenceSource@Details@Platform@@?$Vector@W4DeviceWatcherEventKind@Enumeration@Devices@Windows@@U?$equal_to@W4DeviceWatcherEventKind@Enumeration@Devices@Windows@@@std@@$00@Collections@3@UE$AAAPE$AAUIWeakReference@23@XZ 000000018004e3e0 f i _nodert_generated.obj
 0001:0004d42c       ?GetWeakReference@?QIWeakReferenceSource@Details@Platform@@?$Vector@W4DeviceWatcherEventKind@Enumeration@Devices@Windows@@U?$equal_to@W4DeviceWatcherEventKind@Enumeration@Devices@Windows@@@std@@$00@Collections@3@WEA@E$AAAPE$AAUIWeakReference@23@XZ 000000018004e42c f i _nodert_generated.obj
 0001:0004d440       ?GetWeakReference@?QIWeakReferenceSource@Details@Platform@@?$VectorView@PE$AAVString@Platform@@U?$equal_to@PE$AAVString@Platform@@@std@@$00@Collections@3@UE$AAAPE$AAUIWeakReference@23@XZ 000000018004e440 f i _nodert_generated.obj
 0001:0004d488       ?GetWeakReference@?QIWeakReferenceSource@Details@Platform@@?$VectorView@PE$AAVString@Platform@@U?$equal_to@PE$AAVString@Platform@@@std@@$00@Collections@3@WDA@E$AAAPE$AAUIWeakReference@23@XZ 000000018004e488 f i _nodert_generated.obj
 0001:0004d4a0       ?GetWeakReference@?QIWeakReferenceSource@Details@Platform@@?$VectorView@W4DeviceWatcherEventKind@Enumeration@Devices@Windows@@U?$equal_to@W4DeviceWatcherEventKind@Enumeration@Devices@Windows@@@std@@$00@Collections@3@UE$AAAPE$AAUIWeakReference@23@XZ 000000018004e4a0 f i _nodert_generated.obj
 0001:0004d4e8       ?GetWeakReference@?QIWeakReferenceSource@Details@Platform@@?$VectorView@W4DeviceWatcherEventKind@Enumeration@Devices@Windows@@U?$equal_to@W4DeviceWatcherEventKind@Enumeration@Devices@Windows@@@std@@$00@Collections@3@WDA@E$AAAPE$AAUIWeakReference@23@XZ 000000018004e4e8 f i _nodert_generated.obj
 0001:0004d500       ?GetWeakReference@?QIWeakReferenceSource@Details@Platform@@?$WriteOnlyArray@PE$AAVString@Platform@@$00@3@UE$AAAPE$AAUIWeakReference@23@XZ 000000018004e500 f i _nodert_generated.obj
 0001:0004d548       ?GetWeakReference@?QIWeakReferenceSource@Details@Platform@@?$WriteOnlyArray@PE$AAVString@Platform@@$00@3@WBI@E$AAAPE$AAUIWeakReference@23@XZ 000000018004e548 f i _nodert_generated.obj
 0001:0004d560       ?GetWeakReference@?QIWeakReferenceSource@Details@Platform@@?$WriteOnlyArray@W4DeviceClass@Enumeration@Devices@Windows@@$00@3@UE$AAAPE$AAUIWeakReference@23@XZ 000000018004e560 f i _nodert_generated.obj
 0001:0004d5a8       ?GetWeakReference@?QIWeakReferenceSource@Details@Platform@@?$WriteOnlyArray@W4DeviceClass@Enumeration@Devices@Windows@@$00@3@WBI@E$AAAPE$AAUIWeakReference@23@XZ 000000018004e5a8 f i _nodert_generated.obj
 0001:0004d5c0       ?GetWeakReference@?QIWeakReferenceSource@Details@Platform@@?$WriteOnlyArray@W4DeviceWatcherEventKind@Enumeration@Devices@Windows@@$00@3@UE$AAAPE$AAUIWeakReference@23@XZ 000000018004e5c0 f i _nodert_generated.obj
 0001:0004d608       ?GetWeakReference@?QIWeakReferenceSource@Details@Platform@@?$WriteOnlyArray@W4DeviceWatcherEventKind@Enumeration@Devices@Windows@@$00@3@WBI@E$AAAPE$AAUIWeakReference@23@XZ 000000018004e608 f i _nodert_generated.obj
 0001:0004d620       ?GetWeakReference@?QIWeakReferenceSource@Details@Platform@@?$_IAsyncOperationWithProgressToAsyncOperationConverter@II@details@Concurrency@@UE$AAAPE$AAUIWeakReference@23@XZ 000000018004e620 f i _nodert_generated.obj
 0001:0004d668       ?GetWeakReference@?QIWeakReferenceSource@Details@Platform@@?$_IAsyncOperationWithProgressToAsyncOperationConverter@II@details@Concurrency@@WFI@E$AAAPE$AAUIWeakReference@23@XZ 000000018004e668 f i _nodert_generated.obj
 0001:0004d680       ?GetWeakReference@?QIWeakReferenceSource@Details@Platform@@?$_IAsyncOperationWithProgressToAsyncOperationConverter@PE$AAUIBuffer@Streams@Storage@Windows@@I@details@Concurrency@@UE$AAAPE$AAUIWeakReference@23@XZ 000000018004e680 f i _nodert_generated.obj
 0001:0004d6c8       ?GetWeakReference@?QIWeakReferenceSource@Details@Platform@@?$_IAsyncOperationWithProgressToAsyncOperationConverter@PE$AAUIBuffer@Streams@Storage@Windows@@I@details@Concurrency@@WFI@E$AAAPE$AAUIWeakReference@23@XZ 000000018004e6c8 f i _nodert_generated.obj
 0001:0004d6e0       ?GetWeakReference@?QIWeakReferenceSource@Details@Platform@@VectorChangedEventArgs@2Collections@3@UE$AAAPE$AAUIWeakReference@23@XZ 000000018004e6e0 f i _nodert_generated.obj
 0001:0004d728       ?GetWeakReference@?QIWeakReferenceSource@Details@Platform@@VectorChangedEventArgs@2Collections@3@WBI@E$AAAPE$AAUIWeakReference@23@XZ 000000018004e728 f i _nodert_generated.obj
 0001:0004d840       ?HasCurrentGetter@?$IteratorWrapper@PE$AAU?$IKeyValuePair@PE$AAVString@Platform@@PE$AAVObject@2@@Collections@Foundation@Windows@@@Collections@NodeRT@@CAXV?$Local@VString@v8@@@v8@@AEBV?$PropertyCallbackInfo@VValue@v8@@@Nan@@@Z 000000018004e840 f i _nodert_generated.obj
 0001:0004d920       ?HasCurrentGetter@?$IteratorWrapper@PE$AAVDeviceInformation@Enumeration@Devices@Windows@@@Collections@NodeRT@@CAXV?$Local@VString@v8@@@v8@@AEBV?$PropertyCallbackInfo@VValue@v8@@@Nan@@@Z 000000018004e920 f i _nodert_generated.obj
 0001:0004da00       ?HasCurrentGetter@?$IteratorWrapper@PE$AAVDeviceWatcherEvent@Enumeration@Devices@Windows@@@Collections@NodeRT@@CAXV?$Local@VString@v8@@@v8@@AEBV?$PropertyCallbackInfo@VValue@v8@@@Nan@@@Z 000000018004ea00 f i _nodert_generated.obj
 0001:0004dae0       ?HasCurrentGetter@?$IteratorWrapper@PE$AAVString@Platform@@@Collections@NodeRT@@CAXV?$Local@VString@v8@@@v8@@AEBV?$PropertyCallbackInfo@VValue@v8@@@Nan@@@Z 000000018004eae0 f i _nodert_generated.obj
 0001:0004dbc0       ?HasCurrentGetter@?$IteratorWrapper@W4DeviceClass@Enumeration@Devices@Windows@@@Collections@NodeRT@@CAXV?$Local@VString@v8@@@v8@@AEBV?$PropertyCallbackInfo@VValue@v8@@@Nan@@@Z 000000018004ebc0 f i _nodert_generated.obj
 0001:0004dca0       ?HasKey@?$IMapView@PE$AAVString@Platform@@PE$AAVObject@2@@Collections@Foundation@Windows@@UE$AAA_NPE$AAVString@Platform@@@Z 000000018004eca0 f i _nodert_generated.obj
 0001:0004dcd0       ?HasKey@?$MapViewWrapper@PE$AAVString@Platform@@PE$AAVObject@2@@Collections@NodeRT@@CAXAEBV?$FunctionCallbackInfo@VValue@v8@@@Nan@@@Z 000000018004ecd0 f i _nodert_generated.obj
 0001:0004df10       ?Hide@DevicePicker@Enumeration@Devices@Windows@NodeRT@@CAXAEBV?$FunctionCallbackInfo@VValue@v8@@@Nan@@@Z 000000018004ef10 f i _nodert_generated.obj
 0001:0004e010       ?Hide@IDevicePicker@Enumeration@Devices@Windows@@UE$AAAXXZ 000000018004f010 f i _nodert_generated.obj
 0001:0004e040       ?IdGetter@DeviceAccessChangedEventArgs@Enumeration@Devices@Windows@NodeRT@@CAXV?$Local@VString@v8@@@v8@@AEBV?$PropertyCallbackInfo@VValue@v8@@@Nan@@@Z 000000018004f040 f i _nodert_generated.obj
 0001:0004e1f0       ?IdGetter@DeviceInformation@Enumeration@Devices@Windows@NodeRT@@CAXV?$Local@VString@v8@@@v8@@AEBV?$PropertyCallbackInfo@VValue@v8@@@Nan@@@Z 000000018004f1f0 f i _nodert_generated.obj
 0001:0004e330       ?IdGetter@DeviceInformationUpdate@Enumeration@Devices@Windows@NodeRT@@CAXV?$Local@VString@v8@@@v8@@AEBV?$PropertyCallbackInfo@VValue@v8@@@Nan@@@Z 000000018004f330 f i _nodert_generated.obj
 0001:0004e470       ?InDockGetter@EnclosureLocation@Enumeration@Devices@Windows@NodeRT@@CAXV?$Local@VString@v8@@@v8@@AEBV?$PropertyCallbackInfo@VValue@v8@@@Nan@@@Z 000000018004f470 f i _nodert_generated.obj
 0001:0004e560       ?InLidGetter@EnclosureLocation@Enumeration@Devices@Windows@NodeRT@@CAXV?$Local@VString@v8@@@v8@@AEBV?$PropertyCallbackInfo@VValue@v8@@@Nan@@@Z 000000018004f560 f i _nodert_generated.obj
 0001:0004e650       ?Increment@__abi_FTMWeakRefData@@QECAKXZ 000000018004f650 f i _nodert_generated.obj
 0001:0004e680       ?IncrementCounter@Details@Collections@Platform@@YAXAEAV?$shared_ptr@I@std@@@Z 000000018004f680 f i _nodert_generated.obj
 0001:0004ea40       ?IndexOf@?$IVector@PE$AAVString@Platform@@@Collections@Foundation@Windows@@UE$AAA_NPE$AAVString@Platform@@PEAI@Z 000000018004fa40 f i _nodert_generated.obj
 0001:0004ea80       ?IndexOf@?$IVector@W4DeviceClass@Enumeration@Devices@Windows@@@Collections@Foundation@Windows@@UE$AAA_NW4DeviceClass@Enumeration@Devices@4@PEAI@Z 000000018004fa80 f i _nodert_generated.obj
 0001:0004eac0       ?IndexOf@?$IVectorView@PE$AAVDeviceInformation@Enumeration@Devices@Windows@@@Collections@Foundation@Windows@@UE$AAA_NPE$AAVDeviceInformation@Enumeration@Devices@4@PEAI@Z 000000018004fac0 f i _nodert_generated.obj
 0001:0004eb00       ?IndexOf@?$IVectorView@PE$AAVDeviceWatcherEvent@Enumeration@Devices@Windows@@@Collections@Foundation@Windows@@UE$AAA_NPE$AAVDeviceWatcherEvent@Enumeration@Devices@4@PEAI@Z 000000018004fb00 f i _nodert_generated.obj
 0001:0004eb40       ?IndexOf@?$IVectorView@PE$AAVString@Platform@@@Collections@Foundation@Windows@@UE$AAA_NPE$AAVString@Platform@@PEAI@Z 000000018004fb40 f i _nodert_generated.obj
 0001:0004eb80       ?IndexOf@?$IVectorView@W4DeviceClass@Enumeration@Devices@Windows@@@Collections@Foundation@Windows@@UE$AAA_NW4DeviceClass@Enumeration@Devices@4@PEAI@Z 000000018004fb80 f i _nodert_generated.obj
 0001:0004ebc0       ?IndexOf@?$VectorViewWrapper@PE$AAVDeviceWatcherEvent@Enumeration@Devices@Windows@@@Collections@NodeRT@@CAXAEBV?$FunctionCallbackInfo@VValue@v8@@@Nan@@@Z 000000018004fbc0 f i _nodert_generated.obj
 0001:0004ef90       ?IndexOf@?$VectorViewWrapper@PE$AAVString@Platform@@@Collections@NodeRT@@CAXAEBV?$FunctionCallbackInfo@VValue@v8@@@Nan@@@Z 000000018004ff90 f i _nodert_generated.obj
 0001:0004f350       ?IndexOf@?$VectorViewWrapper@W4DeviceClass@Enumeration@Devices@Windows@@@Collections@NodeRT@@CAXAEBV?$FunctionCallbackInfo@VValue@v8@@@Nan@@@Z 0000000180050350 f i _nodert_generated.obj
 0001:0004f6f0       ?IndexOf@?$VectorWrapper@PE$AAVString@Platform@@@Collections@NodeRT@@CAXAEBV?$FunctionCallbackInfo@VValue@v8@@@Nan@@@Z 00000001800506f0 f i _nodert_generated.obj
 0001:0004fab0       ?IndexOf@?$VectorWrapper@W4DeviceClass@Enumeration@Devices@Windows@@@Collections@NodeRT@@CAXAEBV?$FunctionCallbackInfo@VValue@v8@@@Nan@@@Z 0000000180050ab0 f i _nodert_generated.obj
 0001:0004fe50       ?IndexOf@?Q?$IVector@PE$AAVString@Platform@@@Collections@Foundation@Windows@@?$Vector@PE$AAVString@Platform@@U?$equal_to@PE$AAVString@Platform@@@std@@$00@2Platform@@UE$AAA_NPE$AAVString@6@PEAI@Z 0000000180050e50 f i _nodert_generated.obj
 0001:0004fe64       ?IndexOf@?Q?$IVector@PE$AAVString@Platform@@@Collections@Foundation@Windows@@?$Vector@PE$AAVString@Platform@@U?$equal_to@PE$AAVString@Platform@@@std@@$00@2Platform@@W7E$AAA_NPE$AAVString@6@PEAI@Z 0000000180050e64 f i _nodert_generated.obj
 0001:0004fe70       ?IndexOf@?Q?$IVector@W4DeviceWatcherEventKind@Enumeration@Devices@Windows@@@Collections@Foundation@Windows@@?$Vector@W4DeviceWatcherEventKind@Enumeration@Devices@Windows@@U?$equal_to@W4DeviceWatcherEventKind@Enumeration@Devices@Windows@@@std@@$00@2Platform@@UE$AAA_NW4DeviceWatcherEventKind@Enumeration@Devices@4@PEAI@Z 0000000180050e70 f i _nodert_generated.obj
 0001:0004fed0       ?IndexOf@?Q?$IVector@W4DeviceWatcherEventKind@Enumeration@Devices@Windows@@@Collections@Foundation@Windows@@?$Vector@W4DeviceWatcherEventKind@Enumeration@Devices@Windows@@U?$equal_to@W4DeviceWatcherEventKind@Enumeration@Devices@Windows@@@std@@$00@2Platform@@W7E$AAA_NW4DeviceWatcherEventKind@Enumeration@Devices@4@PEAI@Z 0000000180050ed0 f i _nodert_generated.obj
 0001:0004fee0       ?IndexOf@?Q?$IVectorView@PE$AAVString@Platform@@@Collections@Foundation@Windows@@?$VectorView@PE$AAVString@Platform@@U?$equal_to@PE$AAVString@Platform@@@std@@$00@2Platform@@UE$AAA_NPE$AAVString@6@PEAI@Z 0000000180050ee0 f i _nodert_generated.obj
 0001:0004ff80       ?IndexOf@?Q?$IVectorView@W4DeviceWatcherEventKind@Enumeration@Devices@Windows@@@Collections@Foundation@Windows@@?$VectorView@W4DeviceWatcherEventKind@Enumeration@Devices@Windows@@U?$equal_to@W4DeviceWatcherEventKind@Enumeration@Devices@Windows@@@std@@$00@2Platform@@UE$AAA_NW4DeviceWatcherEventKind@Enumeration@Devices@4@PEAI@Z 0000000180050f80 f i _nodert_generated.obj
 0001:00050070       ?IndexOf@DeviceInformationCollection@Enumeration@Devices@Windows@NodeRT@@CAXAEBV?$FunctionCallbackInfo@VValue@v8@@@Nan@@@Z 0000000180051070 f i _nodert_generated.obj
 0001:00050600       ?Init@?$ArrayReference@PE$AAVString@Platform@@$00@Platform@@AEAAXPEAPE$AAVString@2@I_N@Z 0000000180051600 f i _nodert_generated.obj
 0001:00050740       ?Init@?$ArrayReference@W4DeviceWatcherEventKind@Enumeration@Devices@Windows@@$00@Platform@@AEAAXPEAW4DeviceWatcherEventKind@Enumeration@Devices@Windows@@I_N@Z 0000000180051740 f i _nodert_generated.obj
 0001:00050880       ?Init@?$IteratorWrapper@PE$AAU?$IKeyValuePair@PE$AAVString@Platform@@PE$AAVObject@2@@Collections@Foundation@Windows@@@Collections@NodeRT@@SAXXZ 0000000180051880 f i _nodert_generated.obj
 0001:00050b20       ?Init@?$IteratorWrapper@PE$AAVDeviceInformation@Enumeration@Devices@Windows@@@Collections@NodeRT@@SAXXZ 0000000180051b20 f i _nodert_generated.obj
 0001:00050dc0       ?Init@?$IteratorWrapper@PE$AAVDeviceWatcherEvent@Enumeration@Devices@Windows@@@Collections@NodeRT@@SAXXZ 0000000180051dc0 f i _nodert_generated.obj
 0001:00051060       ?Init@?$IteratorWrapper@PE$AAVString@Platform@@@Collections@NodeRT@@SAXXZ 0000000180052060 f i _nodert_generated.obj
 0001:00051300       ?Init@?$IteratorWrapper@W4DeviceClass@Enumeration@Devices@Windows@@@Collections@NodeRT@@SAXXZ 0000000180052300 f i _nodert_generated.obj
 0001:000515a0       ?Init@?$KeyValuePairWrapper@PE$AAVString@Platform@@PE$AAVObject@2@@Collections@NodeRT@@SAXXZ 00000001800525a0 f i _nodert_generated.obj
 0001:00051810       ?Init@?$MapViewWrapper@PE$AAVString@Platform@@PE$AAVObject@2@@Collections@NodeRT@@SAXXZ 0000000180052810 f i _nodert_generated.obj
 0001:00051ac0       ?Init@?$VectorViewWrapper@PE$AAVDeviceWatcherEvent@Enumeration@Devices@Windows@@@Collections@NodeRT@@SAXXZ 0000000180052ac0 f i _nodert_generated.obj
 0001:00051e90       ?Init@?$VectorViewWrapper@PE$AAVString@Platform@@@Collections@NodeRT@@SAXXZ 0000000180052e90 f i _nodert_generated.obj
 0001:00052260       ?Init@?$VectorViewWrapper@W4DeviceClass@Enumeration@Devices@Windows@@@Collections@NodeRT@@SAXXZ 0000000180053260 f i _nodert_generated.obj
 0001:00052630       ?Init@?$VectorWrapper@PE$AAVString@Platform@@@Collections@NodeRT@@SAXXZ 0000000180053630 f i _nodert_generated.obj
 0001:00052b20       ?Init@?$VectorWrapper@W4DeviceClass@Enumeration@Devices@Windows@@@Collections@NodeRT@@SAXXZ 0000000180053b20 f i _nodert_generated.obj
 0001:00053010       ?Init@DeviceAccessChangedEventArgs@Enumeration@Devices@Windows@NodeRT@@SAXV?$Local@VObject@v8@@@v8@@@Z 0000000180054010 f i _nodert_generated.obj
 0001:00053310       ?Init@DeviceAccessInformation@Enumeration@Devices@Windows@NodeRT@@SAXV?$Local@VObject@v8@@@v8@@@Z 0000000180054310 f i _nodert_generated.obj
 0001:00053650       ?Init@DeviceConnectionChangeTriggerDetails@Enumeration@Devices@Windows@NodeRT@@SAXV?$Local@VObject@v8@@@v8@@@Z 0000000180054650 f i _nodert_generated.obj
 0001:000538c0       ?Init@DeviceDisconnectButtonClickedEventArgs@Enumeration@Devices@Windows@NodeRT@@SAXV?$Local@VObject@v8@@@v8@@@Z 00000001800548c0 f i _nodert_generated.obj
 0001:00053b30       ?Init@DeviceInformation@Enumeration@Devices@Windows@NodeRT@@SAXV?$Local@VObject@v8@@@v8@@@Z 0000000180054b30 f i _nodert_generated.obj
 0001:00054320       ?Init@DeviceInformationCollection@Enumeration@Devices@Windows@NodeRT@@SAXV?$Local@VObject@v8@@@v8@@@Z 0000000180055320 f i _nodert_generated.obj
 0001:00054580       ?Init@DeviceInformationCustomPairing@Enumeration@Devices@Windows@NodeRT@@SAXV?$Local@VObject@v8@@@v8@@@Z 0000000180055580 f i _nodert_generated.obj
 0001:00054800       ?Init@DeviceInformationPairing@Enumeration@Devices@Windows@NodeRT@@SAXV?$Local@VObject@v8@@@v8@@@Z 0000000180055800 f i _nodert_generated.obj
 0001:00054c60       ?Init@DeviceInformationUpdate@Enumeration@Devices@Windows@NodeRT@@SAXV?$Local@VObject@v8@@@v8@@@Z 0000000180055c60 f i _nodert_generated.obj
 0001:00054fe0       ?Init@DevicePairingRequestedEventArgs@Enumeration@Devices@Windows@NodeRT@@SAXV?$Local@VObject@v8@@@v8@@@Z 0000000180055fe0 f i _nodert_generated.obj
 0001:000553a0       ?Init@DevicePairingResult@Enumeration@Devices@Windows@NodeRT@@SAXV?$Local@VObject@v8@@@v8@@@Z 00000001800563a0 f i _nodert_generated.obj
 0001:000556a0       ?Init@DevicePicker@Enumeration@Devices@Windows@NodeRT@@SAXV?$Local@VObject@v8@@@v8@@@Z 00000001800566a0 f i _nodert_generated.obj
 0001:00055b10       ?Init@DevicePickerAppearance@Enumeration@Devices@Windows@NodeRT@@SAXV?$Local@VObject@v8@@@v8@@@Z 0000000180056b10 f i _nodert_generated.obj
 0001:000560e0       ?Init@DevicePickerFilter@Enumeration@Devices@Windows@NodeRT@@SAXV?$Local@VObject@v8@@@v8@@@Z 00000001800570e0 f i _nodert_generated.obj
 0001:000563e0       ?Init@DeviceSelectedEventArgs@Enumeration@Devices@Windows@NodeRT@@SAXV?$Local@VObject@v8@@@v8@@@Z 00000001800573e0 f i _nodert_generated.obj
 0001:00056650       ?Init@DeviceThumbnail@Enumeration@Devices@Windows@NodeRT@@SAXV?$Local@VObject@v8@@@v8@@@Z 0000000180057650 f i _nodert_generated.obj
 0001:00056bd0       ?Init@DeviceUnpairingResult@Enumeration@Devices@Windows@NodeRT@@SAXV?$Local@VObject@v8@@@v8@@@Z 0000000180057bd0 f i _nodert_generated.obj
 0001:00056e40       ?Init@DeviceWatcher@Enumeration@Devices@Windows@NodeRT@@SAXV?$Local@VObject@v8@@@v8@@@Z 0000000180057e40 f i _nodert_generated.obj
 0001:00057180       ?Init@DeviceWatcherEvent@Enumeration@Devices@Windows@NodeRT@@SAXV?$Local@VObject@v8@@@v8@@@Z 0000000180058180 f i _nodert_generated.obj
 0001:00057500       ?Init@DeviceWatcherTriggerDetails@Enumeration@Devices@Windows@NodeRT@@SAXV?$Local@VObject@v8@@@v8@@@Z 0000000180058500 f i _nodert_generated.obj
 0001:00057770       ?Init@EnclosureLocation@Enumeration@Devices@Windows@NodeRT@@SAXV?$Local@VObject@v8@@@v8@@@Z 0000000180058770 f i _nodert_generated.obj
 0001:00057b80       ?Init@IDevicePairingSettings@Enumeration@Devices@Windows@NodeRT@@SAXV?$Local@VObject@v8@@@v8@@@Z 0000000180058b80 f i _nodert_generated.obj
 0001:00057d80       ?InitDeviceAccessChangedEventArgs@Enumeration@Devices@Windows@NodeRT@@YAXV?$Local@VObject@v8@@@v8@@@Z 0000000180058d80 f   _nodert_generated.obj
 0001:00057da0       ?InitDeviceAccessInformation@Enumeration@Devices@Windows@NodeRT@@YAXV?$Local@VObject@v8@@@v8@@@Z 0000000180058da0 f   _nodert_generated.obj
 0001:000585f0       ?InitDeviceConnectionChangeTriggerDetails@Enumeration@Devices@Windows@NodeRT@@YAXV?$Local@VObject@v8@@@v8@@@Z 00000001800595f0 f   _nodert_generated.obj
 0001:00058610       ?InitDeviceDisconnectButtonClickedEventArgs@Enumeration@Devices@Windows@NodeRT@@YAXV?$Local@VObject@v8@@@v8@@@Z 0000000180059610 f   _nodert_generated.obj
 0001:00058630       ?InitDeviceInformation@Enumeration@Devices@Windows@NodeRT@@YAXV?$Local@VObject@v8@@@v8@@@Z 0000000180059630 f   _nodert_generated.obj
 0001:00058650       ?InitDeviceInformationCollection@Enumeration@Devices@Windows@NodeRT@@YAXV?$Local@VObject@v8@@@v8@@@Z 0000000180059650 f   _nodert_generated.obj
 0001:00058670       ?InitDeviceInformationCustomPairing@Enumeration@Devices@Windows@NodeRT@@YAXV?$Local@VObject@v8@@@v8@@@Z 0000000180059670 f   _nodert_generated.obj
 0001:00058c30       ?InitDeviceInformationPairing@Enumeration@Devices@Windows@NodeRT@@YAXV?$Local@VObject@v8@@@v8@@@Z 0000000180059c30 f   _nodert_generated.obj
 0001:00058c50       ?InitDeviceInformationUpdate@Enumeration@Devices@Windows@NodeRT@@YAXV?$Local@VObject@v8@@@v8@@@Z 0000000180059c50 f   _nodert_generated.obj
 0001:00059370       ?InitDevicePairingRequestedEventArgs@Enumeration@Devices@Windows@NodeRT@@YAXV?$Local@VObject@v8@@@v8@@@Z 000000018005a370 f   _nodert_generated.obj
 0001:00059390       ?InitDevicePairingResult@Enumeration@Devices@Windows@NodeRT@@YAXV?$Local@VObject@v8@@@v8@@@Z 000000018005a390 f   _nodert_generated.obj
 0001:0005a090       ?InitDevicePicker@Enumeration@Devices@Windows@NodeRT@@YAXV?$Local@VObject@v8@@@v8@@@Z 000000018005b090 f   _nodert_generated.obj
 0001:0005a0b0       ?InitDevicePickerAppearance@Enumeration@Devices@Windows@NodeRT@@YAXV?$Local@VObject@v8@@@v8@@@Z 000000018005b0b0 f   _nodert_generated.obj
 0001:0005a400       ?InitDevicePickerFilter@Enumeration@Devices@Windows@NodeRT@@YAXV?$Local@VObject@v8@@@v8@@@Z 000000018005b400 f   _nodert_generated.obj
 0001:0005a420       ?InitDeviceSelectedEventArgs@Enumeration@Devices@Windows@NodeRT@@YAXV?$Local@VObject@v8@@@v8@@@Z 000000018005b420 f   _nodert_generated.obj
 0001:0005a440       ?InitDeviceThumbnail@Enumeration@Devices@Windows@NodeRT@@YAXV?$Local@VObject@v8@@@v8@@@Z 000000018005b440 f   _nodert_generated.obj
 0001:0005a460       ?InitDeviceUnpairingResult@Enumeration@Devices@Windows@NodeRT@@YAXV?$Local@VObject@v8@@@v8@@@Z 000000018005b460 f   _nodert_generated.obj
 0001:0005a850       ?InitDeviceWatcher@Enumeration@Devices@Windows@NodeRT@@YAXV?$Local@VObject@v8@@@v8@@@Z 000000018005b850 f   _nodert_generated.obj
 0001:0005a870       ?InitDeviceWatcherEvent@Enumeration@Devices@Windows@NodeRT@@YAXV?$Local@VObject@v8@@@v8@@@Z 000000018005b870 f   _nodert_generated.obj
 0001:0005af80       ?InitDeviceWatcherTriggerDetails@Enumeration@Devices@Windows@NodeRT@@YAXV?$Local@VObject@v8@@@v8@@@Z 000000018005bf80 f   _nodert_generated.obj
 0001:0005afa0       ?InitEnclosureLocation@Enumeration@Devices@Windows@NodeRT@@YAXV?$Local@VObject@v8@@@v8@@@Z 000000018005bfa0 f   _nodert_generated.obj
 0001:0005afc0       ?InitIDevicePairingSettings@Enumeration@Devices@Windows@NodeRT@@YAXV?$Local@VObject@v8@@@v8@@@Z 000000018005bfc0 f   _nodert_generated.obj
 0001:0005b4e0       ?InsertAt@?$IVector@PE$AAVString@Platform@@@Collections@Foundation@Windows@@UE$AAAXIPE$AAVString@Platform@@@Z 000000018005c4e0 f i _nodert_generated.obj
 0001:0005b510       ?InsertAt@?$IVector@W4DeviceClass@Enumeration@Devices@Windows@@@Collections@Foundation@Windows@@UE$AAAXIW4DeviceClass@Enumeration@Devices@4@@Z 000000018005c510 f i _nodert_generated.obj
 0001:0005b540       ?InsertAt@?$VectorWrapper@PE$AAVString@Platform@@@Collections@NodeRT@@CAXAEBV?$FunctionCallbackInfo@VValue@v8@@@Nan@@@Z 000000018005c540 f i _nodert_generated.obj
 0001:0005b790       ?InsertAt@?$VectorWrapper@W4DeviceClass@Enumeration@Devices@Windows@@@Collections@NodeRT@@CAXAEBV?$FunctionCallbackInfo@VValue@v8@@@Nan@@@Z 000000018005c790 f i _nodert_generated.obj
 0001:0005b9b0       ?InsertAt@?Q?$IVector@PE$AAVString@Platform@@@Collections@Foundation@Windows@@?$Vector@PE$AAVString@Platform@@U?$equal_to@PE$AAVString@Platform@@@std@@$00@2Platform@@UE$AAAXIPE$AAVString@6@@Z 000000018005c9b0 f i _nodert_generated.obj
 0001:0005bc10       ?InsertAt@?Q?$IVector@PE$AAVString@Platform@@@Collections@Foundation@Windows@@?$Vector@PE$AAVString@Platform@@U?$equal_to@PE$AAVString@Platform@@@std@@$00@2Platform@@W7E$AAAXIPE$AAVString@6@@Z 000000018005cc10 f i _nodert_generated.obj
 0001:0005bc20       ?InsertAt@?Q?$IVector@W4DeviceWatcherEventKind@Enumeration@Devices@Windows@@@Collections@Foundation@Windows@@?$Vector@W4DeviceWatcherEventKind@Enumeration@Devices@Windows@@U?$equal_to@W4DeviceWatcherEventKind@Enumeration@Devices@Windows@@@std@@$00@2Platform@@UE$AAAXIW4DeviceWatcherEventKind@Enumeration@Devices@4@@Z 000000018005cc20 f i _nodert_generated.obj
 0001:0005bde8       ?InsertAt@?Q?$IVector@W4DeviceWatcherEventKind@Enumeration@Devices@Windows@@@Collections@Foundation@Windows@@?$Vector@W4DeviceWatcherEventKind@Enumeration@Devices@Windows@@U?$equal_to@W4DeviceWatcherEventKind@Enumeration@Devices@Windows@@@std@@$00@2Platform@@W7E$AAAXIW4DeviceWatcherEventKind@Enumeration@Devices@4@@Z 000000018005cde8 f i _nodert_generated.obj
 0001:0005be00       ?Invoke@?$AsyncOperationCompletedHandler@I@Foundation@Windows@@UE$AAAXPE$AAU?$IAsyncOperation@I@23@W4AsyncStatus@23@@Z 000000018005ce00 f i _nodert_generated.obj
 0001:0005be50       ?Invoke@?$AsyncOperationCompletedHandler@PE$AAUIBuffer@Streams@Storage@Windows@@@Foundation@Windows@@UE$AAAXPE$AAU?$IAsyncOperation@PE$AAUIBuffer@Streams@Storage@Windows@@@23@W4AsyncStatus@23@@Z 000000018005ce50 f i _nodert_generated.obj
 0001:0005bea0       ?Invoke@?$AsyncOperationCompletedHandler@PE$AAVDeviceInformation@Enumeration@Devices@Windows@@@Foundation@Windows@@UE$AAAXPE$AAU?$IAsyncOperation@PE$AAVDeviceInformation@Enumeration@Devices@Windows@@@23@W4AsyncStatus@23@@Z 000000018005cea0 f i _nodert_generated.obj
 0001:0005bef0       ?Invoke@?$AsyncOperationCompletedHandler@PE$AAVDeviceInformationCollection@Enumeration@Devices@Windows@@@Foundation@Windows@@UE$AAAXPE$AAU?$IAsyncOperation@PE$AAVDeviceInformationCollection@Enumeration@Devices@Windows@@@23@W4AsyncStatus@23@@Z 000000018005cef0 f i _nodert_generated.obj
 0001:0005bf40       ?Invoke@?$AsyncOperationCompletedHandler@PE$AAVDevicePairingResult@Enumeration@Devices@Windows@@@Foundation@Windows@@UE$AAAXPE$AAU?$IAsyncOperation@PE$AAVDevicePairingResult@Enumeration@Devices@Windows@@@23@W4AsyncStatus@23@@Z 000000018005cf40 f i _nodert_generated.obj
 0001:0005bf90       ?Invoke@?$AsyncOperationCompletedHandler@PE$AAVDeviceThumbnail@Enumeration@Devices@Windows@@@Foundation@Windows@@UE$AAAXPE$AAU?$IAsyncOperation@PE$AAVDeviceThumbnail@Enumeration@Devices@Windows@@@23@W4AsyncStatus@23@@Z 000000018005cf90 f i _nodert_generated.obj
 0001:0005bfe0       ?Invoke@?$AsyncOperationCompletedHandler@PE$AAVDeviceUnpairingResult@Enumeration@Devices@Windows@@@Foundation@Windows@@UE$AAAXPE$AAU?$IAsyncOperation@PE$AAVDeviceUnpairingResult@Enumeration@Devices@Windows@@@23@W4AsyncStatus@23@@Z 000000018005cfe0 f i _nodert_generated.obj
 0001:0005c030       ?Invoke@?$AsyncOperationCompletedHandler@_N@Foundation@Windows@@UE$AAAXPE$AAU?$IAsyncOperation@_N@23@W4AsyncStatus@23@@Z 000000018005d030 f i _nodert_generated.obj
 0001:0005c080       ?Invoke@?$AsyncOperationWithProgressCompletedHandler@II@Foundation@Windows@@UE$AAAXPE$AAU?$IAsyncOperationWithProgress@II@23@W4AsyncStatus@23@@Z 000000018005d080 f i _nodert_generated.obj
 0001:0005c0d0       ?Invoke@?$AsyncOperationWithProgressCompletedHandler@PE$AAUIBuffer@Streams@Storage@Windows@@I@Foundation@Windows@@UE$AAAXPE$AAU?$IAsyncOperationWithProgress@PE$AAUIBuffer@Streams@Storage@Windows@@I@23@W4AsyncStatus@23@@Z 000000018005d0d0 f i _nodert_generated.obj
 0001:0005c120       ?Invoke@?$TypedEventHandler@PE$AAVDeviceAccessInformation@Enumeration@Devices@Windows@@PE$AAVDeviceAccessChangedEventArgs@234@@Foundation@Windows@@UE$AAAXPE$AAVDeviceAccessInformation@Enumeration@Devices@3@PE$AAVDeviceAccessChangedEventArgs@563@@Z 000000018005d120 f i _nodert_generated.obj
 0001:0005c170       ?Invoke@?$TypedEventHandler@PE$AAVDeviceInformationCustomPairing@Enumeration@Devices@Windows@@PE$AAVDevicePairingRequestedEventArgs@234@@Foundation@Windows@@UE$AAAXPE$AAVDeviceInformationCustomPairing@Enumeration@Devices@3@PE$AAVDevicePairingRequestedEventArgs@563@@Z 000000018005d170 f i _nodert_generated.obj
 0001:0005c1c0       ?Invoke@?$TypedEventHandler@PE$AAVDevicePicker@Enumeration@Devices@Windows@@PE$AAVDeviceDisconnectButtonClickedEventArgs@234@@Foundation@Windows@@UE$AAAXPE$AAVDevicePicker@Enumeration@Devices@3@PE$AAVDeviceDisconnectButtonClickedEventArgs@563@@Z 000000018005d1c0 f i _nodert_generated.obj
 0001:0005c210       ?Invoke@?$TypedEventHandler@PE$AAVDevicePicker@Enumeration@Devices@Windows@@PE$AAVDeviceSelectedEventArgs@234@@Foundation@Windows@@UE$AAAXPE$AAVDevicePicker@Enumeration@Devices@3@PE$AAVDeviceSelectedEventArgs@563@@Z 000000018005d210 f i _nodert_generated.obj
 0001:0005c260       ?Invoke@?$TypedEventHandler@PE$AAVDevicePicker@Enumeration@Devices@Windows@@PE$AAVObject@Platform@@@Foundation@Windows@@UE$AAAXPE$AAVDevicePicker@Enumeration@Devices@3@PE$AAVObject@Platform@@@Z 000000018005d260 f i _nodert_generated.obj
 0001:0005c2b0       ?Invoke@?$TypedEventHandler@PE$AAVDeviceWatcher@Enumeration@Devices@Windows@@PE$AAVDeviceInformation@234@@Foundation@Windows@@UE$AAAXPE$AAVDeviceWatcher@Enumeration@Devices@3@PE$AAVDeviceInformation@563@@Z 000000018005d2b0 f i _nodert_generated.obj
 0001:0005c300       ?Invoke@?$TypedEventHandler@PE$AAVDeviceWatcher@Enumeration@Devices@Windows@@PE$AAVDeviceInformationUpdate@234@@Foundation@Windows@@UE$AAAXPE$AAVDeviceWatcher@Enumeration@Devices@3@PE$AAVDeviceInformationUpdate@563@@Z 000000018005d300 f i _nodert_generated.obj
 0001:0005c350       ?Invoke@?$TypedEventHandler@PE$AAVDeviceWatcher@Enumeration@Devices@Windows@@PE$AAVObject@Platform@@@Foundation@Windows@@UE$AAAXPE$AAVDeviceWatcher@Enumeration@Devices@3@PE$AAVObject@Platform@@@Z 000000018005d350 f i _nodert_generated.obj
 0001:0005c3a0       ?Invoke@?$VectorChangedEventHandler@PE$AAVString@Platform@@@Collections@Foundation@Windows@@UE$AAAXPE$AAU?$IObservableVector@PE$AAVString@Platform@@@234@PE$AAUIVectorChangedEventArgs@234@@Z 000000018005d3a0 f i _nodert_generated.obj
 0001:0005c3f0       ?Invoke@?$VectorChangedEventHandler@W4DeviceWatcherEventKind@Enumeration@Devices@Windows@@@Collections@Foundation@Windows@@UE$AAAXPE$AAU?$IObservableVector@W4DeviceWatcherEventKind@Enumeration@Devices@Windows@@@234@PE$AAUIVectorChangedEventArgs@234@@Z 000000018005d3f0 f i _nodert_generated.obj
 0001:0005c440       ?Invoke@?$__abi_FunctorCapture@V<lambda_11ae5e2332e27c7defe3fc71b95bc051>@@XPE$AAVDeviceWatcher@Enumeration@Devices@Windows@@PE$AAVDeviceInformationUpdate@345@@Details@Platform@@UEAAXPE$AAVDeviceWatcher@Enumeration@Devices@Windows@@PE$AAVDeviceInformationUpdate@567@@Z 000000018005d440 f i _nodert_generated.obj
 0001:0005c450       ?Invoke@?$__abi_FunctorCapture@V<lambda_1c2c1434820349da43b21d405bb32470>@@XPE$AAVDeviceWatcher@Enumeration@Devices@Windows@@PE$AAVObject@Platform@@@Details@Platform@@UEAAXPE$AAVDeviceWatcher@Enumeration@Devices@Windows@@PE$AAVObject@3@@Z 000000018005d450 f i _nodert_generated.obj
 0001:0005c460       ?Invoke@?$__abi_FunctorCapture@V<lambda_1c6c1b322bf2733cdee76baa2bd484e8>@@XPE$AAU?$IAsyncOperation@I@Foundation@Windows@@W4AsyncStatus@34@@Details@Platform@@UEAAXPE$AAU?$IAsyncOperation@I@Foundation@Windows@@W4AsyncStatus@56@@Z 000000018005d460 f i _nodert_generated.obj
 0001:0005c470       ?Invoke@?$__abi_FunctorCapture@V<lambda_338a6eb91f8f0018d922c59d8cb00a90>@@XPE$AAVDevicePicker@Enumeration@Devices@Windows@@PE$AAVDeviceSelectedEventArgs@345@@Details@Platform@@UEAAXPE$AAVDevicePicker@Enumeration@Devices@Windows@@PE$AAVDeviceSelectedEventArgs@567@@Z 000000018005d470 f i _nodert_generated.obj
 0001:0005c480       ?Invoke@?$__abi_FunctorCapture@V<lambda_362dddb56864f9b321daeb467199f068>@@XPE$AAVDevicePicker@Enumeration@Devices@Windows@@PE$AAVObject@Platform@@@Details@Platform@@UEAAXPE$AAVDevicePicker@Enumeration@Devices@Windows@@PE$AAVObject@3@@Z 000000018005d480 f i _nodert_generated.obj
 0001:0005c490       ?Invoke@?$__abi_FunctorCapture@V<lambda_3de33062496515ca77dec742d5341371>@@XPE$AAU?$IAsyncOperationWithProgress@PE$AAUIBuffer@Streams@Storage@Windows@@I@Foundation@Windows@@W4AsyncStatus@34@@Details@Platform@@UEAAXPE$AAU?$IAsyncOperationWithProgress@PE$AAUIBuffer@Streams@Storage@Windows@@I@Foundation@Windows@@W4AsyncStatus@56@@Z 000000018005d490 f i _nodert_generated.obj
 0001:0005c500       ?Invoke@?$__abi_FunctorCapture@V<lambda_3ff05d0f6e0fe947571a9cba4c871e9f>@@XPE$AAU?$IAsyncOperation@PE$AAVDevicePairingResult@Enumeration@Devices@Windows@@@Foundation@Windows@@W4AsyncStatus@34@@Details@Platform@@UEAAXPE$AAU?$IAsyncOperation@PE$AAVDevicePairingResult@Enumeration@Devices@Windows@@@Foundation@Windows@@W4AsyncStatus@56@@Z 000000018005d500 f i _nodert_generated.obj
 0001:0005c510       ?Invoke@?$__abi_FunctorCapture@V<lambda_417f9b9eb69d711fe281d2cc0f81e7e0>@@XPE$AAVDevicePicker@Enumeration@Devices@Windows@@PE$AAVDeviceDisconnectButtonClickedEventArgs@345@@Details@Platform@@UEAAXPE$AAVDevicePicker@Enumeration@Devices@Windows@@PE$AAVDeviceDisconnectButtonClickedEventArgs@567@@Z 000000018005d510 f i _nodert_generated.obj
 0001:0005c520       ?Invoke@?$__abi_FunctorCapture@V<lambda_560cc8e7509601e5a0821fd4ffda23ec>@@XPE$AAU?$IAsyncOperationWithProgress@II@Foundation@Windows@@W4AsyncStatus@34@@Details@Platform@@UEAAXPE$AAU?$IAsyncOperationWithProgress@II@Foundation@Windows@@W4AsyncStatus@56@@Z 000000018005d520 f i _nodert_generated.obj
 0001:0005c590       ?Invoke@?$__abi_FunctorCapture@V<lambda_7d19cc810d89fdff34731fdb4d4ddc6f>@@XPE$AAU?$IAsyncOperation@PE$AAVDeviceInformation@Enumeration@Devices@Windows@@@Foundation@Windows@@W4AsyncStatus@34@@Details@Platform@@UEAAXPE$AAU?$IAsyncOperation@PE$AAVDeviceInformation@Enumeration@Devices@Windows@@@Foundation@Windows@@W4AsyncStatus@56@@Z 000000018005d590 f i _nodert_generated.obj
 0001:0005c5a0       ?Invoke@?$__abi_FunctorCapture@V<lambda_8ec650b07ba0e505c408d2389def4a27>@@XPE$AAVDeviceWatcher@Enumeration@Devices@Windows@@PE$AAVDeviceInformationUpdate@345@@Details@Platform@@UEAAXPE$AAVDeviceWatcher@Enumeration@Devices@Windows@@PE$AAVDeviceInformationUpdate@567@@Z 000000018005d5a0 f i _nodert_generated.obj
 0001:0005c5b0       ?Invoke@?$__abi_FunctorCapture@V<lambda_9c267cdafd8e064f323ec4e1c7ae30d4>@@XPE$AAU?$IAsyncOperation@_N@Foundation@Windows@@W4AsyncStatus@34@@Details@Platform@@UEAAXPE$AAU?$IAsyncOperation@_N@Foundation@Windows@@W4AsyncStatus@56@@Z 000000018005d5b0 f i _nodert_generated.obj
 0001:0005c5c0       ?Invoke@?$__abi_FunctorCapture@V<lambda_a8a5f85c2ff75d8631efb4d869983d5e>@@XPE$AAVDeviceWatcher@Enumeration@Devices@Windows@@PE$AAVObject@Platform@@@Details@Platform@@UEAAXPE$AAVDeviceWatcher@Enumeration@Devices@Windows@@PE$AAVObject@3@@Z 000000018005d5c0 f i _nodert_generated.obj
 0001:0005c5d0       ?Invoke@?$__abi_FunctorCapture@V<lambda_aa70f50115a4b23afbc3f27a3b05f254>@@XPE$AAVDeviceWatcher@Enumeration@Devices@Windows@@PE$AAVDeviceInformation@345@@Details@Platform@@UEAAXPE$AAVDeviceWatcher@Enumeration@Devices@Windows@@PE$AAVDeviceInformation@567@@Z 000000018005d5d0 f i _nodert_generated.obj
 0001:0005c5e0       ?Invoke@?$__abi_FunctorCapture@V<lambda_b74a78ddedb14b72dbcd1e76300ffed1>@@XPE$AAU?$IAsyncOperation@PE$AAUIBuffer@Streams@Storage@Windows@@@Foundation@Windows@@W4AsyncStatus@34@@Details@Platform@@UEAAXPE$AAU?$IAsyncOperation@PE$AAUIBuffer@Streams@Storage@Windows@@@Foundation@Windows@@W4AsyncStatus@56@@Z 000000018005d5e0 f i _nodert_generated.obj
 0001:0005c5f0       ?Invoke@?$__abi_FunctorCapture@V<lambda_b83406a5130f38b3e01bb5dca17ad557>@@XPE$AAU?$IAsyncOperation@PE$AAVDeviceUnpairingResult@Enumeration@Devices@Windows@@@Foundation@Windows@@W4AsyncStatus@34@@Details@Platform@@UEAAXPE$AAU?$IAsyncOperation@PE$AAVDeviceUnpairingResult@Enumeration@Devices@Windows@@@Foundation@Windows@@W4AsyncStatus@56@@Z 000000018005d5f0 f i _nodert_generated.obj
 0001:0005c600       ?Invoke@?$__abi_FunctorCapture@V<lambda_b9369a02f6f09aa97e757a7dfe343714>@@XPE$AAVDeviceAccessInformation@Enumeration@Devices@Windows@@PE$AAVDeviceAccessChangedEventArgs@345@@Details@Platform@@UEAAXPE$AAVDeviceAccessInformation@Enumeration@Devices@Windows@@PE$AAVDeviceAccessChangedEventArgs@567@@Z 000000018005d600 f i _nodert_generated.obj
 0001:0005c610       ?Invoke@?$__abi_FunctorCapture@V<lambda_d7eb2f43511abcfd21e1d924554a4a1f>@@XPE$AAVDeviceInformationCustomPairing@Enumeration@Devices@Windows@@PE$AAVDevicePairingRequestedEventArgs@345@@Details@Platform@@UEAAXPE$AAVDeviceInformationCustomPairing@Enumeration@Devices@Windows@@PE$AAVDevicePairingRequestedEventArgs@567@@Z 000000018005d610 f i _nodert_generated.obj
 0001:0005c620       ?Invoke@?$__abi_FunctorCapture@V<lambda_f57cbd171cf6613ff499c37b18adf8a1>@@XPE$AAU?$IAsyncOperation@PE$AAVDeviceInformationCollection@Enumeration@Devices@Windows@@@Foundation@Windows@@W4AsyncStatus@34@@Details@Platform@@UEAAXPE$AAU?$IAsyncOperation@PE$AAVDeviceInformationCollection@Enumeration@Devices@Windows@@@Foundation@Windows@@W4AsyncStatus@56@@Z 000000018005d620 f i _nodert_generated.obj
 0001:0005c630       ?Invoke@?$__abi_FunctorCapture@V<lambda_fc93eed9d04cbc3042fcb6316f5e3e92>@@XPE$AAU?$IAsyncOperation@PE$AAVDeviceThumbnail@Enumeration@Devices@Windows@@@Foundation@Windows@@W4AsyncStatus@34@@Details@Platform@@UEAAXPE$AAU?$IAsyncOperation@PE$AAVDeviceThumbnail@Enumeration@Devices@Windows@@@Foundation@Windows@@W4AsyncStatus@56@@Z 000000018005d630 f i _nodert_generated.obj
 0001:0005c640       ?Invoke@BindableVectorChangedEventHandler@Interop@Xaml@UI@Windows@@UE$AAAXPE$AAUIBindableObservableVector@2345@PE$AAVObject@Platform@@@Z 000000018005d640 f i _nodert_generated.obj
 0001:0005c690       ?Invoke@__abi_IDelegate@?$AsyncOperationCompletedHandler@I@Foundation@Windows@@UE$AAAXPE$AAU?$IAsyncOperation@I@34@W4AsyncStatus@34@@Z 000000018005d690 f i _nodert_generated.obj
 0001:0005c6c0       ?Invoke@__abi_IDelegate@?$AsyncOperationCompletedHandler@PE$AAUIBuffer@Streams@Storage@Windows@@@Foundation@Windows@@UE$AAAXPE$AAU?$IAsyncOperation@PE$AAUIBuffer@Streams@Storage@Windows@@@34@W4AsyncStatus@34@@Z 000000018005d6c0 f i _nodert_generated.obj
 0001:0005c6f0       ?Invoke@__abi_IDelegate@?$AsyncOperationCompletedHandler@PE$AAVDeviceInformation@Enumeration@Devices@Windows@@@Foundation@Windows@@UE$AAAXPE$AAU?$IAsyncOperation@PE$AAVDeviceInformation@Enumeration@Devices@Windows@@@34@W4AsyncStatus@34@@Z 000000018005d6f0 f i _nodert_generated.obj
 0001:0005c720       ?Invoke@__abi_IDelegate@?$AsyncOperationCompletedHandler@PE$AAVDeviceInformationCollection@Enumeration@Devices@Windows@@@Foundation@Windows@@UE$AAAXPE$AAU?$IAsyncOperation@PE$AAVDeviceInformationCollection@Enumeration@Devices@Windows@@@34@W4AsyncStatus@34@@Z 000000018005d720 f i _nodert_generated.obj
 0001:0005c750       ?Invoke@__abi_IDelegate@?$AsyncOperationCompletedHandler@PE$AAVDevicePairingResult@Enumeration@Devices@Windows@@@Foundation@Windows@@UE$AAAXPE$AAU?$IAsyncOperation@PE$AAVDevicePairingResult@Enumeration@Devices@Windows@@@34@W4AsyncStatus@34@@Z 000000018005d750 f i _nodert_generated.obj
 0001:0005c780       ?Invoke@__abi_IDelegate@?$AsyncOperationCompletedHandler@PE$AAVDeviceThumbnail@Enumeration@Devices@Windows@@@Foundation@Windows@@UE$AAAXPE$AAU?$IAsyncOperation@PE$AAVDeviceThumbnail@Enumeration@Devices@Windows@@@34@W4AsyncStatus@34@@Z 000000018005d780 f i _nodert_generated.obj
 0001:0005c7b0       ?Invoke@__abi_IDelegate@?$AsyncOperationCompletedHandler@PE$AAVDeviceUnpairingResult@Enumeration@Devices@Windows@@@Foundation@Windows@@UE$AAAXPE$AAU?$IAsyncOperation@PE$AAVDeviceUnpairingResult@Enumeration@Devices@Windows@@@34@W4AsyncStatus@34@@Z 000000018005d7b0 f i _nodert_generated.obj
 0001:0005c7e0       ?Invoke@__abi_IDelegate@?$AsyncOperationCompletedHandler@_N@Foundation@Windows@@UE$AAAXPE$AAU?$IAsyncOperation@_N@34@W4AsyncStatus@34@@Z 000000018005d7e0 f i _nodert_generated.obj
 0001:0005c810       ?Invoke@__abi_IDelegate@?$AsyncOperationWithProgressCompletedHandler@II@Foundation@Windows@@UE$AAAXPE$AAU?$IAsyncOperationWithProgress@II@34@W4AsyncStatus@34@@Z 000000018005d810 f i _nodert_generated.obj
 0001:0005c840       ?Invoke@__abi_IDelegate@?$AsyncOperationWithProgressCompletedHandler@PE$AAUIBuffer@Streams@Storage@Windows@@I@Foundation@Windows@@UE$AAAXPE$AAU?$IAsyncOperationWithProgress@PE$AAUIBuffer@Streams@Storage@Windows@@I@34@W4AsyncStatus@34@@Z 000000018005d840 f i _nodert_generated.obj
 0001:0005c870       ?Invoke@__abi_IDelegate@?$TypedEventHandler@PE$AAVDeviceAccessInformation@Enumeration@Devices@Windows@@PE$AAVDeviceAccessChangedEventArgs@234@@Foundation@Windows@@UE$AAAXPE$AAVDeviceAccessInformation@Enumeration@Devices@4@PE$AAVDeviceAccessChangedEventArgs@674@@Z 000000018005d870 f i _nodert_generated.obj
 0001:0005c8a0       ?Invoke@__abi_IDelegate@?$TypedEventHandler@PE$AAVDeviceInformationCustomPairing@Enumeration@Devices@Windows@@PE$AAVDevicePairingRequestedEventArgs@234@@Foundation@Windows@@UE$AAAXPE$AAVDeviceInformationCustomPairing@Enumeration@Devices@4@PE$AAVDevicePairingRequestedEventArgs@674@@Z 000000018005d8a0 f i _nodert_generated.obj
 0001:0005c8d0       ?Invoke@__abi_IDelegate@?$TypedEventHandler@PE$AAVDevicePicker@Enumeration@Devices@Windows@@PE$AAVDeviceDisconnectButtonClickedEventArgs@234@@Foundation@Windows@@UE$AAAXPE$AAVDevicePicker@Enumeration@Devices@4@PE$AAVDeviceDisconnectButtonClickedEventArgs@674@@Z 000000018005d8d0 f i _nodert_generated.obj
 0001:0005c900       ?Invoke@__abi_IDelegate@?$TypedEventHandler@PE$AAVDevicePicker@Enumeration@Devices@Windows@@PE$AAVDeviceSelectedEventArgs@234@@Foundation@Windows@@UE$AAAXPE$AAVDevicePicker@Enumeration@Devices@4@PE$AAVDeviceSelectedEventArgs@674@@Z 000000018005d900 f i _nodert_generated.obj
 0001:0005c930       ?Invoke@__abi_IDelegate@?$TypedEventHandler@PE$AAVDevicePicker@Enumeration@Devices@Windows@@PE$AAVObject@Platform@@@Foundation@Windows@@UE$AAAXPE$AAVDevicePicker@Enumeration@Devices@4@PE$AAVObject@Platform@@@Z 000000018005d930 f i _nodert_generated.obj
 0001:0005c960       ?Invoke@__abi_IDelegate@?$TypedEventHandler@PE$AAVDeviceWatcher@Enumeration@Devices@Windows@@PE$AAVDeviceInformation@234@@Foundation@Windows@@UE$AAAXPE$AAVDeviceWatcher@Enumeration@Devices@4@PE$AAVDeviceInformation@674@@Z 000000018005d960 f i _nodert_generated.obj
 0001:0005c990       ?Invoke@__abi_IDelegate@?$TypedEventHandler@PE$AAVDeviceWatcher@Enumeration@Devices@Windows@@PE$AAVDeviceInformationUpdate@234@@Foundation@Windows@@UE$AAAXPE$AAVDeviceWatcher@Enumeration@Devices@4@PE$AAVDeviceInformationUpdate@674@@Z 000000018005d990 f i _nodert_generated.obj
 0001:0005c9c0       ?Invoke@__abi_IDelegate@?$TypedEventHandler@PE$AAVDeviceWatcher@Enumeration@Devices@Windows@@PE$AAVObject@Platform@@@Foundation@Windows@@UE$AAAXPE$AAVDeviceWatcher@Enumeration@Devices@4@PE$AAVObject@Platform@@@Z 000000018005d9c0 f i _nodert_generated.obj
 0001:0005c9f0       ?Invoke@__abi_IDelegate@?$VectorChangedEventHandler@PE$AAVString@Platform@@@Collections@Foundation@Windows@@UE$AAAXPE$AAU?$IObservableVector@PE$AAVString@Platform@@@345@PE$AAUIVectorChangedEventArgs@345@@Z 000000018005d9f0 f i _nodert_generated.obj
 0001:0005ca20       ?Invoke@__abi_IDelegate@?$VectorChangedEventHandler@W4DeviceWatcherEventKind@Enumeration@Devices@Windows@@@Collections@Foundation@Windows@@UE$AAAXPE$AAU?$IObservableVector@W4DeviceWatcherEventKind@Enumeration@Devices@Windows@@@345@PE$AAUIVectorChangedEventArgs@345@@Z 000000018005da20 f i _nodert_generated.obj
 0001:0005ca50       ?Invoke@__abi_IDelegate@BindableVectorChangedEventHandler@Interop@Xaml@UI@Windows@@UE$AAAXPE$AAUIBindableObservableVector@3456@PE$AAVObject@Platform@@@Z 000000018005da50 f i _nodert_generated.obj
 0001:0005ca80       ?IsDefaultGetter@DeviceInformation@Enumeration@Devices@Windows@NodeRT@@CAXV?$Local@VString@v8@@@v8@@AEBV?$PropertyCallbackInfo@VValue@v8@@@Nan@@@Z 000000018005da80 f i _nodert_generated.obj
 0001:0005cb70       ?IsEnabledGetter@DeviceInformation@Enumeration@Devices@Windows@NodeRT@@CAXV?$Local@VString@v8@@@v8@@AEBV?$PropertyCallbackInfo@VValue@v8@@@Nan@@@Z 000000018005db70 f i _nodert_generated.obj
 0001:0005cc60       ?IsOpaqueWrapper@OpaqueWrapper@NodeRT@@SA_NV?$Local@VValue@v8@@@v8@@@Z 000000018005dc60 f i _nodert_generated.obj
 0001:0005cd30       ?IsPairedGetter@DeviceInformationPairing@Enumeration@Devices@Windows@NodeRT@@CAXV?$Local@VString@v8@@@v8@@AEBV?$PropertyCallbackInfo@VValue@v8@@@Nan@@@Z 000000018005dd30 f i _nodert_generated.obj
 0001:0005ce20       ?KeyGetter@?$KeyValuePairWrapper@PE$AAVString@Platform@@PE$AAVObject@2@@Collections@NodeRT@@CAXV?$Local@VString@v8@@@v8@@AEBV?$PropertyCallbackInfo@VValue@v8@@@Nan@@@Z 000000018005de20 f i _nodert_generated.obj
 0001:0005cf10       ?KindGetter@DeviceInformation@Enumeration@Devices@Windows@NodeRT@@CAXV?$Local@VString@v8@@@v8@@AEBV?$PropertyCallbackInfo@VValue@v8@@@Nan@@@Z 000000018005df10 f i _nodert_generated.obj
 0001:0005d080       ?KindGetter@DeviceInformationUpdate@Enumeration@Devices@Windows@NodeRT@@CAXV?$Local@VString@v8@@@v8@@AEBV?$PropertyCallbackInfo@VValue@v8@@@Nan@@@Z 000000018005e080 f i _nodert_generated.obj
 0001:0005d1f0       ?KindGetter@DeviceWatcherEvent@Enumeration@Devices@Windows@NodeRT@@CAXV?$Local@VString@v8@@@v8@@AEBV?$PropertyCallbackInfo@VValue@v8@@@Nan@@@Z 000000018005e1f0 f i _nodert_generated.obj
 0001:0005d310       ?Lookup@?$IMapView@PE$AAVString@Platform@@PE$AAVObject@2@@Collections@Foundation@Windows@@UE$AAAPE$AAVObject@Platform@@PE$AAVString@6@@Z 000000018005e310 f i _nodert_generated.obj
 0001:0005d390       ?Lookup@?$MapViewWrapper@PE$AAVString@Platform@@PE$AAVObject@2@@Collections@NodeRT@@CAXAEBV?$FunctionCallbackInfo@VValue@v8@@@Nan@@@Z 000000018005e390 f i _nodert_generated.obj
 0001:0005d620       ?MakeCallback@Nan@@YA?AV?$Local@VValue@v8@@@v8@@V?$Local@VObject@v8@@@3@V?$Local@VString@v8@@@3@HPEAV23@@Z 000000018005e620 f i _nodert_generated.obj
 0001:0005d7e0       ?MoveNext@?$IIterator@PE$AAU?$IKeyValuePair@PE$AAVString@Platform@@PE$AAVObject@2@@Collections@Foundation@Windows@@@Collections@Foundation@Windows@@UE$AAA_NXZ 000000018005e7e0 f i _nodert_generated.obj
 0001:0005d810       ?MoveNext@?$IIterator@PE$AAVDeviceInformation@Enumeration@Devices@Windows@@@Collections@Foundation@Windows@@UE$AAA_NXZ 000000018005e810 f i _nodert_generated.obj
 0001:0005d840       ?MoveNext@?$IIterator@PE$AAVDeviceWatcherEvent@Enumeration@Devices@Windows@@@Collections@Foundation@Windows@@UE$AAA_NXZ 000000018005e840 f i _nodert_generated.obj
 0001:0005d870       ?MoveNext@?$IIterator@PE$AAVString@Platform@@@Collections@Foundation@Windows@@UE$AAA_NXZ 000000018005e870 f i _nodert_generated.obj
 0001:0005d8a0       ?MoveNext@?$IIterator@W4DeviceClass@Enumeration@Devices@Windows@@@Collections@Foundation@Windows@@UE$AAA_NXZ 000000018005e8a0 f i _nodert_generated.obj
 0001:0005d8d0       ?MoveNext@?$IteratorWrapper@PE$AAU?$IKeyValuePair@PE$AAVString@Platform@@PE$AAVObject@2@@Collections@Foundation@Windows@@@Collections@NodeRT@@CAXAEBV?$FunctionCallbackInfo@VValue@v8@@@Nan@@@Z 000000018005e8d0 f i _nodert_generated.obj
 0001:0005da20       ?MoveNext@?$IteratorWrapper@PE$AAVDeviceInformation@Enumeration@Devices@Windows@@@Collections@NodeRT@@CAXAEBV?$FunctionCallbackInfo@VValue@v8@@@Nan@@@Z 000000018005ea20 f i _nodert_generated.obj
 0001:0005db70       ?MoveNext@?$IteratorWrapper@PE$AAVDeviceWatcherEvent@Enumeration@Devices@Windows@@@Collections@NodeRT@@CAXAEBV?$FunctionCallbackInfo@VValue@v8@@@Nan@@@Z 000000018005eb70 f i _nodert_generated.obj
 0001:0005dcc0       ?MoveNext@?$IteratorWrapper@PE$AAVString@Platform@@@Collections@NodeRT@@CAXAEBV?$FunctionCallbackInfo@VValue@v8@@@Nan@@@Z 000000018005ecc0 f i _nodert_generated.obj
 0001:0005de10       ?MoveNext@?$IteratorWrapper@W4DeviceClass@Enumeration@Devices@Windows@@@Collections@NodeRT@@CAXAEBV?$FunctionCallbackInfo@VValue@v8@@@Nan@@@Z 000000018005ee10 f i _nodert_generated.obj
 0001:0005df60       ?MoveNext@?Q?$IIterator@PE$AAVString@Platform@@@Collections@Foundation@Windows@@?$IteratorForVectorView@PE$AAVString@Platform@@@Details@2Platform@@UE$AAA_NXZ 000000018005ef60 f i _nodert_generated.obj
 0001:0005e078       ?MoveNext@?Q?$IIterator@PE$AAVString@Platform@@@Collections@Foundation@Windows@@?$IteratorForVectorView@PE$AAVString@Platform@@@Details@2Platform@@WBA@E$AAA_NXZ 000000018005f078 f i _nodert_generated.obj
 0001:0005e090       ?MoveNext@?Q?$IIterator@W4DeviceWatcherEventKind@Enumeration@Devices@Windows@@@Collections@Foundation@Windows@@?$IteratorForVectorView@W4DeviceWatcherEventKind@Enumeration@Devices@Windows@@@Details@2Platform@@UE$AAA_NXZ 000000018005f090 f i _nodert_generated.obj
 0001:0005e1a8       ?MoveNext@?Q?$IIterator@W4DeviceWatcherEventKind@Enumeration@Devices@Windows@@@Collections@Foundation@Windows@@?$IteratorForVectorView@W4DeviceWatcherEventKind@Enumeration@Devices@Windows@@@Details@2Platform@@WBA@E$AAA_NXZ 000000018005f1a8 f i _nodert_generated.obj
 0001:0005e1c0       ?NameGetter@DeviceInformation@Enumeration@Devices@Windows@NodeRT@@CAXV?$Local@VString@v8@@@v8@@AEBV?$PropertyCallbackInfo@VValue@v8@@@Nan@@@Z 000000018005f1c0 f i _nodert_generated.obj
 0001:0005e300       ?New@?$Factory@VFunctionTemplate@v8@@@imp@Nan@@SA?AV?$Local@VFunctionTemplate@v8@@@v8@@P6AXAEBV?$FunctionCallbackInfo@VValue@v8@@@3@@ZV?$Local@VValue@v8@@@5@V?$Local@VSignature@v8@@@5@@Z 000000018005f300 f i _nodert_generated.obj
 0001:0005e4f0       ?New@?$IteratorWrapper@PE$AAU?$IKeyValuePair@PE$AAVString@Platform@@PE$AAVObject@2@@Collections@Foundation@Windows@@@Collections@NodeRT@@CAXAEBV?$FunctionCallbackInfo@VValue@v8@@@Nan@@@Z 000000018005f4f0 f i _nodert_generated.obj
 0001:0005e5c0       ?New@?$IteratorWrapper@PE$AAVDeviceInformation@Enumeration@Devices@Windows@@@Collections@NodeRT@@CAXAEBV?$FunctionCallbackInfo@VValue@v8@@@Nan@@@Z 000000018005f5c0 f i _nodert_generated.obj
 0001:0005e690       ?New@?$IteratorWrapper@PE$AAVDeviceWatcherEvent@Enumeration@Devices@Windows@@@Collections@NodeRT@@CAXAEBV?$FunctionCallbackInfo@VValue@v8@@@Nan@@@Z 000000018005f690 f i _nodert_generated.obj
 0001:0005e760       ?New@?$IteratorWrapper@PE$AAVString@Platform@@@Collections@NodeRT@@CAXAEBV?$FunctionCallbackInfo@VValue@v8@@@Nan@@@Z 000000018005f760 f i _nodert_generated.obj
 0001:0005e830       ?New@?$IteratorWrapper@W4DeviceClass@Enumeration@Devices@Windows@@@Collections@NodeRT@@CAXAEBV?$FunctionCallbackInfo@VValue@v8@@@Nan@@@Z 000000018005f830 f i _nodert_generated.obj
 0001:0005e900       ?New@?$KeyValuePairWrapper@PE$AAVString@Platform@@PE$AAVObject@2@@Collections@NodeRT@@CAXAEBV?$FunctionCallbackInfo@VValue@v8@@@Nan@@@Z 000000018005f900 f i _nodert_generated.obj
 0001:0005e9d0       ?New@?$MapViewWrapper@PE$AAVString@Platform@@PE$AAVObject@2@@Collections@NodeRT@@CAXAEBV?$FunctionCallbackInfo@VValue@v8@@@Nan@@@Z 000000018005f9d0 f i _nodert_generated.obj
 0001:0005eaa0       ?New@?$VectorViewWrapper@PE$AAVDeviceWatcherEvent@Enumeration@Devices@Windows@@@Collections@NodeRT@@CAXAEBV?$FunctionCallbackInfo@VValue@v8@@@Nan@@@Z 000000018005faa0 f i _nodert_generated.obj
 0001:0005eb70       ?New@?$VectorViewWrapper@PE$AAVString@Platform@@@Collections@NodeRT@@CAXAEBV?$FunctionCallbackInfo@VValue@v8@@@Nan@@@Z 000000018005fb70 f i _nodert_generated.obj
 0001:0005ec40       ?New@?$VectorViewWrapper@W4DeviceClass@Enumeration@Devices@Windows@@@Collections@NodeRT@@CAXAEBV?$FunctionCallbackInfo@VValue@v8@@@Nan@@@Z 000000018005fc40 f i _nodert_generated.obj
 0001:0005ed10       ?New@?$VectorWrapper@PE$AAVString@Platform@@@Collections@NodeRT@@CAXAEBV?$FunctionCallbackInfo@VValue@v8@@@Nan@@@Z 000000018005fd10 f i _nodert_generated.obj
 0001:0005ede0       ?New@?$VectorWrapper@W4DeviceClass@Enumeration@Devices@Windows@@@Collections@NodeRT@@CAXAEBV?$FunctionCallbackInfo@VValue@v8@@@Nan@@@Z 000000018005fde0 f i _nodert_generated.obj
 0001:0005eeb0       ?New@DeviceAccessChangedEventArgs@Enumeration@Devices@Windows@NodeRT@@CAXAEBV?$FunctionCallbackInfo@VValue@v8@@@Nan@@@Z 000000018005feb0 f i _nodert_generated.obj
 0001:0005f3e0       ?New@DeviceAccessInformation@Enumeration@Devices@Windows@NodeRT@@CAXAEBV?$FunctionCallbackInfo@VValue@v8@@@Nan@@@Z 00000001800603e0 f i _nodert_generated.obj
 0001:0005f910       ?New@DeviceConnectionChangeTriggerDetails@Enumeration@Devices@Windows@NodeRT@@CAXAEBV?$FunctionCallbackInfo@VValue@v8@@@Nan@@@Z 0000000180060910 f i _nodert_generated.obj
 0001:0005fe40       ?New@DeviceDisconnectButtonClickedEventArgs@Enumeration@Devices@Windows@NodeRT@@CAXAEBV?$FunctionCallbackInfo@VValue@v8@@@Nan@@@Z 0000000180060e40 f i _nodert_generated.obj
 0001:00060370       ?New@DeviceInformation@Enumeration@Devices@Windows@NodeRT@@CAXAEBV?$FunctionCallbackInfo@VValue@v8@@@Nan@@@Z 0000000180061370 f i _nodert_generated.obj
 0001:000608a0       ?New@DeviceInformationCollection@Enumeration@Devices@Windows@NodeRT@@CAXAEBV?$FunctionCallbackInfo@VValue@v8@@@Nan@@@Z 00000001800618a0 f i _nodert_generated.obj
 0001:00060dd0       ?New@DeviceInformationCustomPairing@Enumeration@Devices@Windows@NodeRT@@CAXAEBV?$FunctionCallbackInfo@VValue@v8@@@Nan@@@Z 0000000180061dd0 f i _nodert_generated.obj
 0001:00061300       ?New@DeviceInformationPairing@Enumeration@Devices@Windows@NodeRT@@CAXAEBV?$FunctionCallbackInfo@VValue@v8@@@Nan@@@Z 0000000180062300 f i _nodert_generated.obj
 0001:00061830       ?New@DeviceInformationUpdate@Enumeration@Devices@Windows@NodeRT@@CAXAEBV?$FunctionCallbackInfo@VValue@v8@@@Nan@@@Z 0000000180062830 f i _nodert_generated.obj
 0001:00061d60       ?New@DevicePairingRequestedEventArgs@Enumeration@Devices@Windows@NodeRT@@CAXAEBV?$FunctionCallbackInfo@VValue@v8@@@Nan@@@Z 0000000180062d60 f i _nodert_generated.obj
 0001:00062290       ?New@DevicePairingResult@Enumeration@Devices@Windows@NodeRT@@CAXAEBV?$FunctionCallbackInfo@VValue@v8@@@Nan@@@Z 0000000180063290 f i _nodert_generated.obj
 0001:000627c0       ?New@DevicePicker@Enumeration@Devices@Windows@NodeRT@@CAXAEBV?$FunctionCallbackInfo@VValue@v8@@@Nan@@@Z 00000001800637c0 f i _nodert_generated.obj
 0001:00062d60       ?New@DevicePickerAppearance@Enumeration@Devices@Windows@NodeRT@@CAXAEBV?$FunctionCallbackInfo@VValue@v8@@@Nan@@@Z 0000000180063d60 f i _nodert_generated.obj
 0001:00063290       ?New@DevicePickerFilter@Enumeration@Devices@Windows@NodeRT@@CAXAEBV?$FunctionCallbackInfo@VValue@v8@@@Nan@@@Z 0000000180064290 f i _nodert_generated.obj
 0001:000637c0       ?New@DeviceSelectedEventArgs@Enumeration@Devices@Windows@NodeRT@@CAXAEBV?$FunctionCallbackInfo@VValue@v8@@@Nan@@@Z 00000001800647c0 f i _nodert_generated.obj
 0001:00063cf0       ?New@DeviceThumbnail@Enumeration@Devices@Windows@NodeRT@@CAXAEBV?$FunctionCallbackInfo@VValue@v8@@@Nan@@@Z 0000000180064cf0 f i _nodert_generated.obj
 0001:00064220       ?New@DeviceUnpairingResult@Enumeration@Devices@Windows@NodeRT@@CAXAEBV?$FunctionCallbackInfo@VValue@v8@@@Nan@@@Z 0000000180065220 f i _nodert_generated.obj
 0001:00064750       ?New@DeviceWatcher@Enumeration@Devices@Windows@NodeRT@@CAXAEBV?$FunctionCallbackInfo@VValue@v8@@@Nan@@@Z 0000000180065750 f i _nodert_generated.obj
 0001:00064c80       ?New@DeviceWatcherEvent@Enumeration@Devices@Windows@NodeRT@@CAXAEBV?$FunctionCallbackInfo@VValue@v8@@@Nan@@@Z 0000000180065c80 f i _nodert_generated.obj
 0001:000651b0       ?New@DeviceWatcherTriggerDetails@Enumeration@Devices@Windows@NodeRT@@CAXAEBV?$FunctionCallbackInfo@VValue@v8@@@Nan@@@Z 00000001800661b0 f i _nodert_generated.obj
 0001:000656e0       ?New@EnclosureLocation@Enumeration@Devices@Windows@NodeRT@@CAXAEBV?$FunctionCallbackInfo@VValue@v8@@@Nan@@@Z 00000001800666e0 f i _nodert_generated.obj
 0001:00065c10       ?New@IDevicePairingSettings@Enumeration@Devices@Windows@NodeRT@@CAXAEBV?$FunctionCallbackInfo@VValue@v8@@@Nan@@@Z 0000000180066c10 f i _nodert_generated.obj
 0001:00066140       ?NewAsyncToken@TokenData@Async@NodeUtils@@SAPEAUuv_async_s@@V?$Local@VFunction@v8@@@v8@@V?$Local@VValue@v8@@@6@@Z 0000000180067140 f i _nodert_generated.obj
 0001:000661e0       ?NewAsyncToken@TokenData@Async@NodeUtils@@SAPEAUuv_async_s@@XZ 00000001800671e0 f i _nodert_generated.obj
 0001:00066270       ?NewInstance@Nan@@YA?AV?$MaybeLocal@VObject@v8@@@v8@@V?$Local@VFunction@v8@@@3@HQEAV?$Local@VValue@v8@@@3@@Z 0000000180067270 f i _nodert_generated.obj
 0001:00066340       ?NewInstance@Nan@@YA?AV?$MaybeLocal@VObject@v8@@@v8@@V?$Local@VObjectTemplate@v8@@@3@@Z 0000000180067340 f i _nodert_generated.obj
 0001:000663e0       ?Notify@?$Vector@PE$AAVString@Platform@@U?$equal_to@PE$AAVString@Platform@@@std@@$00@Collections@Platform@@AE$AAAXW4CollectionChange@2Foundation@Windows@@I@Z 00000001800673e0 f i _nodert_generated.obj
 0001:000664c0       ?Notify@?$Vector@W4DeviceWatcherEventKind@Enumeration@Devices@Windows@@U?$equal_to@W4DeviceWatcherEventKind@Enumeration@Devices@Windows@@@std@@$00@Collections@Platform@@AE$AAAXW4CollectionChange@2Foundation@Windows@@I@Z 00000001800674c0 f i _nodert_generated.obj
 0001:000665a0       ?PairAsync@DeviceInformationCustomPairing@Enumeration@Devices@Windows@NodeRT@@CAXAEBV?$FunctionCallbackInfo@VValue@v8@@@Nan@@@Z 00000001800675a0 f i _nodert_generated.obj
 0001:00066cd0       ?PairAsync@DeviceInformationPairing@Enumeration@Devices@Windows@NodeRT@@CAXAEBV?$FunctionCallbackInfo@VValue@v8@@@Nan@@@Z 0000000180067cd0 f i _nodert_generated.obj
 0001:000672c0       ?PairAsync@IDeviceInformationCustomPairing@Enumeration@Devices@Windows@@UE$AAAPE$AAU?$IAsyncOperation@PE$AAVDevicePairingResult@Enumeration@Devices@Windows@@@Foundation@4@W4DevicePairingKinds@234@@Z 00000001800682c0 f i _nodert_generated.obj
 0001:00067340       ?PairAsync@IDeviceInformationCustomPairing@Enumeration@Devices@Windows@@UE$AAAPE$AAU?$IAsyncOperation@PE$AAVDevicePairingResult@Enumeration@Devices@Windows@@@Foundation@4@W4DevicePairingKinds@234@W4DevicePairingProtectionLevel@234@@Z 0000000180068340 f i _nodert_generated.obj
 0001:000673c0       ?PairAsync@IDeviceInformationCustomPairing@Enumeration@Devices@Windows@@UE$AAAPE$AAU?$IAsyncOperation@PE$AAVDevicePairingResult@Enumeration@Devices@Windows@@@Foundation@4@W4DevicePairingKinds@234@W4DevicePairingProtectionLevel@234@PE$AAUIDevicePairingSettings@234@@Z 00000001800683c0 f i _nodert_generated.obj
 0001:00067440       ?PairAsync@IDeviceInformationPairing2@Enumeration@Devices@Windows@@UE$AAAPE$AAU?$IAsyncOperation@PE$AAVDevicePairingResult@Enumeration@Devices@Windows@@@Foundation@4@W4DevicePairingProtectionLevel@234@PE$AAUIDevicePairingSettings@234@@Z 0000000180068440 f i _nodert_generated.obj
 0001:000674c0       ?PairAsync@IDeviceInformationPairing@Enumeration@Devices@Windows@@UE$AAAPE$AAU?$IAsyncOperation@PE$AAVDevicePairingResult@Enumeration@Devices@Windows@@@Foundation@4@W4DevicePairingProtectionLevel@234@@Z 00000001800684c0 f i _nodert_generated.obj
 0001:00067540       ?PairAsync@IDeviceInformationPairing@Enumeration@Devices@Windows@@UE$AAAPE$AAU?$IAsyncOperation@PE$AAVDevicePairingResult@Enumeration@Devices@Windows@@@Foundation@4@XZ 0000000180068540 f i _nodert_generated.obj
 0001:000675c0       ?PairingGetter@DeviceInformation@Enumeration@Devices@Windows@NodeRT@@CAXV?$Local@VString@v8@@@v8@@AEBV?$PropertyCallbackInfo@VValue@v8@@@Nan@@@Z 00000001800685c0 f i _nodert_generated.obj
 0001:00067780       ?PairingKindGetter@DevicePairingRequestedEventArgs@Enumeration@Devices@Windows@NodeRT@@CAXV?$Local@VString@v8@@@v8@@AEBV?$PropertyCallbackInfo@VValue@v8@@@Nan@@@Z 0000000180068780 f i _nodert_generated.obj
 0001:000678a0       ?PanelGetter@EnclosureLocation@Enumeration@Devices@Windows@NodeRT@@CAXV?$Local@VString@v8@@@v8@@AEBV?$PropertyCallbackInfo@VValue@v8@@@Nan@@@Z 00000001800688a0 f i _nodert_generated.obj
 0001:000679c0       ?PickSingleDeviceAsync@DevicePicker@Enumeration@Devices@Windows@NodeRT@@CAXAEBV?$FunctionCallbackInfo@VValue@v8@@@Nan@@@Z 00000001800689c0 f i _nodert_generated.obj
 0001:00067f60       ?PickSingleDeviceAsync@IDevicePicker@Enumeration@Devices@Windows@@UE$AAAPE$AAU?$IAsyncOperation@PE$AAVDeviceInformation@Enumeration@Devices@Windows@@@Foundation@4@VRect@64@@Z 0000000180068f60 f i _nodert_generated.obj
 0001:00067ff0       ?PickSingleDeviceAsync@IDevicePicker@Enumeration@Devices@Windows@@UE$AAAPE$AAU?$IAsyncOperation@PE$AAVDeviceInformation@Enumeration@Devices@Windows@@@Foundation@4@VRect@64@W4Placement@Popups@UI@4@@Z 0000000180068ff0 f i _nodert_generated.obj
 0001:00068080       ?PinGetter@DevicePairingRequestedEventArgs@Enumeration@Devices@Windows@NodeRT@@CAXV?$Local@VString@v8@@@v8@@AEBV?$PropertyCallbackInfo@VValue@v8@@@Nan@@@Z 0000000180069080 f i _nodert_generated.obj
 0001:000681c0       ?PlacementFree@Heap@Details@Platform@@SAXPEAX0@Z 00000001800691c0 f i _nodert_generated.obj
 0001:000681d0       ?PositionGetter@DeviceThumbnail@Enumeration@Devices@Windows@NodeRT@@CAXV?$Local@VString@v8@@@v8@@AEBV?$PropertyCallbackInfo@VValue@v8@@@Nan@@@Z 00000001800691d0 f i _nodert_generated.obj
 0001:00068340       ?PropertiesGetter@DeviceInformation@Enumeration@Devices@Windows@NodeRT@@CAXV?$Local@VString@v8@@@v8@@AEBV?$PropertyCallbackInfo@VValue@v8@@@Nan@@@Z 0000000180069340 f i _nodert_generated.obj
 0001:00068650       ?PropertiesGetter@DeviceInformationUpdate@Enumeration@Devices@Windows@NodeRT@@CAXV?$Local@VString@v8@@@v8@@AEBV?$PropertyCallbackInfo@VValue@v8@@@Nan@@@Z 0000000180069650 f i _nodert_generated.obj
 0001:00068960       ?ProtectionLevelGetter@DeviceInformationPairing@Enumeration@Devices@Windows@NodeRT@@CAXV?$Local@VString@v8@@@v8@@AEBV?$PropertyCallbackInfo@VValue@v8@@@Nan@@@Z 0000000180069960 f i _nodert_generated.obj
 0001:00068ad0       ?ProtectionLevelUsedGetter@DevicePairingResult@Enumeration@Devices@Windows@NodeRT@@CAXV?$Local@VString@v8@@@v8@@AEBV?$PropertyCallbackInfo@VValue@v8@@@Nan@@@Z 0000000180069ad0 f i _nodert_generated.obj
 0001:00068bf0       ?ReadAsync@DeviceThumbnail@Enumeration@Devices@Windows@NodeRT@@CAXAEBV?$FunctionCallbackInfo@VValue@v8@@@Nan@@@Z 0000000180069bf0 f i _nodert_generated.obj
 0001:000691b0       ?ReadAsync@IInputStream@Streams@Storage@Windows@@UE$AAAPE$AAU?$IAsyncOperationWithProgress@PE$AAUIBuffer@Streams@Storage@Windows@@I@Foundation@4@PE$AAUIBuffer@234@IW4InputStreamOptions@234@@Z 000000018006a1b0 f i _nodert_generated.obj
 0001:00069230       ?RectFromJsObject@Enumeration@Devices@Windows@NodeRT@@YA?AVRect@Foundation@3@V?$Local@VValue@v8@@@v8@@@Z 000000018006a230 f   _nodert_generated.obj
 0001:00069320       ?RectToJsObject@Enumeration@Devices@Windows@NodeRT@@YA?AV?$Local@VValue@v8@@@v8@@VRect@Foundation@3@@Z 000000018006a320 f   _nodert_generated.obj
 0001:000693a0       ?Ref@ObjectWrap@Nan@@MEAAXXZ 000000018006a3a0 f i _nodert_generated.obj
 0001:000693f0       ?Release@?$Agile@PE$AAU?$IAsyncOperationWithProgress@II@Foundation@Windows@@$00@Platform@@QEAAXXZ 000000018006a3f0 f i _nodert_generated.obj
 0001:000694b0       ?Release@?$Agile@PE$AAU?$IAsyncOperationWithProgress@PE$AAUIBuffer@Streams@Storage@Windows@@I@Foundation@Windows@@$00@Platform@@QEAAXXZ 000000018006a4b0 f i _nodert_generated.obj
 0001:00069570       ?Release@?$Agile@PE$AAUIBuffer@Streams@Storage@Windows@@$00@Platform@@QEAAXXZ 000000018006a570 f i _nodert_generated.obj
 0001:00069630       ?RemoveAt@?$IVector@PE$AAVString@Platform@@@Collections@Foundation@Windows@@UE$AAAXI@Z 000000018006a630 f i _nodert_generated.obj
 0001:00069660       ?RemoveAt@?$IVector@W4DeviceClass@Enumeration@Devices@Windows@@@Collections@Foundation@Windows@@UE$AAAXI@Z 000000018006a660 f i _nodert_generated.obj
 0001:00069690       ?RemoveAt@?$VectorWrapper@PE$AAVString@Platform@@@Collections@NodeRT@@CAXAEBV?$FunctionCallbackInfo@VValue@v8@@@Nan@@@Z 000000018006a690 f i _nodert_generated.obj
 0001:00069800       ?RemoveAt@?$VectorWrapper@W4DeviceClass@Enumeration@Devices@Windows@@@Collections@NodeRT@@CAXAEBV?$FunctionCallbackInfo@VValue@v8@@@Nan@@@Z 000000018006a800 f i _nodert_generated.obj
 0001:00069970       ?RemoveAt@?Q?$IVector@PE$AAVString@Platform@@@Collections@Foundation@Windows@@?$Vector@PE$AAVString@Platform@@U?$equal_to@PE$AAVString@Platform@@@std@@$00@2Platform@@UE$AAAXI@Z 000000018006a970 f i _nodert_generated.obj
 0001:00069acc       ?RemoveAt@?Q?$IVector@PE$AAVString@Platform@@@Collections@Foundation@Windows@@?$Vector@PE$AAVString@Platform@@U?$equal_to@PE$AAVString@Platform@@@std@@$00@2Platform@@W7E$AAAXI@Z 000000018006aacc f i _nodert_generated.obj
 0001:00069ad8       ?RemoveAt@?Q?$IVector@PE$AAVString@Platform@@@Collections@Foundation@Windows@@?$Vector@PE$AAVString@Platform@@U?$equal_to@PE$AAVString@Platform@@@std@@$00@2Platform@@WCI@E$AAAXI@Z 000000018006aad8 f i _nodert_generated.obj
 0001:00069af0       ?RemoveAt@?Q?$IVector@W4DeviceWatcherEventKind@Enumeration@Devices@Windows@@@Collections@Foundation@Windows@@?$Vector@W4DeviceWatcherEventKind@Enumeration@Devices@Windows@@U?$equal_to@W4DeviceWatcherEventKind@Enumeration@Devices@Windows@@@std@@$00@2Platform@@UE$AAAXI@Z 000000018006aaf0 f i _nodert_generated.obj
 0001:00069be0       ?RemoveAt@?Q?$IVector@W4DeviceWatcherEventKind@Enumeration@Devices@Windows@@@Collections@Foundation@Windows@@?$Vector@W4DeviceWatcherEventKind@Enumeration@Devices@Windows@@U?$equal_to@W4DeviceWatcherEventKind@Enumeration@Devices@Windows@@@std@@$00@2Platform@@W7E$AAAXI@Z 000000018006abe0 f i _nodert_generated.obj
 0001:00069bec       ?RemoveAt@?Q?$IVector@W4DeviceWatcherEventKind@Enumeration@Devices@Windows@@@Collections@Foundation@Windows@@?$Vector@W4DeviceWatcherEventKind@Enumeration@Devices@Windows@@U?$equal_to@W4DeviceWatcherEventKind@Enumeration@Devices@Windows@@@std@@$00@2Platform@@WCI@E$AAAXI@Z 000000018006abec f i _nodert_generated.obj
 0001:00069c00       ?RemoveAtEnd@?$IVector@PE$AAVString@Platform@@@Collections@Foundation@Windows@@UE$AAAXXZ 000000018006ac00 f i _nodert_generated.obj
 0001:00069c30       ?RemoveAtEnd@?$IVector@W4DeviceClass@Enumeration@Devices@Windows@@@Collections@Foundation@Windows@@UE$AAAXXZ 000000018006ac30 f i _nodert_generated.obj
 0001:00069c60       ?RemoveAtEnd@?$VectorWrapper@PE$AAVString@Platform@@@Collections@NodeRT@@CAXAEBV?$FunctionCallbackInfo@VValue@v8@@@Nan@@@Z 000000018006ac60 f i _nodert_generated.obj
 0001:00069d60       ?RemoveAtEnd@?$VectorWrapper@W4DeviceClass@Enumeration@Devices@Windows@@@Collections@NodeRT@@CAXAEBV?$FunctionCallbackInfo@VValue@v8@@@Nan@@@Z 000000018006ad60 f i _nodert_generated.obj
 0001:00069e60       ?RemoveAtEnd@?Q?$IVector@PE$AAVString@Platform@@@Collections@Foundation@Windows@@?$Vector@PE$AAVString@Platform@@U?$equal_to@PE$AAVString@Platform@@@std@@$00@2Platform@@UE$AAAXXZ 000000018006ae60 f i _nodert_generated.obj
 0001:00069f34       ?RemoveAtEnd@?Q?$IVector@PE$AAVString@Platform@@@Collections@Foundation@Windows@@?$Vector@PE$AAVString@Platform@@U?$equal_to@PE$AAVString@Platform@@@std@@$00@2Platform@@W7E$AAAXXZ 000000018006af34 f i _nodert_generated.obj
 0001:00069f40       ?RemoveAtEnd@?Q?$IVector@PE$AAVString@Platform@@@Collections@Foundation@Windows@@?$Vector@PE$AAVString@Platform@@U?$equal_to@PE$AAVString@Platform@@@std@@$00@2Platform@@WCI@E$AAAXXZ 000000018006af40 f i _nodert_generated.obj
 0001:00069f50       ?RemoveAtEnd@?Q?$IVector@W4DeviceWatcherEventKind@Enumeration@Devices@Windows@@@Collections@Foundation@Windows@@?$Vector@W4DeviceWatcherEventKind@Enumeration@Devices@Windows@@U?$equal_to@W4DeviceWatcherEventKind@Enumeration@Devices@Windows@@@std@@$00@2Platform@@UE$AAAXXZ 000000018006af50 f i _nodert_generated.obj
 0001:0006a00c       ?RemoveAtEnd@?Q?$IVector@W4DeviceWatcherEventKind@Enumeration@Devices@Windows@@@Collections@Foundation@Windows@@?$Vector@W4DeviceWatcherEventKind@Enumeration@Devices@Windows@@U?$equal_to@W4DeviceWatcherEventKind@Enumeration@Devices@Windows@@@std@@$00@2Platform@@W7E$AAAXXZ 000000018006b00c f i _nodert_generated.obj
 0001:0006a018       ?RemoveAtEnd@?Q?$IVector@W4DeviceWatcherEventKind@Enumeration@Devices@Windows@@@Collections@Foundation@Windows@@?$Vector@W4DeviceWatcherEventKind@Enumeration@Devices@Windows@@U?$equal_to@W4DeviceWatcherEventKind@Enumeration@Devices@Windows@@@std@@$00@2Platform@@WCI@E$AAAXXZ 000000018006b018 f i _nodert_generated.obj
 0001:0006a030       ?RemoveListener@DeviceAccessInformation@Enumeration@Devices@Windows@NodeRT@@CAXAEBV?$FunctionCallbackInfo@VValue@v8@@@Nan@@@Z 000000018006b030 f i _nodert_generated.obj
 0001:0006a5c0       ?RemoveListener@DeviceInformationCustomPairing@Enumeration@Devices@Windows@NodeRT@@CAXAEBV?$FunctionCallbackInfo@VValue@v8@@@Nan@@@Z 000000018006b5c0 f i _nodert_generated.obj
 0001:0006ab50       ?RemoveListener@DevicePicker@Enumeration@Devices@Windows@NodeRT@@CAXAEBV?$FunctionCallbackInfo@VValue@v8@@@Nan@@@Z 000000018006bb50 f i _nodert_generated.obj
 0001:0006b2a0       ?RemoveListener@DeviceWatcher@Enumeration@Devices@Windows@NodeRT@@CAXAEBV?$FunctionCallbackInfo@VValue@v8@@@Nan@@@Z 000000018006c2a0 f i _nodert_generated.obj
 0001:0006bbd0       ?ReplaceAll@?$IVector@PE$AAVString@Platform@@@Collections@Foundation@Windows@@UE$AAAXP$01E$ABV?$Array@PE$AAVString@Platform@@$00@Platform@@@Z 000000018006cbd0 f i _nodert_generated.obj
 0001:0006bc20       ?ReplaceAll@?$IVector@W4DeviceClass@Enumeration@Devices@Windows@@@Collections@Foundation@Windows@@UE$AAAXP$01E$ABV?$Array@W4DeviceClass@Enumeration@Devices@Windows@@$00@Platform@@@Z 000000018006cc20 f i _nodert_generated.obj
 0001:0006bc70       ?ReplaceAll@?$VectorWrapper@PE$AAVString@Platform@@@Collections@NodeRT@@CAXAEBV?$FunctionCallbackInfo@VValue@v8@@@Nan@@@Z 000000018006cc70 f i _nodert_generated.obj
 0001:0006bed0       ?ReplaceAll@?$VectorWrapper@W4DeviceClass@Enumeration@Devices@Windows@@@Collections@NodeRT@@CAXAEBV?$FunctionCallbackInfo@VValue@v8@@@Nan@@@Z 000000018006ced0 f i _nodert_generated.obj
 0001:0006c130       ?ReplaceAll@?Q?$IVector@PE$AAVString@Platform@@@Collections@Foundation@Windows@@?$Vector@PE$AAVString@Platform@@U?$equal_to@PE$AAVString@Platform@@@std@@$00@2Platform@@UE$AAAXP$01E$ABV?$Array@PE$AAVString@Platform@@$00@6@@Z 000000018006d130 f i _nodert_generated.obj
 0001:0006c240       ?ReplaceAll@?Q?$IVector@PE$AAVString@Platform@@@Collections@Foundation@Windows@@?$Vector@PE$AAVString@Platform@@U?$equal_to@PE$AAVString@Platform@@@std@@$00@2Platform@@W7E$AAAXP$01E$ABV?$Array@PE$AAVString@Platform@@$00@6@@Z 000000018006d240 f i _nodert_generated.obj
 0001:0006c250       ?ReplaceAll@?Q?$IVector@W4DeviceWatcherEventKind@Enumeration@Devices@Windows@@@Collections@Foundation@Windows@@?$Vector@W4DeviceWatcherEventKind@Enumeration@Devices@Windows@@U?$equal_to@W4DeviceWatcherEventKind@Enumeration@Devices@Windows@@@std@@$00@2Platform@@UE$AAAXP$01E$ABV?$Array@W4DeviceWatcherEventKind@Enumeration@Devices@Windows@@$00@6@@Z 000000018006d250 f i _nodert_generated.obj
 0001:0006c338       ?ReplaceAll@?Q?$IVector@W4DeviceWatcherEventKind@Enumeration@Devices@Windows@@@Collections@Foundation@Windows@@?$Vector@W4DeviceWatcherEventKind@Enumeration@Devices@Windows@@U?$equal_to@W4DeviceWatcherEventKind@Enumeration@Devices@Windows@@@std@@$00@2Platform@@W7E$AAAXP$01E$ABV?$Array@W4DeviceWatcherEventKind@Enumeration@Devices@Windows@@$00@6@@Z 000000018006d338 f i _nodert_generated.obj
 0001:0006c350       ?RequestedPropertiesGetter@DevicePicker@Enumeration@Devices@Windows@NodeRT@@CAXV?$Local@VString@v8@@@v8@@AEBV?$PropertyCallbackInfo@VValue@v8@@@Nan@@@Z 000000018006d350 f i _nodert_generated.obj
 0001:0006c5f0       ?RotationAngleInDegreesClockwiseGetter@EnclosureLocation@Enumeration@Devices@Windows@NodeRT@@CAXV?$Local@VString@v8@@@v8@@AEBV?$PropertyCallbackInfo@VValue@v8@@@Nan@@@Z 000000018006d5f0 f i _nodert_generated.obj
 0001:0006c760       ?RunCallbackOnMain@Async@NodeUtils@@SAXPEAUuv_async_s@@V?$function@$$A6AXV?$function@$$A6AXHPEAV?$Local@VValue@v8@@@v8@@@Z@std@@@Z@std@@@Z 000000018006d760 f i _nodert_generated.obj
 0001:0006ca30       ?RunOnMain@Async@NodeUtils@@SAXV?$function@$$A6AXXZ@std@@@Z 000000018006da30 f i _nodert_generated.obj
 0001:0006cb30       ?Seek@DeviceThumbnail@Enumeration@Devices@Windows@NodeRT@@CAXAEBV?$FunctionCallbackInfo@VValue@v8@@@Nan@@@Z 000000018006db30 f i _nodert_generated.obj
 0001:0006cd20       ?Seek@IRandomAccessStream@Streams@Storage@Windows@@UE$AAAX_K@Z 000000018006dd20 f i _nodert_generated.obj
 0001:0006cd50       ?SelectedAccentColorGetter@DevicePickerAppearance@Enumeration@Devices@Windows@NodeRT@@CAXV?$Local@VString@v8@@@v8@@AEBV?$PropertyCallbackInfo@VValue@v8@@@Nan@@@Z 000000018006dd50 f i _nodert_generated.obj
 0001:0006ce40       ?SelectedAccentColorSetter@DevicePickerAppearance@Enumeration@Devices@Windows@NodeRT@@CAXV?$Local@VString@v8@@@v8@@V?$Local@VValue@v8@@@7@AEBV?$PropertyCallbackInfo@X@Nan@@@Z 000000018006de40 f i _nodert_generated.obj
 0001:0006cf50       ?SelectedBackgroundColorGetter@DevicePickerAppearance@Enumeration@Devices@Windows@NodeRT@@CAXV?$Local@VString@v8@@@v8@@AEBV?$PropertyCallbackInfo@VValue@v8@@@Nan@@@Z 000000018006df50 f i _nodert_generated.obj
 0001:0006d040       ?SelectedBackgroundColorSetter@DevicePickerAppearance@Enumeration@Devices@Windows@NodeRT@@CAXV?$Local@VString@v8@@@v8@@V?$Local@VValue@v8@@@7@AEBV?$PropertyCallbackInfo@X@Nan@@@Z 000000018006e040 f i _nodert_generated.obj
 0001:0006d150       ?SelectedDeviceGetter@DeviceSelectedEventArgs@Enumeration@Devices@Windows@NodeRT@@CAXV?$Local@VString@v8@@@v8@@AEBV?$PropertyCallbackInfo@VValue@v8@@@Nan@@@Z 000000018006e150 f i _nodert_generated.obj
 0001:0006d2a0       ?SelectedForegroundColorGetter@DevicePickerAppearance@Enumeration@Devices@Windows@NodeRT@@CAXV?$Local@VString@v8@@@v8@@AEBV?$PropertyCallbackInfo@VValue@v8@@@Nan@@@Z 000000018006e2a0 f i _nodert_generated.obj
 0001:0006d390       ?SelectedForegroundColorSetter@DevicePickerAppearance@Enumeration@Devices@Windows@NodeRT@@CAXV?$Local@VString@v8@@@v8@@V?$Local@VValue@v8@@@7@AEBV?$PropertyCallbackInfo@X@Nan@@@Z 000000018006e390 f i _nodert_generated.obj
 0001:0006d4a0       ?Set@?$VectorWrapper@PE$AAVString@Platform@@@Collections@NodeRT@@CAXIV?$Local@VValue@v8@@@v8@@AEBV?$PropertyCallbackInfo@VValue@v8@@@Nan@@@Z 000000018006e4a0 f i _nodert_generated.obj
 0001:0006d6d0       ?Set@?$VectorWrapper@W4DeviceClass@Enumeration@Devices@Windows@@@Collections@NodeRT@@CAXIV?$Local@VValue@v8@@@v8@@AEBV?$PropertyCallbackInfo@VValue@v8@@@Nan@@@Z 000000018006e6d0 f i _nodert_generated.obj
 0001:0006d840       ?Set@Nan@@YA?AV?$Maybe@_N@v8@@V?$Local@VObject@v8@@@3@V?$Local@VValue@v8@@@3@1@Z 000000018006e840 f i _nodert_generated.obj
 0001:0006d8f0       ?SetAccessor@Nan@@YAXV?$Local@VObjectTemplate@v8@@@v8@@V?$Local@VString@v8@@@3@P6AX1AEBV?$PropertyCallbackInfo@VValue@v8@@@1@@ZP6AX1V?$Local@VValue@v8@@@3@AEBV?$PropertyCallbackInfo@X@1@@Z4W4AccessControl@3@W4PropertyAttribute@3@V?$Local@VAccessorSignature@v8@@@3@@Z 000000018006e8f0 f i _nodert_generated.obj
 0001:0006dad0       ?SetAt@?$IVector@PE$AAVString@Platform@@@Collections@Foundation@Windows@@UE$AAAXIPE$AAVString@Platform@@@Z 000000018006ead0 f i _nodert_generated.obj
 0001:0006db00       ?SetAt@?$IVector@W4DeviceClass@Enumeration@Devices@Windows@@@Collections@Foundation@Windows@@UE$AAAXIW4DeviceClass@Enumeration@Devices@4@@Z 000000018006eb00 f i _nodert_generated.obj
 0001:0006db30       ?SetAt@?$VectorWrapper@PE$AAVString@Platform@@@Collections@NodeRT@@CAXAEBV?$FunctionCallbackInfo@VValue@v8@@@Nan@@@Z 000000018006eb30 f i _nodert_generated.obj
 0001:0006ddb0       ?SetAt@?$VectorWrapper@W4DeviceClass@Enumeration@Devices@Windows@@@Collections@NodeRT@@CAXAEBV?$FunctionCallbackInfo@VValue@v8@@@Nan@@@Z 000000018006edb0 f i _nodert_generated.obj
 0001:0006e000       ?SetAt@?Q?$IVector@PE$AAVString@Platform@@@Collections@Foundation@Windows@@?$Vector@PE$AAVString@Platform@@U?$equal_to@PE$AAVString@Platform@@@std@@$00@2Platform@@UE$AAAXIPE$AAVString@6@@Z 000000018006f000 f i _nodert_generated.obj
 0001:0006e134       ?SetAt@?Q?$IVector@PE$AAVString@Platform@@@Collections@Foundation@Windows@@?$Vector@PE$AAVString@Platform@@U?$equal_to@PE$AAVString@Platform@@@std@@$00@2Platform@@W7E$AAAXIPE$AAVString@6@@Z 000000018006f134 f i _nodert_generated.obj
 0001:0006e140       ?SetAt@?Q?$IVector@W4DeviceWatcherEventKind@Enumeration@Devices@Windows@@@Collections@Foundation@Windows@@?$Vector@W4DeviceWatcherEventKind@Enumeration@Devices@Windows@@U?$equal_to@W4DeviceWatcherEventKind@Enumeration@Devices@Windows@@@std@@$00@2Platform@@UE$AAAXIW4DeviceWatcherEventKind@Enumeration@Devices@4@@Z 000000018006f140 f i _nodert_generated.obj
 0001:0006e218       ?SetAt@?Q?$IVector@W4DeviceWatcherEventKind@Enumeration@Devices@Windows@@@Collections@Foundation@Windows@@?$Vector@W4DeviceWatcherEventKind@Enumeration@Devices@Windows@@U?$equal_to@W4DeviceWatcherEventKind@Enumeration@Devices@Windows@@@std@@$00@2Platform@@W7E$AAAXIW4DeviceWatcherEventKind@Enumeration@Devices@4@@Z 000000018006f218 f i _nodert_generated.obj
 0001:0006e230       ?SetDisplayStatus@DevicePicker@Enumeration@Devices@Windows@NodeRT@@CAXAEBV?$FunctionCallbackInfo@VValue@v8@@@Nan@@@Z 000000018006f230 f i _nodert_generated.obj
 0001:0006e590       ?SetDisplayStatus@IDevicePicker@Enumeration@Devices@Windows@@UE$AAAXPE$AAVDeviceInformation@234@PE$AAVString@Platform@@W4DevicePickerDisplayStatusOptions@234@@Z 000000018006f590 f i _nodert_generated.obj
 0001:0006e5c0       ?SetObject@?$Agile@PE$AAU?$IAsyncOperationWithProgress@II@Foundation@Windows@@$00@Platform@@AEAAXPE$AAU?$IAsyncOperationWithProgress@II@Foundation@Windows@@@Z 000000018006f5c0 f i _nodert_generated.obj
 0001:0006e690       ?SetObject@?$Agile@PE$AAU?$IAsyncOperationWithProgress@PE$AAUIBuffer@Streams@Storage@Windows@@I@Foundation@Windows@@$00@Platform@@AEAAXPE$AAU?$IAsyncOperationWithProgress@PE$AAUIBuffer@Streams@Storage@Windows@@I@Foundation@Windows@@@Z 000000018006f690 f i _nodert_generated.obj
 0001:0006e760       ?SetPrototype@Nan@@YA?AV?$Maybe@_N@v8@@V?$Local@VObject@v8@@@3@V?$Local@VValue@v8@@@3@@Z 000000018006f760 f i _nodert_generated.obj
 0001:0006e7f0       ?SetPrototypeMethod@Nan@@YAXV?$Local@VFunctionTemplate@v8@@@v8@@PEBDP6AXAEBV?$FunctionCallbackInfo@VValue@v8@@@1@@Z@Z 000000018006f7f0 f i _nodert_generated.obj
 0001:0006ea50       ?Show@DevicePicker@Enumeration@Devices@Windows@NodeRT@@CAXAEBV?$FunctionCallbackInfo@VValue@v8@@@Nan@@@Z 000000018006fa50 f i _nodert_generated.obj
 0001:0006ed20       ?Show@IDevicePicker@Enumeration@Devices@Windows@@UE$AAAXVRect@Foundation@4@@Z 000000018006fd20 f i _nodert_generated.obj
 0001:0006ed60       ?Show@IDevicePicker@Enumeration@Devices@Windows@@UE$AAAXVRect@Foundation@4@W4Placement@Popups@UI@4@@Z 000000018006fd60 f i _nodert_generated.obj
 0001:0006eda0       ?SizeGetter@?$MapViewWrapper@PE$AAVString@Platform@@PE$AAVObject@2@@Collections@NodeRT@@CAXV?$Local@VString@v8@@@v8@@AEBV?$PropertyCallbackInfo@VValue@v8@@@Nan@@@Z 000000018006fda0 f i _nodert_generated.obj
 0001:0006eeb0       ?SizeGetter@?$VectorViewWrapper@PE$AAVDeviceWatcherEvent@Enumeration@Devices@Windows@@@Collections@NodeRT@@CAXV?$Local@VString@v8@@@v8@@AEBV?$PropertyCallbackInfo@VValue@v8@@@Nan@@@Z 000000018006feb0 f i _nodert_generated.obj
 0001:0006efc0       ?SizeGetter@?$VectorViewWrapper@PE$AAVString@Platform@@@Collections@NodeRT@@CAXV?$Local@VString@v8@@@v8@@AEBV?$PropertyCallbackInfo@VValue@v8@@@Nan@@@Z 000000018006ffc0 f i _nodert_generated.obj
 0001:0006f0d0       ?SizeGetter@?$VectorViewWrapper@W4DeviceClass@Enumeration@Devices@Windows@@@Collections@NodeRT@@CAXV?$Local@VString@v8@@@v8@@AEBV?$PropertyCallbackInfo@VValue@v8@@@Nan@@@Z 00000001800700d0 f i _nodert_generated.obj
 0001:0006f1e0       ?SizeGetter@?$VectorWrapper@PE$AAVString@Platform@@@Collections@NodeRT@@CAXV?$Local@VString@v8@@@v8@@AEBV?$PropertyCallbackInfo@VValue@v8@@@Nan@@@Z 00000001800701e0 f i _nodert_generated.obj
 0001:0006f2f0       ?SizeGetter@?$VectorWrapper@W4DeviceClass@Enumeration@Devices@Windows@@@Collections@NodeRT@@CAXV?$Local@VString@v8@@@v8@@AEBV?$PropertyCallbackInfo@VValue@v8@@@Nan@@@Z 00000001800702f0 f i _nodert_generated.obj
 0001:0006f400       ?SizeGetter@DeviceThumbnail@Enumeration@Devices@Windows@NodeRT@@CAXV?$Local@VString@v8@@@v8@@AEBV?$PropertyCallbackInfo@VValue@v8@@@Nan@@@Z 0000000180070400 f i _nodert_generated.obj
 0001:0006f570       ?SizeSetter@DeviceThumbnail@Enumeration@Devices@Windows@NodeRT@@CAXV?$Local@VString@v8@@@v8@@V?$Local@VValue@v8@@@7@AEBV?$PropertyCallbackInfo@X@Nan@@@Z 0000000180070570 f i _nodert_generated.obj
 0001:0006f710       ?Split@?$IMapView@PE$AAVString@Platform@@PE$AAVObject@2@@Collections@Foundation@Windows@@UE$AAAXPEAPE$AAU1234@0@Z 0000000180070710 f i _nodert_generated.obj
 0001:0006f7b0       ?Split@?$MapViewWrapper@PE$AAVString@Platform@@PE$AAVObject@2@@Collections@NodeRT@@CAXAEBV?$FunctionCallbackInfo@VValue@v8@@@Nan@@@Z 00000001800707b0 f i _nodert_generated.obj
 0001:0006fab0       ?Start@DeviceWatcher@Enumeration@Devices@Windows@NodeRT@@CAXAEBV?$FunctionCallbackInfo@VValue@v8@@@Nan@@@Z 0000000180070ab0 f i _nodert_generated.obj
 0001:0006fbb0       ?Start@IDeviceWatcher@Enumeration@Devices@Windows@@UE$AAAXXZ 0000000180070bb0 f i _nodert_generated.obj
 0001:0006fbe0       ?StatusGetter@DeviceAccessChangedEventArgs@Enumeration@Devices@Windows@NodeRT@@CAXV?$Local@VString@v8@@@v8@@AEBV?$PropertyCallbackInfo@VValue@v8@@@Nan@@@Z 0000000180070be0 f i _nodert_generated.obj
 0001:0006fd00       ?StatusGetter@DevicePairingResult@Enumeration@Devices@Windows@NodeRT@@CAXV?$Local@VString@v8@@@v8@@AEBV?$PropertyCallbackInfo@VValue@v8@@@Nan@@@Z 0000000180070d00 f i _nodert_generated.obj
 0001:0006fe20       ?StatusGetter@DeviceUnpairingResult@Enumeration@Devices@Windows@NodeRT@@CAXV?$Local@VString@v8@@@v8@@AEBV?$PropertyCallbackInfo@VValue@v8@@@Nan@@@Z 0000000180070e20 f i _nodert_generated.obj
 0001:0006ff40       ?StatusGetter@DeviceWatcher@Enumeration@Devices@Windows@NodeRT@@CAXV?$Local@VString@v8@@@v8@@AEBV?$PropertyCallbackInfo@VValue@v8@@@Nan@@@Z 0000000180070f40 f i _nodert_generated.obj
 0001:00070070       ?Stop@DeviceWatcher@Enumeration@Devices@Windows@NodeRT@@CAXAEBV?$FunctionCallbackInfo@VValue@v8@@@Nan@@@Z 0000000180071070 f i _nodert_generated.obj
 0001:00070170       ?Stop@IDeviceWatcher@Enumeration@Devices@Windows@@UE$AAAXXZ 0000000180071170 f i _nodert_generated.obj
 0001:000701a0       ?SupportedDeviceClassesGetter@DevicePickerFilter@Enumeration@Devices@Windows@NodeRT@@CAXV?$Local@VString@v8@@@v8@@AEBV?$PropertyCallbackInfo@VValue@v8@@@Nan@@@Z 00000001800711a0 f i _nodert_generated.obj
 0001:00070440       ?SupportedDeviceSelectorsGetter@DevicePickerFilter@Enumeration@Devices@Windows@NodeRT@@CAXV?$Local@VString@v8@@@v8@@AEBV?$PropertyCallbackInfo@VValue@v8@@@Nan@@@Z 0000000180071440 f i _nodert_generated.obj
 0001:000706e0       ?ThrowError@Nan@@YAXV?$Local@VValue@v8@@@v8@@@Z 00000001800716e0 f i _nodert_generated.obj
 0001:00070710       ?TitleGetter@DevicePickerAppearance@Enumeration@Devices@Windows@NodeRT@@CAXV?$Local@VString@v8@@@v8@@AEBV?$PropertyCallbackInfo@VValue@v8@@@Nan@@@Z 0000000180071710 f i _nodert_generated.obj
 0001:00070850       ?TitleSetter@DevicePickerAppearance@Enumeration@Devices@Windows@NodeRT@@CAXV?$Local@VString@v8@@@v8@@V?$Local@VValue@v8@@@7@AEBV?$PropertyCallbackInfo@X@Nan@@@Z 0000000180071850 f i _nodert_generated.obj
 0001:00070a30       ?ToString@?$CustomBox@W4DeviceClass@Enumeration@Devices@Windows@@@Details@Platform@@UE$AAAPE$AAVString@3@XZ 0000000180071a30 f i _nodert_generated.obj
 0001:00070a74       ?ToString@?$CustomBox@W4DeviceClass@Enumeration@Devices@Windows@@@Details@Platform@@WBA@E$AAAPE$AAVString@3@XZ 0000000180071a74 f i _nodert_generated.obj
 0001:00070a80       ?ToString@?$CustomBox@W4DeviceWatcherEventKind@Enumeration@Devices@Windows@@@Details@Platform@@UE$AAAPE$AAVString@3@XZ 0000000180071a80 f i _nodert_generated.obj
 0001:00070ac4       ?ToString@?$CustomBox@W4DeviceWatcherEventKind@Enumeration@Devices@Windows@@@Details@Platform@@WBA@E$AAAPE$AAVString@3@XZ 0000000180071ac4 f i _nodert_generated.obj
 0001:00070ad0       ?TryRegisterForAllInboundPairingRequests@DeviceInformationPairing@Enumeration@Devices@Windows@@SA_NW4DevicePairingKinds@234@@Z 0000000180071ad0 f i _nodert_generated.obj
 0001:00070b90       ?TryRegisterForAllInboundPairingRequests@DeviceInformationPairing@Enumeration@Devices@Windows@NodeRT@@CAXAEBV?$FunctionCallbackInfo@VValue@v8@@@Nan@@@Z 0000000180071b90 f i _nodert_generated.obj
 0001:00070d00       ?TryRegisterForAllInboundPairingRequests@IDeviceInformationPairingStatics@Enumeration@Devices@Windows@@UE$AAA_NW4DevicePairingKinds@234@@Z 0000000180071d00 f i _nodert_generated.obj
 0001:00070d30       ?UnpairAsync@DeviceInformationPairing@Enumeration@Devices@Windows@NodeRT@@CAXAEBV?$FunctionCallbackInfo@VValue@v8@@@Nan@@@Z 0000000180071d30 f i _nodert_generated.obj
 0001:000710f0       ?UnpairAsync@IDeviceInformationPairing2@Enumeration@Devices@Windows@@UE$AAAPE$AAU?$IAsyncOperation@PE$AAVDeviceUnpairingResult@Enumeration@Devices@Windows@@@Foundation@4@XZ 00000001800720f0 f i _nodert_generated.obj
 0001:00071170       ?Unref@ObjectWrap@Nan@@MEAAXXZ 0000000180072170 f i _nodert_generated.obj
 0001:00071240       ?UnwrapDeviceAccessChangedEventArgs@Enumeration@Devices@Windows@NodeRT@@YAPE$AAVDeviceAccessChangedEventArgs@123@V?$Local@VValue@v8@@@v8@@@Z 0000000180072240 f   _nodert_generated.obj
 0001:000712a0       ?UnwrapDeviceAccessInformation@Enumeration@Devices@Windows@NodeRT@@YAPE$AAVDeviceAccessInformation@123@V?$Local@VValue@v8@@@v8@@@Z 00000001800722a0 f   _nodert_generated.obj
 0001:00071300       ?UnwrapDeviceConnectionChangeTriggerDetails@Enumeration@Devices@Windows@NodeRT@@YAPE$AAVDeviceConnectionChangeTriggerDetails@123@V?$Local@VValue@v8@@@v8@@@Z 0000000180072300 f   _nodert_generated.obj
 0001:00071360       ?UnwrapDeviceDisconnectButtonClickedEventArgs@Enumeration@Devices@Windows@NodeRT@@YAPE$AAVDeviceDisconnectButtonClickedEventArgs@123@V?$Local@VValue@v8@@@v8@@@Z 0000000180072360 f   _nodert_generated.obj
 0001:000713c0       ?UnwrapDeviceInformation@Enumeration@Devices@Windows@NodeRT@@YAPE$AAVDeviceInformation@123@V?$Local@VValue@v8@@@v8@@@Z 00000001800723c0 f   _nodert_generated.obj
 0001:00071420       ?UnwrapDeviceInformationCollection@Enumeration@Devices@Windows@NodeRT@@YAPE$AAVDeviceInformationCollection@123@V?$Local@VValue@v8@@@v8@@@Z 0000000180072420 f   _nodert_generated.obj
 0001:00071480       ?UnwrapDeviceInformationCustomPairing@Enumeration@Devices@Windows@NodeRT@@YAPE$AAVDeviceInformationCustomPairing@123@V?$Local@VValue@v8@@@v8@@@Z 0000000180072480 f   _nodert_generated.obj
 0001:000714e0       ?UnwrapDeviceInformationPairing@Enumeration@Devices@Windows@NodeRT@@YAPE$AAVDeviceInformationPairing@123@V?$Local@VValue@v8@@@v8@@@Z 00000001800724e0 f   _nodert_generated.obj
 0001:00071540       ?UnwrapDeviceInformationUpdate@Enumeration@Devices@Windows@NodeRT@@YAPE$AAVDeviceInformationUpdate@123@V?$Local@VValue@v8@@@v8@@@Z 0000000180072540 f   _nodert_generated.obj
 0001:000715a0       ?UnwrapDevicePairingRequestedEventArgs@Enumeration@Devices@Windows@NodeRT@@YAPE$AAVDevicePairingRequestedEventArgs@123@V?$Local@VValue@v8@@@v8@@@Z 00000001800725a0 f   _nodert_generated.obj
 0001:00071600       ?UnwrapDevicePairingResult@Enumeration@Devices@Windows@NodeRT@@YAPE$AAVDevicePairingResult@123@V?$Local@VValue@v8@@@v8@@@Z 0000000180072600 f   _nodert_generated.obj
 0001:00071660       ?UnwrapDevicePicker@Enumeration@Devices@Windows@NodeRT@@YAPE$AAVDevicePicker@123@V?$Local@VValue@v8@@@v8@@@Z 0000000180072660 f   _nodert_generated.obj
 0001:000716c0       ?UnwrapDevicePickerAppearance@Enumeration@Devices@Windows@NodeRT@@YAPE$AAVDevicePickerAppearance@123@V?$Local@VValue@v8@@@v8@@@Z 00000001800726c0 f   _nodert_generated.obj
 0001:00071720       ?UnwrapDevicePickerFilter@Enumeration@Devices@Windows@NodeRT@@YAPE$AAVDevicePickerFilter@123@V?$Local@VValue@v8@@@v8@@@Z 0000000180072720 f   _nodert_generated.obj
 0001:00071780       ?UnwrapDeviceSelectedEventArgs@Enumeration@Devices@Windows@NodeRT@@YAPE$AAVDeviceSelectedEventArgs@123@V?$Local@VValue@v8@@@v8@@@Z 0000000180072780 f   _nodert_generated.obj
 0001:000717e0       ?UnwrapDeviceThumbnail@Enumeration@Devices@Windows@NodeRT@@YAPE$AAVDeviceThumbnail@123@V?$Local@VValue@v8@@@v8@@@Z 00000001800727e0 f   _nodert_generated.obj
 0001:00071840       ?UnwrapDeviceUnpairingResult@Enumeration@Devices@Windows@NodeRT@@YAPE$AAVDeviceUnpairingResult@123@V?$Local@VValue@v8@@@v8@@@Z 0000000180072840 f   _nodert_generated.obj
 0001:000718a0       ?UnwrapDeviceWatcher@Enumeration@Devices@Windows@NodeRT@@YAPE$AAVDeviceWatcher@123@V?$Local@VValue@v8@@@v8@@@Z 00000001800728a0 f   _nodert_generated.obj
 0001:00071900       ?UnwrapDeviceWatcherEvent@Enumeration@Devices@Windows@NodeRT@@YAPE$AAVDeviceWatcherEvent@123@V?$Local@VValue@v8@@@v8@@@Z 0000000180072900 f   _nodert_generated.obj
 0001:00071960       ?UnwrapDeviceWatcherTriggerDetails@Enumeration@Devices@Windows@NodeRT@@YAPE$AAVDeviceWatcherTriggerDetails@123@V?$Local@VValue@v8@@@v8@@@Z 0000000180072960 f   _nodert_generated.obj
 0001:000719c0       ?UnwrapEnclosureLocation@Enumeration@Devices@Windows@NodeRT@@YAPE$AAVEnclosureLocation@123@V?$Local@VValue@v8@@@v8@@@Z 00000001800729c0 f   _nodert_generated.obj
 0001:00071a20       ?UnwrapIDevicePairingSettings@Enumeration@Devices@Windows@NodeRT@@YAPE$AAUIDevicePairingSettings@123@V?$Local@VValue@v8@@@v8@@@Z 0000000180072a20 f   _nodert_generated.obj
 0001:00071a80       ?Update@DeviceInformation@Enumeration@Devices@Windows@NodeRT@@CAXAEBV?$FunctionCallbackInfo@VValue@v8@@@Nan@@@Z 0000000180072a80 f i _nodert_generated.obj
 0001:00071c30       ?Update@IDeviceInformation@Enumeration@Devices@Windows@@UE$AAAXPE$AAVDeviceInformationUpdate@234@@Z 0000000180072c30 f i _nodert_generated.obj
 0001:00071c60       ?ValueGetter@?$KeyValuePairWrapper@PE$AAVString@Platform@@PE$AAVObject@2@@Collections@NodeRT@@CAXV?$Local@VString@v8@@@v8@@AEBV?$PropertyCallbackInfo@VValue@v8@@@Nan@@@Z 0000000180072c60 f i _nodert_generated.obj
 0001:00071da0       ?WaitUntilStateChangedTo@_TaskCollectionBaseImpl@details@Concurrency@@IEAAXW4_TaskCollectionState@123@@Z 0000000180072da0 f i _nodert_generated.obj
 0001:00071e60       ?WeakCallback@ObjectWrap@Nan@@CAXAEBV?$WeakCallbackInfo@VObjectWrap@Nan@@@v8@@@Z 0000000180072e60 f i _nodert_generated.obj
 0001:00071f10       ?Wrap@ObjectWrap@Nan@@IEAAXV?$Local@VObject@v8@@@v8@@@Z 0000000180072f10 f i _nodert_generated.obj
 0001:00072010       ?WrapDeviceAccessChangedEventArgs@Enumeration@Devices@Windows@NodeRT@@YA?AV?$Local@VValue@v8@@@v8@@PE$AAVDeviceAccessChangedEventArgs@123@@Z 0000000180073010 f   _nodert_generated.obj
 0001:00072130       ?WrapDeviceAccessInformation@Enumeration@Devices@Windows@NodeRT@@YA?AV?$Local@VValue@v8@@@v8@@PE$AAVDeviceAccessInformation@123@@Z 0000000180073130 f   _nodert_generated.obj
 0001:00072250       ?WrapDeviceConnectionChangeTriggerDetails@Enumeration@Devices@Windows@NodeRT@@YA?AV?$Local@VValue@v8@@@v8@@PE$AAVDeviceConnectionChangeTriggerDetails@123@@Z 0000000180073250 f   _nodert_generated.obj
 0001:00072370       ?WrapDeviceDisconnectButtonClickedEventArgs@Enumeration@Devices@Windows@NodeRT@@YA?AV?$Local@VValue@v8@@@v8@@PE$AAVDeviceDisconnectButtonClickedEventArgs@123@@Z 0000000180073370 f   _nodert_generated.obj
 0001:00072490       ?WrapDeviceInformation@Enumeration@Devices@Windows@NodeRT@@YA?AV?$Local@VValue@v8@@@v8@@PE$AAVDeviceInformation@123@@Z 0000000180073490 f   _nodert_generated.obj
 0001:000725b0       ?WrapDeviceInformationCollection@Enumeration@Devices@Windows@NodeRT@@YA?AV?$Local@VValue@v8@@@v8@@PE$AAVDeviceInformationCollection@123@@Z 00000001800735b0 f   _nodert_generated.obj
 0001:000726d0       ?WrapDeviceInformationCustomPairing@Enumeration@Devices@Windows@NodeRT@@YA?AV?$Local@VValue@v8@@@v8@@PE$AAVDeviceInformationCustomPairing@123@@Z 00000001800736d0 f   _nodert_generated.obj
 0001:000727f0       ?WrapDeviceInformationPairing@Enumeration@Devices@Windows@NodeRT@@YA?AV?$Local@VValue@v8@@@v8@@PE$AAVDeviceInformationPairing@123@@Z 00000001800737f0 f   _nodert_generated.obj
 0001:00072910       ?WrapDeviceInformationUpdate@Enumeration@Devices@Windows@NodeRT@@YA?AV?$Local@VValue@v8@@@v8@@PE$AAVDeviceInformationUpdate@123@@Z 0000000180073910 f   _nodert_generated.obj
 0001:00072a30       ?WrapDevicePairingRequestedEventArgs@Enumeration@Devices@Windows@NodeRT@@YA?AV?$Local@VValue@v8@@@v8@@PE$AAVDevicePairingRequestedEventArgs@123@@Z 0000000180073a30 f   _nodert_generated.obj
 0001:00072b50       ?WrapDevicePairingResult@Enumeration@Devices@Windows@NodeRT@@YA?AV?$Local@VValue@v8@@@v8@@PE$AAVDevicePairingResult@123@@Z 0000000180073b50 f   _nodert_generated.obj
 0001:00072c70       ?WrapDevicePicker@Enumeration@Devices@Windows@NodeRT@@YA?AV?$Local@VValue@v8@@@v8@@PE$AAVDevicePicker@123@@Z 0000000180073c70 f   _nodert_generated.obj
 0001:00072d90       ?WrapDevicePickerAppearance@Enumeration@Devices@Windows@NodeRT@@YA?AV?$Local@VValue@v8@@@v8@@PE$AAVDevicePickerAppearance@123@@Z 0000000180073d90 f   _nodert_generated.obj
 0001:00072eb0       ?WrapDevicePickerFilter@Enumeration@Devices@Windows@NodeRT@@YA?AV?$Local@VValue@v8@@@v8@@PE$AAVDevicePickerFilter@123@@Z 0000000180073eb0 f   _nodert_generated.obj
 0001:00072fd0       ?WrapDeviceSelectedEventArgs@Enumeration@Devices@Windows@NodeRT@@YA?AV?$Local@VValue@v8@@@v8@@PE$AAVDeviceSelectedEventArgs@123@@Z 0000000180073fd0 f   _nodert_generated.obj
 0001:000730f0       ?WrapDeviceThumbnail@Enumeration@Devices@Windows@NodeRT@@YA?AV?$Local@VValue@v8@@@v8@@PE$AAVDeviceThumbnail@123@@Z 00000001800740f0 f   _nodert_generated.obj
 0001:00073210       ?WrapDeviceUnpairingResult@Enumeration@Devices@Windows@NodeRT@@YA?AV?$Local@VValue@v8@@@v8@@PE$AAVDeviceUnpairingResult@123@@Z 0000000180074210 f   _nodert_generated.obj
 0001:00073330       ?WrapDeviceWatcher@Enumeration@Devices@Windows@NodeRT@@YA?AV?$Local@VValue@v8@@@v8@@PE$AAVDeviceWatcher@123@@Z 0000000180074330 f   _nodert_generated.obj
 0001:00073450       ?WrapDeviceWatcherEvent@Enumeration@Devices@Windows@NodeRT@@YA?AV?$Local@VValue@v8@@@v8@@PE$AAVDeviceWatcherEvent@123@@Z 0000000180074450 f   _nodert_generated.obj
 0001:00073570       ?WrapDeviceWatcherTriggerDetails@Enumeration@Devices@Windows@NodeRT@@YA?AV?$Local@VValue@v8@@@v8@@PE$AAVDeviceWatcherTriggerDetails@123@@Z 0000000180074570 f   _nodert_generated.obj
 0001:00073690       ?WrapEnclosureLocation@Enumeration@Devices@Windows@NodeRT@@YA?AV?$Local@VValue@v8@@@v8@@PE$AAVEnclosureLocation@123@@Z 0000000180074690 f   _nodert_generated.obj
 0001:000737b0       ?WrapIDevicePairingSettings@Enumeration@Devices@Windows@NodeRT@@YA?AV?$Local@VValue@v8@@@v8@@PE$AAUIDevicePairingSettings@123@@Z 00000001800747b0 f   _nodert_generated.obj
 0001:000738d0       ?WriteAsync@DeviceThumbnail@Enumeration@Devices@Windows@NodeRT@@CAXAEBV?$FunctionCallbackInfo@VValue@v8@@@Nan@@@Z 00000001800748d0 f i _nodert_generated.obj
 0001:00073d90       ?WriteAsync@IOutputStream@Streams@Storage@Windows@@UE$AAAPE$AAU?$IAsyncOperationWithProgress@II@Foundation@4@PE$AAUIBuffer@234@@Z 0000000180074d90 f i _nodert_generated.obj
 0001:00073e10       ?_Bridge@_TaskProcThunk@details@Concurrency@@SAXPEAX@Z 0000000180074e10 f i _nodert_generated.obj
 0001:00073e90       ?_Buy@?$vector@PEAXV?$allocator@PEAX@std@@@std@@IEAA_N_K@Z 0000000180074e90 f i _nodert_generated.obj
 0001:00073f10       ?_CallInContext@_ContextCallback@details@Concurrency@@QEBAXV?$function@$$A6AXXZ@std@@@Z 0000000180074f10 f i _nodert_generated.obj
 0001:00073fc0       ?_Callback@_PPLTaskChore@_DefaultPPLTaskScheduler@details@Concurrency@@CAXPEAX@Z 0000000180074fc0 f i _nodert_generated.obj
 0001:00074010       ?_CancelAndRunContinuations@?$_Task_impl@E@details@Concurrency@@UEAA_N_N00AEBV?$shared_ptr@U_ExceptionHolder@details@Concurrency@@@std@@@Z 0000000180075010 f i _nodert_generated.obj
 0001:00074240       ?_CancelAndRunContinuations@?$_Task_impl@I@details@Concurrency@@UEAA_N_N00AEBV?$shared_ptr@U_ExceptionHolder@details@Concurrency@@@std@@@Z 0000000180075240 f i _nodert_generated.obj
 0001:00074470       ?_CancelAndRunContinuations@?$_Task_impl@PE$AAUIBuffer@Streams@Storage@Windows@@@details@Concurrency@@UEAA_N_N00AEBV?$shared_ptr@U_ExceptionHolder@details@Concurrency@@@std@@@Z 0000000180075470 f i _nodert_generated.obj
 0001:000746a0       ?_CancelAndRunContinuations@?$_Task_impl@PE$AAVDeviceInformation@Enumeration@Devices@Windows@@@details@Concurrency@@UEAA_N_N00AEBV?$shared_ptr@U_ExceptionHolder@details@Concurrency@@@std@@@Z 00000001800756a0 f i _nodert_generated.obj
 0001:000748d0       ?_CancelAndRunContinuations@?$_Task_impl@PE$AAVDeviceInformationCollection@Enumeration@Devices@Windows@@@details@Concurrency@@UEAA_N_N00AEBV?$shared_ptr@U_ExceptionHolder@details@Concurrency@@@std@@@Z 00000001800758d0 f i _nodert_generated.obj
 0001:00074b00       ?_CancelAndRunContinuations@?$_Task_impl@PE$AAVDevicePairingResult@Enumeration@Devices@Windows@@@details@Concurrency@@UEAA_N_N00AEBV?$shared_ptr@U_ExceptionHolder@details@Concurrency@@@std@@@Z 0000000180075b00 f i _nodert_generated.obj
 0001:00074d30       ?_CancelAndRunContinuations@?$_Task_impl@PE$AAVDeviceThumbnail@Enumeration@Devices@Windows@@@details@Concurrency@@UEAA_N_N00AEBV?$shared_ptr@U_ExceptionHolder@details@Concurrency@@@std@@@Z 0000000180075d30 f i _nodert_generated.obj
 0001:00074f60       ?_CancelAndRunContinuations@?$_Task_impl@PE$AAVDeviceUnpairingResult@Enumeration@Devices@Windows@@@details@Concurrency@@UEAA_N_N00AEBV?$shared_ptr@U_ExceptionHolder@details@Concurrency@@@std@@@Z 0000000180075f60 f i _nodert_generated.obj
 0001:00075190       ?_CancelAndRunContinuations@?$_Task_impl@_N@details@Concurrency@@UEAA_N_N00AEBV?$shared_ptr@U_ExceptionHolder@details@Concurrency@@@std@@@Z 0000000180076190 f i _nodert_generated.obj
 0001:000753c0       ?_CancelWithException@_Task_impl_base@details@Concurrency@@QEAA_NAEBVexception_ptr@std@@@Z 00000001800763c0 f i _nodert_generated.obj
 0001:000754b0       ?_CaptureCurrent@_ContextCallback@details@Concurrency@@SA?AV123@XZ 00000001800764b0 f i _nodert_generated.obj
 0001:00075500       ?_CaptureSingleFrameCallstack@_TaskCreationCallstack@details@Concurrency@@SA?AV123@PEAX@Z 0000000180076500 f i _nodert_generated.obj
 0001:00075530       ?_Complete@_TaskCollectionBaseImpl@details@Concurrency@@QEAAXXZ 0000000180076530 f i _nodert_generated.obj
 0001:000755c0       ?_Continue@?$_ContinuationTaskHandle@IXV?$function@$$A6AXV?$task@I@Concurrency@@@Z@std@@U?$integral_constant@_N$00@2@U_TypeSelectorNoAsync@details@Concurrency@@@?$task@I@Concurrency@@QEBAXU?$integral_constant@_N$00@std@@U_TypeSelectorNoAsync@details@3@@Z 00000001800765c0 f i _nodert_generated.obj
 0001:00075740       ?_Continue@?$_ContinuationTaskHandle@PE$AAUIBuffer@Streams@Storage@Windows@@XV?$function@$$A6AXV?$task@PE$AAUIBuffer@Streams@Storage@Windows@@@Concurrency@@@Z@std@@U?$integral_constant@_N$00@6@U_TypeSelectorNoAsync@details@Concurrency@@@?$task@PE$AAUIBuffer@Streams@Storage@Windows@@@Concurrency@@QEBAXU?$integral_constant@_N$00@std@@U_TypeSelectorNoAsync@details@3@@Z 0000000180076740 f i _nodert_generated.obj
 0001:000758c0       ?_Continue@?$_ContinuationTaskHandle@PE$AAVDeviceInformation@Enumeration@Devices@Windows@@XV?$function@$$A6AXV?$task@PE$AAVDeviceInformation@Enumeration@Devices@Windows@@@Concurrency@@@Z@std@@U?$integral_constant@_N$00@6@U_TypeSelectorNoAsync@details@Concurrency@@@?$task@PE$AAVDeviceInformation@Enumeration@Devices@Windows@@@Concurrency@@QEBAXU?$integral_constant@_N$00@std@@U_TypeSelectorNoAsync@details@3@@Z 00000001800768c0 f i _nodert_generated.obj
 0001:00075a40       ?_Continue@?$_ContinuationTaskHandle@PE$AAVDeviceInformationCollection@Enumeration@Devices@Windows@@XV?$function@$$A6AXV?$task@PE$AAVDeviceInformationCollection@Enumeration@Devices@Windows@@@Concurrency@@@Z@std@@U?$integral_constant@_N$00@6@U_TypeSelectorNoAsync@details@Concurrency@@@?$task@PE$AAVDeviceInformationCollection@Enumeration@Devices@Windows@@@Concurrency@@QEBAXU?$integral_constant@_N$00@std@@U_TypeSelectorNoAsync@details@3@@Z 0000000180076a40 f i _nodert_generated.obj
 0001:00075bc0       ?_Continue@?$_ContinuationTaskHandle@PE$AAVDevicePairingResult@Enumeration@Devices@Windows@@XV?$function@$$A6AXV?$task@PE$AAVDevicePairingResult@Enumeration@Devices@Windows@@@Concurrency@@@Z@std@@U?$integral_constant@_N$00@6@U_TypeSelectorNoAsync@details@Concurrency@@@?$task@PE$AAVDevicePairingResult@Enumeration@Devices@Windows@@@Concurrency@@QEBAXU?$integral_constant@_N$00@std@@U_TypeSelectorNoAsync@details@3@@Z 0000000180076bc0 f i _nodert_generated.obj
 0001:00075d40       ?_Continue@?$_ContinuationTaskHandle@PE$AAVDeviceThumbnail@Enumeration@Devices@Windows@@XV?$function@$$A6AXV?$task@PE$AAVDeviceThumbnail@Enumeration@Devices@Windows@@@Concurrency@@@Z@std@@U?$integral_constant@_N$00@6@U_TypeSelectorNoAsync@details@Concurrency@@@?$task@PE$AAVDeviceThumbnail@Enumeration@Devices@Windows@@@Concurrency@@QEBAXU?$integral_constant@_N$00@std@@U_TypeSelectorNoAsync@details@3@@Z 0000000180076d40 f i _nodert_generated.obj
 0001:00075ec0       ?_Continue@?$_ContinuationTaskHandle@PE$AAVDeviceUnpairingResult@Enumeration@Devices@Windows@@XV?$function@$$A6AXV?$task@PE$AAVDeviceUnpairingResult@Enumeration@Devices@Windows@@@Concurrency@@@Z@std@@U?$integral_constant@_N$00@6@U_TypeSelectorNoAsync@details@Concurrency@@@?$task@PE$AAVDeviceUnpairingResult@Enumeration@Devices@Windows@@@Concurrency@@QEBAXU?$integral_constant@_N$00@std@@U_TypeSelectorNoAsync@details@3@@Z 0000000180076ec0 f i _nodert_generated.obj
 0001:00076040       ?_Continue@?$_ContinuationTaskHandle@_NXV?$function@$$A6AXV?$task@_N@Concurrency@@@Z@std@@U?$integral_constant@_N$00@2@U_TypeSelectorNoAsync@details@Concurrency@@@?$task@_N@Concurrency@@QEBAXU?$integral_constant@_N$00@std@@U_TypeSelectorNoAsync@details@3@@Z 0000000180077040 f i _nodert_generated.obj
 0001:000761c0       ?_Copy@?$_Func_impl@V<lambda_02f22d91f6fd3feea1a4573210772ee6>@@V?$allocator@H@std@@X$$V@std@@EEBAPEAV?$_Func_base@X$$V@2@PEAX@Z 00000001800771c0 f i _nodert_generated.obj
 0001:000761f0       ?_Copy@?$_Func_impl@V<lambda_04ef0919d35a1608d6a12d18ae23c16a>@@V?$allocator@H@std@@V?$Local@VValue@v8@@@v8@@PE$AAVString@Platform@@@std@@EEBAPEAV?$_Func_base@V?$Local@VValue@v8@@@v8@@PE$AAVString@Platform@@@2@PEAX@Z 00000001800771f0 f i _nodert_generated.obj
 0001:00076210       ?_Copy@?$_Func_impl@V<lambda_090d012d0a4c6328579e929d0f080628>@@V?$allocator@H@std@@X$$V@std@@EEBAPEAV?$_Func_base@X$$V@2@PEAX@Z 0000000180077210 f i _nodert_generated.obj
 0001:00076240       ?_Copy@?$_Func_impl@V<lambda_0c35f08fa008bd0bd75f4471027a7740>@@V?$allocator@H@std@@X$$V@std@@EEBAPEAV?$_Func_base@X$$V@2@PEAX@Z 0000000180077240 f i _nodert_generated.obj
 0001:000762c0       ?_Copy@?$_Func_impl@V<lambda_0ce10e9ffe11d3d6fc885aa52e004576>@@V?$allocator@H@std@@_NV?$Local@VValue@v8@@@v8@@@std@@EEBAPEAV?$_Func_base@_NV?$Local@VValue@v8@@@v8@@@2@PEAX@Z 00000001800772c0 f i _nodert_generated.obj
 0001:000762e0       ?_Copy@?$_Func_impl@V<lambda_0f026b73064d388c4941d27674c0da0f>@@V?$allocator@H@std@@EV?$task@PE$AAVDeviceInformation@Enumeration@Devices@Windows@@@Concurrency@@@std@@EEBAPEAV?$_Func_base@EV?$task@PE$AAVDeviceInformation@Enumeration@Devices@Windows@@@Concurrency@@@2@PEAX@Z 00000001800772e0 f i _nodert_generated.obj
 0001:000762f0       ?_Copy@?$_Func_impl@V<lambda_120b4087b4a5fb3353380db5f4bd64db>@@V?$allocator@H@std@@XV?$task@PE$AAVDeviceUnpairingResult@Enumeration@Devices@Windows@@@Concurrency@@@std@@EEBAPEAV?$_Func_base@XV?$task@PE$AAVDeviceUnpairingResult@Enumeration@Devices@Windows@@@Concurrency@@@2@PEAX@Z 00000001800772f0 f i _nodert_generated.obj
 0001:00076320       ?_Copy@?$_Func_impl@V<lambda_12bcb78949ebcaacb22005e510ac426e>@@V?$allocator@H@std@@_NV?$Local@VValue@v8@@@v8@@@std@@EEBAPEAV?$_Func_base@_NV?$Local@VValue@v8@@@v8@@@2@PEAX@Z 0000000180077320 f i _nodert_generated.obj
 0001:00076340       ?_Copy@?$_Func_impl@V<lambda_163ea11ffbf98f813e6bfc1622219211>@@V?$allocator@H@std@@XV?$function@$$A6AXHPEAV?$Local@VValue@v8@@@v8@@@Z@3@@std@@EEBAPEAV?$_Func_base@XV?$function@$$A6AXHPEAV?$Local@VValue@v8@@@v8@@@Z@std@@@2@PEAX@Z 0000000180077340 f i _nodert_generated.obj
 0001:000763c0       ?_Copy@?$_Func_impl@V<lambda_17eb98b82985a3c5f8b57ecb56110d60>@@V?$allocator@H@std@@XV?$function@$$A6AXHPEAV?$Local@VValue@v8@@@v8@@@Z@3@@std@@EEBAPEAV?$_Func_base@XV?$function@$$A6AXHPEAV?$Local@VValue@v8@@@v8@@@Z@std@@@2@PEAX@Z 00000001800773c0 f i _nodert_generated.obj
 0001:000763e0       ?_Copy@?$_Func_impl@V<lambda_1af583cf6945007177c61d87505abd8e>@@V?$allocator@H@std@@XHPEAV?$Local@VValue@v8@@@v8@@@std@@EEBAPEAV?$_Func_base@XHPEAV?$Local@VValue@v8@@@v8@@@2@PEAX@Z 00000001800773e0 f i _nodert_generated.obj
 0001:00076410       ?_Copy@?$_Func_impl@V<lambda_1e0d05bc07b2e06c9ae6ab1a5a7af17f>@@V?$allocator@H@std@@_NV?$Local@VValue@v8@@@v8@@@std@@EEBAPEAV?$_Func_base@_NV?$Local@VValue@v8@@@v8@@@2@PEAX@Z 0000000180077410 f i _nodert_generated.obj
 0001:00076430       ?_Copy@?$_Func_impl@V<lambda_1eb828a456fd906201da4bdf8c87acc7>@@V?$allocator@H@std@@XV?$task@I@Concurrency@@@std@@EEBAPEAV?$_Func_base@XV?$task@I@Concurrency@@@2@PEAX@Z 0000000180077430 f i _nodert_generated.obj
 0001:00076460       ?_Copy@?$_Func_impl@V<lambda_21853b1681f69a430ffef3e4fdb7428e>@@V?$allocator@H@std@@X$$V@std@@EEBAPEAV?$_Func_base@X$$V@2@PEAX@Z 0000000180077460 f i _nodert_generated.obj
 0001:00076490       ?_Copy@?$_Func_impl@V<lambda_236f5d6cde663bd487905b2659e9e1d0>@@V?$allocator@H@std@@V?$Local@VValue@v8@@@v8@@W4DeviceClass@Enumeration@Devices@Windows@@@std@@EEBAPEAV?$_Func_base@V?$Local@VValue@v8@@@v8@@W4DeviceClass@Enumeration@Devices@Windows@@@2@PEAX@Z 0000000180077490 f i _nodert_generated.obj
 0001:000764b0       ?_Copy@?$_Func_impl@V<lambda_2bb8dd9e3a2f720ce54f513fe20eec0b>@@V?$allocator@H@std@@XV?$function@$$A6AXHPEAV?$Local@VValue@v8@@@v8@@@Z@3@@std@@EEBAPEAV?$_Func_base@XV?$function@$$A6AXHPEAV?$Local@VValue@v8@@@v8@@@Z@std@@@2@PEAX@Z 00000001800774b0 f i _nodert_generated.obj
 0001:00076530       ?_Copy@?$_Func_impl@V<lambda_2e68d8e8051c62e018e9e768a603a9d1>@@V?$allocator@H@std@@XV?$function@$$A6AXHPEAV?$Local@VValue@v8@@@v8@@@Z@3@@std@@EEBAPEAV?$_Func_base@XV?$function@$$A6AXHPEAV?$Local@VValue@v8@@@v8@@@Z@std@@@2@PEAX@Z 0000000180077530 f i _nodert_generated.obj
 0001:000765b0       ?_Copy@?$_Func_impl@V<lambda_2fe5a97852dd9750fca909335c649c88>@@V?$allocator@H@std@@XV?$task@_N@Concurrency@@@std@@EEBAPEAV?$_Func_base@XV?$task@_N@Concurrency@@@2@PEAX@Z 00000001800775b0 f i _nodert_generated.obj
 0001:000765e0       ?_Copy@?$_Func_impl@V<lambda_3282d637809049c3e60b82a707d0a93d>@@V?$allocator@H@std@@XV?$function@$$A6AXHPEAV?$Local@VValue@v8@@@v8@@@Z@3@@std@@EEBAPEAV?$_Func_base@XV?$function@$$A6AXHPEAV?$Local@VValue@v8@@@v8@@@Z@std@@@2@PEAX@Z 00000001800775e0 f i _nodert_generated.obj
 0001:00076660       ?_Copy@?$_Func_impl@V<lambda_32bf3520a247a9092ab406a31a3faa42>@@V?$allocator@H@std@@XV?$function@$$A6AXHPEAV?$Local@VValue@v8@@@v8@@@Z@3@@std@@EEBAPEAV?$_Func_base@XV?$function@$$A6AXHPEAV?$Local@VValue@v8@@@v8@@@Z@std@@@2@PEAX@Z 0000000180077660 f i _nodert_generated.obj
 0001:000766e0       ?_Copy@?$_Func_impl@V<lambda_33dac395321372434e13e659f6691d2b>@@V?$allocator@H@std@@XV?$task@PE$AAVDeviceInformationCollection@Enumeration@Devices@Windows@@@Concurrency@@@std@@EEBAPEAV?$_Func_base@XV?$task@PE$AAVDeviceInformationCollection@Enumeration@Devices@Windows@@@Concurrency@@@2@PEAX@Z 00000001800776e0 f i _nodert_generated.obj
 0001:00076710       ?_Copy@?$_Func_impl@V<lambda_33ee84b3f5db65732a80cadacb90dcb1>@@V?$allocator@H@std@@X$$V@std@@EEBAPEAV?$_Func_base@X$$V@2@PEAX@Z 0000000180077710 f i _nodert_generated.obj
 0001:00076740       ?_Copy@?$_Func_impl@V<lambda_36504d37d672f10d3dbf88850e37d034>@@V?$allocator@H@std@@XV?$task@PE$AAVDeviceInformation@Enumeration@Devices@Windows@@@Concurrency@@@std@@EEBAPEAV?$_Func_base@XV?$task@PE$AAVDeviceInformation@Enumeration@Devices@Windows@@@Concurrency@@@2@PEAX@Z 0000000180077740 f i _nodert_generated.obj
 0001:00076770       ?_Copy@?$_Func_impl@V<lambda_38185181009d45c1195ac970a9c474b5>@@V?$allocator@H@std@@XV?$function@$$A6AXHPEAV?$Local@VValue@v8@@@v8@@@Z@3@@std@@EEBAPEAV?$_Func_base@XV?$function@$$A6AXHPEAV?$Local@VValue@v8@@@v8@@@Z@std@@@2@PEAX@Z 0000000180077770 f i _nodert_generated.obj
 0001:000767f0       ?_Copy@?$_Func_impl@V<lambda_3abfc8c1f252ee83d85013063ca8f980>@@V?$allocator@H@std@@XV?$function@$$A6AXHPEAV?$Local@VValue@v8@@@v8@@@Z@3@@std@@EEBAPEAV?$_Func_base@XV?$function@$$A6AXHPEAV?$Local@VValue@v8@@@v8@@@Z@std@@@2@PEAX@Z 00000001800777f0 f i _nodert_generated.obj
 0001:00076870       ?_Copy@?$_Func_impl@V<lambda_3c5f1d990a8da23576aa46c0ae90e233>@@V?$allocator@H@std@@_NV?$Local@VValue@v8@@@v8@@@std@@EEBAPEAV?$_Func_base@_NV?$Local@VValue@v8@@@v8@@@2@PEAX@Z 0000000180077870 f i _nodert_generated.obj
 0001:00076890       ?_Copy@?$_Func_impl@V<lambda_3ecc12439b83dffa78b0ffc848dd2282>@@V?$allocator@H@std@@X$$V@std@@EEBAPEAV?$_Func_base@X$$V@2@PEAX@Z 0000000180077890 f i _nodert_generated.obj
 0001:000768c0       ?_Copy@?$_Func_impl@V<lambda_403f017818dca9303b63b9f750a7bfbe>@@V?$allocator@H@std@@_NV?$Local@VValue@v8@@@v8@@@std@@EEBAPEAV?$_Func_base@_NV?$Local@VValue@v8@@@v8@@@2@PEAX@Z 00000001800778c0 f i _nodert_generated.obj
 0001:000768e0       ?_Copy@?$_Func_impl@V<lambda_413e697d3df9dfa3260888caa9b36fb1>@@V?$allocator@H@std@@X$$V@std@@EEBAPEAV?$_Func_base@X$$V@2@PEAX@Z 00000001800778e0 f i _nodert_generated.obj
 0001:00076910       ?_Copy@?$_Func_impl@V<lambda_418bff8cbe9471ab2cc47b9ce55378cb>@@V?$allocator@H@std@@XV?$task@PE$AAVDevicePairingResult@Enumeration@Devices@Windows@@@Concurrency@@@std@@EEBAPEAV?$_Func_base@XV?$task@PE$AAVDevicePairingResult@Enumeration@Devices@Windows@@@Concurrency@@@2@PEAX@Z 0000000180077910 f i _nodert_generated.obj
 0001:00076940       ?_Copy@?$_Func_impl@V<lambda_436ea425f814a82153c3b933242ed364>@@V?$allocator@H@std@@_NV?$Local@VValue@v8@@@v8@@@std@@EEBAPEAV?$_Func_base@_NV?$Local@VValue@v8@@@v8@@@2@PEAX@Z 0000000180077940 f i _nodert_generated.obj
 0001:00076960       ?_Copy@?$_Func_impl@V<lambda_43d91700c1063fcb3a9eb56e5d049156>@@V?$allocator@H@std@@X$$V@std@@EEBAPEAV?$_Func_base@X$$V@2@PEAX@Z 0000000180077960 f i _nodert_generated.obj
 0001:000769a0       ?_Copy@?$_Func_impl@V<lambda_4446bd2e4bb6e1cfecdc4f203e7fabb1>@@V?$allocator@H@std@@XV?$function@$$A6AXHPEAV?$Local@VValue@v8@@@v8@@@Z@3@@std@@EEBAPEAV?$_Func_base@XV?$function@$$A6AXHPEAV?$Local@VValue@v8@@@v8@@@Z@std@@@2@PEAX@Z 00000001800779a0 f i _nodert_generated.obj
 0001:00076a20       ?_Copy@?$_Func_impl@V<lambda_447710e2e0dec371aaecb4096c7b9487>@@V?$allocator@H@std@@X$$V@std@@EEBAPEAV?$_Func_base@X$$V@2@PEAX@Z 0000000180077a20 f i _nodert_generated.obj
 0001:00076aa0       ?_Copy@?$_Func_impl@V<lambda_45844692d1567fd502d15bf6aca23634>@@V?$allocator@H@std@@_NV?$Local@VValue@v8@@@v8@@@std@@EEBAPEAV?$_Func_base@_NV?$Local@VValue@v8@@@v8@@@2@PEAX@Z 0000000180077aa0 f i _nodert_generated.obj
 0001:00076ac0       ?_Copy@?$_Func_impl@V<lambda_4599a832aa6ff44531ffc915cf37cb7d>@@V?$allocator@H@std@@X$$V@std@@EEBAPEAV?$_Func_base@X$$V@2@PEAX@Z 0000000180077ac0 f i _nodert_generated.obj
 0001:00076af0       ?_Copy@?$_Func_impl@V<lambda_48b29ce106f56fee2b9931f4f0d8ba5b>@@V?$allocator@H@std@@EV?$task@PE$AAVDevicePairingResult@Enumeration@Devices@Windows@@@Concurrency@@@std@@EEBAPEAV?$_Func_base@EV?$task@PE$AAVDevicePairingResult@Enumeration@Devices@Windows@@@Concurrency@@@2@PEAX@Z 0000000180077af0 f i _nodert_generated.obj
 0001:00076b00       ?_Copy@?$_Func_impl@V<lambda_4b27738951189d11652babf17d446fff>@@V?$allocator@H@std@@XV?$function@$$A6AXHPEAV?$Local@VValue@v8@@@v8@@@Z@3@@std@@EEBAPEAV?$_Func_base@XV?$function@$$A6AXHPEAV?$Local@VValue@v8@@@v8@@@Z@std@@@2@PEAX@Z 0000000180077b00 f i _nodert_generated.obj
 0001:00076b80       ?_Copy@?$_Func_impl@V<lambda_4cc48579c35cacc5f2092cf572b2c19b>@@V?$allocator@H@std@@XV?$function@$$A6AXHPEAV?$Local@VValue@v8@@@v8@@@Z@3@@std@@EEBAPEAV?$_Func_base@XV?$function@$$A6AXHPEAV?$Local@VValue@v8@@@v8@@@Z@std@@@2@PEAX@Z 0000000180077b80 f i _nodert_generated.obj
 0001:00076c00       ?_Copy@?$_Func_impl@V<lambda_501307cb0ef324bd632ab813b42d6477>@@V?$allocator@H@std@@XV?$task@PE$AAVDeviceThumbnail@Enumeration@Devices@Windows@@@Concurrency@@@std@@EEBAPEAV?$_Func_base@XV?$task@PE$AAVDeviceThumbnail@Enumeration@Devices@Windows@@@Concurrency@@@2@PEAX@Z 0000000180077c00 f i _nodert_generated.obj
 0001:00076c30       ?_Copy@?$_Func_impl@V<lambda_5158ffc534c2777cd55cf61a47407140>@@V?$allocator@H@std@@X$$V@std@@EEBAPEAV?$_Func_base@X$$V@2@PEAX@Z 0000000180077c30 f i _nodert_generated.obj
 0001:00076c60       ?_Copy@?$_Func_impl@V<lambda_5531600b135067ad5493040a84ae33ff>@@V?$allocator@H@std@@V?$Local@VValue@v8@@@v8@@PE$AAVObject@Platform@@@std@@EEBAPEAV?$_Func_base@V?$Local@VValue@v8@@@v8@@PE$AAVObject@Platform@@@2@PEAX@Z 0000000180077c60 f i _nodert_generated.obj
 0001:00076c80       ?_Copy@?$_Func_impl@V<lambda_560edee77a3239947065bc88f6bce7bc>@@V?$allocator@H@std@@PE$AAVString@Platform@@V?$Local@VValue@v8@@@v8@@@std@@EEBAPEAV?$_Func_base@PE$AAVString@Platform@@V?$Local@VValue@v8@@@v8@@@2@PEAX@Z 0000000180077c80 f i _nodert_generated.obj
 0001:00076ca0       ?_Copy@?$_Func_impl@V<lambda_5742defd950e0f1d5323a47c27480349>@@V?$allocator@H@std@@X$$V@std@@EEBAPEAV?$_Func_base@X$$V@2@PEAX@Z 0000000180077ca0 f i _nodert_generated.obj
 0001:00076cd0       ?_Copy@?$_Func_impl@V<lambda_592347503a27903a1864e921c6d8a7e3>@@V?$allocator@H@std@@XV?$function@$$A6AXHPEAV?$Local@VValue@v8@@@v8@@@Z@3@@std@@EEBAPEAV?$_Func_base@XV?$function@$$A6AXHPEAV?$Local@VValue@v8@@@v8@@@Z@std@@@2@PEAX@Z 0000000180077cd0 f i _nodert_generated.obj
 0001:00076d50       ?_Copy@?$_Func_impl@V<lambda_59c512ccbceb4a4aa79aea9f317c8729>@@V?$allocator@H@std@@EV?$task@I@Concurrency@@@std@@EEBAPEAV?$_Func_base@EV?$task@I@Concurrency@@@2@PEAX@Z 0000000180077d50 f i _nodert_generated.obj
 0001:00076d60       ?_Copy@?$_Func_impl@V<lambda_5a1c437f17fa466aabaf7b0153a0ecc3>@@V?$allocator@H@std@@EV?$task@_N@Concurrency@@@std@@EEBAPEAV?$_Func_base@EV?$task@_N@Concurrency@@@2@PEAX@Z 0000000180077d60 f i _nodert_generated.obj
 0001:00076d70       ?_Copy@?$_Func_impl@V<lambda_5a3867752bb24d418d4fe7d1b64439ce>@@V?$allocator@H@std@@EV?$task@PE$AAVDeviceThumbnail@Enumeration@Devices@Windows@@@Concurrency@@@std@@EEBAPEAV?$_Func_base@EV?$task@PE$AAVDeviceThumbnail@Enumeration@Devices@Windows@@@Concurrency@@@2@PEAX@Z 0000000180077d70 f i _nodert_generated.obj
 0001:00076d80       ?_Copy@?$_Func_impl@V<lambda_5c14fb28660783f3c02d395e6c5ed33c>@@V?$allocator@H@std@@X$$V@std@@EEBAPEAV?$_Func_base@X$$V@2@PEAX@Z 0000000180077d80 f i _nodert_generated.obj
 0001:00076e00       ?_Copy@?$_Func_impl@V<lambda_62e266853b998866e6b58c3644b12cd1>@@V?$allocator@H@std@@XV?$function@$$A6AXHPEAV?$Local@VValue@v8@@@v8@@@Z@3@@std@@EEBAPEAV?$_Func_base@XV?$function@$$A6AXHPEAV?$Local@VValue@v8@@@v8@@@Z@std@@@2@PEAX@Z 0000000180077e00 f i _nodert_generated.obj
 0001:00076e80       ?_Copy@?$_Func_impl@V<lambda_6a4d408c8dcd5c2adaba3e48d970cabd>@@V?$allocator@H@std@@X$$V@std@@EEBAPEAV?$_Func_base@X$$V@2@PEAX@Z 0000000180077e80 f i _nodert_generated.obj
 0001:00076f00       ?_Copy@?$_Func_impl@V<lambda_7233ffe6b129a6ce3ddee2ef536800f2>@@V?$allocator@H@std@@EV?$task@PE$AAVDeviceUnpairingResult@Enumeration@Devices@Windows@@@Concurrency@@@std@@EEBAPEAV?$_Func_base@EV?$task@PE$AAVDeviceUnpairingResult@Enumeration@Devices@Windows@@@Concurrency@@@2@PEAX@Z 0000000180077f00 f i _nodert_generated.obj
 0001:00076f10       ?_Copy@?$_Func_impl@V<lambda_7601a32cb7fd1c904b665337581357ab>@@V?$allocator@H@std@@XV?$function@$$A6AXHPEAV?$Local@VValue@v8@@@v8@@@Z@3@@std@@EEBAPEAV?$_Func_base@XV?$function@$$A6AXHPEAV?$Local@VValue@v8@@@v8@@@Z@std@@@2@PEAX@Z 0000000180077f10 f i _nodert_generated.obj
 0001:00076f90       ?_Copy@?$_Func_impl@V<lambda_763529b0c7473cbc215a52d189ac9b18>@@V?$allocator@H@std@@X$$V@std@@EEBAPEAV?$_Func_base@X$$V@2@PEAX@Z 0000000180077f90 f i _nodert_generated.obj
 0001:00076fc0       ?_Copy@?$_Func_impl@V<lambda_7637a52f8615d5c4350d4415b4187f67>@@V?$allocator@H@std@@X$$V@std@@EEBAPEAV?$_Func_base@X$$V@2@PEAX@Z 0000000180077fc0 f i _nodert_generated.obj
 0001:00077000       ?_Copy@?$_Func_impl@V<lambda_78daf5e59166083a6cf28051060f445b>@@V?$allocator@H@std@@X$$V@std@@EEBAPEAV?$_Func_base@X$$V@2@PEAX@Z 0000000180078000 f i _nodert_generated.obj
 0001:00077080       ?_Copy@?$_Func_impl@V<lambda_7c85cdcc7b722a73124a4747dd95cece>@@V?$allocator@H@std@@V?$Local@VValue@v8@@@v8@@PE$AAU?$IKeyValuePair@PE$AAVString@Platform@@PE$AAVObject@2@@Collections@Foundation@Windows@@@std@@EEBAPEAV?$_Func_base@V?$Local@VValue@v8@@@v8@@PE$AAU?$IKeyValuePair@PE$AAVString@Platform@@PE$AAVObject@2@@Collections@Foundation@Windows@@@2@PEAX@Z 0000000180078080 f i _nodert_generated.obj
 0001:00077100       ?_Copy@?$_Func_impl@V<lambda_7d63be740be4558b3e3eb0c3d5253f2f>@@V?$allocator@H@std@@X$$V@std@@EEBAPEAV?$_Func_base@X$$V@2@PEAX@Z 0000000180078100 f i _nodert_generated.obj
 0001:00077130       ?_Copy@?$_Func_impl@V<lambda_80aa571a138ef2b7532637249397d5a3>@@V?$allocator@H@std@@XV?$function@$$A6AXHPEAV?$Local@VValue@v8@@@v8@@@Z@3@@std@@EEBAPEAV?$_Func_base@XV?$function@$$A6AXHPEAV?$Local@VValue@v8@@@v8@@@Z@std@@@2@PEAX@Z 0000000180078130 f i _nodert_generated.obj
 0001:000771b0       ?_Copy@?$_Func_impl@V<lambda_80d3ac704db897fed386c438008f7532>@@V?$allocator@H@std@@X$$V@std@@EEBAPEAV?$_Func_base@X$$V@2@PEAX@Z 00000001800781b0 f i _nodert_generated.obj
 0001:000771f0       ?_Copy@?$_Func_impl@V<lambda_83a71d54a925918e3e8e280fcf3ac2fc>@@V?$allocator@H@std@@X$$V@std@@EEBAPEAV?$_Func_base@X$$V@2@PEAX@Z 00000001800781f0 f i _nodert_generated.obj
 0001:00077230       ?_Copy@?$_Func_impl@V<lambda_865dc1c5144f92b57e161143446c13fa>@@V?$allocator@H@std@@PE$AAVString@Platform@@V?$Local@VValue@v8@@@v8@@@std@@EEBAPEAV?$_Func_base@PE$AAVString@Platform@@V?$Local@VValue@v8@@@v8@@@2@PEAX@Z 0000000180078230 f i _nodert_generated.obj
 0001:00077250       ?_Copy@?$_Func_impl@V<lambda_894463c39cec769f47b59c6862ca5741>@@V?$allocator@H@std@@XV?$task@PE$AAUIBuffer@Streams@Storage@Windows@@@Concurrency@@@std@@EEBAPEAV?$_Func_base@XV?$task@PE$AAUIBuffer@Streams@Storage@Windows@@@Concurrency@@@2@PEAX@Z 0000000180078250 f i _nodert_generated.obj
 0001:00077280       ?_Copy@?$_Func_impl@V<lambda_8c253faaf993bab7b504f87247a99dc5>@@V?$allocator@H@std@@X$$V@std@@EEBAPEAV?$_Func_base@X$$V@2@PEAX@Z 0000000180078280 f i _nodert_generated.obj
 0001:000772b0       ?_Copy@?$_Func_impl@V<lambda_8db20726d1b4924c864a3321687226d3>@@V?$allocator@H@std@@XV?$function@$$A6AXHPEAV?$Local@VValue@v8@@@v8@@@Z@3@@std@@EEBAPEAV?$_Func_base@XV?$function@$$A6AXHPEAV?$Local@VValue@v8@@@v8@@@Z@std@@@2@PEAX@Z 00000001800782b0 f i _nodert_generated.obj
 0001:00077330       ?_Copy@?$_Func_impl@V<lambda_8ec31411949358aba4a01b593f0de4dd>@@V?$allocator@H@std@@PE$AAVString@Platform@@V?$Local@VValue@v8@@@v8@@@std@@EEBAPEAV?$_Func_base@PE$AAVString@Platform@@V?$Local@VValue@v8@@@v8@@@2@PEAX@Z 0000000180078330 f i _nodert_generated.obj
 0001:00077350       ?_Copy@?$_Func_impl@V<lambda_96798dec0125b78218297a3a0a5349aa>@@V?$allocator@H@std@@_NV?$Local@VValue@v8@@@v8@@@std@@EEBAPEAV?$_Func_base@_NV?$Local@VValue@v8@@@v8@@@2@PEAX@Z 0000000180078350 f i _nodert_generated.obj
 0001:00077370       ?_Copy@?$_Func_impl@V<lambda_988993e7b5ffc7b958aacacdd6a62e0b>@@V?$allocator@H@std@@PE$AAVString@Platform@@V?$Local@VValue@v8@@@v8@@@std@@EEBAPEAV?$_Func_base@PE$AAVString@Platform@@V?$Local@VValue@v8@@@v8@@@2@PEAX@Z 0000000180078370 f i _nodert_generated.obj
 0001:00077390       ?_Copy@?$_Func_impl@V<lambda_9d8e4cf091122037972057663da965f6>@@V?$allocator@H@std@@X$$V@std@@EEBAPEAV?$_Func_base@X$$V@2@PEAX@Z 0000000180078390 f i _nodert_generated.obj
 0001:000773c0       ?_Copy@?$_Func_impl@V<lambda_9ff0ef1629247b934bc56dbecf4fad4d>@@V?$allocator@H@std@@_NV?$Local@VValue@v8@@@v8@@@std@@EEBAPEAV?$_Func_base@_NV?$Local@VValue@v8@@@v8@@@2@PEAX@Z 00000001800783c0 f i _nodert_generated.obj
 0001:000773e0       ?_Copy@?$_Func_impl@V<lambda_a02c9815634049d31832a02362fdc714>@@V?$allocator@H@std@@W4DeviceWatcherEventKind@Enumeration@Devices@Windows@@V?$Local@VValue@v8@@@v8@@@std@@EEBAPEAV?$_Func_base@W4DeviceWatcherEventKind@Enumeration@Devices@Windows@@V?$Local@VValue@v8@@@v8@@@2@PEAX@Z 00000001800783e0 f i _nodert_generated.obj
 0001:00077400       ?_Copy@?$_Func_impl@V<lambda_a0db4bb87296f5cf95bf193d59b80420>@@V?$allocator@H@std@@XV?$task@PE$AAVDevicePairingResult@Enumeration@Devices@Windows@@@Concurrency@@@std@@EEBAPEAV?$_Func_base@XV?$task@PE$AAVDevicePairingResult@Enumeration@Devices@Windows@@@Concurrency@@@2@PEAX@Z 0000000180078400 f i _nodert_generated.obj
 0001:00077430       ?_Copy@?$_Func_impl@V<lambda_a18157a77679b27ebbee14df8cc9551b>@@V?$allocator@H@std@@XV?$task@PE$AAVDeviceThumbnail@Enumeration@Devices@Windows@@@Concurrency@@@std@@EEBAPEAV?$_Func_base@XV?$task@PE$AAVDeviceThumbnail@Enumeration@Devices@Windows@@@Concurrency@@@2@PEAX@Z 0000000180078430 f i _nodert_generated.obj
 0001:00077460       ?_Copy@?$_Func_impl@V<lambda_a53003aa7c7439f9fe9d3ef6faedc4c5>@@V?$allocator@H@std@@X$$V@std@@EEBAPEAV?$_Func_base@X$$V@2@PEAX@Z 0000000180078460 f i _nodert_generated.obj
 0001:000774a0       ?_Copy@?$_Func_impl@V<lambda_a54ec017da84eed38cef3d48b5235292>@@V?$allocator@H@std@@XV?$function@$$A6AXHPEAV?$Local@VValue@v8@@@v8@@@Z@3@@std@@EEBAPEAV?$_Func_base@XV?$function@$$A6AXHPEAV?$Local@VValue@v8@@@v8@@@Z@std@@@2@PEAX@Z 00000001800784a0 f i _nodert_generated.obj
 0001:00077520       ?_Copy@?$_Func_impl@V<lambda_a657b80b93f125e0c6567c8b85c0226c>@@V?$allocator@H@std@@X$$V@std@@EEBAPEAV?$_Func_base@X$$V@2@PEAX@Z 0000000180078520 f i _nodert_generated.obj
 0001:00077550       ?_Copy@?$_Func_impl@V<lambda_a96e5ce404383841d08ddad807d114e4>@@V?$allocator@H@std@@X$$V@std@@EEBAPEAV?$_Func_base@X$$V@2@PEAX@Z 0000000180078550 f i _nodert_generated.obj
 0001:000775d0       ?_Copy@?$_Func_impl@V<lambda_ad6d9567cc6442162d2a964c15d8d6e8>@@V?$allocator@H@std@@V?$Local@VValue@v8@@@v8@@PE$AAVDeviceInformation@Enumeration@Devices@Windows@@@std@@EEBAPEAV?$_Func_base@V?$Local@VValue@v8@@@v8@@PE$AAVDeviceInformation@Enumeration@Devices@Windows@@@2@PEAX@Z 00000001800785d0 f i _nodert_generated.obj
 0001:000775f0       ?_Copy@?$_Func_impl@V<lambda_ae13666b41b05240b4d593c72a58d1c0>@@V?$allocator@H@std@@PE$AAVString@Platform@@V?$Local@VValue@v8@@@v8@@@std@@EEBAPEAV?$_Func_base@PE$AAVString@Platform@@V?$Local@VValue@v8@@@v8@@@2@PEAX@Z 00000001800785f0 f i _nodert_generated.obj
 0001:00077610       ?_Copy@?$_Func_impl@V<lambda_ae9493837c227995ded26404960f2bae>@@V?$allocator@H@std@@XV?$task@PE$AAVDeviceInformation@Enumeration@Devices@Windows@@@Concurrency@@@std@@EEBAPEAV?$_Func_base@XV?$task@PE$AAVDeviceInformation@Enumeration@Devices@Windows@@@Concurrency@@@2@PEAX@Z 0000000180078610 f i _nodert_generated.obj
 0001:00077640       ?_Copy@?$_Func_impl@V<lambda_af4e454302585268d6adc8ac5957ad65>@@V?$allocator@H@std@@PE$AAVString@Platform@@V?$Local@VValue@v8@@@v8@@@std@@EEBAPEAV?$_Func_base@PE$AAVString@Platform@@V?$Local@VValue@v8@@@v8@@@2@PEAX@Z 0000000180078640 f i _nodert_generated.obj
 0001:00077660       ?_Copy@?$_Func_impl@V<lambda_b060202fbcf2c24c017bca20495c769b>@@V?$allocator@H@std@@X$$V@std@@EEBAPEAV?$_Func_base@X$$V@2@PEAX@Z 0000000180078660 f i _nodert_generated.obj
 0001:00077690       ?_Copy@?$_Func_impl@V<lambda_b6d37523fa2c7bf72083f064af8f62e4>@@V?$allocator@H@std@@W4DeviceClass@Enumeration@Devices@Windows@@V?$Local@VValue@v8@@@v8@@@std@@EEBAPEAV?$_Func_base@W4DeviceClass@Enumeration@Devices@Windows@@V?$Local@VValue@v8@@@v8@@@2@PEAX@Z 0000000180078690 f i _nodert_generated.obj
 0001:000776b0       ?_Copy@?$_Func_impl@V<lambda_b78ed03f7beef7e9d7e66a4c4c58beb7>@@V?$allocator@H@std@@V?$Local@VValue@v8@@@v8@@PE$AAVDeviceWatcherEvent@Enumeration@Devices@Windows@@@std@@EEBAPEAV?$_Func_base@V?$Local@VValue@v8@@@v8@@PE$AAVDeviceWatcherEvent@Enumeration@Devices@Windows@@@2@PEAX@Z 00000001800786b0 f i _nodert_generated.obj
 0001:000776d0       ?_Copy@?$_Func_impl@V<lambda_b7d41fce8f4d1cb819559b5195c10893>@@V?$allocator@H@std@@X$$V@std@@EEBAPEAV?$_Func_base@X$$V@2@PEAX@Z 00000001800786d0 f i _nodert_generated.obj
 0001:00077710       ?_Copy@?$_Func_impl@V<lambda_b86ea4b25e0e87ee9799cfc974a5a7f4>@@V?$allocator@H@std@@V?$Local@VValue@v8@@@v8@@PE$AAVString@Platform@@@std@@EEBAPEAV?$_Func_base@V?$Local@VValue@v8@@@v8@@PE$AAVString@Platform@@@2@PEAX@Z 0000000180078710 f i _nodert_generated.obj
 0001:00077730       ?_Copy@?$_Func_impl@V<lambda_b89f5c50422b23311075c5604b7fae64>@@V?$allocator@H@std@@_NV?$Local@VValue@v8@@@v8@@@std@@EEBAPEAV?$_Func_base@_NV?$Local@VValue@v8@@@v8@@@2@PEAX@Z 0000000180078730 f i _nodert_generated.obj
 0001:00077750       ?_Copy@?$_Func_impl@V<lambda_bb3ea35c7a129712676a4a6472ecdc6a>@@V?$allocator@H@std@@X$$V@std@@EEBAPEAV?$_Func_base@X$$V@2@PEAX@Z 0000000180078750 f i _nodert_generated.obj
 0001:00077780       ?_Copy@?$_Func_impl@V<lambda_bb92edcbe7432b9286e3e817945d72e9>@@V?$allocator@H@std@@X$$V@std@@EEBAPEAV?$_Func_base@X$$V@2@PEAX@Z 0000000180078780 f i _nodert_generated.obj
 0001:000777b0       ?_Copy@?$_Func_impl@V<lambda_be1b4437d04867db8b6597cc15e566bb>@@V?$allocator@H@std@@X$$V@std@@EEBAPEAV?$_Func_base@X$$V@2@PEAX@Z 00000001800787b0 f i _nodert_generated.obj
 0001:000777f0       ?_Copy@?$_Func_impl@V<lambda_c3452797281de5d24e0ed55a9a51db00>@@V?$allocator@H@std@@_NV?$Local@VValue@v8@@@v8@@@std@@EEBAPEAV?$_Func_base@_NV?$Local@VValue@v8@@@v8@@@2@PEAX@Z 00000001800787f0 f i _nodert_generated.obj
 0001:00077810       ?_Copy@?$_Func_impl@V<lambda_c38aed84fb5009a33218754ad046f542>@@V?$allocator@H@std@@V?$Local@VValue@v8@@@v8@@PE$AAVString@Platform@@@std@@EEBAPEAV?$_Func_base@V?$Local@VValue@v8@@@v8@@PE$AAVString@Platform@@@2@PEAX@Z 0000000180078810 f i _nodert_generated.obj
 0001:00077830       ?_Copy@?$_Func_impl@V<lambda_c419c2aaec9143fa8b8a36a007ab213b>@@V?$allocator@H@std@@PE$AAVDeviceWatcherEvent@Enumeration@Devices@Windows@@V?$Local@VValue@v8@@@v8@@@std@@EEBAPEAV?$_Func_base@PE$AAVDeviceWatcherEvent@Enumeration@Devices@Windows@@V?$Local@VValue@v8@@@v8@@@2@PEAX@Z 0000000180078830 f i _nodert_generated.obj
 0001:00077850       ?_Copy@?$_Func_impl@V<lambda_c4395a829bedb795d14750327b00ed24>@@V?$allocator@H@std@@XV?$function@$$A6AXHPEAV?$Local@VValue@v8@@@v8@@@Z@3@@std@@EEBAPEAV?$_Func_base@XV?$function@$$A6AXHPEAV?$Local@VValue@v8@@@v8@@@Z@std@@@2@PEAX@Z 0000000180078850 f i _nodert_generated.obj
 0001:000778d0       ?_Copy@?$_Func_impl@V<lambda_c46da28042484401a730060bf5244ffb>@@V?$allocator@H@std@@X$$V@std@@EEBAPEAV?$_Func_base@X$$V@2@PEAX@Z 00000001800788d0 f i _nodert_generated.obj
 0001:00077910       ?_Copy@?$_Func_impl@V<lambda_c61f3b16e222639b1d481ed13c0b70c1>@@V?$allocator@H@std@@PE$AAVString@Platform@@V?$Local@VValue@v8@@@v8@@@std@@EEBAPEAV?$_Func_base@PE$AAVString@Platform@@V?$Local@VValue@v8@@@v8@@@2@PEAX@Z 0000000180078910 f i _nodert_generated.obj
 0001:00077930       ?_Copy@?$_Func_impl@V<lambda_c6359c4706fd9bcaab3a9e08e7d5b809>@@V?$allocator@H@std@@EV?$task@PE$AAUIBuffer@Streams@Storage@Windows@@@Concurrency@@@std@@EEBAPEAV?$_Func_base@EV?$task@PE$AAUIBuffer@Streams@Storage@Windows@@@Concurrency@@@2@PEAX@Z 0000000180078930 f i _nodert_generated.obj
 0001:00077940       ?_Copy@?$_Func_impl@V<lambda_c717427e5b31bfab7a352b8fdd3a29be>@@V?$allocator@H@std@@_NV?$Local@VValue@v8@@@v8@@@std@@EEBAPEAV?$_Func_base@_NV?$Local@VValue@v8@@@v8@@@2@PEAX@Z 0000000180078940 f i _nodert_generated.obj
 0001:00077960       ?_Copy@?$_Func_impl@V<lambda_d6cf7993094c069f55db8dce066b7798>@@V?$allocator@H@std@@V?$Local@VValue@v8@@@v8@@PE$AAVString@Platform@@@std@@EEBAPEAV?$_Func_base@V?$Local@VValue@v8@@@v8@@PE$AAVString@Platform@@@2@PEAX@Z 0000000180078960 f i _nodert_generated.obj
 0001:00077980       ?_Copy@?$_Func_impl@V<lambda_d933c1f0ec997549df5d1e0ad72a8623>@@V?$allocator@H@std@@X$$V@std@@EEBAPEAV?$_Func_base@X$$V@2@PEAX@Z 0000000180078980 f i _nodert_generated.obj
 0001:00077a00       ?_Copy@?$_Func_impl@V<lambda_dc2b33f2aa1786f6472c0890a9976714>@@V?$allocator@H@std@@_NV?$Local@VValue@v8@@@v8@@@std@@EEBAPEAV?$_Func_base@_NV?$Local@VValue@v8@@@v8@@@2@PEAX@Z 0000000180078a00 f i _nodert_generated.obj
 0001:00077a20       ?_Copy@?$_Func_impl@V<lambda_deee36ab30a13e1c2d60a14bf3bb5581>@@V?$allocator@H@std@@PE$AAVString@Platform@@V?$Local@VValue@v8@@@v8@@@std@@EEBAPEAV?$_Func_base@PE$AAVString@Platform@@V?$Local@VValue@v8@@@v8@@@2@PEAX@Z 0000000180078a20 f i _nodert_generated.obj
 0001:00077a40       ?_Copy@?$_Func_impl@V<lambda_df08bd9f0643031b66a0474934a12c4a>@@V?$allocator@H@std@@X$$V@std@@EEBAPEAV?$_Func_base@X$$V@2@PEAX@Z 0000000180078a40 f i _nodert_generated.obj
 0001:00077a80       ?_Copy@?$_Func_impl@V<lambda_e02e40daef5f4de523436f3dc7e541a2>@@V?$allocator@H@std@@XV?$function@$$A6AXHPEAV?$Local@VValue@v8@@@v8@@@Z@3@@std@@EEBAPEAV?$_Func_base@XV?$function@$$A6AXHPEAV?$Local@VValue@v8@@@v8@@@Z@std@@@2@PEAX@Z 0000000180078a80 f i _nodert_generated.obj
 0001:00077b00       ?_Copy@?$_Func_impl@V<lambda_e0e44bd6a0e9f8cd3d301f9306f4f087>@@V?$allocator@H@std@@PE$AAVString@Platform@@V?$Local@VValue@v8@@@v8@@@std@@EEBAPEAV?$_Func_base@PE$AAVString@Platform@@V?$Local@VValue@v8@@@v8@@@2@PEAX@Z 0000000180078b00 f i _nodert_generated.obj
 0001:00077b20       ?_Copy@?$_Func_impl@V<lambda_e1c949a5ee92f5f5a9f1ebe1699ffb0c>@@V?$allocator@H@std@@XV?$function@$$A6AXHPEAV?$Local@VValue@v8@@@v8@@@Z@3@@std@@EEBAPEAV?$_Func_base@XV?$function@$$A6AXHPEAV?$Local@VValue@v8@@@v8@@@Z@std@@@2@PEAX@Z 0000000180078b20 f i _nodert_generated.obj
 0001:00077ba0       ?_Copy@?$_Func_impl@V<lambda_e23a36c8ff9ed8ea72afcfb4bd4d2993>@@V?$allocator@H@std@@V?$Local@VValue@v8@@@v8@@PE$AAVObject@Platform@@@std@@EEBAPEAV?$_Func_base@V?$Local@VValue@v8@@@v8@@PE$AAVObject@Platform@@@2@PEAX@Z 0000000180078ba0 f i _nodert_generated.obj
 0001:00077bc0       ?_Copy@?$_Func_impl@V<lambda_ee2800ccd2b011420c5de0c63356449b>@@V?$allocator@H@std@@X$$V@std@@EEBAPEAV?$_Func_base@X$$V@2@PEAX@Z 0000000180078bc0 f i _nodert_generated.obj
 0001:00077bf0       ?_Copy@?$_Func_impl@V<lambda_eea1d28ba39c926190bf0db24ae040c0>@@V?$allocator@H@std@@X$$V@std@@EEBAPEAV?$_Func_base@X$$V@2@PEAX@Z 0000000180078bf0 f i _nodert_generated.obj
 0001:00077c70       ?_Copy@?$_Func_impl@V<lambda_f215970b1bea2a440d7171855a5ab2b0>@@V?$allocator@H@std@@PE$AAVString@Platform@@V?$Local@VValue@v8@@@v8@@@std@@EEBAPEAV?$_Func_base@PE$AAVString@Platform@@V?$Local@VValue@v8@@@v8@@@2@PEAX@Z 0000000180078c70 f i _nodert_generated.obj
 0001:00077c90       ?_Copy@?$_Func_impl@V<lambda_f25c37099038263181b5186a3fa41b37>@@V?$allocator@H@std@@X$$V@std@@EEBAPEAV?$_Func_base@X$$V@2@PEAX@Z 0000000180078c90 f i _nodert_generated.obj
 0001:00077d00       ?_Copy@?$_Func_impl@V<lambda_f29e2200d6a2426d0606daa5d9a9bc72>@@V?$allocator@H@std@@XV?$function@$$A6AXHPEAV?$Local@VValue@v8@@@v8@@@Z@3@@std@@EEBAPEAV?$_Func_base@XV?$function@$$A6AXHPEAV?$Local@VValue@v8@@@v8@@@Z@std@@@2@PEAX@Z 0000000180078d00 f i _nodert_generated.obj
 0001:00077d80       ?_Copy@?$_Func_impl@V<lambda_f6a143c812e41f4589c68d63d000ab12>@@V?$allocator@H@std@@X$$V@std@@EEBAPEAV?$_Func_base@X$$V@2@PEAX@Z 0000000180078d80 f i _nodert_generated.obj
 0001:00077db0       ?_Copy@?$_Func_impl@V<lambda_f7aa0d840953700886b577e9317055e4>@@V?$allocator@H@std@@X$$V@std@@EEBAPEAV?$_Func_base@X$$V@2@PEAX@Z 0000000180078db0 f i _nodert_generated.obj
 0001:00077de0       ?_Copy@?$_Func_impl@V<lambda_fb6cc2331b496d246a05b0782643d222>@@V?$allocator@H@std@@XV?$function@$$A6AXHPEAV?$Local@VValue@v8@@@v8@@@Z@3@@std@@EEBAPEAV?$_Func_base@XV?$function@$$A6AXHPEAV?$Local@VValue@v8@@@v8@@@Z@std@@@2@PEAX@Z 0000000180078de0 f i _nodert_generated.obj
 0001:00077e00       ?_Copy@?$_Func_impl@V<lambda_fbf42ab6c543598b879f5bd075ee55ce>@@V?$allocator@H@std@@X$$V@std@@EEBAPEAV?$_Func_base@X$$V@2@PEAX@Z 0000000180078e00 f i _nodert_generated.obj
 0001:00077e40       ?_Copy@?$_Func_impl@V<lambda_fc55a96778b695da9907353a9fdacbca>@@V?$allocator@H@std@@X$$V@std@@EEBAPEAV?$_Func_base@X$$V@2@PEAX@Z 0000000180078e40 f i _nodert_generated.obj
 0001:00077ec0       ?_Copy@?$_Func_impl@V<lambda_fdd502a3800f185e5a7b3c479e8ad973>@@V?$allocator@H@std@@EV?$task@PE$AAVDeviceInformationCollection@Enumeration@Devices@Windows@@@Concurrency@@@std@@EEBAPEAV?$_Func_base@EV?$task@PE$AAVDeviceInformationCollection@Enumeration@Devices@Windows@@@Concurrency@@@2@PEAX@Z 0000000180078ec0 f i _nodert_generated.obj
 0001:00077ed0       ?_Copy_exception@exception_ptr@std@@SA?AV12@PEAXPEBX@Z 0000000180078ed0 f i _nodert_generated.obj
 0001:00077f70       ?_CreateImpl@?$task@E@Concurrency@@QEAAXPEAV_CancellationTokenState@details@2@Uscheduler_ptr@2@@Z 0000000180078f70 f i _nodert_generated.obj
 0001:00078100       ?_CreateImpl@?$task@I@Concurrency@@QEAAXPEAV_CancellationTokenState@details@2@Uscheduler_ptr@2@@Z 0000000180079100 f i _nodert_generated.obj
 0001:00078290       ?_CreateImpl@?$task@PE$AAUIBuffer@Streams@Storage@Windows@@@Concurrency@@QEAAXPEAV_CancellationTokenState@details@2@Uscheduler_ptr@2@@Z 0000000180079290 f i _nodert_generated.obj
 0001:00078420       ?_CreateImpl@?$task@PE$AAVDeviceInformation@Enumeration@Devices@Windows@@@Concurrency@@QEAAXPEAV_CancellationTokenState@details@2@Uscheduler_ptr@2@@Z 0000000180079420 f i _nodert_generated.obj
 0001:000785b0       ?_CreateImpl@?$task@PE$AAVDeviceInformationCollection@Enumeration@Devices@Windows@@@Concurrency@@QEAAXPEAV_CancellationTokenState@details@2@Uscheduler_ptr@2@@Z 00000001800795b0 f i _nodert_generated.obj
 0001:00078740       ?_CreateImpl@?$task@PE$AAVDevicePairingResult@Enumeration@Devices@Windows@@@Concurrency@@QEAAXPEAV_CancellationTokenState@details@2@Uscheduler_ptr@2@@Z 0000000180079740 f i _nodert_generated.obj
 0001:000788d0       ?_CreateImpl@?$task@PE$AAVDeviceThumbnail@Enumeration@Devices@Windows@@@Concurrency@@QEAAXPEAV_CancellationTokenState@details@2@Uscheduler_ptr@2@@Z 00000001800798d0 f i _nodert_generated.obj
 0001:00078a60       ?_CreateImpl@?$task@PE$AAVDeviceUnpairingResult@Enumeration@Devices@Windows@@@Concurrency@@QEAAXPEAV_CancellationTokenState@details@2@Uscheduler_ptr@2@@Z 0000000180079a60 f i _nodert_generated.obj
 0001:00078bf0       ?_CreateImpl@?$task@X@Concurrency@@QEAAXPEAV_CancellationTokenState@details@2@Uscheduler_ptr@2@@Z 0000000180079bf0 f i _nodert_generated.obj
 0001:00078cc0       ?_CreateImpl@?$task@_N@Concurrency@@QEAAXPEAV_CancellationTokenState@details@2@Uscheduler_ptr@2@@Z 0000000180079cc0 f i _nodert_generated.obj
 0001:00078e50       ?_CreateOptions@_ThenImplOptions@details@Concurrency@@SA?AU123@AEBVtask_options@3@AEBVtask_continuation_context@3@AEBUscheduler_ptr@3@@Z 0000000180079e50 f i _nodert_generated.obj
 0001:000792e0       ?_Current_exception@exception_ptr@std@@SA?AV12@XZ 000000018007a2e0 f i _nodert_generated.obj
 0001:00079310       ?_Delete_this@?$_Func_impl@V<lambda_02f22d91f6fd3feea1a4573210772ee6>@@V?$allocator@H@std@@X$$V@std@@EEAAX_N@Z 000000018007a310 f i _nodert_generated.obj
 0001:00079330       ?_Delete_this@?$_Func_impl@V<lambda_04ef0919d35a1608d6a12d18ae23c16a>@@V?$allocator@H@std@@V?$Local@VValue@v8@@@v8@@PE$AAVString@Platform@@@std@@EEAAX_N@Z 000000018007a330 f i _nodert_generated.obj
 0001:00079350       ?_Delete_this@?$_Func_impl@V<lambda_090d012d0a4c6328579e929d0f080628>@@V?$allocator@H@std@@X$$V@std@@EEAAX_N@Z 000000018007a350 f i _nodert_generated.obj
 0001:00079370       ?_Delete_this@?$_Func_impl@V<lambda_0c35f08fa008bd0bd75f4471027a7740>@@V?$allocator@H@std@@X$$V@std@@EEAAX_N@Z 000000018007a370 f i _nodert_generated.obj
 0001:000793e0       ?_Delete_this@?$_Func_impl@V<lambda_0ce10e9ffe11d3d6fc885aa52e004576>@@V?$allocator@H@std@@_NV?$Local@VValue@v8@@@v8@@@std@@EEAAX_N@Z 000000018007a3e0 f i _nodert_generated.obj
 0001:00079400       ?_Delete_this@?$_Func_impl@V<lambda_0f026b73064d388c4941d27674c0da0f>@@V?$allocator@H@std@@EV?$task@PE$AAVDeviceInformation@Enumeration@Devices@Windows@@@Concurrency@@@std@@EEAAX_N@Z 000000018007a400 f i _nodert_generated.obj
 0001:00079480       ?_Delete_this@?$_Func_impl@V<lambda_120b4087b4a5fb3353380db5f4bd64db>@@V?$allocator@H@std@@XV?$task@PE$AAVDeviceUnpairingResult@Enumeration@Devices@Windows@@@Concurrency@@@std@@EEAAX_N@Z 000000018007a480 f i _nodert_generated.obj
 0001:000794a0       ?_Delete_this@?$_Func_impl@V<lambda_12bcb78949ebcaacb22005e510ac426e>@@V?$allocator@H@std@@_NV?$Local@VValue@v8@@@v8@@@std@@EEAAX_N@Z 000000018007a4a0 f i _nodert_generated.obj
 0001:000794c0       ?_Delete_this@?$_Func_impl@V<lambda_163ea11ffbf98f813e6bfc1622219211>@@V?$allocator@H@std@@XV?$function@$$A6AXHPEAV?$Local@VValue@v8@@@v8@@@Z@3@@std@@EEAAX_N@Z 000000018007a4c0 f i _nodert_generated.obj
 0001:00079530       ?_Delete_this@?$_Func_impl@V<lambda_17eb98b82985a3c5f8b57ecb56110d60>@@V?$allocator@H@std@@XV?$function@$$A6AXHPEAV?$Local@VValue@v8@@@v8@@@Z@3@@std@@EEAAX_N@Z 000000018007a530 f i _nodert_generated.obj
 0001:00079550       ?_Delete_this@?$_Func_impl@V<lambda_1af583cf6945007177c61d87505abd8e>@@V?$allocator@H@std@@XHPEAV?$Local@VValue@v8@@@v8@@@std@@EEAAX_N@Z 000000018007a550 f i _nodert_generated.obj
 0001:00079570       ?_Delete_this@?$_Func_impl@V<lambda_1e0d05bc07b2e06c9ae6ab1a5a7af17f>@@V?$allocator@H@std@@_NV?$Local@VValue@v8@@@v8@@@std@@EEAAX_N@Z 000000018007a570 f i _nodert_generated.obj
 0001:00079590       ?_Delete_this@?$_Func_impl@V<lambda_1eb828a456fd906201da4bdf8c87acc7>@@V?$allocator@H@std@@XV?$task@I@Concurrency@@@std@@EEAAX_N@Z 000000018007a590 f i _nodert_generated.obj
 0001:000795b0       ?_Delete_this@?$_Func_impl@V<lambda_21853b1681f69a430ffef3e4fdb7428e>@@V?$allocator@H@std@@X$$V@std@@EEAAX_N@Z 000000018007a5b0 f i _nodert_generated.obj
 0001:000795d0       ?_Delete_this@?$_Func_impl@V<lambda_236f5d6cde663bd487905b2659e9e1d0>@@V?$allocator@H@std@@V?$Local@VValue@v8@@@v8@@W4DeviceClass@Enumeration@Devices@Windows@@@std@@EEAAX_N@Z 000000018007a5d0 f i _nodert_generated.obj
 0001:000795f0       ?_Delete_this@?$_Func_impl@V<lambda_2bb8dd9e3a2f720ce54f513fe20eec0b>@@V?$allocator@H@std@@XV?$function@$$A6AXHPEAV?$Local@VValue@v8@@@v8@@@Z@3@@std@@EEAAX_N@Z 000000018007a5f0 f i _nodert_generated.obj
 0001:00079660       ?_Delete_this@?$_Func_impl@V<lambda_2e68d8e8051c62e018e9e768a603a9d1>@@V?$allocator@H@std@@XV?$function@$$A6AXHPEAV?$Local@VValue@v8@@@v8@@@Z@3@@std@@EEAAX_N@Z 000000018007a660 f i _nodert_generated.obj
 0001:000796d0       ?_Delete_this@?$_Func_impl@V<lambda_2fe5a97852dd9750fca909335c649c88>@@V?$allocator@H@std@@XV?$task@_N@Concurrency@@@std@@EEAAX_N@Z 000000018007a6d0 f i _nodert_generated.obj
 0001:000796f0       ?_Delete_this@?$_Func_impl@V<lambda_3282d637809049c3e60b82a707d0a93d>@@V?$allocator@H@std@@XV?$function@$$A6AXHPEAV?$Local@VValue@v8@@@v8@@@Z@3@@std@@EEAAX_N@Z 000000018007a6f0 f i _nodert_generated.obj
 0001:00079760       ?_Delete_this@?$_Func_impl@V<lambda_32bf3520a247a9092ab406a31a3faa42>@@V?$allocator@H@std@@XV?$function@$$A6AXHPEAV?$Local@VValue@v8@@@v8@@@Z@3@@std@@EEAAX_N@Z 000000018007a760 f i _nodert_generated.obj
 0001:000797d0       ?_Delete_this@?$_Func_impl@V<lambda_33dac395321372434e13e659f6691d2b>@@V?$allocator@H@std@@XV?$task@PE$AAVDeviceInformationCollection@Enumeration@Devices@Windows@@@Concurrency@@@std@@EEAAX_N@Z 000000018007a7d0 f i _nodert_generated.obj
 0001:000797f0       ?_Delete_this@?$_Func_impl@V<lambda_33ee84b3f5db65732a80cadacb90dcb1>@@V?$allocator@H@std@@X$$V@std@@EEAAX_N@Z 000000018007a7f0 f i _nodert_generated.obj
 0001:00079810       ?_Delete_this@?$_Func_impl@V<lambda_36504d37d672f10d3dbf88850e37d034>@@V?$allocator@H@std@@XV?$task@PE$AAVDeviceInformation@Enumeration@Devices@Windows@@@Concurrency@@@std@@EEAAX_N@Z 000000018007a810 f i _nodert_generated.obj
 0001:00079830       ?_Delete_this@?$_Func_impl@V<lambda_38185181009d45c1195ac970a9c474b5>@@V?$allocator@H@std@@XV?$function@$$A6AXHPEAV?$Local@VValue@v8@@@v8@@@Z@3@@std@@EEAAX_N@Z 000000018007a830 f i _nodert_generated.obj
 0001:000798a0       ?_Delete_this@?$_Func_impl@V<lambda_3abfc8c1f252ee83d85013063ca8f980>@@V?$allocator@H@std@@XV?$function@$$A6AXHPEAV?$Local@VValue@v8@@@v8@@@Z@3@@std@@EEAAX_N@Z 000000018007a8a0 f i _nodert_generated.obj
 0001:00079910       ?_Delete_this@?$_Func_impl@V<lambda_3c5f1d990a8da23576aa46c0ae90e233>@@V?$allocator@H@std@@_NV?$Local@VValue@v8@@@v8@@@std@@EEAAX_N@Z 000000018007a910 f i _nodert_generated.obj
 0001:00079930       ?_Delete_this@?$_Func_impl@V<lambda_3ecc12439b83dffa78b0ffc848dd2282>@@V?$allocator@H@std@@X$$V@std@@EEAAX_N@Z 000000018007a930 f i _nodert_generated.obj
 0001:00079950       ?_Delete_this@?$_Func_impl@V<lambda_403f017818dca9303b63b9f750a7bfbe>@@V?$allocator@H@std@@_NV?$Local@VValue@v8@@@v8@@@std@@EEAAX_N@Z 000000018007a950 f i _nodert_generated.obj
 0001:00079970       ?_Delete_this@?$_Func_impl@V<lambda_413e697d3df9dfa3260888caa9b36fb1>@@V?$allocator@H@std@@X$$V@std@@EEAAX_N@Z 000000018007a970 f i _nodert_generated.obj
 0001:00079990       ?_Delete_this@?$_Func_impl@V<lambda_418bff8cbe9471ab2cc47b9ce55378cb>@@V?$allocator@H@std@@XV?$task@PE$AAVDevicePairingResult@Enumeration@Devices@Windows@@@Concurrency@@@std@@EEAAX_N@Z 000000018007a990 f i _nodert_generated.obj
 0001:000799b0       ?_Delete_this@?$_Func_impl@V<lambda_436ea425f814a82153c3b933242ed364>@@V?$allocator@H@std@@_NV?$Local@VValue@v8@@@v8@@@std@@EEAAX_N@Z 000000018007a9b0 f i _nodert_generated.obj
 0001:000799d0       ?_Delete_this@?$_Func_impl@V<lambda_43d91700c1063fcb3a9eb56e5d049156>@@V?$allocator@H@std@@X$$V@std@@EEAAX_N@Z 000000018007a9d0 f i _nodert_generated.obj
 0001:00079a30       ?_Delete_this@?$_Func_impl@V<lambda_4446bd2e4bb6e1cfecdc4f203e7fabb1>@@V?$allocator@H@std@@XV?$function@$$A6AXHPEAV?$Local@VValue@v8@@@v8@@@Z@3@@std@@EEAAX_N@Z 000000018007aa30 f i _nodert_generated.obj
 0001:00079aa0       ?_Delete_this@?$_Func_impl@V<lambda_447710e2e0dec371aaecb4096c7b9487>@@V?$allocator@H@std@@X$$V@std@@EEAAX_N@Z 000000018007aaa0 f i _nodert_generated.obj
 0001:00079b10       ?_Delete_this@?$_Func_impl@V<lambda_45844692d1567fd502d15bf6aca23634>@@V?$allocator@H@std@@_NV?$Local@VValue@v8@@@v8@@@std@@EEAAX_N@Z 000000018007ab10 f i _nodert_generated.obj
 0001:00079b30       ?_Delete_this@?$_Func_impl@V<lambda_4599a832aa6ff44531ffc915cf37cb7d>@@V?$allocator@H@std@@X$$V@std@@EEAAX_N@Z 000000018007ab30 f i _nodert_generated.obj
 0001:00079b50       ?_Delete_this@?$_Func_impl@V<lambda_48b29ce106f56fee2b9931f4f0d8ba5b>@@V?$allocator@H@std@@EV?$task@PE$AAVDevicePairingResult@Enumeration@Devices@Windows@@@Concurrency@@@std@@EEAAX_N@Z 000000018007ab50 f i _nodert_generated.obj
 0001:00079bd0       ?_Delete_this@?$_Func_impl@V<lambda_4b27738951189d11652babf17d446fff>@@V?$allocator@H@std@@XV?$function@$$A6AXHPEAV?$Local@VValue@v8@@@v8@@@Z@3@@std@@EEAAX_N@Z 000000018007abd0 f i _nodert_generated.obj
 0001:00079c40       ?_Delete_this@?$_Func_impl@V<lambda_4cc48579c35cacc5f2092cf572b2c19b>@@V?$allocator@H@std@@XV?$function@$$A6AXHPEAV?$Local@VValue@v8@@@v8@@@Z@3@@std@@EEAAX_N@Z 000000018007ac40 f i _nodert_generated.obj
 0001:00079cb0       ?_Delete_this@?$_Func_impl@V<lambda_501307cb0ef324bd632ab813b42d6477>@@V?$allocator@H@std@@XV?$task@PE$AAVDeviceThumbnail@Enumeration@Devices@Windows@@@Concurrency@@@std@@EEAAX_N@Z 000000018007acb0 f i _nodert_generated.obj
 0001:00079cd0       ?_Delete_this@?$_Func_impl@V<lambda_5158ffc534c2777cd55cf61a47407140>@@V?$allocator@H@std@@X$$V@std@@EEAAX_N@Z 000000018007acd0 f i _nodert_generated.obj
 0001:00079cf0       ?_Delete_this@?$_Func_impl@V<lambda_5531600b135067ad5493040a84ae33ff>@@V?$allocator@H@std@@V?$Local@VValue@v8@@@v8@@PE$AAVObject@Platform@@@std@@EEAAX_N@Z 000000018007acf0 f i _nodert_generated.obj
 0001:00079d10       ?_Delete_this@?$_Func_impl@V<lambda_560edee77a3239947065bc88f6bce7bc>@@V?$allocator@H@std@@PE$AAVString@Platform@@V?$Local@VValue@v8@@@v8@@@std@@EEAAX_N@Z 000000018007ad10 f i _nodert_generated.obj
 0001:00079d30       ?_Delete_this@?$_Func_impl@V<lambda_5742defd950e0f1d5323a47c27480349>@@V?$allocator@H@std@@X$$V@std@@EEAAX_N@Z 000000018007ad30 f i _nodert_generated.obj
 0001:00079d50       ?_Delete_this@?$_Func_impl@V<lambda_592347503a27903a1864e921c6d8a7e3>@@V?$allocator@H@std@@XV?$function@$$A6AXHPEAV?$Local@VValue@v8@@@v8@@@Z@3@@std@@EEAAX_N@Z 000000018007ad50 f i _nodert_generated.obj
 0001:00079dc0       ?_Delete_this@?$_Func_impl@V<lambda_59c512ccbceb4a4aa79aea9f317c8729>@@V?$allocator@H@std@@EV?$task@I@Concurrency@@@std@@EEAAX_N@Z 000000018007adc0 f i _nodert_generated.obj
 0001:00079e40       ?_Delete_this@?$_Func_impl@V<lambda_5a1c437f17fa466aabaf7b0153a0ecc3>@@V?$allocator@H@std@@EV?$task@_N@Concurrency@@@std@@EEAAX_N@Z 000000018007ae40 f i _nodert_generated.obj
 0001:00079ec0       ?_Delete_this@?$_Func_impl@V<lambda_5a3867752bb24d418d4fe7d1b64439ce>@@V?$allocator@H@std@@EV?$task@PE$AAVDeviceThumbnail@Enumeration@Devices@Windows@@@Concurrency@@@std@@EEAAX_N@Z 000000018007aec0 f i _nodert_generated.obj
 0001:00079f40       ?_Delete_this@?$_Func_impl@V<lambda_5c14fb28660783f3c02d395e6c5ed33c>@@V?$allocator@H@std@@X$$V@std@@EEAAX_N@Z 000000018007af40 f i _nodert_generated.obj
 0001:00079fb0       ?_Delete_this@?$_Func_impl@V<lambda_62e266853b998866e6b58c3644b12cd1>@@V?$allocator@H@std@@XV?$function@$$A6AXHPEAV?$Local@VValue@v8@@@v8@@@Z@3@@std@@EEAAX_N@Z 000000018007afb0 f i _nodert_generated.obj
 0001:0007a020       ?_Delete_this@?$_Func_impl@V<lambda_6a4d408c8dcd5c2adaba3e48d970cabd>@@V?$allocator@H@std@@X$$V@std@@EEAAX_N@Z 000000018007b020 f i _nodert_generated.obj
 0001:0007a090       ?_Delete_this@?$_Func_impl@V<lambda_7233ffe6b129a6ce3ddee2ef536800f2>@@V?$allocator@H@std@@EV?$task@PE$AAVDeviceUnpairingResult@Enumeration@Devices@Windows@@@Concurrency@@@std@@EEAAX_N@Z 000000018007b090 f i _nodert_generated.obj
 0001:0007a110       ?_Delete_this@?$_Func_impl@V<lambda_7601a32cb7fd1c904b665337581357ab>@@V?$allocator@H@std@@XV?$function@$$A6AXHPEAV?$Local@VValue@v8@@@v8@@@Z@3@@std@@EEAAX_N@Z 000000018007b110 f i _nodert_generated.obj
 0001:0007a180       ?_Delete_this@?$_Func_impl@V<lambda_763529b0c7473cbc215a52d189ac9b18>@@V?$allocator@H@std@@X$$V@std@@EEAAX_N@Z 000000018007b180 f i _nodert_generated.obj
 0001:0007a1a0       ?_Delete_this@?$_Func_impl@V<lambda_7637a52f8615d5c4350d4415b4187f67>@@V?$allocator@H@std@@X$$V@std@@EEAAX_N@Z 000000018007b1a0 f i _nodert_generated.obj
 0001:0007a200       ?_Delete_this@?$_Func_impl@V<lambda_78daf5e59166083a6cf28051060f445b>@@V?$allocator@H@std@@X$$V@std@@EEAAX_N@Z 000000018007b200 f i _nodert_generated.obj
 0001:0007a270       ?_Delete_this@?$_Func_impl@V<lambda_7c85cdcc7b722a73124a4747dd95cece>@@V?$allocator@H@std@@V?$Local@VValue@v8@@@v8@@PE$AAU?$IKeyValuePair@PE$AAVString@Platform@@PE$AAVObject@2@@Collections@Foundation@Windows@@@std@@EEAAX_N@Z 000000018007b270 f i _nodert_generated.obj
 0001:0007a2b0       ?_Delete_this@?$_Func_impl@V<lambda_7d63be740be4558b3e3eb0c3d5253f2f>@@V?$allocator@H@std@@X$$V@std@@EEAAX_N@Z 000000018007b2b0 f i _nodert_generated.obj
 0001:0007a2d0       ?_Delete_this@?$_Func_impl@V<lambda_80aa571a138ef2b7532637249397d5a3>@@V?$allocator@H@std@@XV?$function@$$A6AXHPEAV?$Local@VValue@v8@@@v8@@@Z@3@@std@@EEAAX_N@Z 000000018007b2d0 f i _nodert_generated.obj
 0001:0007a340       ?_Delete_this@?$_Func_impl@V<lambda_80d3ac704db897fed386c438008f7532>@@V?$allocator@H@std@@X$$V@std@@EEAAX_N@Z 000000018007b340 f i _nodert_generated.obj
 0001:0007a3a0       ?_Delete_this@?$_Func_impl@V<lambda_83a71d54a925918e3e8e280fcf3ac2fc>@@V?$allocator@H@std@@X$$V@std@@EEAAX_N@Z 000000018007b3a0 f i _nodert_generated.obj
 0001:0007a400       ?_Delete_this@?$_Func_impl@V<lambda_865dc1c5144f92b57e161143446c13fa>@@V?$allocator@H@std@@PE$AAVString@Platform@@V?$Local@VValue@v8@@@v8@@@std@@EEAAX_N@Z 000000018007b400 f i _nodert_generated.obj
 0001:0007a420       ?_Delete_this@?$_Func_impl@V<lambda_894463c39cec769f47b59c6862ca5741>@@V?$allocator@H@std@@XV?$task@PE$AAUIBuffer@Streams@Storage@Windows@@@Concurrency@@@std@@EEAAX_N@Z 000000018007b420 f i _nodert_generated.obj
 0001:0007a440       ?_Delete_this@?$_Func_impl@V<lambda_8c253faaf993bab7b504f87247a99dc5>@@V?$allocator@H@std@@X$$V@std@@EEAAX_N@Z 000000018007b440 f i _nodert_generated.obj
 0001:0007a460       ?_Delete_this@?$_Func_impl@V<lambda_8db20726d1b4924c864a3321687226d3>@@V?$allocator@H@std@@XV?$function@$$A6AXHPEAV?$Local@VValue@v8@@@v8@@@Z@3@@std@@EEAAX_N@Z 000000018007b460 f i _nodert_generated.obj
 0001:0007a4d0       ?_Delete_this@?$_Func_impl@V<lambda_8ec31411949358aba4a01b593f0de4dd>@@V?$allocator@H@std@@PE$AAVString@Platform@@V?$Local@VValue@v8@@@v8@@@std@@EEAAX_N@Z 000000018007b4d0 f i _nodert_generated.obj
 0001:0007a4f0       ?_Delete_this@?$_Func_impl@V<lambda_96798dec0125b78218297a3a0a5349aa>@@V?$allocator@H@std@@_NV?$Local@VValue@v8@@@v8@@@std@@EEAAX_N@Z 000000018007b4f0 f i _nodert_generated.obj
 0001:0007a510       ?_Delete_this@?$_Func_impl@V<lambda_988993e7b5ffc7b958aacacdd6a62e0b>@@V?$allocator@H@std@@PE$AAVString@Platform@@V?$Local@VValue@v8@@@v8@@@std@@EEAAX_N@Z 000000018007b510 f i _nodert_generated.obj
 0001:0007a530       ?_Delete_this@?$_Func_impl@V<lambda_9d8e4cf091122037972057663da965f6>@@V?$allocator@H@std@@X$$V@std@@EEAAX_N@Z 000000018007b530 f i _nodert_generated.obj
 0001:0007a550       ?_Delete_this@?$_Func_impl@V<lambda_9ff0ef1629247b934bc56dbecf4fad4d>@@V?$allocator@H@std@@_NV?$Local@VValue@v8@@@v8@@@std@@EEAAX_N@Z 000000018007b550 f i _nodert_generated.obj
 0001:0007a570       ?_Delete_this@?$_Func_impl@V<lambda_a02c9815634049d31832a02362fdc714>@@V?$allocator@H@std@@W4DeviceWatcherEventKind@Enumeration@Devices@Windows@@V?$Local@VValue@v8@@@v8@@@std@@EEAAX_N@Z 000000018007b570 f i _nodert_generated.obj
 0001:0007a590       ?_Delete_this@?$_Func_impl@V<lambda_a0db4bb87296f5cf95bf193d59b80420>@@V?$allocator@H@std@@XV?$task@PE$AAVDevicePairingResult@Enumeration@Devices@Windows@@@Concurrency@@@std@@EEAAX_N@Z 000000018007b590 f i _nodert_generated.obj
 0001:0007a5b0       ?_Delete_this@?$_Func_impl@V<lambda_a18157a77679b27ebbee14df8cc9551b>@@V?$allocator@H@std@@XV?$task@PE$AAVDeviceThumbnail@Enumeration@Devices@Windows@@@Concurrency@@@std@@EEAAX_N@Z 000000018007b5b0 f i _nodert_generated.obj
 0001:0007a5d0       ?_Delete_this@?$_Func_impl@V<lambda_a53003aa7c7439f9fe9d3ef6faedc4c5>@@V?$allocator@H@std@@X$$V@std@@EEAAX_N@Z 000000018007b5d0 f i _nodert_generated.obj
 0001:0007a630       ?_Delete_this@?$_Func_impl@V<lambda_a54ec017da84eed38cef3d48b5235292>@@V?$allocator@H@std@@XV?$function@$$A6AXHPEAV?$Local@VValue@v8@@@v8@@@Z@3@@std@@EEAAX_N@Z 000000018007b630 f i _nodert_generated.obj
 0001:0007a6a0       ?_Delete_this@?$_Func_impl@V<lambda_a657b80b93f125e0c6567c8b85c0226c>@@V?$allocator@H@std@@X$$V@std@@EEAAX_N@Z 000000018007b6a0 f i _nodert_generated.obj
 0001:0007a6c0       ?_Delete_this@?$_Func_impl@V<lambda_a96e5ce404383841d08ddad807d114e4>@@V?$allocator@H@std@@X$$V@std@@EEAAX_N@Z 000000018007b6c0 f i _nodert_generated.obj
 0001:0007a730       ?_Delete_this@?$_Func_impl@V<lambda_ad6d9567cc6442162d2a964c15d8d6e8>@@V?$allocator@H@std@@V?$Local@VValue@v8@@@v8@@PE$AAVDeviceInformation@Enumeration@Devices@Windows@@@std@@EEAAX_N@Z 000000018007b730 f i _nodert_generated.obj
 0001:0007a750       ?_Delete_this@?$_Func_impl@V<lambda_ae13666b41b05240b4d593c72a58d1c0>@@V?$allocator@H@std@@PE$AAVString@Platform@@V?$Local@VValue@v8@@@v8@@@std@@EEAAX_N@Z 000000018007b750 f i _nodert_generated.obj
 0001:0007a770       ?_Delete_this@?$_Func_impl@V<lambda_ae9493837c227995ded26404960f2bae>@@V?$allocator@H@std@@XV?$task@PE$AAVDeviceInformation@Enumeration@Devices@Windows@@@Concurrency@@@std@@EEAAX_N@Z 000000018007b770 f i _nodert_generated.obj
 0001:0007a790       ?_Delete_this@?$_Func_impl@V<lambda_af4e454302585268d6adc8ac5957ad65>@@V?$allocator@H@std@@PE$AAVString@Platform@@V?$Local@VValue@v8@@@v8@@@std@@EEAAX_N@Z 000000018007b790 f i _nodert_generated.obj
 0001:0007a7b0       ?_Delete_this@?$_Func_impl@V<lambda_b060202fbcf2c24c017bca20495c769b>@@V?$allocator@H@std@@X$$V@std@@EEAAX_N@Z 000000018007b7b0 f i _nodert_generated.obj
 0001:0007a7d0       ?_Delete_this@?$_Func_impl@V<lambda_b6d37523fa2c7bf72083f064af8f62e4>@@V?$allocator@H@std@@W4DeviceClass@Enumeration@Devices@Windows@@V?$Local@VValue@v8@@@v8@@@std@@EEAAX_N@Z 000000018007b7d0 f i _nodert_generated.obj
 0001:0007a7f0       ?_Delete_this@?$_Func_impl@V<lambda_b78ed03f7beef7e9d7e66a4c4c58beb7>@@V?$allocator@H@std@@V?$Local@VValue@v8@@@v8@@PE$AAVDeviceWatcherEvent@Enumeration@Devices@Windows@@@std@@EEAAX_N@Z 000000018007b7f0 f i _nodert_generated.obj
 0001:0007a810       ?_Delete_this@?$_Func_impl@V<lambda_b7d41fce8f4d1cb819559b5195c10893>@@V?$allocator@H@std@@X$$V@std@@EEAAX_N@Z 000000018007b810 f i _nodert_generated.obj
 0001:0007a870       ?_Delete_this@?$_Func_impl@V<lambda_b86ea4b25e0e87ee9799cfc974a5a7f4>@@V?$allocator@H@std@@V?$Local@VValue@v8@@@v8@@PE$AAVString@Platform@@@std@@EEAAX_N@Z 000000018007b870 f i _nodert_generated.obj
 0001:0007a890       ?_Delete_this@?$_Func_impl@V<lambda_b89f5c50422b23311075c5604b7fae64>@@V?$allocator@H@std@@_NV?$Local@VValue@v8@@@v8@@@std@@EEAAX_N@Z 000000018007b890 f i _nodert_generated.obj
 0001:0007a8b0       ?_Delete_this@?$_Func_impl@V<lambda_bb3ea35c7a129712676a4a6472ecdc6a>@@V?$allocator@H@std@@X$$V@std@@EEAAX_N@Z 000000018007b8b0 f i _nodert_generated.obj
 0001:0007a8d0       ?_Delete_this@?$_Func_impl@V<lambda_bb92edcbe7432b9286e3e817945d72e9>@@V?$allocator@H@std@@X$$V@std@@EEAAX_N@Z 000000018007b8d0 f i _nodert_generated.obj
 0001:0007a8f0       ?_Delete_this@?$_Func_impl@V<lambda_be1b4437d04867db8b6597cc15e566bb>@@V?$allocator@H@std@@X$$V@std@@EEAAX_N@Z 000000018007b8f0 f i _nodert_generated.obj
 0001:0007a950       ?_Delete_this@?$_Func_impl@V<lambda_c3452797281de5d24e0ed55a9a51db00>@@V?$allocator@H@std@@_NV?$Local@VValue@v8@@@v8@@@std@@EEAAX_N@Z 000000018007b950 f i _nodert_generated.obj
 0001:0007a970       ?_Delete_this@?$_Func_impl@V<lambda_c38aed84fb5009a33218754ad046f542>@@V?$allocator@H@std@@V?$Local@VValue@v8@@@v8@@PE$AAVString@Platform@@@std@@EEAAX_N@Z 000000018007b970 f i _nodert_generated.obj
 0001:0007a990       ?_Delete_this@?$_Func_impl@V<lambda_c419c2aaec9143fa8b8a36a007ab213b>@@V?$allocator@H@std@@PE$AAVDeviceWatcherEvent@Enumeration@Devices@Windows@@V?$Local@VValue@v8@@@v8@@@std@@EEAAX_N@Z 000000018007b990 f i _nodert_generated.obj
 0001:0007a9b0       ?_Delete_this@?$_Func_impl@V<lambda_c4395a829bedb795d14750327b00ed24>@@V?$allocator@H@std@@XV?$function@$$A6AXHPEAV?$Local@VValue@v8@@@v8@@@Z@3@@std@@EEAAX_N@Z 000000018007b9b0 f i _nodert_generated.obj
 0001:0007aa20       ?_Delete_this@?$_Func_impl@V<lambda_c46da28042484401a730060bf5244ffb>@@V?$allocator@H@std@@X$$V@std@@EEAAX_N@Z 000000018007ba20 f i _nodert_generated.obj
 0001:0007aa80       ?_Delete_this@?$_Func_impl@V<lambda_c61f3b16e222639b1d481ed13c0b70c1>@@V?$allocator@H@std@@PE$AAVString@Platform@@V?$Local@VValue@v8@@@v8@@@std@@EEAAX_N@Z 000000018007ba80 f i _nodert_generated.obj
 0001:0007aaa0       ?_Delete_this@?$_Func_impl@V<lambda_c6359c4706fd9bcaab3a9e08e7d5b809>@@V?$allocator@H@std@@EV?$task@PE$AAUIBuffer@Streams@Storage@Windows@@@Concurrency@@@std@@EEAAX_N@Z 000000018007baa0 f i _nodert_generated.obj
 0001:0007ab20       ?_Delete_this@?$_Func_impl@V<lambda_c717427e5b31bfab7a352b8fdd3a29be>@@V?$allocator@H@std@@_NV?$Local@VValue@v8@@@v8@@@std@@EEAAX_N@Z 000000018007bb20 f i _nodert_generated.obj
 0001:0007ab40       ?_Delete_this@?$_Func_impl@V<lambda_d6cf7993094c069f55db8dce066b7798>@@V?$allocator@H@std@@V?$Local@VValue@v8@@@v8@@PE$AAVString@Platform@@@std@@EEAAX_N@Z 000000018007bb40 f i _nodert_generated.obj
 0001:0007ab60       ?_Delete_this@?$_Func_impl@V<lambda_d933c1f0ec997549df5d1e0ad72a8623>@@V?$allocator@H@std@@X$$V@std@@EEAAX_N@Z 000000018007bb60 f i _nodert_generated.obj
 0001:0007abd0       ?_Delete_this@?$_Func_impl@V<lambda_dc2b33f2aa1786f6472c0890a9976714>@@V?$allocator@H@std@@_NV?$Local@VValue@v8@@@v8@@@std@@EEAAX_N@Z 000000018007bbd0 f i _nodert_generated.obj
 0001:0007abf0       ?_Delete_this@?$_Func_impl@V<lambda_deee36ab30a13e1c2d60a14bf3bb5581>@@V?$allocator@H@std@@PE$AAVString@Platform@@V?$Local@VValue@v8@@@v8@@@std@@EEAAX_N@Z 000000018007bbf0 f i _nodert_generated.obj
 0001:0007ac10       ?_Delete_this@?$_Func_impl@V<lambda_df08bd9f0643031b66a0474934a12c4a>@@V?$allocator@H@std@@X$$V@std@@EEAAX_N@Z 000000018007bc10 f i _nodert_generated.obj
 0001:0007ac70       ?_Delete_this@?$_Func_impl@V<lambda_e02e40daef5f4de523436f3dc7e541a2>@@V?$allocator@H@std@@XV?$function@$$A6AXHPEAV?$Local@VValue@v8@@@v8@@@Z@3@@std@@EEAAX_N@Z 000000018007bc70 f i _nodert_generated.obj
 0001:0007ace0       ?_Delete_this@?$_Func_impl@V<lambda_e0e44bd6a0e9f8cd3d301f9306f4f087>@@V?$allocator@H@std@@PE$AAVString@Platform@@V?$Local@VValue@v8@@@v8@@@std@@EEAAX_N@Z 000000018007bce0 f i _nodert_generated.obj
 0001:0007ad00       ?_Delete_this@?$_Func_impl@V<lambda_e1c949a5ee92f5f5a9f1ebe1699ffb0c>@@V?$allocator@H@std@@XV?$function@$$A6AXHPEAV?$Local@VValue@v8@@@v8@@@Z@3@@std@@EEAAX_N@Z 000000018007bd00 f i _nodert_generated.obj
 0001:0007ad70       ?_Delete_this@?$_Func_impl@V<lambda_e23a36c8ff9ed8ea72afcfb4bd4d2993>@@V?$allocator@H@std@@V?$Local@VValue@v8@@@v8@@PE$AAVObject@Platform@@@std@@EEAAX_N@Z 000000018007bd70 f i _nodert_generated.obj
 0001:0007ad90       ?_Delete_this@?$_Func_impl@V<lambda_ee2800ccd2b011420c5de0c63356449b>@@V?$allocator@H@std@@X$$V@std@@EEAAX_N@Z 000000018007bd90 f i _nodert_generated.obj
 0001:0007adb0       ?_Delete_this@?$_Func_impl@V<lambda_eea1d28ba39c926190bf0db24ae040c0>@@V?$allocator@H@std@@X$$V@std@@EEAAX_N@Z 000000018007bdb0 f i _nodert_generated.obj
 0001:0007ae20       ?_Delete_this@?$_Func_impl@V<lambda_f215970b1bea2a440d7171855a5ab2b0>@@V?$allocator@H@std@@PE$AAVString@Platform@@V?$Local@VValue@v8@@@v8@@@std@@EEAAX_N@Z 000000018007be20 f i _nodert_generated.obj
 0001:0007ae40       ?_Delete_this@?$_Func_impl@V<lambda_f25c37099038263181b5186a3fa41b37>@@V?$allocator@H@std@@X$$V@std@@EEAAX_N@Z 000000018007be40 f i _nodert_generated.obj
 0001:0007ae80       ?_Delete_this@?$_Func_impl@V<lambda_f29e2200d6a2426d0606daa5d9a9bc72>@@V?$allocator@H@std@@XV?$function@$$A6AXHPEAV?$Local@VValue@v8@@@v8@@@Z@3@@std@@EEAAX_N@Z 000000018007be80 f i _nodert_generated.obj
 0001:0007aef0       ?_Delete_this@?$_Func_impl@V<lambda_f6a143c812e41f4589c68d63d000ab12>@@V?$allocator@H@std@@X$$V@std@@EEAAX_N@Z 000000018007bef0 f i _nodert_generated.obj
 0001:0007af10       ?_Delete_this@?$_Func_impl@V<lambda_f7aa0d840953700886b577e9317055e4>@@V?$allocator@H@std@@X$$V@std@@EEAAX_N@Z 000000018007bf10 f i _nodert_generated.obj
 0001:0007af30       ?_Delete_this@?$_Func_impl@V<lambda_fb6cc2331b496d246a05b0782643d222>@@V?$allocator@H@std@@XV?$function@$$A6AXHPEAV?$Local@VValue@v8@@@v8@@@Z@3@@std@@EEAAX_N@Z 000000018007bf30 f i _nodert_generated.obj
 0001:0007af50       ?_Delete_this@?$_Func_impl@V<lambda_fbf42ab6c543598b879f5bd075ee55ce>@@V?$allocator@H@std@@X$$V@std@@EEAAX_N@Z 000000018007bf50 f i _nodert_generated.obj
 0001:0007afb0       ?_Delete_this@?$_Func_impl@V<lambda_fc55a96778b695da9907353a9fdacbca>@@V?$allocator@H@std@@X$$V@std@@EEAAX_N@Z 000000018007bfb0 f i _nodert_generated.obj
 0001:0007aff0       ?_Delete_this@?$_Func_impl@V<lambda_fdd502a3800f185e5a7b3c479e8ad973>@@V?$allocator@H@std@@EV?$task@PE$AAVDeviceInformationCollection@Enumeration@Devices@Windows@@@Concurrency@@@std@@EEAAX_N@Z 000000018007bff0 f i _nodert_generated.obj
 0001:0007b070       ?_Delete_this@?$_Ref_count_del@V?$Persistent@VObject@v8@@V?$NonCopyablePersistentTraits@VObject@v8@@@2@@Nan@@V<lambda_18a7ef68a7fc27270dd9db6361522c43>@@@std@@EEAAXXZ 000000018007c070 f i _nodert_generated.obj
 0001:0007b090       ?_Delete_this@?$_Ref_count_del@V?$Persistent@VObject@v8@@V?$NonCopyablePersistentTraits@VObject@v8@@@2@@Nan@@V<lambda_489f10613ba28f5d3822122d3875cbdd>@@@std@@EEAAXXZ 000000018007c090 f i _nodert_generated.obj
 0001:0007b0b0       ?_Delete_this@?$_Ref_count_del@V?$Persistent@VObject@v8@@V?$NonCopyablePersistentTraits@VObject@v8@@@2@@Nan@@V<lambda_50870d27297a67d2040df7ea63e22c2f>@@@std@@EEAAXXZ 000000018007c0b0 f i _nodert_generated.obj
 0001:0007b0d0       ?_Delete_this@?$_Ref_count_del@V?$Persistent@VObject@v8@@V?$NonCopyablePersistentTraits@VObject@v8@@@2@@Nan@@V<lambda_58c0afa2d72683382214bb714b46c30e>@@@std@@EEAAXXZ 000000018007c0d0 f i _nodert_generated.obj
 0001:0007b0f0       ?_Delete_this@?$_Ref_count_del@V?$Persistent@VObject@v8@@V?$NonCopyablePersistentTraits@VObject@v8@@@2@@Nan@@V<lambda_8fcea7dc39e7c4728a6e3a9370b66fd3>@@@std@@EEAAXXZ 000000018007c0f0 f i _nodert_generated.obj
 0001:0007b110       ?_Delete_this@?$_Ref_count_del@V?$Persistent@VObject@v8@@V?$NonCopyablePersistentTraits@VObject@v8@@@2@@Nan@@V<lambda_9623744b63ea9b261950a1cf126ce800>@@@std@@EEAAXXZ 000000018007c110 f i _nodert_generated.obj
 0001:0007b130       ?_Delete_this@?$_Ref_count_del@V?$Persistent@VObject@v8@@V?$NonCopyablePersistentTraits@VObject@v8@@@2@@Nan@@V<lambda_c816b6a9bfd163bb2b9fb73212f95534>@@@std@@EEAAXXZ 000000018007c130 f i _nodert_generated.obj
 0001:0007b150       ?_Delete_this@?$_Ref_count_del@V?$Persistent@VObject@v8@@V?$NonCopyablePersistentTraits@VObject@v8@@@2@@Nan@@V<lambda_d849e9626af8cc9e54bf6028b71df756>@@@std@@EEAAXXZ 000000018007c150 f i _nodert_generated.obj
 0001:0007b170       ?_Delete_this@?$_Ref_count_del@V?$Persistent@VObject@v8@@V?$NonCopyablePersistentTraits@VObject@v8@@@2@@Nan@@V<lambda_f6b5807503ec79e3463ff21dedaf47c5>@@@std@@EEAAXXZ 000000018007c170 f i _nodert_generated.obj
 0001:0007b190       ?_Delete_this@?$_Ref_count_del@V?$Persistent@VObject@v8@@V?$NonCopyablePersistentTraits@VObject@v8@@@2@@Nan@@V<lambda_fc54f20e3d35a13a69ff970029de927f>@@@std@@EEAAXXZ 000000018007c190 f i _nodert_generated.obj
 0001:0007b1b0       ?_Delete_this@?$_Ref_count_obj@I@std@@EEAAXXZ 000000018007c1b0 f i _nodert_generated.obj
 0001:0007b1d0       ?_Delete_this@?$_Ref_count_obj@U?$_Task_impl@E@details@Concurrency@@@std@@EEAAXXZ 000000018007c1d0 f i _nodert_generated.obj
 0001:0007b1f0       ?_Delete_this@?$_Ref_count_obj@U?$_Task_impl@I@details@Concurrency@@@std@@EEAAXXZ 000000018007c1f0 f i _nodert_generated.obj
 0001:0007b210       ?_Delete_this@?$_Ref_count_obj@U?$_Task_impl@PE$AAUIBuffer@Streams@Storage@Windows@@@details@Concurrency@@@std@@EEAAXXZ 000000018007c210 f i _nodert_generated.obj
 0001:0007b230       ?_Delete_this@?$_Ref_count_obj@U?$_Task_impl@PE$AAVDeviceInformation@Enumeration@Devices@Windows@@@details@Concurrency@@@std@@EEAAXXZ 000000018007c230 f i _nodert_generated.obj
 0001:0007b250       ?_Delete_this@?$_Ref_count_obj@U?$_Task_impl@PE$AAVDeviceInformationCollection@Enumeration@Devices@Windows@@@details@Concurrency@@@std@@EEAAXXZ 000000018007c250 f i _nodert_generated.obj
 0001:0007b270       ?_Delete_this@?$_Ref_count_obj@U?$_Task_impl@PE$AAVDevicePairingResult@Enumeration@Devices@Windows@@@details@Concurrency@@@std@@EEAAXXZ 000000018007c270 f i _nodert_generated.obj
 0001:0007b290       ?_Delete_this@?$_Ref_count_obj@U?$_Task_impl@PE$AAVDeviceThumbnail@Enumeration@Devices@Windows@@@details@Concurrency@@@std@@EEAAXXZ 000000018007c290 f i _nodert_generated.obj
 0001:0007b2b0       ?_Delete_this@?$_Ref_count_obj@U?$_Task_impl@PE$AAVDeviceUnpairingResult@Enumeration@Devices@Windows@@@details@Concurrency@@@std@@EEAAXXZ 000000018007c2b0 f i _nodert_generated.obj
 0001:0007b2d0       ?_Delete_this@?$_Ref_count_obj@U?$_Task_impl@_N@details@Concurrency@@@std@@EEAAXXZ 000000018007c2d0 f i _nodert_generated.obj
 0001:0007b2f0       ?_Delete_this@?$_Ref_count_obj@U_ExceptionHolder@details@Concurrency@@@std@@EEAAXXZ 000000018007c2f0 f i _nodert_generated.obj
 0001:0007b310       ?_Delete_this@?$_Ref_count_obj@V?$vector@PE$AAVString@Platform@@V?$allocator@PE$AAVString@Platform@@@std@@@std@@@std@@EEAAXXZ 000000018007c310 f i _nodert_generated.obj
 0001:0007b330       ?_Delete_this@?$_Ref_count_obj@V?$vector@W4DeviceWatcherEventKind@Enumeration@Devices@Windows@@V?$allocator@W4DeviceWatcherEventKind@Enumeration@Devices@Windows@@@std@@@std@@@std@@EEAAXXZ 000000018007c330 f i _nodert_generated.obj
 0001:0007b350       ?_DeregisterCallback@_CancellationTokenState@details@Concurrency@@QEAAXPEAV_CancellationTokenRegistration@23@@Z 000000018007c350 f i _nodert_generated.obj
 0001:0007b540       ?_Destroy@?$_Ref_count_del@V?$Persistent@VObject@v8@@V?$NonCopyablePersistentTraits@VObject@v8@@@2@@Nan@@V<lambda_18a7ef68a7fc27270dd9db6361522c43>@@@std@@EEAAXXZ 000000018007c540 f i _nodert_generated.obj
 0001:0007b580       ?_Destroy@?$_Ref_count_del@V?$Persistent@VObject@v8@@V?$NonCopyablePersistentTraits@VObject@v8@@@2@@Nan@@V<lambda_489f10613ba28f5d3822122d3875cbdd>@@@std@@EEAAXXZ 000000018007c580 f i _nodert_generated.obj
 0001:0007b5c0       ?_Destroy@?$_Ref_count_del@V?$Persistent@VObject@v8@@V?$NonCopyablePersistentTraits@VObject@v8@@@2@@Nan@@V<lambda_50870d27297a67d2040df7ea63e22c2f>@@@std@@EEAAXXZ 000000018007c5c0 f i _nodert_generated.obj
 0001:0007b600       ?_Destroy@?$_Ref_count_del@V?$Persistent@VObject@v8@@V?$NonCopyablePersistentTraits@VObject@v8@@@2@@Nan@@V<lambda_58c0afa2d72683382214bb714b46c30e>@@@std@@EEAAXXZ 000000018007c600 f i _nodert_generated.obj
 0001:0007b640       ?_Destroy@?$_Ref_count_del@V?$Persistent@VObject@v8@@V?$NonCopyablePersistentTraits@VObject@v8@@@2@@Nan@@V<lambda_8fcea7dc39e7c4728a6e3a9370b66fd3>@@@std@@EEAAXXZ 000000018007c640 f i _nodert_generated.obj
 0001:0007b680       ?_Destroy@?$_Ref_count_del@V?$Persistent@VObject@v8@@V?$NonCopyablePersistentTraits@VObject@v8@@@2@@Nan@@V<lambda_9623744b63ea9b261950a1cf126ce800>@@@std@@EEAAXXZ 000000018007c680 f i _nodert_generated.obj
 0001:0007b6c0       ?_Destroy@?$_Ref_count_del@V?$Persistent@VObject@v8@@V?$NonCopyablePersistentTraits@VObject@v8@@@2@@Nan@@V<lambda_c816b6a9bfd163bb2b9fb73212f95534>@@@std@@EEAAXXZ 000000018007c6c0 f i _nodert_generated.obj
 0001:0007b700       ?_Destroy@?$_Ref_count_del@V?$Persistent@VObject@v8@@V?$NonCopyablePersistentTraits@VObject@v8@@@2@@Nan@@V<lambda_d849e9626af8cc9e54bf6028b71df756>@@@std@@EEAAXXZ 000000018007c700 f i _nodert_generated.obj
 0001:0007b740       ?_Destroy@?$_Ref_count_del@V?$Persistent@VObject@v8@@V?$NonCopyablePersistentTraits@VObject@v8@@@2@@Nan@@V<lambda_f6b5807503ec79e3463ff21dedaf47c5>@@@std@@EEAAXXZ 000000018007c740 f i _nodert_generated.obj
 0001:0007b780       ?_Destroy@?$_Ref_count_del@V?$Persistent@VObject@v8@@V?$NonCopyablePersistentTraits@VObject@v8@@@2@@Nan@@V<lambda_fc54f20e3d35a13a69ff970029de927f>@@@std@@EEAAXXZ 000000018007c780 f i _nodert_generated.obj
 0001:0007b7c0       ?_Destroy@?$_Ref_count_obj@I@std@@EEAAXXZ 000000018007c7c0 f i _nodert_generated.obj
 0001:0007b7d0       ?_Destroy@?$_Ref_count_obj@U?$_Task_impl@E@details@Concurrency@@@std@@EEAAXXZ 000000018007c7d0 f i _nodert_generated.obj
 0001:0007b7e0       ?_Destroy@?$_Ref_count_obj@U?$_Task_impl@I@details@Concurrency@@@std@@EEAAXXZ 000000018007c7e0 f i _nodert_generated.obj
 0001:0007b7f0       ?_Destroy@?$_Ref_count_obj@U?$_Task_impl@PE$AAUIBuffer@Streams@Storage@Windows@@@details@Concurrency@@@std@@EEAAXXZ 000000018007c7f0 f i _nodert_generated.obj
 0001:0007b800       ?_Destroy@?$_Ref_count_obj@U?$_Task_impl@PE$AAVDeviceInformation@Enumeration@Devices@Windows@@@details@Concurrency@@@std@@EEAAXXZ 000000018007c800 f i _nodert_generated.obj
 0001:0007b810       ?_Destroy@?$_Ref_count_obj@U?$_Task_impl@PE$AAVDeviceInformationCollection@Enumeration@Devices@Windows@@@details@Concurrency@@@std@@EEAAXXZ 000000018007c810 f i _nodert_generated.obj
 0001:0007b820       ?_Destroy@?$_Ref_count_obj@U?$_Task_impl@PE$AAVDevicePairingResult@Enumeration@Devices@Windows@@@details@Concurrency@@@std@@EEAAXXZ 000000018007c820 f i _nodert_generated.obj
 0001:0007b830       ?_Destroy@?$_Ref_count_obj@U?$_Task_impl@PE$AAVDeviceThumbnail@Enumeration@Devices@Windows@@@details@Concurrency@@@std@@EEAAXXZ 000000018007c830 f i _nodert_generated.obj
 0001:0007b840       ?_Destroy@?$_Ref_count_obj@U?$_Task_impl@PE$AAVDeviceUnpairingResult@Enumeration@Devices@Windows@@@details@Concurrency@@@std@@EEAAXXZ 000000018007c840 f i _nodert_generated.obj
 0001:0007b850       ?_Destroy@?$_Ref_count_obj@U?$_Task_impl@_N@details@Concurrency@@@std@@EEAAXXZ 000000018007c850 f i _nodert_generated.obj
 0001:0007b860       ?_Destroy@?$_Ref_count_obj@U_ExceptionHolder@details@Concurrency@@@std@@EEAAXXZ 000000018007c860 f i _nodert_generated.obj
 0001:0007b870       ?_Destroy@?$_Ref_count_obj@V?$vector@PE$AAVString@Platform@@V?$allocator@PE$AAVString@Platform@@@std@@@std@@@std@@EEAAXXZ 000000018007c870 f i _nodert_generated.obj
 0001:0007b880       ?_Destroy@?$_Ref_count_obj@V?$vector@W4DeviceWatcherEventKind@Enumeration@Devices@Windows@@V?$allocator@W4DeviceWatcherEventKind@Enumeration@Devices@Windows@@@std@@@std@@@std@@EEAAXXZ 000000018007c880 f i _nodert_generated.obj
 0001:0007b8d0       ?_Destroy@_RefCounter@details@Concurrency@@MEAAXXZ 000000018007c8d0 f i _nodert_generated.obj
 0001:0007b8f0       ?_Do_call@?$_Func_impl@V<lambda_02f22d91f6fd3feea1a4573210772ee6>@@V?$allocator@H@std@@X$$V@std@@EEAAXXZ 000000018007c8f0 f i _nodert_generated.obj
 0001:0007b960       ?_Do_call@?$_Func_impl@V<lambda_04ef0919d35a1608d6a12d18ae23c16a>@@V?$allocator@H@std@@V?$Local@VValue@v8@@@v8@@PE$AAVString@Platform@@@std@@EEAA?AV?$Local@VValue@v8@@@v8@@$$QEAPE$AAVString@Platform@@@Z 000000018007c960 f i _nodert_generated.obj
 0001:0007b9a0       ?_Do_call@?$_Func_impl@V<lambda_090d012d0a4c6328579e929d0f080628>@@V?$allocator@H@std@@X$$V@std@@EEAAXXZ 000000018007c9a0 f i _nodert_generated.obj
 0001:0007ba10       ?_Do_call@?$_Func_impl@V<lambda_0c35f08fa008bd0bd75f4471027a7740>@@V?$allocator@H@std@@X$$V@std@@EEAAXXZ 000000018007ca10 f i _nodert_generated.obj
 0001:0007baa0       ?_Do_call@?$_Func_impl@V<lambda_0ce10e9ffe11d3d6fc885aa52e004576>@@V?$allocator@H@std@@_NV?$Local@VValue@v8@@@v8@@@std@@EEAA_N$$QEAV?$Local@VValue@v8@@@v8@@@Z 000000018007caa0 f i _nodert_generated.obj
 0001:0007bab0       ?_Do_call@?$_Func_impl@V<lambda_0f026b73064d388c4941d27674c0da0f>@@V?$allocator@H@std@@EV?$task@PE$AAVDeviceInformation@Enumeration@Devices@Windows@@@Concurrency@@@std@@EEAAE$$QEAV?$task@PE$AAVDeviceInformation@Enumeration@Devices@Windows@@@Concurrency@@@Z 000000018007cab0 f i _nodert_generated.obj
 0001:0007baf0       ?_Do_call@?$_Func_impl@V<lambda_120b4087b4a5fb3353380db5f4bd64db>@@V?$allocator@H@std@@XV?$task@PE$AAVDeviceUnpairingResult@Enumeration@Devices@Windows@@@Concurrency@@@std@@EEAAX$$QEAV?$task@PE$AAVDeviceUnpairingResult@Enumeration@Devices@Windows@@@Concurrency@@@Z 000000018007caf0 f i _nodert_generated.obj
 0001:0007bb30       ?_Do_call@?$_Func_impl@V<lambda_12bcb78949ebcaacb22005e510ac426e>@@V?$allocator@H@std@@_NV?$Local@VValue@v8@@@v8@@@std@@EEAA_N$$QEAV?$Local@VValue@v8@@@v8@@@Z 000000018007cb30 f i _nodert_generated.obj
 0001:0007bb60       ?_Do_call@?$_Func_impl@V<lambda_163ea11ffbf98f813e6bfc1622219211>@@V?$allocator@H@std@@XV?$function@$$A6AXHPEAV?$Local@VValue@v8@@@v8@@@Z@3@@std@@EEAAX$$QEAV?$function@$$A6AXHPEAV?$Local@VValue@v8@@@v8@@@Z@2@@Z 000000018007cb60 f i _nodert_generated.obj
 0001:0007bb90       ?_Do_call@?$_Func_impl@V<lambda_17eb98b82985a3c5f8b57ecb56110d60>@@V?$allocator@H@std@@XV?$function@$$A6AXHPEAV?$Local@VValue@v8@@@v8@@@Z@3@@std@@EEAAX$$QEAV?$function@$$A6AXHPEAV?$Local@VValue@v8@@@v8@@@Z@2@@Z 000000018007cb90 f i _nodert_generated.obj
 0001:0007bbc0       ?_Do_call@?$_Func_impl@V<lambda_1af583cf6945007177c61d87505abd8e>@@V?$allocator@H@std@@XHPEAV?$Local@VValue@v8@@@v8@@@std@@EEAAX$$QEAH$$QEAPEAV?$Local@VValue@v8@@@v8@@@Z 000000018007cbc0 f i _nodert_generated.obj
 0001:0007bbe0       ?_Do_call@?$_Func_impl@V<lambda_1e0d05bc07b2e06c9ae6ab1a5a7af17f>@@V?$allocator@H@std@@_NV?$Local@VValue@v8@@@v8@@@std@@EEAA_N$$QEAV?$Local@VValue@v8@@@v8@@@Z 000000018007cbe0 f i _nodert_generated.obj
 0001:0007bbf0       ?_Do_call@?$_Func_impl@V<lambda_1eb828a456fd906201da4bdf8c87acc7>@@V?$allocator@H@std@@XV?$task@I@Concurrency@@@std@@EEAAX$$QEAV?$task@I@Concurrency@@@Z 000000018007cbf0 f i _nodert_generated.obj
 0001:0007bc30       ?_Do_call@?$_Func_impl@V<lambda_21853b1681f69a430ffef3e4fdb7428e>@@V?$allocator@H@std@@X$$V@std@@EEAAXXZ 000000018007cc30 f i _nodert_generated.obj
 0001:0007bc40       ?_Do_call@?$_Func_impl@V<lambda_236f5d6cde663bd487905b2659e9e1d0>@@V?$allocator@H@std@@V?$Local@VValue@v8@@@v8@@W4DeviceClass@Enumeration@Devices@Windows@@@std@@EEAA?AV?$Local@VValue@v8@@@v8@@$$QEAW4DeviceClass@Enumeration@Devices@Windows@@@Z 000000018007cc40 f i _nodert_generated.obj
 0001:0007bcb0       ?_Do_call@?$_Func_impl@V<lambda_2bb8dd9e3a2f720ce54f513fe20eec0b>@@V?$allocator@H@std@@XV?$function@$$A6AXHPEAV?$Local@VValue@v8@@@v8@@@Z@3@@std@@EEAAX$$QEAV?$function@$$A6AXHPEAV?$Local@VValue@v8@@@v8@@@Z@2@@Z 000000018007ccb0 f i _nodert_generated.obj
 0001:0007bce0       ?_Do_call@?$_Func_impl@V<lambda_2e68d8e8051c62e018e9e768a603a9d1>@@V?$allocator@H@std@@XV?$function@$$A6AXHPEAV?$Local@VValue@v8@@@v8@@@Z@3@@std@@EEAAX$$QEAV?$function@$$A6AXHPEAV?$Local@VValue@v8@@@v8@@@Z@2@@Z 000000018007cce0 f i _nodert_generated.obj
 0001:0007bd10       ?_Do_call@?$_Func_impl@V<lambda_2fe5a97852dd9750fca909335c649c88>@@V?$allocator@H@std@@XV?$task@_N@Concurrency@@@std@@EEAAX$$QEAV?$task@_N@Concurrency@@@Z 000000018007cd10 f i _nodert_generated.obj
 0001:0007bd50       ?_Do_call@?$_Func_impl@V<lambda_3282d637809049c3e60b82a707d0a93d>@@V?$allocator@H@std@@XV?$function@$$A6AXHPEAV?$Local@VValue@v8@@@v8@@@Z@3@@std@@EEAAX$$QEAV?$function@$$A6AXHPEAV?$Local@VValue@v8@@@v8@@@Z@2@@Z 000000018007cd50 f i _nodert_generated.obj
 0001:0007bd80       ?_Do_call@?$_Func_impl@V<lambda_32bf3520a247a9092ab406a31a3faa42>@@V?$allocator@H@std@@XV?$function@$$A6AXHPEAV?$Local@VValue@v8@@@v8@@@Z@3@@std@@EEAAX$$QEAV?$function@$$A6AXHPEAV?$Local@VValue@v8@@@v8@@@Z@2@@Z 000000018007cd80 f i _nodert_generated.obj
 0001:0007bdb0       ?_Do_call@?$_Func_impl@V<lambda_33dac395321372434e13e659f6691d2b>@@V?$allocator@H@std@@XV?$task@PE$AAVDeviceInformationCollection@Enumeration@Devices@Windows@@@Concurrency@@@std@@EEAAX$$QEAV?$task@PE$AAVDeviceInformationCollection@Enumeration@Devices@Windows@@@Concurrency@@@Z 000000018007cdb0 f i _nodert_generated.obj
 0001:0007bdf0       ?_Do_call@?$_Func_impl@V<lambda_33ee84b3f5db65732a80cadacb90dcb1>@@V?$allocator@H@std@@X$$V@std@@EEAAXXZ 000000018007cdf0 f i _nodert_generated.obj
 0001:0007be00       ?_Do_call@?$_Func_impl@V<lambda_36504d37d672f10d3dbf88850e37d034>@@V?$allocator@H@std@@XV?$task@PE$AAVDeviceInformation@Enumeration@Devices@Windows@@@Concurrency@@@std@@EEAAX$$QEAV?$task@PE$AAVDeviceInformation@Enumeration@Devices@Windows@@@Concurrency@@@Z 000000018007ce00 f i _nodert_generated.obj
 0001:0007be40       ?_Do_call@?$_Func_impl@V<lambda_38185181009d45c1195ac970a9c474b5>@@V?$allocator@H@std@@XV?$function@$$A6AXHPEAV?$Local@VValue@v8@@@v8@@@Z@3@@std@@EEAAX$$QEAV?$function@$$A6AXHPEAV?$Local@VValue@v8@@@v8@@@Z@2@@Z 000000018007ce40 f i _nodert_generated.obj
 0001:0007be70       ?_Do_call@?$_Func_impl@V<lambda_3abfc8c1f252ee83d85013063ca8f980>@@V?$allocator@H@std@@XV?$function@$$A6AXHPEAV?$Local@VValue@v8@@@v8@@@Z@3@@std@@EEAAX$$QEAV?$function@$$A6AXHPEAV?$Local@VValue@v8@@@v8@@@Z@2@@Z 000000018007ce70 f i _nodert_generated.obj
 0001:0007bea0       ?_Do_call@?$_Func_impl@V<lambda_3c5f1d990a8da23576aa46c0ae90e233>@@V?$allocator@H@std@@_NV?$Local@VValue@v8@@@v8@@@std@@EEAA_N$$QEAV?$Local@VValue@v8@@@v8@@@Z 000000018007cea0 f i _nodert_generated.obj
 0001:0007bec0       ?_Do_call@?$_Func_impl@V<lambda_3ecc12439b83dffa78b0ffc848dd2282>@@V?$allocator@H@std@@X$$V@std@@EEAAXXZ 000000018007cec0 f i _nodert_generated.obj
 0001:0007bf30       ?_Do_call@?$_Func_impl@V<lambda_403f017818dca9303b63b9f750a7bfbe>@@V?$allocator@H@std@@_NV?$Local@VValue@v8@@@v8@@@std@@EEAA_N$$QEAV?$Local@VValue@v8@@@v8@@@Z 000000018007cf30 f i _nodert_generated.obj
 0001:0007bf50       ?_Do_call@?$_Func_impl@V<lambda_413e697d3df9dfa3260888caa9b36fb1>@@V?$allocator@H@std@@X$$V@std@@EEAAXXZ 000000018007cf50 f i _nodert_generated.obj
 0001:0007bf60       ?_Do_call@?$_Func_impl@V<lambda_418bff8cbe9471ab2cc47b9ce55378cb>@@V?$allocator@H@std@@XV?$task@PE$AAVDevicePairingResult@Enumeration@Devices@Windows@@@Concurrency@@@std@@EEAAX$$QEAV?$task@PE$AAVDevicePairingResult@Enumeration@Devices@Windows@@@Concurrency@@@Z 000000018007cf60 f i _nodert_generated.obj
 0001:0007bfa0       ?_Do_call@?$_Func_impl@V<lambda_436ea425f814a82153c3b933242ed364>@@V?$allocator@H@std@@_NV?$Local@VValue@v8@@@v8@@@std@@EEAA_N$$QEAV?$Local@VValue@v8@@@v8@@@Z 000000018007cfa0 f i _nodert_generated.obj
 0001:0007bfc0       ?_Do_call@?$_Func_impl@V<lambda_43d91700c1063fcb3a9eb56e5d049156>@@V?$allocator@H@std@@X$$V@std@@EEAAXXZ 000000018007cfc0 f i _nodert_generated.obj
 0001:0007bfd0       ?_Do_call@?$_Func_impl@V<lambda_4446bd2e4bb6e1cfecdc4f203e7fabb1>@@V?$allocator@H@std@@XV?$function@$$A6AXHPEAV?$Local@VValue@v8@@@v8@@@Z@3@@std@@EEAAX$$QEAV?$function@$$A6AXHPEAV?$Local@VValue@v8@@@v8@@@Z@2@@Z 000000018007cfd0 f i _nodert_generated.obj
 0001:0007c000       ?_Do_call@?$_Func_impl@V<lambda_447710e2e0dec371aaecb4096c7b9487>@@V?$allocator@H@std@@X$$V@std@@EEAAXXZ 000000018007d000 f i _nodert_generated.obj
 0001:0007c090       ?_Do_call@?$_Func_impl@V<lambda_45844692d1567fd502d15bf6aca23634>@@V?$allocator@H@std@@_NV?$Local@VValue@v8@@@v8@@@std@@EEAA_N$$QEAV?$Local@VValue@v8@@@v8@@@Z 000000018007d090 f i _nodert_generated.obj
 0001:0007c0b0       ?_Do_call@?$_Func_impl@V<lambda_4599a832aa6ff44531ffc915cf37cb7d>@@V?$allocator@H@std@@X$$V@std@@EEAAXXZ 000000018007d0b0 f i _nodert_generated.obj
 0001:0007c0c0       ?_Do_call@?$_Func_impl@V<lambda_48b29ce106f56fee2b9931f4f0d8ba5b>@@V?$allocator@H@std@@EV?$task@PE$AAVDevicePairingResult@Enumeration@Devices@Windows@@@Concurrency@@@std@@EEAAE$$QEAV?$task@PE$AAVDevicePairingResult@Enumeration@Devices@Windows@@@Concurrency@@@Z 000000018007d0c0 f i _nodert_generated.obj
 0001:0007c100       ?_Do_call@?$_Func_impl@V<lambda_4b27738951189d11652babf17d446fff>@@V?$allocator@H@std@@XV?$function@$$A6AXHPEAV?$Local@VValue@v8@@@v8@@@Z@3@@std@@EEAAX$$QEAV?$function@$$A6AXHPEAV?$Local@VValue@v8@@@v8@@@Z@2@@Z 000000018007d100 f i _nodert_generated.obj
 0001:0007c130       ?_Do_call@?$_Func_impl@V<lambda_4cc48579c35cacc5f2092cf572b2c19b>@@V?$allocator@H@std@@XV?$function@$$A6AXHPEAV?$Local@VValue@v8@@@v8@@@Z@3@@std@@EEAAX$$QEAV?$function@$$A6AXHPEAV?$Local@VValue@v8@@@v8@@@Z@2@@Z 000000018007d130 f i _nodert_generated.obj
 0001:0007c160       ?_Do_call@?$_Func_impl@V<lambda_501307cb0ef324bd632ab813b42d6477>@@V?$allocator@H@std@@XV?$task@PE$AAVDeviceThumbnail@Enumeration@Devices@Windows@@@Concurrency@@@std@@EEAAX$$QEAV?$task@PE$AAVDeviceThumbnail@Enumeration@Devices@Windows@@@Concurrency@@@Z 000000018007d160 f i _nodert_generated.obj
 0001:0007c1a0       ?_Do_call@?$_Func_impl@V<lambda_5158ffc534c2777cd55cf61a47407140>@@V?$allocator@H@std@@X$$V@std@@EEAAXXZ 000000018007d1a0 f i _nodert_generated.obj
 0001:0007c210       ?_Do_call@?$_Func_impl@V<lambda_5531600b135067ad5493040a84ae33ff>@@V?$allocator@H@std@@V?$Local@VValue@v8@@@v8@@PE$AAVObject@Platform@@@std@@EEAA?AV?$Local@VValue@v8@@@v8@@$$QEAPE$AAVObject@Platform@@@Z 000000018007d210 f i _nodert_generated.obj
 0001:0007c240       ?_Do_call@?$_Func_impl@V<lambda_560edee77a3239947065bc88f6bce7bc>@@V?$allocator@H@std@@PE$AAVString@Platform@@V?$Local@VValue@v8@@@v8@@@std@@EEAAPE$AAVString@Platform@@$$QEAV?$Local@VValue@v8@@@v8@@@Z 000000018007d240 f i _nodert_generated.obj
 0001:0007c2a0       ?_Do_call@?$_Func_impl@V<lambda_5742defd950e0f1d5323a47c27480349>@@V?$allocator@H@std@@X$$V@std@@EEAAXXZ 000000018007d2a0 f i _nodert_generated.obj
 0001:0007c2b0       ?_Do_call@?$_Func_impl@V<lambda_592347503a27903a1864e921c6d8a7e3>@@V?$allocator@H@std@@XV?$function@$$A6AXHPEAV?$Local@VValue@v8@@@v8@@@Z@3@@std@@EEAAX$$QEAV?$function@$$A6AXHPEAV?$Local@VValue@v8@@@v8@@@Z@2@@Z 000000018007d2b0 f i _nodert_generated.obj
 0001:0007c2e0       ?_Do_call@?$_Func_impl@V<lambda_59c512ccbceb4a4aa79aea9f317c8729>@@V?$allocator@H@std@@EV?$task@I@Concurrency@@@std@@EEAAE$$QEAV?$task@I@Concurrency@@@Z 000000018007d2e0 f i _nodert_generated.obj
 0001:0007c320       ?_Do_call@?$_Func_impl@V<lambda_5a1c437f17fa466aabaf7b0153a0ecc3>@@V?$allocator@H@std@@EV?$task@_N@Concurrency@@@std@@EEAAE$$QEAV?$task@_N@Concurrency@@@Z 000000018007d320 f i _nodert_generated.obj
 0001:0007c360       ?_Do_call@?$_Func_impl@V<lambda_5a3867752bb24d418d4fe7d1b64439ce>@@V?$allocator@H@std@@EV?$task@PE$AAVDeviceThumbnail@Enumeration@Devices@Windows@@@Concurrency@@@std@@EEAAE$$QEAV?$task@PE$AAVDeviceThumbnail@Enumeration@Devices@Windows@@@Concurrency@@@Z 000000018007d360 f i _nodert_generated.obj
 0001:0007c3a0       ?_Do_call@?$_Func_impl@V<lambda_5c14fb28660783f3c02d395e6c5ed33c>@@V?$allocator@H@std@@X$$V@std@@EEAAXXZ 000000018007d3a0 f i _nodert_generated.obj
 0001:0007c430       ?_Do_call@?$_Func_impl@V<lambda_62e266853b998866e6b58c3644b12cd1>@@V?$allocator@H@std@@XV?$function@$$A6AXHPEAV?$Local@VValue@v8@@@v8@@@Z@3@@std@@EEAAX$$QEAV?$function@$$A6AXHPEAV?$Local@VValue@v8@@@v8@@@Z@2@@Z 000000018007d430 f i _nodert_generated.obj
 0001:0007c460       ?_Do_call@?$_Func_impl@V<lambda_6a4d408c8dcd5c2adaba3e48d970cabd>@@V?$allocator@H@std@@X$$V@std@@EEAAXXZ 000000018007d460 f i _nodert_generated.obj
 0001:0007c4f0       ?_Do_call@?$_Func_impl@V<lambda_7233ffe6b129a6ce3ddee2ef536800f2>@@V?$allocator@H@std@@EV?$task@PE$AAVDeviceUnpairingResult@Enumeration@Devices@Windows@@@Concurrency@@@std@@EEAAE$$QEAV?$task@PE$AAVDeviceUnpairingResult@Enumeration@Devices@Windows@@@Concurrency@@@Z 000000018007d4f0 f i _nodert_generated.obj
 0001:0007c530       ?_Do_call@?$_Func_impl@V<lambda_7601a32cb7fd1c904b665337581357ab>@@V?$allocator@H@std@@XV?$function@$$A6AXHPEAV?$Local@VValue@v8@@@v8@@@Z@3@@std@@EEAAX$$QEAV?$function@$$A6AXHPEAV?$Local@VValue@v8@@@v8@@@Z@2@@Z 000000018007d530 f i _nodert_generated.obj
 0001:0007c560       ?_Do_call@?$_Func_impl@V<lambda_763529b0c7473cbc215a52d189ac9b18>@@V?$allocator@H@std@@X$$V@std@@EEAAXXZ 000000018007d560 f i _nodert_generated.obj
 0001:0007c570       ?_Do_call@?$_Func_impl@V<lambda_7637a52f8615d5c4350d4415b4187f67>@@V?$allocator@H@std@@X$$V@std@@EEAAXXZ 000000018007d570 f i _nodert_generated.obj
 0001:0007c580       ?_Do_call@?$_Func_impl@V<lambda_78daf5e59166083a6cf28051060f445b>@@V?$allocator@H@std@@X$$V@std@@EEAAXXZ 000000018007d580 f i _nodert_generated.obj
 0001:0007c610       ?_Do_call@?$_Func_impl@V<lambda_7c85cdcc7b722a73124a4747dd95cece>@@V?$allocator@H@std@@V?$Local@VValue@v8@@@v8@@PE$AAU?$IKeyValuePair@PE$AAVString@Platform@@PE$AAVObject@2@@Collections@Foundation@Windows@@@std@@EEAA?AV?$Local@VValue@v8@@@v8@@$$QEAPE$AAU?$IKeyValuePair@PE$AAVString@Platform@@PE$AAVObject@2@@Collections@Foundation@Windows@@@Z 000000018007d610 f i _nodert_generated.obj
 0001:0007c650       ?_Do_call@?$_Func_impl@V<lambda_7d63be740be4558b3e3eb0c3d5253f2f>@@V?$allocator@H@std@@X$$V@std@@EEAAXXZ 000000018007d650 f i _nodert_generated.obj
 0001:0007c660       ?_Do_call@?$_Func_impl@V<lambda_80aa571a138ef2b7532637249397d5a3>@@V?$allocator@H@std@@XV?$function@$$A6AXHPEAV?$Local@VValue@v8@@@v8@@@Z@3@@std@@EEAAX$$QEAV?$function@$$A6AXHPEAV?$Local@VValue@v8@@@v8@@@Z@2@@Z 000000018007d660 f i _nodert_generated.obj
 0001:0007c690       ?_Do_call@?$_Func_impl@V<lambda_80d3ac704db897fed386c438008f7532>@@V?$allocator@H@std@@X$$V@std@@EEAAXXZ 000000018007d690 f i _nodert_generated.obj
 0001:0007c6a0       ?_Do_call@?$_Func_impl@V<lambda_83a71d54a925918e3e8e280fcf3ac2fc>@@V?$allocator@H@std@@X$$V@std@@EEAAXXZ 000000018007d6a0 f i _nodert_generated.obj
 0001:0007c6b0       ?_Do_call@?$_Func_impl@V<lambda_865dc1c5144f92b57e161143446c13fa>@@V?$allocator@H@std@@PE$AAVString@Platform@@V?$Local@VValue@v8@@@v8@@@std@@EEAAPE$AAVString@Platform@@$$QEAV?$Local@VValue@v8@@@v8@@@Z 000000018007d6b0 f i _nodert_generated.obj
 0001:0007c710       ?_Do_call@?$_Func_impl@V<lambda_894463c39cec769f47b59c6862ca5741>@@V?$allocator@H@std@@XV?$task@PE$AAUIBuffer@Streams@Storage@Windows@@@Concurrency@@@std@@EEAAX$$QEAV?$task@PE$AAUIBuffer@Streams@Storage@Windows@@@Concurrency@@@Z 000000018007d710 f i _nodert_generated.obj
 0001:0007c750       ?_Do_call@?$_Func_impl@V<lambda_8c253faaf993bab7b504f87247a99dc5>@@V?$allocator@H@std@@X$$V@std@@EEAAXXZ 000000018007d750 f i _nodert_generated.obj
 0001:0007c7c0       ?_Do_call@?$_Func_impl@V<lambda_8db20726d1b4924c864a3321687226d3>@@V?$allocator@H@std@@XV?$function@$$A6AXHPEAV?$Local@VValue@v8@@@v8@@@Z@3@@std@@EEAAX$$QEAV?$function@$$A6AXHPEAV?$Local@VValue@v8@@@v8@@@Z@2@@Z 000000018007d7c0 f i _nodert_generated.obj
 0001:0007c7f0       ?_Do_call@?$_Func_impl@V<lambda_8ec31411949358aba4a01b593f0de4dd>@@V?$allocator@H@std@@PE$AAVString@Platform@@V?$Local@VValue@v8@@@v8@@@std@@EEAAPE$AAVString@Platform@@$$QEAV?$Local@VValue@v8@@@v8@@@Z 000000018007d7f0 f i _nodert_generated.obj
 0001:0007c850       ?_Do_call@?$_Func_impl@V<lambda_96798dec0125b78218297a3a0a5349aa>@@V?$allocator@H@std@@_NV?$Local@VValue@v8@@@v8@@@std@@EEAA_N$$QEAV?$Local@VValue@v8@@@v8@@@Z 000000018007d850 f i _nodert_generated.obj
 0001:0007c880       ?_Do_call@?$_Func_impl@V<lambda_988993e7b5ffc7b958aacacdd6a62e0b>@@V?$allocator@H@std@@PE$AAVString@Platform@@V?$Local@VValue@v8@@@v8@@@std@@EEAAPE$AAVString@Platform@@$$QEAV?$Local@VValue@v8@@@v8@@@Z 000000018007d880 f i _nodert_generated.obj
 0001:0007c8e0       ?_Do_call@?$_Func_impl@V<lambda_9d8e4cf091122037972057663da965f6>@@V?$allocator@H@std@@X$$V@std@@EEAAXXZ 000000018007d8e0 f i _nodert_generated.obj
 0001:0007c8f0       ?_Do_call@?$_Func_impl@V<lambda_9ff0ef1629247b934bc56dbecf4fad4d>@@V?$allocator@H@std@@_NV?$Local@VValue@v8@@@v8@@@std@@EEAA_N$$QEAV?$Local@VValue@v8@@@v8@@@Z 000000018007d8f0 f i _nodert_generated.obj
 0001:0007c910       ?_Do_call@?$_Func_impl@V<lambda_a02c9815634049d31832a02362fdc714>@@V?$allocator@H@std@@W4DeviceWatcherEventKind@Enumeration@Devices@Windows@@V?$Local@VValue@v8@@@v8@@@std@@EEAA?AW4DeviceWatcherEventKind@Enumeration@Devices@Windows@@$$QEAV?$Local@VValue@v8@@@v8@@@Z 000000018007d910 f i _nodert_generated.obj
 0001:0007c940       ?_Do_call@?$_Func_impl@V<lambda_a0db4bb87296f5cf95bf193d59b80420>@@V?$allocator@H@std@@XV?$task@PE$AAVDevicePairingResult@Enumeration@Devices@Windows@@@Concurrency@@@std@@EEAAX$$QEAV?$task@PE$AAVDevicePairingResult@Enumeration@Devices@Windows@@@Concurrency@@@Z 000000018007d940 f i _nodert_generated.obj
 0001:0007c980       ?_Do_call@?$_Func_impl@V<lambda_a18157a77679b27ebbee14df8cc9551b>@@V?$allocator@H@std@@XV?$task@PE$AAVDeviceThumbnail@Enumeration@Devices@Windows@@@Concurrency@@@std@@EEAAX$$QEAV?$task@PE$AAVDeviceThumbnail@Enumeration@Devices@Windows@@@Concurrency@@@Z 000000018007d980 f i _nodert_generated.obj
 0001:0007c9c0       ?_Do_call@?$_Func_impl@V<lambda_a53003aa7c7439f9fe9d3ef6faedc4c5>@@V?$allocator@H@std@@X$$V@std@@EEAAXXZ 000000018007d9c0 f i _nodert_generated.obj
 0001:0007c9d0       ?_Do_call@?$_Func_impl@V<lambda_a54ec017da84eed38cef3d48b5235292>@@V?$allocator@H@std@@XV?$function@$$A6AXHPEAV?$Local@VValue@v8@@@v8@@@Z@3@@std@@EEAAX$$QEAV?$function@$$A6AXHPEAV?$Local@VValue@v8@@@v8@@@Z@2@@Z 000000018007d9d0 f i _nodert_generated.obj
 0001:0007ca00       ?_Do_call@?$_Func_impl@V<lambda_a657b80b93f125e0c6567c8b85c0226c>@@V?$allocator@H@std@@X$$V@std@@EEAAXXZ 000000018007da00 f i _nodert_generated.obj
 0001:0007ca70       ?_Do_call@?$_Func_impl@V<lambda_a96e5ce404383841d08ddad807d114e4>@@V?$allocator@H@std@@X$$V@std@@EEAAXXZ 000000018007da70 f i _nodert_generated.obj
 0001:0007cb00       ?_Do_call@?$_Func_impl@V<lambda_ad6d9567cc6442162d2a964c15d8d6e8>@@V?$allocator@H@std@@V?$Local@VValue@v8@@@v8@@PE$AAVDeviceInformation@Enumeration@Devices@Windows@@@std@@EEAA?AV?$Local@VValue@v8@@@v8@@$$QEAPE$AAVDeviceInformation@Enumeration@Devices@Windows@@@Z 000000018007db00 f i _nodert_generated.obj
 0001:0007cb30       ?_Do_call@?$_Func_impl@V<lambda_ae13666b41b05240b4d593c72a58d1c0>@@V?$allocator@H@std@@PE$AAVString@Platform@@V?$Local@VValue@v8@@@v8@@@std@@EEAAPE$AAVString@Platform@@$$QEAV?$Local@VValue@v8@@@v8@@@Z 000000018007db30 f i _nodert_generated.obj
 0001:0007cb90       ?_Do_call@?$_Func_impl@V<lambda_ae9493837c227995ded26404960f2bae>@@V?$allocator@H@std@@XV?$task@PE$AAVDeviceInformation@Enumeration@Devices@Windows@@@Concurrency@@@std@@EEAAX$$QEAV?$task@PE$AAVDeviceInformation@Enumeration@Devices@Windows@@@Concurrency@@@Z 000000018007db90 f i _nodert_generated.obj
 0001:0007cbd0       ?_Do_call@?$_Func_impl@V<lambda_af4e454302585268d6adc8ac5957ad65>@@V?$allocator@H@std@@PE$AAVString@Platform@@V?$Local@VValue@v8@@@v8@@@std@@EEAAPE$AAVString@Platform@@$$QEAV?$Local@VValue@v8@@@v8@@@Z 000000018007dbd0 f i _nodert_generated.obj
 0001:0007cc30       ?_Do_call@?$_Func_impl@V<lambda_b060202fbcf2c24c017bca20495c769b>@@V?$allocator@H@std@@X$$V@std@@EEAAXXZ 000000018007dc30 f i _nodert_generated.obj
 0001:0007cca0       ?_Do_call@?$_Func_impl@V<lambda_b6d37523fa2c7bf72083f064af8f62e4>@@V?$allocator@H@std@@W4DeviceClass@Enumeration@Devices@Windows@@V?$Local@VValue@v8@@@v8@@@std@@EEAA?AW4DeviceClass@Enumeration@Devices@Windows@@$$QEAV?$Local@VValue@v8@@@v8@@@Z 000000018007dca0 f i _nodert_generated.obj
 0001:0007ccd0       ?_Do_call@?$_Func_impl@V<lambda_b78ed03f7beef7e9d7e66a4c4c58beb7>@@V?$allocator@H@std@@V?$Local@VValue@v8@@@v8@@PE$AAVDeviceWatcherEvent@Enumeration@Devices@Windows@@@std@@EEAA?AV?$Local@VValue@v8@@@v8@@$$QEAPE$AAVDeviceWatcherEvent@Enumeration@Devices@Windows@@@Z 000000018007dcd0 f i _nodert_generated.obj
 0001:0007cd00       ?_Do_call@?$_Func_impl@V<lambda_b7d41fce8f4d1cb819559b5195c10893>@@V?$allocator@H@std@@X$$V@std@@EEAAXXZ 000000018007dd00 f i _nodert_generated.obj
 0001:0007cd10       ?_Do_call@?$_Func_impl@V<lambda_b86ea4b25e0e87ee9799cfc974a5a7f4>@@V?$allocator@H@std@@V?$Local@VValue@v8@@@v8@@PE$AAVString@Platform@@@std@@EEAA?AV?$Local@VValue@v8@@@v8@@$$QEAPE$AAVString@Platform@@@Z 000000018007dd10 f i _nodert_generated.obj
 0001:0007cd50       ?_Do_call@?$_Func_impl@V<lambda_b89f5c50422b23311075c5604b7fae64>@@V?$allocator@H@std@@_NV?$Local@VValue@v8@@@v8@@@std@@EEAA_N$$QEAV?$Local@VValue@v8@@@v8@@@Z 000000018007dd50 f i _nodert_generated.obj
 0001:0007cd80       ?_Do_call@?$_Func_impl@V<lambda_bb3ea35c7a129712676a4a6472ecdc6a>@@V?$allocator@H@std@@X$$V@std@@EEAAXXZ 000000018007dd80 f i _nodert_generated.obj
 0001:0007cd90       ?_Do_call@?$_Func_impl@V<lambda_bb92edcbe7432b9286e3e817945d72e9>@@V?$allocator@H@std@@X$$V@std@@EEAAXXZ 000000018007dd90 f i _nodert_generated.obj
 0001:0007ce00       ?_Do_call@?$_Func_impl@V<lambda_be1b4437d04867db8b6597cc15e566bb>@@V?$allocator@H@std@@X$$V@std@@EEAAXXZ 000000018007de00 f i _nodert_generated.obj
 0001:0007ce10       ?_Do_call@?$_Func_impl@V<lambda_c3452797281de5d24e0ed55a9a51db00>@@V?$allocator@H@std@@_NV?$Local@VValue@v8@@@v8@@@std@@EEAA_N$$QEAV?$Local@VValue@v8@@@v8@@@Z 000000018007de10 f i _nodert_generated.obj
 0001:0007ce30       ?_Do_call@?$_Func_impl@V<lambda_c38aed84fb5009a33218754ad046f542>@@V?$allocator@H@std@@V?$Local@VValue@v8@@@v8@@PE$AAVString@Platform@@@std@@EEAA?AV?$Local@VValue@v8@@@v8@@$$QEAPE$AAVString@Platform@@@Z 000000018007de30 f i _nodert_generated.obj
 0001:0007ce70       ?_Do_call@?$_Func_impl@V<lambda_c419c2aaec9143fa8b8a36a007ab213b>@@V?$allocator@H@std@@PE$AAVDeviceWatcherEvent@Enumeration@Devices@Windows@@V?$Local@VValue@v8@@@v8@@@std@@EEAAPE$AAVDeviceWatcherEvent@Enumeration@Devices@Windows@@$$QEAV?$Local@VValue@v8@@@v8@@@Z 000000018007de70 f i _nodert_generated.obj
