 binding

 Timestamp is 5c52a9e7 (Thu Jan 31 16:55:19 2019)

 Preferred load address is 0000000180000000

 Start         Length     Name                   Class
 0001:00000000 00002bf0H .text$di                CODE
 0001:00002bf0 00028080H .text$mn                CODE
 0001:0002ac70 00001020H .text$mn$00             CODE
 0001:0002bc90 00004410H .text$x                 CODE
 0001:000300a0 000011c0H .text$yd                CODE
 0002:00000000 00000110H .CRT$XCA                DATA
 0002:00000110 00000110H .CRT$XCL                DATA
 0002:00000220 00000198H .CRT$XCU                DATA
 0002:000003b8 00000110H .CRT$XCZ                DATA
 0002:000004c8 00000110H .CRT$XIA                DATA
 0002:000005d8 00000110H .CRT$XIC                DATA
 0002:000006e8 00000110H .CRT$XIYB               DATA
 0002:000007f8 00000110H .CRT$XIZ                DATA
 0002:00000908 00000008H .CRT$XLA                DATA
 0002:00000910 00000008H .CRT$XLZ                DATA
 0002:00000918 00000110H .CRT$XPA                DATA
 0002:00000a28 00000110H .CRT$XPZ                DATA
 0002:00000b38 00000110H .CRT$XTA                DATA
 0002:00000c48 00000118H .CRT$XTZ                DATA
 0002:00000d60 000063c8H .rdata                  DATA
 0002:00007128 00000130H .rdata$T                DATA
 0002:00007258 00000648H .rdata$r                DATA
 0002:000078a0 000001c8H .rdata$zzzdbg           DATA
 0002:00007a68 00000110H .rtc$IAA                DATA
 0002:00007b78 00000110H .rtc$IZZ                DATA
 0002:00007c88 00000110H .rtc$TAA                DATA
 0002:00007d98 00000118H .rtc$TZZ                DATA
 0002:00007eb0 0000a850H .xdata                  DATA
 0002:00012700 00000510H .xdata$x                DATA
 0002:00012c10 00000162H .edata                  DATA
 0003:00000000 000016d0H .data                   DATA
 0003:000016d0 00000fd0H .data$r                 DATA
 0003:000026a0 00000931H .bss                    DATA
 0004:00000000 00003360H .pdata                  DATA
 0005:00000000 00000958H .idata$5                DATA
 0005:00000958 000000c8H .idata$2                DATA
 0005:00000a20 00000018H .idata$3                DATA
 0005:00000a38 00000958H .idata$4                DATA
 0005:00001390 00001963H .idata$6                DATA
 0006:00000000 00000020H .didat$2                DATA
 0006:00000020 00000020H .didat$3                DATA
 0006:00000040 00000390H .didat$4                DATA
 0006:000003d0 00000390H .didat$5                DATA
 0006:00000760 00001aa8H .didat$6                DATA
 0006:00002208 000003fdH .didat$7                DATA
 0007:00000000 00000110H minATL$__a              DATA
 0007:00000110 00000110H minATL$__m              DATA
 0007:00000220 00000109H minATL$__z              DATA
 0008:00000000 00000232H .gfids$y                DATA
 0009:00000000 00000104H .tls                    DATA
 0009:00000104 00000104H .tls$                   DATA
 0009:00000208 00000101H .tls$ZZZ                DATA
 000a:00000000 0000011bH .00cfg                  DATA
 000b:00000000 00000170H .rsrc$01                DATA
 000b:00000170 000002ccH .rsrc$02                DATA

  Address         Publics by Value              Rva+Base               Lib:Object

 0000:00000000       __dynamic_value_reloc_table 0000000000000000     <absolute>
 0000:00000000       ___safe_se_handler_table   0000000000000000     <absolute>
 0000:00000000       __guard_iat_table          0000000000000000     <absolute>
 0000:00000000       __guard_fids_table         0000000000000000     <absolute>
 0000:00000000       ___safe_se_handler_count   0000000000000000     <absolute>
 0000:00000000       __guard_fids_count         0000000000000000     <absolute>
 0000:00000000       __guard_iat_count          0000000000000000     <absolute>
 0000:00000000       __guard_longjmp_table      0000000000000000     <absolute>
 0000:00000000       __guard_longjmp_count      0000000000000000     <absolute>
 0000:00000100       __guard_flags              0000000000000100     <absolute>
 0000:00000000       __ImageBase                0000000180000000     <linker-defined>
 0001:00002bf0       ?init@@YAXV?$Local@VObject@v8@@@v8@@@Z 0000000180003bf0 f   _nodert_generated.obj
 0001:00002c80       ?_Copy@?$_Func_impl@V<lambda_bf7f2b711a6b55b30dfb35db79500e56>@@V?$allocator@H@std@@_NV?$Local@VValue@v8@@@v8@@@std@@EEBAPEAV?$_Func_base@_NV?$Local@VValue@v8@@@v8@@@2@PEAX@Z 0000000180003c80 f i _nodert_generated.obj
 0001:00002ca0       ?_Move@?$_Func_impl@V<lambda_bf7f2b711a6b55b30dfb35db79500e56>@@V?$allocator@H@std@@_NV?$Local@VValue@v8@@@v8@@@std@@EEAAPEAV?$_Func_base@_NV?$Local@VValue@v8@@@v8@@@2@PEAX@Z 0000000180003ca0 f i _nodert_generated.obj
 0001:00002cc0       ?_Do_call@?$_Func_impl@V<lambda_bf7f2b711a6b55b30dfb35db79500e56>@@V?$allocator@H@std@@_NV?$Local@VValue@v8@@@v8@@@std@@EEAA_N$$QEAV?$Local@VValue@v8@@@v8@@@Z 0000000180003cc0 f i _nodert_generated.obj
 0001:00002cf0       ?_Target_type@?$_Func_impl@V<lambda_bf7f2b711a6b55b30dfb35db79500e56>@@V?$allocator@H@std@@_NV?$Local@VValue@v8@@@v8@@@std@@EEBAAEBVtype_info@@XZ 0000000180003cf0 f i _nodert_generated.obj
 0001:00002d00       ?_Get@?$_Func_impl@V<lambda_bf7f2b711a6b55b30dfb35db79500e56>@@V?$allocator@H@std@@_NV?$Local@VValue@v8@@@v8@@@std@@EEBAPEBXXZ 0000000180003d00 f i _nodert_generated.obj
 0001:00002d10       ?_Delete_this@?$_Func_impl@V<lambda_bf7f2b711a6b55b30dfb35db79500e56>@@V?$allocator@H@std@@_NV?$Local@VValue@v8@@@v8@@@std@@EEAAX_N@Z 0000000180003d10 f i _nodert_generated.obj
 0001:00002d30       ?__abi_winrt_cast_use_helper@@YAPE$AAVObject@Platform@@_NPEAXAEBU_GUID@@PEAU__abi_IUnknown@@@Z 0000000180003d30 f i _nodert_generated.obj
 0001:00002db0       ??$?0AEBV?$allocator@H@std@@@?$_Wrap_alloc@V?$allocator@V?$_Func_impl@V<lambda_bf7f2b711a6b55b30dfb35db79500e56>@@V?$allocator@H@std@@_NV?$Local@VValue@v8@@@v8@@@std@@@std@@@std@@QEAA@AEBV?$allocator@H@1@@Z 0000000180003db0 f i _nodert_generated.obj
 0001:00002dc0       ??$?0AEBV?$allocator@H@std@@V<lambda_bf7f2b711a6b55b30dfb35db79500e56>@@@?$_Compressed_pair@V?$allocator@H@std@@V<lambda_bf7f2b711a6b55b30dfb35db79500e56>@@$00@std@@QEAA@U_One_then_variadic_args_t@1@AEBV?$allocator@H@1@$$QEAV<lambda_bf7f2b711a6b55b30dfb35db79500e56>@@@Z 0000000180003dc0 f i _nodert_generated.obj
 0001:00002dd0       ??$?0PE$AAU?$IAsyncOperation@PE$AAU?$IVectorView@PE$AAVRadio@Radios@Devices@Windows@@@Collections@Foundation@Windows@@@Foundation@Windows@@@?$task@PE$AAU?$IVectorView@PE$AAVRadio@Radios@Devices@Windows@@@Collections@Foundation@Windows@@@Concurrency@@QEAA@PE$AAU?$IAsyncOperation@PE$AAU?$IVectorView@PE$AAVRadio@Radios@Devices@Windows@@@Collections@Foundation@Windows@@@Foundation@Windows@@AEBVtask_options@1@@Z 0000000180003dd0 f i _nodert_generated.obj
 0001:00002fe0       ??$?0PE$AAU?$IAsyncOperation@PE$AAVRadio@Radios@Devices@Windows@@@Foundation@Windows@@@?$task@PE$AAVRadio@Radios@Devices@Windows@@@Concurrency@@QEAA@PE$AAU?$IAsyncOperation@PE$AAVRadio@Radios@Devices@Windows@@@Foundation@Windows@@AEBVtask_options@1@@Z 0000000180003fe0 f i _nodert_generated.obj
 0001:000031f0       ??$?0PE$AAU?$IAsyncOperation@W4RadioAccessStatus@Radios@Devices@Windows@@@Foundation@Windows@@@?$task@W4RadioAccessStatus@Radios@Devices@Windows@@@Concurrency@@QEAA@PE$AAU?$IAsyncOperation@W4RadioAccessStatus@Radios@Devices@Windows@@@Foundation@Windows@@AEBVtask_options@1@@Z 00000001800041f0 f i _nodert_generated.obj
 0001:00003400       ??$?0V<lambda_1410bf25c1f3e34acba1e87129c0b837>@@XX@?$function@$$A6AXV?$function@$$A6AXHPEAV?$Local@VValue@v8@@@v8@@@Z@std@@@Z@std@@QEAA@V<lambda_1410bf25c1f3e34acba1e87129c0b837>@@@Z 0000000180004400 f i _nodert_generated.obj
 0001:000034a0       ??$?0V<lambda_332ba2b9435369ab76e287351a81320b>@@XX@?$function@$$A6AXV?$function@$$A6AXHPEAV?$Local@VValue@v8@@@v8@@@Z@std@@@Z@std@@QEAA@V<lambda_332ba2b9435369ab76e287351a81320b>@@@Z 00000001800044a0 f i _nodert_generated.obj
 0001:00003540       ??$?0V<lambda_4826e3b284b53b5a99fdf233406a9e9a>@@@?$AsyncOperationCompletedHandler@PE$AAVRadio@Radios@Devices@Windows@@@Foundation@Windows@@QE$AAA@V<lambda_4826e3b284b53b5a99fdf233406a9e9a>@@W4CallbackContext@Platform@@_N@Z 0000000180004540 f i _nodert_generated.obj
 0001:000036a0       ??$?0V<lambda_6e721a9cc44c44771ffaa71ba9f88df1>@@XX@?$function@$$A6AXV?$function@$$A6AXHPEAV?$Local@VValue@v8@@@v8@@@Z@std@@@Z@std@@QEAA@V<lambda_6e721a9cc44c44771ffaa71ba9f88df1>@@@Z 00000001800046a0 f i _nodert_generated.obj
 0001:00003740       ??$?0V<lambda_74b109aa04c410395ed1b84aaba96129>@@@?$AsyncOperationCompletedHandler@PE$AAU?$IVectorView@PE$AAVRadio@Radios@Devices@Windows@@@Collections@Foundation@Windows@@@Foundation@Windows@@QE$AAA@V<lambda_74b109aa04c410395ed1b84aaba96129>@@W4CallbackContext@Platform@@_N@Z 0000000180004740 f i _nodert_generated.obj
 0001:000038a0       ??$?0V<lambda_76b0dc5acfdd88e398543629657656f2>@@@?$AsyncOperationCompletedHandler@W4RadioAccessStatus@Radios@Devices@Windows@@@Foundation@Windows@@QE$AAA@V<lambda_76b0dc5acfdd88e398543629657656f2>@@W4CallbackContext@Platform@@_N@Z 00000001800048a0 f i _nodert_generated.obj
 0001:00003a00       ??$?0V<lambda_923cdb2d6b6e10951a75b3af8d001269>@@XX@?$function@$$A6AXV?$function@$$A6AXHPEAV?$Local@VValue@v8@@@v8@@@Z@std@@@Z@std@@QEAA@V<lambda_923cdb2d6b6e10951a75b3af8d001269>@@@Z 0000000180004a00 f i _nodert_generated.obj
 0001:00003aa0       ??$?0V<lambda_937a019cbae5299c9ee089aacd8953b7>@@XX@?$function@$$A6AXV?$function@$$A6AXHPEAV?$Local@VValue@v8@@@v8@@@Z@std@@@Z@std@@QEAA@V<lambda_937a019cbae5299c9ee089aacd8953b7>@@@Z 0000000180004aa0 f i _nodert_generated.obj
 0001:00003b40       ??$?0V<lambda_be5e2ae45d9afcdad4d6af170ce6b1a9>@@XX@?$function@$$A6AXV?$function@$$A6AXHPEAV?$Local@VValue@v8@@@v8@@@Z@std@@@Z@std@@QEAA@V<lambda_be5e2ae45d9afcdad4d6af170ce6b1a9>@@@Z 0000000180004b40 f i _nodert_generated.obj
 0001:00003be0       ??$?0V<lambda_f25c37099038263181b5186a3fa41b37>@@XX@?$function@$$A6AXXZ@std@@QEAA@V<lambda_f25c37099038263181b5186a3fa41b37>@@@Z 0000000180004be0 f i _nodert_generated.obj
 0001:00003ca0       ??$?0V<lambda_fa493edce1d787976b8ef791772f712d>@@@?$TypedEventHandler@PE$AAVRadio@Radios@Devices@Windows@@PE$AAVObject@Platform@@@Foundation@Windows@@QE$AAA@V<lambda_fa493edce1d787976b8ef791772f712d>@@W4CallbackContext@Platform@@_N@Z 0000000180004ca0 f i _nodert_generated.obj
 0001:00003e00       ??$?4AEAV?$function@$$A6AXXZ@std@@XX@?$function@$$A6AXXZ@std@@QEAAAEAV01@AEAV01@@Z 0000000180004e00 f i _nodert_generated.obj
 0001:00003eb0       ??$?4V<lambda_34c7f220960deee2386c1fdeeca0be56>@@XX@?$function@$$A6AXXZ@std@@QEAAAEAV01@$$QEAV<lambda_34c7f220960deee2386c1fdeeca0be56>@@@Z 0000000180004eb0 f i _nodert_generated.obj
 0001:00003fb0       ??$?4V<lambda_367e91ba48007cd85cfc48a94120f671>@@XX@?$function@$$A6AXXZ@std@@QEAAAEAV01@$$QEAV<lambda_367e91ba48007cd85cfc48a94120f671>@@@Z 0000000180004fb0 f i _nodert_generated.obj
 0001:000040b0       ??$?4V<lambda_e648a951913df07dc2c48aa4b13c28ad>@@XX@?$function@$$A6AXXZ@std@@QEAAAEAV01@$$QEAV<lambda_e648a951913df07dc2c48aa4b13c28ad>@@@Z 00000001800050b0 f i _nodert_generated.obj
 0001:000041b0       ??$?8UIUnknown@@@WRL@Microsoft@@YA_NAEBV?$ComPtr@UIUnknown@@@01@$$T@Z 00000001800051b0 f i _nodert_generated.obj
 0001:000041c0       ??$?8U_Task_impl_base@details@Concurrency@@@std@@YA_NAEBV?$shared_ptr@U_Task_impl_base@details@Concurrency@@@0@$$T@Z 00000001800051c0 f i _nodert_generated.obj
 0001:000041d0       ??$?9U_Task_impl_base@details@Concurrency@@@std@@YA_NAEBV?$shared_ptr@U_Task_impl_base@details@Concurrency@@@0@$$T@Z 00000001800051d0 f i _nodert_generated.obj
 0001:000041e0       ??$IsWinRtWrapperOf@PE$AAU?$IIterator@PE$AAVRadio@Radios@Devices@Windows@@@Collections@Foundation@Windows@@@Utils@NodeRT@@YA_NV?$Local@VValue@v8@@@v8@@@Z 00000001800051e0 f i _nodert_generated.obj
 0001:00004350       ??$IsWinRtWrapperOf@PE$AAU?$IVectorView@PE$AAVRadio@Radios@Devices@Windows@@@Collections@Foundation@Windows@@@Utils@NodeRT@@YA_NV?$Local@VValue@v8@@@v8@@@Z 0000000180005350 f i _nodert_generated.obj
 0001:000044c0       ??$IsWinRtWrapperOf@PE$AAVRadio@Radios@Devices@Windows@@@Utils@NodeRT@@YA_NV?$Local@VValue@v8@@@v8@@@Z 00000001800054c0 f i _nodert_generated.obj
 0001:00004630       ??$New@VBoolean@v8@@_N@Nan@@YA?AV?$Local@VBoolean@v8@@@v8@@_N@Z 0000000180005630 f i _nodert_generated.obj
 0001:00004690       ??$New@VExternal@v8@@PEAX@Nan@@YA?AV?$Local@VExternal@v8@@@v8@@PEAX@Z 0000000180005690 f i _nodert_generated.obj
 0001:000046d0       ??$New@VFunctionTemplate@v8@@@Nan@@YA?AV?$Local@VFunctionTemplate@v8@@@v8@@P6AXAEBV?$FunctionCallbackInfo@VValue@v8@@@0@@ZV?$Local@VValue@v8@@@2@@Z 00000001800056d0 f i _nodert_generated.obj
 0001:000046f0       ??$New@VFunctionTemplate@v8@@V?$Local@VSignature@v8@@@2@@Nan@@YA?AV?$Local@VFunctionTemplate@v8@@@v8@@P6AXAEBV?$FunctionCallbackInfo@VValue@v8@@@0@@ZV?$Local@VValue@v8@@@2@V?$Local@VSignature@v8@@@2@@Z 00000001800056f0 f i _nodert_generated.obj
 0001:00004710       ??$New@VInteger@v8@@H@Nan@@YA?AV?$Local@VInteger@v8@@@v8@@H@Z 0000000180005710 f i _nodert_generated.obj
 0001:00004780       ??$New@VInteger@v8@@I@Nan@@YA?AV?$Local@VInteger@v8@@@v8@@I@Z 0000000180005780 f i _nodert_generated.obj
 0001:000047f0       ??$New@VObject@v8@@@Nan@@YA?AV?$Local@VObject@v8@@@v8@@XZ 00000001800057f0 f i _nodert_generated.obj
 0001:00004820       ??$New@VObjectTemplate@v8@@@Nan@@YA?AV?$Local@VObjectTemplate@v8@@@v8@@XZ 0000000180005820 f i _nodert_generated.obj
 0001:00004850       ??$New@VSignature@v8@@V?$Local@VFunctionTemplate@v8@@@2@@Nan@@YA?AV?$Local@VSignature@v8@@@v8@@V?$Local@VFunctionTemplate@v8@@@2@@Z 0000000180005850 f i _nodert_generated.obj
 0001:00004890       ??$New@VString@v8@@PEBD@Nan@@YA?AV?$MaybeLocal@VString@v8@@@v8@@PEBD@Z 0000000180005890 f i _nodert_generated.obj
 0001:000048e0       ??$Reset@VObject@v8@@@?$Persistent@VObject@v8@@V?$NonCopyablePersistentTraits@VObject@v8@@@2@@Nan@@QEAAXAEBV?$Local@VObject@v8@@@v8@@@Z 00000001800058e0 f i _nodert_generated.obj
 0001:00004950       ??$SetMethod@VObject@v8@@VLocal@2@@Nan@@YAXV?$Local@VObject@v8@@@v8@@PEBDP6AXAEBV?$FunctionCallbackInfo@VValue@v8@@@0@@Z@Z 0000000180005950 f i _nodert_generated.obj
 0001:00004a40       ??$SetMethodAux@V?$Local@VObject@v8@@@v8@@@imp@Nan@@YAXV?$Local@VObject@v8@@@v8@@V?$Local@VString@v8@@@3@V?$Local@VFunctionTemplate@v8@@@3@ZZ 0000000180005a40 f i _nodert_generated.obj
 0001:00004ab0       ??$Unwrap@V?$IteratorWrapper@PE$AAVRadio@Radios@Devices@Windows@@@Collections@NodeRT@@@ObjectWrap@Nan@@SAPEAV?$IteratorWrapper@PE$AAVRadio@Radios@Devices@Windows@@@Collections@NodeRT@@V?$Local@VObject@v8@@@v8@@@Z 0000000180005ab0 f i _nodert_generated.obj
 0001:00004b60       ??$Unwrap@V?$VectorViewWrapper@PE$AAVRadio@Radios@Devices@Windows@@@Collections@NodeRT@@@ObjectWrap@Nan@@SAPEAV?$VectorViewWrapper@PE$AAVRadio@Radios@Devices@Windows@@@Collections@NodeRT@@V?$Local@VObject@v8@@@v8@@@Z 0000000180005b60 f i _nodert_generated.obj
 0001:00004c10       ??$Unwrap@VOpaqueWrapper@NodeRT@@@ObjectWrap@Nan@@SAPEAVOpaqueWrapper@NodeRT@@V?$Local@VObject@v8@@@v8@@@Z 0000000180005c10 f i _nodert_generated.obj
 0001:00004cc0       ??$Unwrap@VRadio@Radios@Devices@Windows@NodeRT@@@ObjectWrap@Nan@@SAPEAVRadio@Radios@Devices@Windows@NodeRT@@V?$Local@VObject@v8@@@v8@@@Z 0000000180005cc0 f i _nodert_generated.obj
 0001:00004d70       ??$Unwrap@VWrapperBase@NodeRT@@@ObjectWrap@Nan@@SAPEAVWrapperBase@NodeRT@@V?$Local@VObject@v8@@@v8@@@Z 0000000180005d70 f i _nodert_generated.obj
 0001:00004e20       ??$_AsyncInit@PE$AAU?$IVectorView@PE$AAVRadio@Radios@Devices@Windows@@@Collections@Foundation@Windows@@PE$AAU1234@@_Task_impl_base@details@Concurrency@@SAXAEBV?$shared_ptr@U?$_Task_impl@PE$AAU?$IVectorView@PE$AAVRadio@Radios@Devices@Windows@@@Collections@Foundation@Windows@@@details@Concurrency@@@std@@PE$AAU?$IAsyncOperation@PE$AAU?$IVectorView@PE$AAVRadio@Radios@Devices@Windows@@@Collections@Foundation@Windows@@@Foundation@Windows@@@Z 0000000180005e20 f i _nodert_generated.obj
 0001:00004f10       ??$_AsyncInit@PE$AAVRadio@Radios@Devices@Windows@@PE$AAV1234@@_Task_impl_base@details@Concurrency@@SAXAEBV?$shared_ptr@U?$_Task_impl@PE$AAVRadio@Radios@Devices@Windows@@@details@Concurrency@@@std@@PE$AAU?$IAsyncOperation@PE$AAVRadio@Radios@Devices@Windows@@@Foundation@Windows@@@Z 0000000180005f10 f i _nodert_generated.obj
 0001:00005000       ??$_AsyncInit@W4RadioAccessStatus@Radios@Devices@Windows@@W41234@@_Task_impl_base@details@Concurrency@@SAXAEBV?$shared_ptr@U?$_Task_impl@W4RadioAccessStatus@Radios@Devices@Windows@@@details@Concurrency@@@std@@PE$AAU?$IAsyncOperation@W4RadioAccessStatus@Radios@Devices@Windows@@@Foundation@Windows@@@Z 0000000180006000 f i _nodert_generated.obj
 0001:000050f0       ??$_Clone@X@?$_Func_impl@V<lambda_199453e3251722af17cbed06cee0aa25>@@V?$allocator@H@std@@EV?$task@W4RadioAccessStatus@Radios@Devices@Windows@@@Concurrency@@@std@@AEBAPEAV?$_Func_base@EV?$task@W4RadioAccessStatus@Radios@Devices@Windows@@@Concurrency@@@1@PEAXU?$integral_constant@_N$00@1@@Z 00000001800060f0 f i _nodert_generated.obj
 0001:000051a0       ??$_Clone@X@?$_Func_impl@V<lambda_73163a669fe347e5c4e2d28c36c6f8ca>@@V?$allocator@H@std@@EV?$task@PE$AAVRadio@Radios@Devices@Windows@@@Concurrency@@@std@@AEBAPEAV?$_Func_base@EV?$task@PE$AAVRadio@Radios@Devices@Windows@@@Concurrency@@@1@PEAXU?$integral_constant@_N$00@1@@Z 00000001800061a0 f i _nodert_generated.obj
 0001:00005250       ??$_Clone@X@?$_Func_impl@V<lambda_83ab8abb741bf007d1b5942dba04bfdd>@@V?$allocator@H@std@@EV?$task@PE$AAU?$IVectorView@PE$AAVRadio@Radios@Devices@Windows@@@Collections@Foundation@Windows@@@Concurrency@@@std@@AEBAPEAV?$_Func_base@EV?$task@PE$AAU?$IVectorView@PE$AAVRadio@Radios@Devices@Windows@@@Collections@Foundation@Windows@@@Concurrency@@@1@PEAXU?$integral_constant@_N$00@1@@Z 0000000180006250 f i _nodert_generated.obj
 0001:00005300       ??$_Copy_unchecked@PEAPEAXPEAPEAX@std@@YAPEAPEAXPEAPEAX00@Z 0000000180006300 f i _nodert_generated.obj
 0001:00005340       ??$_Invoke_ret@PE$AAVRadio@Radios@Devices@Windows@@AEAV<lambda_c806722195bf1298f17615890da7d503>@@V?$Local@VValue@v8@@@v8@@@std@@YAPE$AAVRadio@Radios@Devices@Windows@@U?$_Forced@PE$AAVRadio@Radios@Devices@Windows@@$0A@@0@AEAV<lambda_c806722195bf1298f17615890da7d503>@@$$QEAV?$Local@VValue@v8@@@v8@@@Z 0000000180006340 f i _nodert_generated.obj
 0001:000053e0       ??$_MakeTToUnitFunc@V?$task@PE$AAU?$IVectorView@PE$AAVRadio@Radios@Devices@Windows@@@Collections@Foundation@Windows@@@Concurrency@@@details@Concurrency@@YA?AV?$function@$$A6AEV?$task@PE$AAU?$IVectorView@PE$AAVRadio@Radios@Devices@Windows@@@Collections@Foundation@Windows@@@Concurrency@@@Z@std@@AEBV?$function@$$A6AXV?$task@PE$AAU?$IVectorView@PE$AAVRadio@Radios@Devices@Windows@@@Collections@Foundation@Windows@@@Concurrency@@@Z@3@@Z 00000001800063e0 f i _nodert_generated.obj
 0001:00005490       ??$_MakeTToUnitFunc@V?$task@PE$AAVRadio@Radios@Devices@Windows@@@Concurrency@@@details@Concurrency@@YA?AV?$function@$$A6AEV?$task@PE$AAVRadio@Radios@Devices@Windows@@@Concurrency@@@Z@std@@AEBV?$function@$$A6AXV?$task@PE$AAVRadio@Radios@Devices@Windows@@@Concurrency@@@Z@3@@Z 0000000180006490 f i _nodert_generated.obj
 0001:00005540       ??$_MakeTToUnitFunc@V?$task@W4RadioAccessStatus@Radios@Devices@Windows@@@Concurrency@@@details@Concurrency@@YA?AV?$function@$$A6AEV?$task@W4RadioAccessStatus@Radios@Devices@Windows@@@Concurrency@@@Z@std@@AEBV?$function@$$A6AXV?$task@W4RadioAccessStatus@Radios@Devices@Windows@@@Concurrency@@@Z@3@@Z 0000000180006540 f i _nodert_generated.obj
 0001:000055f0       ??$_Reset@V<lambda_199453e3251722af17cbed06cee0aa25>@@@?$_Func_class@EV?$task@W4RadioAccessStatus@Radios@Devices@Windows@@@Concurrency@@@std@@IEAAX$$QEAV<lambda_199453e3251722af17cbed06cee0aa25>@@@Z 00000001800065f0 f i _nodert_generated.obj
 0001:000056a0       ??$_Reset@V<lambda_73163a669fe347e5c4e2d28c36c6f8ca>@@@?$_Func_class@EV?$task@PE$AAVRadio@Radios@Devices@Windows@@@Concurrency@@@std@@IEAAX$$QEAV<lambda_73163a669fe347e5c4e2d28c36c6f8ca>@@@Z 00000001800066a0 f i _nodert_generated.obj
 0001:00005750       ??$_Reset@V<lambda_83ab8abb741bf007d1b5942dba04bfdd>@@@?$_Func_class@EV?$task@PE$AAU?$IVectorView@PE$AAVRadio@Radios@Devices@Windows@@@Collections@Foundation@Windows@@@Concurrency@@@std@@IEAAX$$QEAV<lambda_83ab8abb741bf007d1b5942dba04bfdd>@@@Z 0000000180006750 f i _nodert_generated.obj
 0001:00005800       ??$_ThenImpl@PE$AAU?$IVectorView@PE$AAVRadio@Radios@Devices@Windows@@@Collections@Foundation@Windows@@V?$function@$$A6AXV?$task@PE$AAU?$IVectorView@PE$AAVRadio@Radios@Devices@Windows@@@Collections@Foundation@Windows@@@Concurrency@@@Z@std@@@?$task@PE$AAU?$IVectorView@PE$AAVRadio@Radios@Devices@Windows@@@Collections@Foundation@Windows@@@Concurrency@@AEBA?AV?$task@X@1@AEBV?$function@$$A6AXV?$task@PE$AAU?$IVectorView@PE$AAVRadio@Radios@Devices@Windows@@@Collections@Foundation@Windows@@@Concurrency@@@Z@std@@AEAU_ThenImplOptions@details@1@@Z 0000000180006800 f i _nodert_generated.obj
 0001:00005970       ??$_ThenImpl@PE$AAVRadio@Radios@Devices@Windows@@V?$function@$$A6AXV?$task@PE$AAVRadio@Radios@Devices@Windows@@@Concurrency@@@Z@std@@@?$task@PE$AAVRadio@Radios@Devices@Windows@@@Concurrency@@AEBA?AV?$task@X@1@AEBV?$function@$$A6AXV?$task@PE$AAVRadio@Radios@Devices@Windows@@@Concurrency@@@Z@std@@AEAU_ThenImplOptions@details@1@@Z 0000000180006970 f i _nodert_generated.obj
 0001:00005ae0       ??$_ThenImpl@W4RadioAccessStatus@Radios@Devices@Windows@@V?$function@$$A6AXV?$task@W4RadioAccessStatus@Radios@Devices@Windows@@@Concurrency@@@Z@std@@@?$task@W4RadioAccessStatus@Radios@Devices@Windows@@@Concurrency@@AEBA?AV?$task@X@1@AEBV?$function@$$A6AXV?$task@W4RadioAccessStatus@Radios@Devices@Windows@@@Concurrency@@@Z@std@@AEAU_ThenImplOptions@details@1@@Z 0000000180006ae0 f i _nodert_generated.obj
 0001:00005c50       ??$_ValidateTaskConstructorArgs@PE$AAU?$IVectorView@PE$AAVRadio@Radios@Devices@Windows@@@Collections@Foundation@Windows@@PE$AAU?$IAsyncOperation@PE$AAU?$IVectorView@PE$AAVRadio@Radios@Devices@Windows@@@Collections@Foundation@Windows@@@34@@details@Concurrency@@YAXAEBQE$AAU?$IAsyncOperation@PE$AAU?$IVectorView@PE$AAVRadio@Radios@Devices@Windows@@@Collections@Foundation@Windows@@@Foundation@Windows@@@Z 0000000180006c50 f i _nodert_generated.obj
 0001:00005c60       ??$_ValidateTaskConstructorArgs@PE$AAVRadio@Radios@Devices@Windows@@PE$AAU?$IAsyncOperation@PE$AAVRadio@Radios@Devices@Windows@@@Foundation@4@@details@Concurrency@@YAXAEBQE$AAU?$IAsyncOperation@PE$AAVRadio@Radios@Devices@Windows@@@Foundation@Windows@@@Z 0000000180006c60 f i _nodert_generated.obj
 0001:00005c70       ??$_ValidateTaskConstructorArgs@W4RadioAccessStatus@Radios@Devices@Windows@@PE$AAU?$IAsyncOperation@W4RadioAccessStatus@Radios@Devices@Windows@@@Foundation@4@@details@Concurrency@@YAXAEBQE$AAU?$IAsyncOperation@W4RadioAccessStatus@Radios@Devices@Windows@@@Foundation@Windows@@@Z 0000000180006c70 f i _nodert_generated.obj
 0001:00005c80       ??$__abi_unbox@_J@@YA_JPE$AAVObject@Platform@@@Z 0000000180006c80 f i _nodert_generated.obj
 0001:00005d10       ??$__abi_winrt_ptrto_delegate_dtor@V?$AsyncOperationCompletedHandler@PE$AAU?$IVectorView@PE$AAVRadio@Radios@Devices@Windows@@@Collections@Foundation@Windows@@@Foundation@Windows@@@@YAXPE$ADV?$AsyncOperationCompletedHandler@PE$AAU?$IVectorView@PE$AAVRadio@Radios@Devices@Windows@@@Collections@Foundation@Windows@@@Foundation@Windows@@@Z 0000000180006d10 f i _nodert_generated.obj
 0001:00005d20       ??$__abi_winrt_ptrto_delegate_dtor@V?$AsyncOperationCompletedHandler@PE$AAVRadio@Radios@Devices@Windows@@@Foundation@Windows@@@@YAXPE$ADV?$AsyncOperationCompletedHandler@PE$AAVRadio@Radios@Devices@Windows@@@Foundation@Windows@@@Z 0000000180006d20 f i _nodert_generated.obj
 0001:00005d30       ??$__abi_winrt_ptrto_delegate_dtor@V?$AsyncOperationCompletedHandler@W4RadioAccessStatus@Radios@Devices@Windows@@@Foundation@Windows@@@@YAXPE$ADV?$AsyncOperationCompletedHandler@W4RadioAccessStatus@Radios@Devices@Windows@@@Foundation@Windows@@@Z 0000000180006d30 f i _nodert_generated.obj
 0001:00005d40       ??$__abi_winrt_ptrto_delegate_dtor@V?$TypedEventHandler@PE$AAVRadio@Radios@Devices@Windows@@PE$AAVObject@Platform@@@Foundation@Windows@@@@YAXPE$ADV?$TypedEventHandler@PE$AAVRadio@Radios@Devices@Windows@@PE$AAVObject@Platform@@@Foundation@Windows@@@Z 0000000180006d40 f i _nodert_generated.obj
 0001:00005d50       ??$atomic_compare_exchange@J@details@Concurrency@@YAJAEAU?$atomic@J@std@@JJ@Z 0000000180006d50 f i _nodert_generated.obj
 0001:00005d70       ??$atomic_exchange@J@details@Concurrency@@YAJAEAU?$atomic@J@std@@J@Z 0000000180006d70 f i _nodert_generated.obj
 0001:00005d80       ??$create_task@PE$AAU?$IAsyncOperation@PE$AAU?$IVectorView@PE$AAVRadio@Radios@Devices@Windows@@@Collections@Foundation@Windows@@@Foundation@Windows@@@Concurrency@@YA?AV?$task@PE$AAU?$IVectorView@PE$AAVRadio@Radios@Devices@Windows@@@Collections@Foundation@Windows@@@0@PE$AAU?$IAsyncOperation@PE$AAU?$IVectorView@PE$AAVRadio@Radios@Devices@Windows@@@Collections@Foundation@Windows@@@Foundation@Windows@@Vtask_options@0@@Z 0000000180006d80 f i _nodert_generated.obj
 0001:00005e50       ??$create_task@PE$AAU?$IAsyncOperation@PE$AAVRadio@Radios@Devices@Windows@@@Foundation@Windows@@@Concurrency@@YA?AV?$task@PE$AAVRadio@Radios@Devices@Windows@@@0@PE$AAU?$IAsyncOperation@PE$AAVRadio@Radios@Devices@Windows@@@Foundation@Windows@@Vtask_options@0@@Z 0000000180006e50 f i _nodert_generated.obj
 0001:00005f20       ??$create_task@PE$AAU?$IAsyncOperation@W4RadioAccessStatus@Radios@Devices@Windows@@@Foundation@Windows@@@Concurrency@@YA?AV?$task@W4RadioAccessStatus@Radios@Devices@Windows@@@0@PE$AAU?$IAsyncOperation@W4RadioAccessStatus@Radios@Devices@Windows@@@Foundation@Windows@@Vtask_options@0@@Z 0000000180006f20 f i _nodert_generated.obj
 0001:00005ff0       ??$make_exception_ptr@PE$AAVException@Platform@@@std@@YA?AVexception_ptr@0@PE$AAVException@Platform@@@Z 0000000180006ff0 f i _nodert_generated.obj
 0001:00006060       ??$make_shared@U?$_Task_impl@E@details@Concurrency@@AEAPEAV_CancellationTokenState@23@AEAUscheduler_ptr@3@@std@@YA?AV?$shared_ptr@U?$_Task_impl@E@details@Concurrency@@@0@AEAPEAV_CancellationTokenState@details@Concurrency@@AEAUscheduler_ptr@4@@Z 0000000180007060 f i _nodert_generated.obj
 0001:00006190       ??$make_shared@U?$_Task_impl@PE$AAU?$IVectorView@PE$AAVRadio@Radios@Devices@Windows@@@Collections@Foundation@Windows@@@details@Concurrency@@AEAPEAV_CancellationTokenState@23@AEAUscheduler_ptr@3@@std@@YA?AV?$shared_ptr@U?$_Task_impl@PE$AAU?$IVectorView@PE$AAVRadio@Radios@Devices@Windows@@@Collections@Foundation@Windows@@@details@Concurrency@@@0@AEAPEAV_CancellationTokenState@details@Concurrency@@AEAUscheduler_ptr@4@@Z 0000000180007190 f i _nodert_generated.obj
 0001:000062c0       ??$make_shared@U?$_Task_impl@PE$AAVRadio@Radios@Devices@Windows@@@details@Concurrency@@AEAPEAV_CancellationTokenState@23@AEAUscheduler_ptr@3@@std@@YA?AV?$shared_ptr@U?$_Task_impl@PE$AAVRadio@Radios@Devices@Windows@@@details@Concurrency@@@0@AEAPEAV_CancellationTokenState@details@Concurrency@@AEAUscheduler_ptr@4@@Z 00000001800072c0 f i _nodert_generated.obj
 0001:000063f0       ??$make_shared@U?$_Task_impl@W4RadioAccessStatus@Radios@Devices@Windows@@@details@Concurrency@@AEAPEAV_CancellationTokenState@23@AEAUscheduler_ptr@3@@std@@YA?AV?$shared_ptr@U?$_Task_impl@W4RadioAccessStatus@Radios@Devices@Windows@@@details@Concurrency@@@0@AEAPEAV_CancellationTokenState@details@Concurrency@@AEAUscheduler_ptr@4@@Z 00000001800073f0 f i _nodert_generated.obj
 0001:00006520       ??$make_shared@U_ExceptionHolder@details@Concurrency@@AEBVexception_ptr@std@@V_TaskCreationCallstack@23@@std@@YA?AV?$shared_ptr@U_ExceptionHolder@details@Concurrency@@@0@AEBVexception_ptr@0@$$QEAV_TaskCreationCallstack@details@Concurrency@@@Z 0000000180007520 f i _nodert_generated.obj
 0001:00006630       ??$swap@PE$AAU?$IVectorView@PE$AAVRadio@Radios@Devices@Windows@@@Collections@Foundation@Windows@@X@std@@YAXAEAPE$AAU?$IVectorView@PE$AAVRadio@Radios@Devices@Windows@@@Collections@Foundation@Windows@@0@Z 0000000180007630 f i _nodert_generated.obj
 0001:00006710       ??$then@V<lambda_6b3d546cb33cb2be9b0a401ff7fba40f>@@@?$task@PE$AAU?$IVectorView@PE$AAVRadio@Radios@Devices@Windows@@@Collections@Foundation@Windows@@@Concurrency@@QEBA?AV?$task@X@1@AEBV<lambda_6b3d546cb33cb2be9b0a401ff7fba40f>@@@Z 0000000180007710 f i _nodert_generated.obj
 0001:00006a10       ??$then@V<lambda_84fe49f24ae8de4bd96cfe7e2e397527>@@@?$task@W4RadioAccessStatus@Radios@Devices@Windows@@@Concurrency@@QEBA?AV?$task@X@1@AEBV<lambda_84fe49f24ae8de4bd96cfe7e2e397527>@@@Z 0000000180007a10 f i _nodert_generated.obj
 0001:00006d10       ??$then@V<lambda_ae69dad4f0eec31d1194edef18f14e48>@@@?$task@PE$AAVRadio@Radios@Devices@Windows@@@Concurrency@@QEBA?AV?$task@X@1@AEBV<lambda_ae69dad4f0eec31d1194edef18f14e48>@@@Z 0000000180007d10 f i _nodert_generated.obj
 0001:00007010       ??$then@V<lambda_f62ce569bcbb190725394d954e43b37a>@@@?$task@W4RadioAccessStatus@Radios@Devices@Windows@@@Concurrency@@QEBA?AV?$task@X@1@AEBV<lambda_f62ce569bcbb190725394d954e43b37a>@@@Z 0000000180008010 f i _nodert_generated.obj
 0001:000074f0       ??0?$IteratorWrapper@PE$AAVRadio@Radios@Devices@Windows@@@Collections@NodeRT@@AEAA@PE$AAU?$IIterator@PE$AAVRadio@Radios@Devices@Windows@@@1Foundation@Windows@@AEBV?$function@$$A6A?AV?$Local@VValue@v8@@@v8@@PE$AAVRadio@Radios@Devices@Windows@@@Z@std@@@Z 00000001800084f0 f i _nodert_generated.obj
 0001:000075a0       ??0?$Local@VValue@v8@@@v8@@QEAA@XZ 00000001800085a0 f i _nodert_generated.obj
 0001:000075b0       ??0?$VectorViewWrapper@PE$AAVRadio@Radios@Devices@Windows@@@Collections@NodeRT@@AEAA@PE$AAU?$IVectorView@PE$AAVRadio@Radios@Devices@Windows@@@1Foundation@Windows@@AEBV?$function@$$A6A?AV?$Local@VValue@v8@@@v8@@PE$AAVRadio@Radios@Devices@Windows@@@Z@std@@AEBV?$function@$$A6A_NV?$Local@VValue@v8@@@v8@@@Z@7@AEBV?$function@$$A6APE$AAVRadio@Radios@Devices@Windows@@V?$Local@VValue@v8@@@v8@@@Z@7@@Z 00000001800085b0 f i _nodert_generated.obj
 0001:000076c0       ??0?$_CancellationTokenCallback@V<lambda_be3e5d9dce35d2c8dbfa8485373731d5>@@@details@Concurrency@@QEAA@AEBV<lambda_be3e5d9dce35d2c8dbfa8485373731d5>@@@Z 00000001800086c0 f i _nodert_generated.obj
 0001:000077c0       ??0?$_ContinuationTaskHandle@PE$AAU?$IVectorView@PE$AAVRadio@Radios@Devices@Windows@@@Collections@Foundation@Windows@@XV?$function@$$A6AXV?$task@PE$AAU?$IVectorView@PE$AAVRadio@Radios@Devices@Windows@@@Collections@Foundation@Windows@@@Concurrency@@@Z@std@@U?$integral_constant@_N$00@6@U_TypeSelectorNoAsync@details@Concurrency@@@?$task@PE$AAU?$IVectorView@PE$AAVRadio@Radios@Devices@Windows@@@Collections@Foundation@Windows@@@Concurrency@@QEAA@AEBV?$shared_ptr@U?$_Task_impl@PE$AAU?$IVectorView@PE$AAVRadio@Radios@Devices@Windows@@@Collections@Foundation@Windows@@@details@Concurrency@@@std@@AEBV?$shared_ptr@U?$_Task_impl@E@details@Concurrency@@@4@AEBV?$function@$$A6AXV?$task@PE$AAU?$IVectorView@PE$AAVRadio@Radios@Devices@Windows@@@Collections@Foundation@Windows@@@Concurrency@@@Z@4@AEBVtask_continuation_context@2@W4_TaskInliningMode@details@2@@Z 00000001800087c0 f i _nodert_generated.obj
 0001:00007900       ??0?$_ContinuationTaskHandle@PE$AAVRadio@Radios@Devices@Windows@@XV?$function@$$A6AXV?$task@PE$AAVRadio@Radios@Devices@Windows@@@Concurrency@@@Z@std@@U?$integral_constant@_N$00@6@U_TypeSelectorNoAsync@details@Concurrency@@@?$task@PE$AAVRadio@Radios@Devices@Windows@@@Concurrency@@QEAA@AEBV?$shared_ptr@U?$_Task_impl@PE$AAVRadio@Radios@Devices@Windows@@@details@Concurrency@@@std@@AEBV?$shared_ptr@U?$_Task_impl@E@details@Concurrency@@@4@AEBV?$function@$$A6AXV?$task@PE$AAVRadio@Radios@Devices@Windows@@@Concurrency@@@Z@4@AEBVtask_continuation_context@2@W4_TaskInliningMode@details@2@@Z 0000000180008900 f i _nodert_generated.obj
 0001:00007a40       ??0?$_ContinuationTaskHandle@W4RadioAccessStatus@Radios@Devices@Windows@@XV?$function@$$A6AXV?$task@W4RadioAccessStatus@Radios@Devices@Windows@@@Concurrency@@@Z@std@@U?$integral_constant@_N$00@6@U_TypeSelectorNoAsync@details@Concurrency@@@?$task@W4RadioAccessStatus@Radios@Devices@Windows@@@Concurrency@@QEAA@AEBV?$shared_ptr@U?$_Task_impl@W4RadioAccessStatus@Radios@Devices@Windows@@@details@Concurrency@@@std@@AEBV?$shared_ptr@U?$_Task_impl@E@details@Concurrency@@@4@AEBV?$function@$$A6AXV?$task@W4RadioAccessStatus@Radios@Devices@Windows@@@Concurrency@@@Z@4@AEBVtask_continuation_context@2@W4_TaskInliningMode@details@2@@Z 0000000180008a40 f i _nodert_generated.obj
 0001:00007b80       ??0?$_PPLTaskHandle@EU?$_ContinuationTaskHandle@PE$AAU?$IVectorView@PE$AAVRadio@Radios@Devices@Windows@@@Collections@Foundation@Windows@@XV?$function@$$A6AXV?$task@PE$AAU?$IVectorView@PE$AAVRadio@Radios@Devices@Windows@@@Collections@Foundation@Windows@@@Concurrency@@@Z@std@@U?$integral_constant@_N$00@6@U_TypeSelectorNoAsync@details@Concurrency@@@?$task@PE$AAU?$IVectorView@PE$AAVRadio@Radios@Devices@Windows@@@Collections@Foundation@Windows@@@Concurrency@@U_ContinuationTaskHandleBase@details@3@@details@Concurrency@@QEAA@AEBV?$shared_ptr@U?$_Task_impl@E@details@Concurrency@@@std@@@Z 0000000180008b80 f i _nodert_generated.obj
 0001:00007c30       ??0?$_PPLTaskHandle@EU?$_ContinuationTaskHandle@PE$AAVRadio@Radios@Devices@Windows@@XV?$function@$$A6AXV?$task@PE$AAVRadio@Radios@Devices@Windows@@@Concurrency@@@Z@std@@U?$integral_constant@_N$00@6@U_TypeSelectorNoAsync@details@Concurrency@@@?$task@PE$AAVRadio@Radios@Devices@Windows@@@Concurrency@@U_ContinuationTaskHandleBase@details@3@@details@Concurrency@@QEAA@AEBV?$shared_ptr@U?$_Task_impl@E@details@Concurrency@@@std@@@Z 0000000180008c30 f i _nodert_generated.obj
 0001:00007ce0       ??0?$_PPLTaskHandle@EU?$_ContinuationTaskHandle@W4RadioAccessStatus@Radios@Devices@Windows@@XV?$function@$$A6AXV?$task@W4RadioAccessStatus@Radios@Devices@Windows@@@Concurrency@@@Z@std@@U?$integral_constant@_N$00@6@U_TypeSelectorNoAsync@details@Concurrency@@@?$task@W4RadioAccessStatus@Radios@Devices@Windows@@@Concurrency@@U_ContinuationTaskHandleBase@details@3@@details@Concurrency@@QEAA@AEBV?$shared_ptr@U?$_Task_impl@E@details@Concurrency@@@std@@@Z 0000000180008ce0 f i _nodert_generated.obj
 0001:00007d90       ??0?$_Task_impl@E@details@Concurrency@@QEAA@PEAV_CancellationTokenState@12@Uscheduler_ptr@2@@Z 0000000180008d90 f i _nodert_generated.obj
 0001:00007e80       ??0?$_Task_impl@PE$AAU?$IVectorView@PE$AAVRadio@Radios@Devices@Windows@@@Collections@Foundation@Windows@@@details@Concurrency@@QEAA@PEAV_CancellationTokenState@12@Uscheduler_ptr@2@@Z 0000000180008e80 f i _nodert_generated.obj
 0001:00007fa0       ??0?$_Task_impl@PE$AAVRadio@Radios@Devices@Windows@@@details@Concurrency@@QEAA@PEAV_CancellationTokenState@12@Uscheduler_ptr@2@@Z 0000000180008fa0 f i _nodert_generated.obj
 0001:000080a0       ??0?$_Task_impl@W4RadioAccessStatus@Radios@Devices@Windows@@@details@Concurrency@@QEAA@PEAV_CancellationTokenState@12@Uscheduler_ptr@2@@Z 00000001800090a0 f i _nodert_generated.obj
 0001:00008190       ??0?$__abi_FunctorCapture@V<lambda_4826e3b284b53b5a99fdf233406a9e9a>@@XPE$AAU?$IAsyncOperation@PE$AAVRadio@Radios@Devices@Windows@@@Foundation@Windows@@W4AsyncStatus@34@@Details@Platform@@QEAA@V<lambda_4826e3b284b53b5a99fdf233406a9e9a>@@@Z 0000000180009190 f i _nodert_generated.obj
 0001:00008250       ??0?$__abi_FunctorCapture@V<lambda_74b109aa04c410395ed1b84aaba96129>@@XPE$AAU?$IAsyncOperation@PE$AAU?$IVectorView@PE$AAVRadio@Radios@Devices@Windows@@@Collections@Foundation@Windows@@@Foundation@Windows@@W4AsyncStatus@34@@Details@Platform@@QEAA@V<lambda_74b109aa04c410395ed1b84aaba96129>@@@Z 0000000180009250 f i _nodert_generated.obj
 0001:00008310       ??0?$__abi_FunctorCapture@V<lambda_76b0dc5acfdd88e398543629657656f2>@@XPE$AAU?$IAsyncOperation@W4RadioAccessStatus@Radios@Devices@Windows@@@Foundation@Windows@@W4AsyncStatus@34@@Details@Platform@@QEAA@V<lambda_76b0dc5acfdd88e398543629657656f2>@@@Z 0000000180009310 f i _nodert_generated.obj
 0001:000083d0       ??0?$__abi_FunctorCapture@V<lambda_fa493edce1d787976b8ef791772f712d>@@XPE$AAVRadio@Radios@Devices@Windows@@PE$AAVObject@Platform@@@Details@Platform@@QEAA@V<lambda_fa493edce1d787976b8ef791772f712d>@@@Z 00000001800093d0 f i _nodert_generated.obj
 0001:00008490       ??0?$function@$$A6AXHPEAV?$Local@VValue@v8@@@v8@@@Z@std@@QEAA@$$QEAV01@@Z 0000000180009490 f i _nodert_generated.obj
 0001:00008530       ??0?$function@$$A6AXV?$function@$$A6AXHPEAV?$Local@VValue@v8@@@v8@@@Z@std@@@Z@std@@QEAA@$$QEAV01@@Z 0000000180009530 f i _nodert_generated.obj
 0001:000085d0       ??0?$vector@PEAXV?$allocator@PEAX@std@@@std@@QEAA@AEBV01@@Z 00000001800095d0 f i _nodert_generated.obj
 0001:000086b0       ??0Radio@Radios@Devices@Windows@NodeRT@@AEAA@PE$AAV0123@@Z 00000001800096b0 f i _nodert_generated.obj
 0001:00008740       ??0String@Platform@@QE$AAA@PEB_W@Z 0000000180009740 f i _nodert_generated.obj
 0001:000087a0       ??0_TaskCollectionBaseImpl@details@Concurrency@@QEAA@Uscheduler_ptr@2@@Z 00000001800097a0 f i _nodert_generated.obj
 0001:00008890       ??0_Task_impl_base@details@Concurrency@@QEAA@PEAV_CancellationTokenState@12@Uscheduler_ptr@2@@Z 0000000180009890 f i _nodert_generated.obj
 0001:000089f0       ??0_ThenImplOptions@details@Concurrency@@QEAA@PEAV_CancellationTokenState@12@PEBVtask_continuation_context@2@Uscheduler_ptr@2@V_TaskCreationCallstack@12@W4_TaskInliningMode@12@@Z 00000001800099f0 f i _nodert_generated.obj
 0001:00008b30       ??0scheduler_ptr@Concurrency@@QEAA@V?$shared_ptr@Uscheduler_interface@Concurrency@@@std@@@Z 0000000180009b30 f i _nodert_generated.obj
 0001:00008be0       ??0task_options@Concurrency@@QEAA@XZ 0000000180009be0 f i _nodert_generated.obj
 0001:00009130       ??1?$ComPtr@UIAgileObject@@@WRL@Microsoft@@QEAA@XZ 000000018000a130 f i _nodert_generated.obj
 0001:00009150       ??1?$VectorViewWrapper@PE$AAVRadio@Radios@Devices@Windows@@@Collections@NodeRT@@UEAA@XZ 000000018000a150 f i _nodert_generated.obj
 0001:00009220       ??1?$_ContinuationTaskHandle@PE$AAU?$IVectorView@PE$AAVRadio@Radios@Devices@Windows@@@Collections@Foundation@Windows@@XV?$function@$$A6AXV?$task@PE$AAU?$IVectorView@PE$AAVRadio@Radios@Devices@Windows@@@Collections@Foundation@Windows@@@Concurrency@@@Z@std@@U?$integral_constant@_N$00@6@U_TypeSelectorNoAsync@details@Concurrency@@@?$task@PE$AAU?$IVectorView@PE$AAVRadio@Radios@Devices@Windows@@@Collections@Foundation@Windows@@@Concurrency@@UEAA@XZ 000000018000a220 f i _nodert_generated.obj
 0001:000092e0       ??1?$_ContinuationTaskHandle@PE$AAVRadio@Radios@Devices@Windows@@XV?$function@$$A6AXV?$task@PE$AAVRadio@Radios@Devices@Windows@@@Concurrency@@@Z@std@@U?$integral_constant@_N$00@6@U_TypeSelectorNoAsync@details@Concurrency@@@?$task@PE$AAVRadio@Radios@Devices@Windows@@@Concurrency@@UEAA@XZ 000000018000a2e0 f i _nodert_generated.obj
 0001:000093a0       ??1?$_ContinuationTaskHandle@W4RadioAccessStatus@Radios@Devices@Windows@@XV?$function@$$A6AXV?$task@W4RadioAccessStatus@Radios@Devices@Windows@@@Concurrency@@@Z@std@@U?$integral_constant@_N$00@6@U_TypeSelectorNoAsync@details@Concurrency@@@?$task@W4RadioAccessStatus@Radios@Devices@Windows@@@Concurrency@@UEAA@XZ 000000018000a3a0 f i _nodert_generated.obj
 0001:00009460       ??1?$_Func_base@EV?$task@PE$AAU?$IVectorView@PE$AAVRadio@Radios@Devices@Windows@@@Collections@Foundation@Windows@@@Concurrency@@@std@@QEAA@XZ 000000018000a460 f i _nodert_generated.obj
 0001:00009470       ??1?$_Func_base@EV?$task@PE$AAVRadio@Radios@Devices@Windows@@@Concurrency@@@std@@QEAA@XZ 000000018000a470 f i _nodert_generated.obj
 0001:00009480       ??1?$_Func_base@EV?$task@W4RadioAccessStatus@Radios@Devices@Windows@@@Concurrency@@@std@@QEAA@XZ 000000018000a480 f i _nodert_generated.obj
 0001:00009490       ??1?$_Func_base@X$$V@std@@QEAA@XZ 000000018000a490 f i _nodert_generated.obj
 0001:000094a0       ??1?$_Func_class@EV?$task@PE$AAU?$IVectorView@PE$AAVRadio@Radios@Devices@Windows@@@Collections@Foundation@Windows@@@Concurrency@@@std@@QEAA@XZ 000000018000a4a0 f i _nodert_generated.obj
 0001:000094e0       ??1?$_Func_class@EV?$task@PE$AAVRadio@Radios@Devices@Windows@@@Concurrency@@@std@@QEAA@XZ 000000018000a4e0 f i _nodert_generated.obj
 0001:00009520       ??1?$_Func_class@EV?$task@W4RadioAccessStatus@Radios@Devices@Windows@@@Concurrency@@@std@@QEAA@XZ 000000018000a520 f i _nodert_generated.obj
 0001:00009560       ??1?$_Func_class@PE$AAVRadio@Radios@Devices@Windows@@V?$Local@VValue@v8@@@v8@@@std@@QEAA@XZ 000000018000a560 f i _nodert_generated.obj
 0001:000095a0       ??1?$_Func_class@V?$Local@VValue@v8@@@v8@@PE$AAVRadio@Radios@Devices@Windows@@@std@@QEAA@XZ 000000018000a5a0 f i _nodert_generated.obj
 0001:000095e0       ??1?$_Func_class@X$$V@std@@QEAA@XZ 000000018000a5e0 f i _nodert_generated.obj
 0001:00009620       ??1?$_Func_class@XHPEAV?$Local@VValue@v8@@@v8@@@std@@QEAA@XZ 000000018000a620 f i _nodert_generated.obj
 0001:00009660       ??1?$_Func_class@XV?$function@$$A6AXHPEAV?$Local@VValue@v8@@@v8@@@Z@std@@@std@@QEAA@XZ 000000018000a660 f i _nodert_generated.obj
 0001:000096a0       ??1?$_Func_class@XV?$task@PE$AAU?$IVectorView@PE$AAVRadio@Radios@Devices@Windows@@@Collections@Foundation@Windows@@@Concurrency@@@std@@QEAA@XZ 000000018000a6a0 f i _nodert_generated.obj
 0001:000096e0       ??1?$_Func_class@XV?$task@PE$AAVRadio@Radios@Devices@Windows@@@Concurrency@@@std@@QEAA@XZ 000000018000a6e0 f i _nodert_generated.obj
 0001:00009720       ??1?$_Func_class@XV?$task@W4RadioAccessStatus@Radios@Devices@Windows@@@Concurrency@@@std@@QEAA@XZ 000000018000a720 f i _nodert_generated.obj
 0001:00009760       ??1?$_Func_class@_NV?$Local@VValue@v8@@@v8@@@std@@QEAA@XZ 000000018000a760 f i _nodert_generated.obj
 0001:000097a0       ??1?$_Func_impl@V<lambda_f25c37099038263181b5186a3fa41b37>@@V?$allocator@H@std@@X$$V@std@@QEAA@XZ 000000018000a7a0 f i _nodert_generated.obj
 0001:00009860       ??1?$_Func_impl@V<lambda_fc55a96778b695da9907353a9fdacbca>@@V?$allocator@H@std@@X$$V@std@@QEAA@XZ 000000018000a860 f i _nodert_generated.obj
 0001:00009900       ??1?$_PPLTaskHandle@EU?$_ContinuationTaskHandle@PE$AAU?$IVectorView@PE$AAVRadio@Radios@Devices@Windows@@@Collections@Foundation@Windows@@XV?$function@$$A6AXV?$task@PE$AAU?$IVectorView@PE$AAVRadio@Radios@Devices@Windows@@@Collections@Foundation@Windows@@@Concurrency@@@Z@std@@U?$integral_constant@_N$00@6@U_TypeSelectorNoAsync@details@Concurrency@@@?$task@PE$AAU?$IVectorView@PE$AAVRadio@Radios@Devices@Windows@@@Collections@Foundation@Windows@@@Concurrency@@U_ContinuationTaskHandleBase@details@3@@details@Concurrency@@UEAA@XZ 000000018000a900 f i _nodert_generated.obj
 0001:000099d0       ??1?$_PPLTaskHandle@EU?$_ContinuationTaskHandle@PE$AAVRadio@Radios@Devices@Windows@@XV?$function@$$A6AXV?$task@PE$AAVRadio@Radios@Devices@Windows@@@Concurrency@@@Z@std@@U?$integral_constant@_N$00@6@U_TypeSelectorNoAsync@details@Concurrency@@@?$task@PE$AAVRadio@Radios@Devices@Windows@@@Concurrency@@U_ContinuationTaskHandleBase@details@3@@details@Concurrency@@UEAA@XZ 000000018000a9d0 f i _nodert_generated.obj
 0001:00009aa0       ??1?$_PPLTaskHandle@EU?$_ContinuationTaskHandle@W4RadioAccessStatus@Radios@Devices@Windows@@XV?$function@$$A6AXV?$task@W4RadioAccessStatus@Radios@Devices@Windows@@@Concurrency@@@Z@std@@U?$integral_constant@_N$00@6@U_TypeSelectorNoAsync@details@Concurrency@@@?$task@W4RadioAccessStatus@Radios@Devices@Windows@@@Concurrency@@U_ContinuationTaskHandleBase@details@3@@details@Concurrency@@UEAA@XZ 000000018000aaa0 f i _nodert_generated.obj
 0001:00009b70       ??1?$_Task_impl@E@details@Concurrency@@UEAA@XZ 000000018000ab70 f i _nodert_generated.obj
 0001:00009c30       ??1?$_Task_impl@PE$AAU?$IVectorView@PE$AAVRadio@Radios@Devices@Windows@@@Collections@Foundation@Windows@@@details@Concurrency@@UEAA@XZ 000000018000ac30 f i _nodert_generated.obj
 0001:00009d40       ??1?$_Task_impl@PE$AAVRadio@Radios@Devices@Windows@@@details@Concurrency@@UEAA@XZ 000000018000ad40 f i _nodert_generated.obj
 0001:00009e40       ??1?$_Task_impl@W4RadioAccessStatus@Radios@Devices@Windows@@@details@Concurrency@@UEAA@XZ 000000018000ae40 f i _nodert_generated.obj
 0001:00009f00       ??1?$__abi_FunctorCapture@V<lambda_4826e3b284b53b5a99fdf233406a9e9a>@@XPE$AAU?$IAsyncOperation@PE$AAVRadio@Radios@Devices@Windows@@@Foundation@Windows@@W4AsyncStatus@34@@Details@Platform@@UEAA@XZ 000000018000af00 f i _nodert_generated.obj
 0001:00009fa0       ??1?$__abi_FunctorCapture@V<lambda_74b109aa04c410395ed1b84aaba96129>@@XPE$AAU?$IAsyncOperation@PE$AAU?$IVectorView@PE$AAVRadio@Radios@Devices@Windows@@@Collections@Foundation@Windows@@@Foundation@Windows@@W4AsyncStatus@34@@Details@Platform@@UEAA@XZ 000000018000afa0 f i _nodert_generated.obj
 0001:0000a040       ??1?$__abi_FunctorCapture@V<lambda_76b0dc5acfdd88e398543629657656f2>@@XPE$AAU?$IAsyncOperation@W4RadioAccessStatus@Radios@Devices@Windows@@@Foundation@Windows@@W4AsyncStatus@34@@Details@Platform@@UEAA@XZ 000000018000b040 f i _nodert_generated.obj
 0001:0000a0e0       ??1?$__abi_FunctorCapture@V<lambda_fa493edce1d787976b8ef791772f712d>@@XPE$AAVRadio@Radios@Devices@Windows@@PE$AAVObject@Platform@@@Details@Platform@@UEAA@XZ 000000018000b0e0 f i _nodert_generated.obj
 0001:0000a180       ??1?$function@$$A6A?AV?$Local@VValue@v8@@@v8@@PE$AAVRadio@Radios@Devices@Windows@@@Z@std@@QEAA@XZ 000000018000b180 f i _nodert_generated.obj
 0001:0000a1c0       ??1?$function@$$A6AEV?$task@PE$AAU?$IVectorView@PE$AAVRadio@Radios@Devices@Windows@@@Collections@Foundation@Windows@@@Concurrency@@@Z@std@@QEAA@XZ 000000018000b1c0 f i _nodert_generated.obj
 0001:0000a200       ??1?$function@$$A6AEV?$task@PE$AAVRadio@Radios@Devices@Windows@@@Concurrency@@@Z@std@@QEAA@XZ 000000018000b200 f i _nodert_generated.obj
 0001:0000a240       ??1?$function@$$A6AEV?$task@W4RadioAccessStatus@Radios@Devices@Windows@@@Concurrency@@@Z@std@@QEAA@XZ 000000018000b240 f i _nodert_generated.obj
 0001:0000a280       ??1?$function@$$A6APE$AAVRadio@Radios@Devices@Windows@@V?$Local@VValue@v8@@@v8@@@Z@std@@QEAA@XZ 000000018000b280 f i _nodert_generated.obj
 0001:0000a2c0       ??1?$function@$$A6AXHPEAV?$Local@VValue@v8@@@v8@@@Z@std@@QEAA@XZ 000000018000b2c0 f i _nodert_generated.obj
 0001:0000a300       ??1?$function@$$A6AXV?$function@$$A6AXHPEAV?$Local@VValue@v8@@@v8@@@Z@std@@@Z@std@@QEAA@XZ 000000018000b300 f i _nodert_generated.obj
 0001:0000a340       ??1?$function@$$A6AXV?$task@PE$AAU?$IVectorView@PE$AAVRadio@Radios@Devices@Windows@@@Collections@Foundation@Windows@@@Concurrency@@@Z@std@@QEAA@XZ 000000018000b340 f i _nodert_generated.obj
 0001:0000a380       ??1?$function@$$A6AXV?$task@PE$AAVRadio@Radios@Devices@Windows@@@Concurrency@@@Z@std@@QEAA@XZ 000000018000b380 f i _nodert_generated.obj
 0001:0000a3c0       ??1?$function@$$A6AXV?$task@W4RadioAccessStatus@Radios@Devices@Windows@@@Concurrency@@@Z@std@@QEAA@XZ 000000018000b3c0 f i _nodert_generated.obj
 0001:0000a400       ??1?$function@$$A6AXXZ@std@@QEAA@XZ 000000018000b400 f i _nodert_generated.obj
 0001:0000a440       ??1?$function@$$A6A_NV?$Local@VValue@v8@@@v8@@@Z@std@@QEAA@XZ 000000018000b440 f i _nodert_generated.obj
 0001:0000a480       ??1?$lock_guard@Vmutex@std@@@std@@QEAA@XZ 000000018000b480 f i _nodert_generated.obj
 0001:0000a4b0       ??1?$shared_ptr@U?$_Task_impl@E@details@Concurrency@@@std@@QEAA@XZ 000000018000b4b0 f i _nodert_generated.obj
 0001:0000a510       ??1?$shared_ptr@U?$_Task_impl@PE$AAU?$IVectorView@PE$AAVRadio@Radios@Devices@Windows@@@Collections@Foundation@Windows@@@details@Concurrency@@@std@@QEAA@XZ 000000018000b510 f i _nodert_generated.obj
 0001:0000a570       ??1?$shared_ptr@U?$_Task_impl@PE$AAVRadio@Radios@Devices@Windows@@@details@Concurrency@@@std@@QEAA@XZ 000000018000b570 f i _nodert_generated.obj
 0001:0000a5d0       ??1?$shared_ptr@U?$_Task_impl@W4RadioAccessStatus@Radios@Devices@Windows@@@details@Concurrency@@@std@@QEAA@XZ 000000018000b5d0 f i _nodert_generated.obj
 0001:0000a630       ??1?$shared_ptr@U_ExceptionHolder@details@Concurrency@@@std@@QEAA@XZ 000000018000b630 f i _nodert_generated.obj
 0001:0000a690       ??1?$shared_ptr@U_Task_impl_base@details@Concurrency@@@std@@QEAA@XZ 000000018000b690 f i _nodert_generated.obj
 0001:0000a6f0       ??1?$shared_ptr@Uscheduler_interface@Concurrency@@@std@@QEAA@XZ 000000018000b6f0 f i _nodert_generated.obj
 0001:0000a750       ??1?$shared_ptr@V?$Persistent@VObject@v8@@V?$NonCopyablePersistentTraits@VObject@v8@@@2@@Nan@@@std@@QEAA@XZ 000000018000b750 f i _nodert_generated.obj
 0001:0000a7b0       ??1?$task@PE$AAU?$IVectorView@PE$AAVRadio@Radios@Devices@Windows@@@Collections@Foundation@Windows@@@Concurrency@@QEAA@XZ 000000018000b7b0 f i _nodert_generated.obj
 0001:0000a820       ??1?$task@PE$AAVRadio@Radios@Devices@Windows@@@Concurrency@@QEAA@XZ 000000018000b820 f i _nodert_generated.obj
 0001:0000a890       ??1?$task@W4RadioAccessStatus@Radios@Devices@Windows@@@Concurrency@@QEAA@XZ 000000018000b890 f i _nodert_generated.obj
 0001:0000a900       ??1?$task@X@Concurrency@@QEAA@XZ 000000018000b900 f i _nodert_generated.obj
 0001:0000a970       ??1?$unique_lock@Vmutex@std@@@std@@QEAA@XZ 000000018000b970 f i _nodert_generated.obj
 0001:0000a9b0       ??1?$unique_ptr@$$BY0A@V?$Local@VValue@v8@@@v8@@U?$default_delete@$$BY0A@V?$Local@VValue@v8@@@v8@@@std@@@std@@QEAA@XZ 000000018000b9b0 f i _nodert_generated.obj
 0001:0000a9c0       ??1?$unique_ptr@U_TaskProcHandle@details@Concurrency@@U?$default_delete@U_TaskProcHandle@details@Concurrency@@@std@@@std@@QEAA@XZ 000000018000b9c0 f i _nodert_generated.obj
 0001:0000a9e0       ??1?$unique_ptr@V_PPLTaskChore@_DefaultPPLTaskScheduler@details@Concurrency@@U?$default_delete@V_PPLTaskChore@_DefaultPPLTaskScheduler@details@Concurrency@@@std@@@std@@QEAA@XZ 000000018000b9e0 f i _nodert_generated.obj
 0001:0000aa30       ??1?$weak_ptr@U_Task_impl_base@details@Concurrency@@@std@@QEAA@XZ 000000018000ba30 f i _nodert_generated.obj
 0001:0000aa60       ??1AsyncResource@Nan@@QEAA@XZ 000000018000ba60 f i _nodert_generated.obj
 0001:0000aab0       ??1EscapableHandleScope@Nan@@QEAA@XZ 000000018000bab0 f i _nodert_generated.obj
 0001:0000aac0       ??1HandleScope@Nan@@QEAA@XZ 000000018000bac0 f i _nodert_generated.obj
 0001:0000aad0       ??1ObjectWrap@Nan@@UEAA@XZ 000000018000bad0 f i _nodert_generated.obj
 0001:0000ab70       ??1TokenData@Async@NodeUtils@@UEAA@XZ 000000018000bb70 f i _nodert_generated.obj
 0001:0000abf0       ??1TryCatch@Nan@@QEAA@XZ   000000018000bbf0 f i _nodert_generated.obj
 0001:0000ac00       ??1WrapperBase@NodeRT@@UEAA@XZ 000000018000bc00 f i _nodert_generated.obj
 0001:0000ac10       ??1_CancellationTokenRegistration@details@Concurrency@@MEAA@XZ 000000018000bc10 f i _nodert_generated.obj
 0001:0000ac60       ??1_ContextCallback@details@Concurrency@@QEAA@XZ 000000018000bc60 f i _nodert_generated.obj
 0001:0000ac80       ??1_ContinuationTaskHandleBase@details@Concurrency@@UEAA@XZ 000000018000bc80 f i _nodert_generated.obj
 0001:0000acd0       ??1_ExceptionHolder@details@Concurrency@@QEAA@XZ 000000018000bcd0 f i _nodert_generated.obj
 0001:0000ad60       ??1_Holder@_TaskProcThunk@details@Concurrency@@QEAA@XZ 000000018000bd60 f i _nodert_generated.obj
 0001:0000adc0       ??1_Internal_task_options@details@Concurrency@@QEAA@XZ 000000018000bdc0 f i _nodert_generated.obj
 0001:0000ae10       ??1_RefCounter@details@Concurrency@@UEAA@XZ 000000018000be10 f i _nodert_generated.obj
 0001:0000ae20       ??1_Ref_count_base@std@@UEAA@XZ 000000018000be20 f i _nodert_generated.obj
 0001:0000ae30       ??1_TaskCollectionBaseImpl@details@Concurrency@@QEAA@XZ 000000018000be30 f i _nodert_generated.obj
 0001:0000aed0       ??1_TaskCreationCallstack@details@Concurrency@@QEAA@XZ 000000018000bed0 f i _nodert_generated.obj
 0001:0000af20       ??1_TaskProcHandle@details@Concurrency@@UEAA@XZ 000000018000bf20 f i _nodert_generated.obj
 0001:0000af30       ??1_TaskWorkItemRAIILogger@details@Concurrency@@QEAA@XZ 000000018000bf30 f i _nodert_generated.obj
 0001:0000af60       ??1_Task_impl_base@details@Concurrency@@UEAA@XZ 000000018000bf60 f i _nodert_generated.obj
 0001:0000b070       ??1_ThenImplOptions@details@Concurrency@@QEAA@XZ 000000018000c070 f i _nodert_generated.obj
 0001:0000b120       ??1__abi_CaptureBase@Details@Platform@@MEAA@XZ 000000018000c120 f i _nodert_generated.obj
 0001:0000b130       ??1__abi_CapturePtr@Details@Platform@@QEAA@XZ 000000018000c130 f i _nodert_generated.obj
 0001:0000b190       ??1cancellation_token@Concurrency@@QEAA@XZ 000000018000c190 f i _nodert_generated.obj
 0001:0000b1e0       ??1exception@stdext@@UEAA@XZ 000000018000c1e0 f i _nodert_generated.obj
 0001:0000b1f0       ??1exception_ptr@std@@QEAA@XZ 000000018000c1f0 f i _nodert_generated.obj
 0001:0000b200       ??1invalid_operation@Concurrency@@UEAA@XZ 000000018000c200 f i _nodert_generated.obj
 0001:0000b210       ??1mutex@std@@QEAA@XZ      000000018000c210 f i _nodert_generated.obj
 0001:0000b220       ??1runtime_error@std@@UEAA@XZ 000000018000c220 f i _nodert_generated.obj
 0001:0000b230       ??1scheduler_ptr@Concurrency@@QEAA@XZ 000000018000c230 f i _nodert_generated.obj
 0001:0000b2a0       ??1task_canceled@Concurrency@@UEAA@XZ 000000018000c2a0 f i _nodert_generated.obj
 0001:0000b2b0       ??1task_continuation_context@Concurrency@@QEAA@XZ 000000018000c2b0 f i _nodert_generated.obj
 0001:0000b2d0       ??1task_options@Concurrency@@QEAA@XZ 000000018000c2d0 f i _nodert_generated.obj
 0001:0000b3c0       ??3@YAXPEAX0@Z             000000018000c3c0 f i _nodert_generated.obj
 0001:0000b3d0       ??3__abi_CaptureBase@Details@Platform@@SAXPEAX0@Z 000000018000c3d0 f i _nodert_generated.obj
 0001:0000b420       ??4?$Agile@PE$AAU?$IVectorView@PE$AAVRadio@Radios@Devices@Windows@@@Collections@Foundation@Windows@@$00@Platform@@QEAAAEAV01@PE$AAU?$IVectorView@PE$AAVRadio@Radios@Devices@Windows@@@Collections@Foundation@Windows@@@Z 000000018000c420 f i _nodert_generated.obj
 0001:0000b6a0       ??4?$shared_ptr@U?$_Task_impl@E@details@Concurrency@@@std@@QEAAAEAV01@$$QEAV01@@Z 000000018000c6a0 f i _nodert_generated.obj
 0001:0000b750       ??4?$shared_ptr@U?$_Task_impl@PE$AAU?$IVectorView@PE$AAVRadio@Radios@Devices@Windows@@@Collections@Foundation@Windows@@@details@Concurrency@@@std@@QEAAAEAV01@$$QEAV01@@Z 000000018000c750 f i _nodert_generated.obj
 0001:0000b800       ??4?$shared_ptr@U?$_Task_impl@PE$AAU?$IVectorView@PE$AAVRadio@Radios@Devices@Windows@@@Collections@Foundation@Windows@@@details@Concurrency@@@std@@QEAAAEAV01@AEBV01@@Z 000000018000c800 f i _nodert_generated.obj
 0001:0000b8b0       ??4?$shared_ptr@U?$_Task_impl@PE$AAVRadio@Radios@Devices@Windows@@@details@Concurrency@@@std@@QEAAAEAV01@$$QEAV01@@Z 000000018000c8b0 f i _nodert_generated.obj
 0001:0000b960       ??4?$shared_ptr@U?$_Task_impl@PE$AAVRadio@Radios@Devices@Windows@@@details@Concurrency@@@std@@QEAAAEAV01@AEBV01@@Z 000000018000c960 f i _nodert_generated.obj
 0001:0000ba10       ??4?$shared_ptr@U?$_Task_impl@W4RadioAccessStatus@Radios@Devices@Windows@@@details@Concurrency@@@std@@QEAAAEAV01@$$QEAV01@@Z 000000018000ca10 f i _nodert_generated.obj
 0001:0000bac0       ??4?$shared_ptr@U?$_Task_impl@W4RadioAccessStatus@Radios@Devices@Windows@@@details@Concurrency@@@std@@QEAAAEAV01@AEBV01@@Z 000000018000cac0 f i _nodert_generated.obj
 0001:0000bb70       ??4?$shared_ptr@U_ExceptionHolder@details@Concurrency@@@std@@QEAAAEAV01@AEBV01@@Z 000000018000cb70 f i _nodert_generated.obj
 0001:0000bc20       ??4?$vector@PEAXV?$allocator@PEAX@std@@@std@@QEAAAEAV01@AEBV01@@Z 000000018000cc20 f i _nodert_generated.obj
 0001:0000bdb0       ??B?$Box@_J@Platform@@QE$AAA_JXZ 000000018000cdb0 f i _nodert_generated.obj
 0001:0000da50       ??R?$_Func_class@EV?$task@PE$AAU?$IVectorView@PE$AAVRadio@Radios@Devices@Windows@@@Collections@Foundation@Windows@@@Concurrency@@@std@@QEBAEV?$task@PE$AAU?$IVectorView@PE$AAVRadio@Radios@Devices@Windows@@@Collections@Foundation@Windows@@@Concurrency@@@Z 000000018000ea50 f i _nodert_generated.obj
 0001:0000daf0       ??R?$_Func_class@EV?$task@PE$AAVRadio@Radios@Devices@Windows@@@Concurrency@@@std@@QEBAEV?$task@PE$AAVRadio@Radios@Devices@Windows@@@Concurrency@@@Z 000000018000eaf0 f i _nodert_generated.obj
 0001:0000db90       ??R?$_Func_class@EV?$task@W4RadioAccessStatus@Radios@Devices@Windows@@@Concurrency@@@std@@QEBAEV?$task@W4RadioAccessStatus@Radios@Devices@Windows@@@Concurrency@@@Z 000000018000eb90 f i _nodert_generated.obj
 0001:0000dc30       ??R?$_Func_class@PE$AAVRadio@Radios@Devices@Windows@@V?$Local@VValue@v8@@@v8@@@std@@QEBAPE$AAVRadio@Radios@Devices@Windows@@V?$Local@VValue@v8@@@v8@@@Z 000000018000ec30 f i _nodert_generated.obj
 0001:0000dc80       ??R?$_Func_class@V?$Local@VValue@v8@@@v8@@PE$AAVRadio@Radios@Devices@Windows@@@std@@QEBA?AV?$Local@VValue@v8@@@v8@@PE$AAVRadio@Radios@Devices@Windows@@@Z 000000018000ec80 f i _nodert_generated.obj
 0001:0000dd20       ??R?$_Func_class@XV?$function@$$A6AXHPEAV?$Local@VValue@v8@@@v8@@@Z@std@@@std@@QEBAXV?$function@$$A6AXHPEAV?$Local@VValue@v8@@@v8@@@Z@1@@Z 000000018000ed20 f i _nodert_generated.obj
 0001:0000ddb0       ??R?$_Func_class@XV?$task@PE$AAU?$IVectorView@PE$AAVRadio@Radios@Devices@Windows@@@Collections@Foundation@Windows@@@Concurrency@@@std@@QEBAXV?$task@PE$AAU?$IVectorView@PE$AAVRadio@Radios@Devices@Windows@@@Collections@Foundation@Windows@@@Concurrency@@@Z 000000018000edb0 f i _nodert_generated.obj
 0001:0000de40       ??R?$_Func_class@XV?$task@PE$AAVRadio@Radios@Devices@Windows@@@Concurrency@@@std@@QEBAXV?$task@PE$AAVRadio@Radios@Devices@Windows@@@Concurrency@@@Z 000000018000ee40 f i _nodert_generated.obj
 0001:0000ded0       ??R?$_Func_class@XV?$task@W4RadioAccessStatus@Radios@Devices@Windows@@@Concurrency@@@std@@QEBAXV?$task@W4RadioAccessStatus@Radios@Devices@Windows@@@Concurrency@@@Z 000000018000eed0 f i _nodert_generated.obj
 0001:0000df60       ??_G?$IteratorWrapper@PE$AAVRadio@Radios@Devices@Windows@@@Collections@NodeRT@@UEAAPEAXI@Z 000000018000ef60 f i _nodert_generated.obj
 0001:0000df60       ??_E?$IteratorWrapper@PE$AAVRadio@Radios@Devices@Windows@@@Collections@NodeRT@@UEAAPEAXI@Z 000000018000ef60 f i _nodert_generated.obj
 0001:0000e000       ??_G?$VectorViewWrapper@PE$AAVRadio@Radios@Devices@Windows@@@Collections@NodeRT@@UEAAPEAXI@Z 000000018000f000 f i _nodert_generated.obj
 0001:0000e000       ??_E?$VectorViewWrapper@PE$AAVRadio@Radios@Devices@Windows@@@Collections@NodeRT@@UEAAPEAXI@Z 000000018000f000 f i _nodert_generated.obj
 0001:0000e050       ??_G?$_CancellationTokenCallback@V<lambda_be3e5d9dce35d2c8dbfa8485373731d5>@@@details@Concurrency@@UEAAPEAXI@Z 000000018000f050 f i _nodert_generated.obj
 0001:0000e050       ??_E?$_CancellationTokenCallback@V<lambda_be3e5d9dce35d2c8dbfa8485373731d5>@@@details@Concurrency@@UEAAPEAXI@Z 000000018000f050 f i _nodert_generated.obj
 0001:0000e100       ??_G?$_ContinuationTaskHandle@PE$AAU?$IVectorView@PE$AAVRadio@Radios@Devices@Windows@@@Collections@Foundation@Windows@@XV?$function@$$A6AXV?$task@PE$AAU?$IVectorView@PE$AAVRadio@Radios@Devices@Windows@@@Collections@Foundation@Windows@@@Concurrency@@@Z@std@@U?$integral_constant@_N$00@6@U_TypeSelectorNoAsync@details@Concurrency@@@?$task@PE$AAU?$IVectorView@PE$AAVRadio@Radios@Devices@Windows@@@Collections@Foundation@Windows@@@Concurrency@@UEAAPEAXI@Z 000000018000f100 f i _nodert_generated.obj
 0001:0000e100       ??_E?$_ContinuationTaskHandle@PE$AAU?$IVectorView@PE$AAVRadio@Radios@Devices@Windows@@@Collections@Foundation@Windows@@XV?$function@$$A6AXV?$task@PE$AAU?$IVectorView@PE$AAVRadio@Radios@Devices@Windows@@@Collections@Foundation@Windows@@@Concurrency@@@Z@std@@U?$integral_constant@_N$00@6@U_TypeSelectorNoAsync@details@Concurrency@@@?$task@PE$AAU?$IVectorView@PE$AAVRadio@Radios@Devices@Windows@@@Collections@Foundation@Windows@@@Concurrency@@UEAAPEAXI@Z 000000018000f100 f i _nodert_generated.obj
 0001:0000e150       ??_E?$_ContinuationTaskHandle@PE$AAVRadio@Radios@Devices@Windows@@XV?$function@$$A6AXV?$task@PE$AAVRadio@Radios@Devices@Windows@@@Concurrency@@@Z@std@@U?$integral_constant@_N$00@6@U_TypeSelectorNoAsync@details@Concurrency@@@?$task@PE$AAVRadio@Radios@Devices@Windows@@@Concurrency@@UEAAPEAXI@Z 000000018000f150 f i _nodert_generated.obj
 0001:0000e150       ??_G?$_ContinuationTaskHandle@PE$AAVRadio@Radios@Devices@Windows@@XV?$function@$$A6AXV?$task@PE$AAVRadio@Radios@Devices@Windows@@@Concurrency@@@Z@std@@U?$integral_constant@_N$00@6@U_TypeSelectorNoAsync@details@Concurrency@@@?$task@PE$AAVRadio@Radios@Devices@Windows@@@Concurrency@@UEAAPEAXI@Z 000000018000f150 f i _nodert_generated.obj
 0001:0000e1a0       ??_E?$_ContinuationTaskHandle@W4RadioAccessStatus@Radios@Devices@Windows@@XV?$function@$$A6AXV?$task@W4RadioAccessStatus@Radios@Devices@Windows@@@Concurrency@@@Z@std@@U?$integral_constant@_N$00@6@U_TypeSelectorNoAsync@details@Concurrency@@@?$task@W4RadioAccessStatus@Radios@Devices@Windows@@@Concurrency@@UEAAPEAXI@Z 000000018000f1a0 f i _nodert_generated.obj
 0001:0000e1a0       ??_G?$_ContinuationTaskHandle@W4RadioAccessStatus@Radios@Devices@Windows@@XV?$function@$$A6AXV?$task@W4RadioAccessStatus@Radios@Devices@Windows@@@Concurrency@@@Z@std@@U?$integral_constant@_N$00@6@U_TypeSelectorNoAsync@details@Concurrency@@@?$task@W4RadioAccessStatus@Radios@Devices@Windows@@@Concurrency@@UEAAPEAXI@Z 000000018000f1a0 f i _nodert_generated.obj
 0001:0000e1f0       ??_G?$_PPLTaskHandle@EU?$_ContinuationTaskHandle@PE$AAU?$IVectorView@PE$AAVRadio@Radios@Devices@Windows@@@Collections@Foundation@Windows@@XV?$function@$$A6AXV?$task@PE$AAU?$IVectorView@PE$AAVRadio@Radios@Devices@Windows@@@Collections@Foundation@Windows@@@Concurrency@@@Z@std@@U?$integral_constant@_N$00@6@U_TypeSelectorNoAsync@details@Concurrency@@@?$task@PE$AAU?$IVectorView@PE$AAVRadio@Radios@Devices@Windows@@@Collections@Foundation@Windows@@@Concurrency@@U_ContinuationTaskHandleBase@details@3@@details@Concurrency@@UEAAPEAXI@Z 000000018000f1f0 f i _nodert_generated.obj
 0001:0000e1f0       ??_E?$_PPLTaskHandle@EU?$_ContinuationTaskHandle@PE$AAU?$IVectorView@PE$AAVRadio@Radios@Devices@Windows@@@Collections@Foundation@Windows@@XV?$function@$$A6AXV?$task@PE$AAU?$IVectorView@PE$AAVRadio@Radios@Devices@Windows@@@Collections@Foundation@Windows@@@Concurrency@@@Z@std@@U?$integral_constant@_N$00@6@U_TypeSelectorNoAsync@details@Concurrency@@@?$task@PE$AAU?$IVectorView@PE$AAVRadio@Radios@Devices@Windows@@@Collections@Foundation@Windows@@@Concurrency@@U_ContinuationTaskHandleBase@details@3@@details@Concurrency@@UEAAPEAXI@Z 000000018000f1f0 f i _nodert_generated.obj
 0001:0000e240       ??_G?$_PPLTaskHandle@EU?$_ContinuationTaskHandle@PE$AAVRadio@Radios@Devices@Windows@@XV?$function@$$A6AXV?$task@PE$AAVRadio@Radios@Devices@Windows@@@Concurrency@@@Z@std@@U?$integral_constant@_N$00@6@U_TypeSelectorNoAsync@details@Concurrency@@@?$task@PE$AAVRadio@Radios@Devices@Windows@@@Concurrency@@U_ContinuationTaskHandleBase@details@3@@details@Concurrency@@UEAAPEAXI@Z 000000018000f240 f i _nodert_generated.obj
 0001:0000e240       ??_E?$_PPLTaskHandle@EU?$_ContinuationTaskHandle@PE$AAVRadio@Radios@Devices@Windows@@XV?$function@$$A6AXV?$task@PE$AAVRadio@Radios@Devices@Windows@@@Concurrency@@@Z@std@@U?$integral_constant@_N$00@6@U_TypeSelectorNoAsync@details@Concurrency@@@?$task@PE$AAVRadio@Radios@Devices@Windows@@@Concurrency@@U_ContinuationTaskHandleBase@details@3@@details@Concurrency@@UEAAPEAXI@Z 000000018000f240 f i _nodert_generated.obj
 0001:0000e290       ??_G?$_PPLTaskHandle@EU?$_ContinuationTaskHandle@W4RadioAccessStatus@Radios@Devices@Windows@@XV?$function@$$A6AXV?$task@W4RadioAccessStatus@Radios@Devices@Windows@@@Concurrency@@@Z@std@@U?$integral_constant@_N$00@6@U_TypeSelectorNoAsync@details@Concurrency@@@?$task@W4RadioAccessStatus@Radios@Devices@Windows@@@Concurrency@@U_ContinuationTaskHandleBase@details@3@@details@Concurrency@@UEAAPEAXI@Z 000000018000f290 f i _nodert_generated.obj
 0001:0000e290       ??_E?$_PPLTaskHandle@EU?$_ContinuationTaskHandle@W4RadioAccessStatus@Radios@Devices@Windows@@XV?$function@$$A6AXV?$task@W4RadioAccessStatus@Radios@Devices@Windows@@@Concurrency@@@Z@std@@U?$integral_constant@_N$00@6@U_TypeSelectorNoAsync@details@Concurrency@@@?$task@W4RadioAccessStatus@Radios@Devices@Windows@@@Concurrency@@U_ContinuationTaskHandleBase@details@3@@details@Concurrency@@UEAAPEAXI@Z 000000018000f290 f i _nodert_generated.obj
 0001:0000e2e0       ??_E?$_Ref_count_del@V?$Persistent@VObject@v8@@V?$NonCopyablePersistentTraits@VObject@v8@@@2@@Nan@@V<lambda_7ce441e15ae9de863eea1ca9a10cae26>@@@std@@UEAAPEAXI@Z 000000018000f2e0 f i _nodert_generated.obj
 0001:0000e2e0       ??_G?$_Ref_count_del@V?$Persistent@VObject@v8@@V?$NonCopyablePersistentTraits@VObject@v8@@@2@@Nan@@V<lambda_7ce441e15ae9de863eea1ca9a10cae26>@@@std@@UEAAPEAXI@Z 000000018000f2e0 f i _nodert_generated.obj
 0001:0000e320       ??_E?$_Ref_count_obj@U?$_Task_impl@E@details@Concurrency@@@std@@UEAAPEAXI@Z 000000018000f320 f i _nodert_generated.obj
 0001:0000e320       ??_G?$_Ref_count_obj@U?$_Task_impl@E@details@Concurrency@@@std@@UEAAPEAXI@Z 000000018000f320 f i _nodert_generated.obj
 0001:0000e360       ??_G?$_Ref_count_obj@U?$_Task_impl@PE$AAU?$IVectorView@PE$AAVRadio@Radios@Devices@Windows@@@Collections@Foundation@Windows@@@details@Concurrency@@@std@@UEAAPEAXI@Z 000000018000f360 f i _nodert_generated.obj
 0001:0000e360       ??_E?$_Ref_count_obj@U?$_Task_impl@PE$AAU?$IVectorView@PE$AAVRadio@Radios@Devices@Windows@@@Collections@Foundation@Windows@@@details@Concurrency@@@std@@UEAAPEAXI@Z 000000018000f360 f i _nodert_generated.obj
 0001:0000e3a0       ??_G?$_Ref_count_obj@U?$_Task_impl@PE$AAVRadio@Radios@Devices@Windows@@@details@Concurrency@@@std@@UEAAPEAXI@Z 000000018000f3a0 f i _nodert_generated.obj
 0001:0000e3a0       ??_E?$_Ref_count_obj@U?$_Task_impl@PE$AAVRadio@Radios@Devices@Windows@@@details@Concurrency@@@std@@UEAAPEAXI@Z 000000018000f3a0 f i _nodert_generated.obj
 0001:0000e3e0       ??_G?$_Ref_count_obj@U?$_Task_impl@W4RadioAccessStatus@Radios@Devices@Windows@@@details@Concurrency@@@std@@UEAAPEAXI@Z 000000018000f3e0 f i _nodert_generated.obj
 0001:0000e3e0       ??_E?$_Ref_count_obj@U?$_Task_impl@W4RadioAccessStatus@Radios@Devices@Windows@@@details@Concurrency@@@std@@UEAAPEAXI@Z 000000018000f3e0 f i _nodert_generated.obj
 0001:0000e420       ??_G?$_Ref_count_obj@U_ExceptionHolder@details@Concurrency@@@std@@UEAAPEAXI@Z 000000018000f420 f i _nodert_generated.obj
 0001:0000e420       ??_E?$_Ref_count_obj@U_ExceptionHolder@details@Concurrency@@@std@@UEAAPEAXI@Z 000000018000f420 f i _nodert_generated.obj
 0001:0000e460       ??_G?$_Task_impl@E@details@Concurrency@@UEAAPEAXI@Z 000000018000f460 f i _nodert_generated.obj
 0001:0000e460       ??_E?$_Task_impl@E@details@Concurrency@@UEAAPEAXI@Z 000000018000f460 f i _nodert_generated.obj
 0001:0000e4b0       ??_G?$_Task_impl@PE$AAU?$IVectorView@PE$AAVRadio@Radios@Devices@Windows@@@Collections@Foundation@Windows@@@details@Concurrency@@UEAAPEAXI@Z 000000018000f4b0 f i _nodert_generated.obj
 0001:0000e4b0       ??_E?$_Task_impl@PE$AAU?$IVectorView@PE$AAVRadio@Radios@Devices@Windows@@@Collections@Foundation@Windows@@@details@Concurrency@@UEAAPEAXI@Z 000000018000f4b0 f i _nodert_generated.obj
 0001:0000e500       ??_E?$_Task_impl@PE$AAVRadio@Radios@Devices@Windows@@@details@Concurrency@@UEAAPEAXI@Z 000000018000f500 f i _nodert_generated.obj
 0001:0000e500       ??_G?$_Task_impl@PE$AAVRadio@Radios@Devices@Windows@@@details@Concurrency@@UEAAPEAXI@Z 000000018000f500 f i _nodert_generated.obj
 0001:0000e550       ??_G?$_Task_impl@W4RadioAccessStatus@Radios@Devices@Windows@@@details@Concurrency@@UEAAPEAXI@Z 000000018000f550 f i _nodert_generated.obj
 0001:0000e550       ??_E?$_Task_impl@W4RadioAccessStatus@Radios@Devices@Windows@@@details@Concurrency@@UEAAPEAXI@Z 000000018000f550 f i _nodert_generated.obj
 0001:0000e5a0       ??_G?$__abi_FunctorCapture@V<lambda_4826e3b284b53b5a99fdf233406a9e9a>@@XPE$AAU?$IAsyncOperation@PE$AAVRadio@Radios@Devices@Windows@@@Foundation@Windows@@W4AsyncStatus@34@@Details@Platform@@UEAAPEAXI@Z 000000018000f5a0 f i _nodert_generated.obj
 0001:0000e5a0       ??_E?$__abi_FunctorCapture@V<lambda_4826e3b284b53b5a99fdf233406a9e9a>@@XPE$AAU?$IAsyncOperation@PE$AAVRadio@Radios@Devices@Windows@@@Foundation@Windows@@W4AsyncStatus@34@@Details@Platform@@UEAAPEAXI@Z 000000018000f5a0 f i _nodert_generated.obj
 0001:0000e5f0       ??_E?$__abi_FunctorCapture@V<lambda_74b109aa04c410395ed1b84aaba96129>@@XPE$AAU?$IAsyncOperation@PE$AAU?$IVectorView@PE$AAVRadio@Radios@Devices@Windows@@@Collections@Foundation@Windows@@@Foundation@Windows@@W4AsyncStatus@34@@Details@Platform@@UEAAPEAXI@Z 000000018000f5f0 f i _nodert_generated.obj
 0001:0000e5f0       ??_G?$__abi_FunctorCapture@V<lambda_74b109aa04c410395ed1b84aaba96129>@@XPE$AAU?$IAsyncOperation@PE$AAU?$IVectorView@PE$AAVRadio@Radios@Devices@Windows@@@Collections@Foundation@Windows@@@Foundation@Windows@@W4AsyncStatus@34@@Details@Platform@@UEAAPEAXI@Z 000000018000f5f0 f i _nodert_generated.obj
 0001:0000e640       ??_E?$__abi_FunctorCapture@V<lambda_76b0dc5acfdd88e398543629657656f2>@@XPE$AAU?$IAsyncOperation@W4RadioAccessStatus@Radios@Devices@Windows@@@Foundation@Windows@@W4AsyncStatus@34@@Details@Platform@@UEAAPEAXI@Z 000000018000f640 f i _nodert_generated.obj
 0001:0000e640       ??_G?$__abi_FunctorCapture@V<lambda_76b0dc5acfdd88e398543629657656f2>@@XPE$AAU?$IAsyncOperation@W4RadioAccessStatus@Radios@Devices@Windows@@@Foundation@Windows@@W4AsyncStatus@34@@Details@Platform@@UEAAPEAXI@Z 000000018000f640 f i _nodert_generated.obj
 0001:0000e690       ??_G?$__abi_FunctorCapture@V<lambda_fa493edce1d787976b8ef791772f712d>@@XPE$AAVRadio@Radios@Devices@Windows@@PE$AAVObject@Platform@@@Details@Platform@@UEAAPEAXI@Z 000000018000f690 f i _nodert_generated.obj
 0001:0000e690       ??_E?$__abi_FunctorCapture@V<lambda_fa493edce1d787976b8ef791772f712d>@@XPE$AAVRadio@Radios@Devices@Windows@@PE$AAVObject@Platform@@@Details@Platform@@UEAAPEAXI@Z 000000018000f690 f i _nodert_generated.obj
 0001:0000e6e0       ??_GObjectWrap@Nan@@UEAAPEAXI@Z 000000018000f6e0 f i _nodert_generated.obj
 0001:0000e6e0       ??_EObjectWrap@Nan@@UEAAPEAXI@Z 000000018000f6e0 f i _nodert_generated.obj
 0001:0000e730       ??_GRadio@Radios@Devices@Windows@NodeRT@@UEAAPEAXI@Z 000000018000f730 f i _nodert_generated.obj
 0001:0000e730       ??_ERadio@Radios@Devices@Windows@NodeRT@@UEAAPEAXI@Z 000000018000f730 f i _nodert_generated.obj
 0001:0000e7a0       ??_ETokenData@Async@NodeUtils@@UEAAPEAXI@Z 000000018000f7a0 f i _nodert_generated.obj
 0001:0000e7a0       ??_GTokenData@Async@NodeUtils@@UEAAPEAXI@Z 000000018000f7a0 f i _nodert_generated.obj
 0001:0000e850       ??_GWrapperBase@NodeRT@@UEAAPEAXI@Z 000000018000f850 f i _nodert_generated.obj
 0001:0000e850       ??_EWrapperBase@NodeRT@@UEAAPEAXI@Z 000000018000f850 f i _nodert_generated.obj
 0001:0000e8a0       ??_E_CancellationTokenRegistration@details@Concurrency@@MEAAPEAXI@Z 000000018000f8a0 f i _nodert_generated.obj
 0001:0000e8a0       ??_G_CancellationTokenRegistration@details@Concurrency@@MEAAPEAXI@Z 000000018000f8a0 f i _nodert_generated.obj
 0001:0000e910       ??_E_ContinuationTaskHandleBase@details@Concurrency@@UEAAPEAXI@Z 000000018000f910 f i _nodert_generated.obj
 0001:0000e910       ??_G_ContinuationTaskHandleBase@details@Concurrency@@UEAAPEAXI@Z 000000018000f910 f i _nodert_generated.obj
 0001:0000e980       ??_E_RefCounter@details@Concurrency@@UEAAPEAXI@Z 000000018000f980 f i _nodert_generated.obj
 0001:0000e980       ??_G_RefCounter@details@Concurrency@@UEAAPEAXI@Z 000000018000f980 f i _nodert_generated.obj
 0001:0000e9c0       ??_G_Ref_count_base@std@@UEAAPEAXI@Z 000000018000f9c0 f i _nodert_generated.obj
 0001:0000e9c0       ??_E_Ref_count_base@std@@UEAAPEAXI@Z 000000018000f9c0 f i _nodert_generated.obj
 0001:0000ea00       ??_E_TaskProcHandle@details@Concurrency@@UEAAPEAXI@Z 000000018000fa00 f i _nodert_generated.obj
 0001:0000ea00       ??_G_TaskProcHandle@details@Concurrency@@UEAAPEAXI@Z 000000018000fa00 f i _nodert_generated.obj
 0001:0000ea40       ??_E_Task_impl_base@details@Concurrency@@UEAAPEAXI@Z 000000018000fa40 f i _nodert_generated.obj
 0001:0000ea40       ??_G_Task_impl_base@details@Concurrency@@UEAAPEAXI@Z 000000018000fa40 f i _nodert_generated.obj
 0001:0000ea90       ??_G__abi_CaptureBase@Details@Platform@@MEAAPEAXI@Z 000000018000fa90 f i _nodert_generated.obj
 0001:0000ea90       ??_E__abi_CaptureBase@Details@Platform@@MEAAPEAXI@Z 000000018000fa90 f i _nodert_generated.obj
 0001:0000ead0       ??_Gbad_weak_ptr@std@@UEAAPEAXI@Z 000000018000fad0 f i _nodert_generated.obj
 0001:0000ead0       ??_Ebad_weak_ptr@std@@UEAAPEAXI@Z 000000018000fad0 f i _nodert_generated.obj
 0001:0000eb10       ??_Gexception@stdext@@UEAAPEAXI@Z 000000018000fb10 f i _nodert_generated.obj
 0001:0000eb10       ??_Eexception@stdext@@UEAAPEAXI@Z 000000018000fb10 f i _nodert_generated.obj
 0001:0000eb50       ??_Einvalid_operation@Concurrency@@UEAAPEAXI@Z 000000018000fb50 f i _nodert_generated.obj
 0001:0000eb50       ??_Ginvalid_operation@Concurrency@@UEAAPEAXI@Z 000000018000fb50 f i _nodert_generated.obj
 0001:0000eb90       ??_Eruntime_error@std@@UEAAPEAXI@Z 000000018000fb90 f i _nodert_generated.obj
 0001:0000eb90       ??_Gruntime_error@std@@UEAAPEAXI@Z 000000018000fb90 f i _nodert_generated.obj
 0001:0000ebd0       ??_Etask_canceled@Concurrency@@UEAAPEAXI@Z 000000018000fbd0 f i _nodert_generated.obj
 0001:0000ebd0       ??_Gtask_canceled@Concurrency@@UEAAPEAXI@Z 000000018000fbd0 f i _nodert_generated.obj
 0001:0000ec10       ??_H@YAXPEAX_K1P6APEAX0@Z@Z 000000018000fc10 f i _nodert_generated.obj
 0001:0000ec70       ?AddListener@Radio@Radios@Devices@Windows@NodeRT@@CAXAEBV?$FunctionCallbackInfo@VValue@v8@@@Nan@@@Z 000000018000fc70 f i _nodert_generated.obj
 0001:0000f300       ?AsyncCb@Async@NodeUtils@@CAXPEAUuv_async_s@@@Z 0000000180010300 f i _nodert_generated.obj
 0001:0000f370       ?AyncCloseCb@Async@NodeUtils@@CAXPEAUuv_handle_s@@@Z 0000000180010370 f i _nodert_generated.obj
 0001:0000f390       ?Cancel@IAsyncInfo@Foundation@Windows@@UE$AAAXXZ 0000000180010390 f i _nodert_generated.obj
 0001:0000f3c0       ?CastFrom@Radio@Radios@Devices@Windows@NodeRT@@CAXAEBV?$FunctionCallbackInfo@VValue@v8@@@Nan@@@Z 00000001800103c0 f i _nodert_generated.obj
 0001:0000f5f0       ?CreateCallbackData@Async@NodeUtils@@CA?AV?$Local@VObject@v8@@@v8@@V?$Local@VFunction@v8@@@4@V?$Local@VValue@v8@@@4@@Z 00000001800105f0 f i _nodert_generated.obj
 0001:0000f8d0       ?CreateInt64@IPropertyValueStatics@Foundation@Windows@@UE$AAAPE$AAVObject@Platform@@_J@Z 00000001800108d0 f i _nodert_generated.obj
 0001:0000f950       ?CreateInt64@PropertyValue@Foundation@Windows@@SAPE$AAVObject@Platform@@_J@Z 0000000180010950 f i _nodert_generated.obj
 0001:0000fa60       ?CreateIteratorWrapper@?$IteratorWrapper@PE$AAVRadio@Radios@Devices@Windows@@@Collections@NodeRT@@SA?AV?$Local@VValue@v8@@@v8@@PE$AAU?$IIterator@PE$AAVRadio@Radios@Devices@Windows@@@2Foundation@Windows@@AEBV?$function@$$A6A?AV?$Local@VValue@v8@@@v8@@PE$AAVRadio@Radios@Devices@Windows@@@Z@std@@@Z 0000000180010a60 f i _nodert_generated.obj
 0001:0000fc00       ?CreateVectorViewWrapper@?$VectorViewWrapper@PE$AAVRadio@Radios@Devices@Windows@@@Collections@NodeRT@@SA?AV?$Local@VValue@v8@@@v8@@PE$AAU?$IVectorView@PE$AAVRadio@Radios@Devices@Windows@@@2Foundation@Windows@@AEBV?$function@$$A6A?AV?$Local@VValue@v8@@@v8@@PE$AAVRadio@Radios@Devices@Windows@@@Z@std@@AEBV?$function@$$A6A_NV?$Local@VValue@v8@@@v8@@@Z@std@@AEBV?$function@$$A6APE$AAVRadio@Radios@Devices@Windows@@V?$Local@VValue@v8@@@v8@@@Z@std@@@Z 0000000180010c00 f i _nodert_generated.obj
 0001:0000fea0       ?CurrentGetter@?$IteratorWrapper@PE$AAVRadio@Radios@Devices@Windows@@@Collections@NodeRT@@CAXV?$Local@VString@v8@@@v8@@AEBV?$PropertyCallbackInfo@VValue@v8@@@Nan@@@Z 0000000180010ea0 f i _nodert_generated.obj
 0001:00010030       ?Decrement@__abi_FTMWeakRefData@@QECAKXZ 0000000180011030 f i _nodert_generated.obj
 0001:000100e0       ?Delete@Nan@@YA?AV?$Maybe@_N@v8@@V?$Local@VObject@v8@@@3@V?$Local@VString@v8@@@3@@Z 00000001800110e0 f i _nodert_generated.obj
 0001:00010180       ?Equals@Nan@@YA?AV?$Maybe@_N@v8@@V?$Local@VValue@v8@@@3@0@Z 0000000180011180 f i _nodert_generated.obj
 0001:00010210       ?First@?$IIterable@PE$AAVRadio@Radios@Devices@Windows@@@Collections@Foundation@Windows@@UE$AAAPE$AAU?$IIterator@PE$AAVRadio@Radios@Devices@Windows@@@234@XZ 0000000180011210 f i _nodert_generated.obj
 0001:00010290       ?First@?$VectorViewWrapper@PE$AAVRadio@Radios@Devices@Windows@@@Collections@NodeRT@@CAXAEBV?$FunctionCallbackInfo@VValue@v8@@@Nan@@@Z 0000000180011290 f i _nodert_generated.obj
 0001:00010460       ?FromIdAsync@IRadioStatics@Radios@Devices@Windows@@UE$AAAPE$AAU?$IAsyncOperation@PE$AAVRadio@Radios@Devices@Windows@@@Foundation@4@PE$AAVString@Platform@@@Z 0000000180011460 f i _nodert_generated.obj
 0001:000104e0       ?FromIdAsync@Radio@Radios@Devices@Windows@@SAPE$AAU?$IAsyncOperation@PE$AAVRadio@Radios@Devices@Windows@@@Foundation@4@PE$AAVString@Platform@@@Z 00000001800114e0 f i _nodert_generated.obj
 0001:000105f0       ?FromIdAsync@Radio@Radios@Devices@Windows@NodeRT@@CAXAEBV?$FunctionCallbackInfo@VValue@v8@@@Nan@@@Z 00000001800115f0 f i _nodert_generated.obj
 0001:00010b10       ?Get@?$Agile@PE$AAU?$IVectorView@PE$AAVRadio@Radios@Devices@Windows@@@Collections@Foundation@Windows@@$00@Platform@@QEBAPE$AAU?$IVectorView@PE$AAVRadio@Radios@Devices@Windows@@@Collections@Foundation@Windows@@XZ 0000000180011b10 f i _nodert_generated.obj
 0001:00010cd0       ?Get@?$VectorViewWrapper@PE$AAVRadio@Radios@Devices@Windows@@@Collections@NodeRT@@CAXIAEBV?$PropertyCallbackInfo@VValue@v8@@@Nan@@@Z 0000000180011cd0 f i _nodert_generated.obj
 0001:00010e40       ?Get@Nan@@YA?AV?$MaybeLocal@VValue@v8@@@v8@@V?$Local@VObject@v8@@@3@V?$Local@VValue@v8@@@3@@Z 0000000180011e40 f i _nodert_generated.obj
 0001:00010ef0       ?GetAt@?$IVectorView@PE$AAVRadio@Radios@Devices@Windows@@@Collections@Foundation@Windows@@UE$AAAPE$AAVRadio@Radios@Devices@4@I@Z 0000000180011ef0 f i _nodert_generated.obj
 0001:00010f70       ?GetAt@?$VectorViewWrapper@PE$AAVRadio@Radios@Devices@Windows@@@Collections@NodeRT@@CAXAEBV?$FunctionCallbackInfo@VValue@v8@@@Nan@@@Z 0000000180011f70 f i _nodert_generated.obj
 0001:000111b0       ?GetDeviceSelector@IRadioStatics@Radios@Devices@Windows@@UE$AAAPE$AAVString@Platform@@XZ 00000001800121b0 f i _nodert_generated.obj
 0001:00011230       ?GetDeviceSelector@Radio@Radios@Devices@Windows@@SAPE$AAVString@Platform@@XZ 0000000180012230 f i _nodert_generated.obj
 0001:00011300       ?GetDeviceSelector@Radio@Radios@Devices@Windows@NodeRT@@CAXAEBV?$FunctionCallbackInfo@VValue@v8@@@Nan@@@Z 0000000180012300 f i _nodert_generated.obj
 0001:00011470       ?GetFunction@Nan@@YA?AV?$MaybeLocal@VFunction@v8@@@v8@@V?$Local@VFunctionTemplate@v8@@@3@@Z 0000000180012470 f i _nodert_generated.obj
 0001:00011510       ?GetMany@?$IteratorWrapper@PE$AAVRadio@Radios@Devices@Windows@@@Collections@NodeRT@@CAXAEBV?$FunctionCallbackInfo@VValue@v8@@@Nan@@@Z 0000000180012510 f i _nodert_generated.obj
 0001:000115a0       ?GetMany@?$VectorViewWrapper@PE$AAVRadio@Radios@Devices@Windows@@@Collections@NodeRT@@CAXAEBV?$FunctionCallbackInfo@VValue@v8@@@Nan@@@Z 00000001800125a0 f i _nodert_generated.obj
 0001:00011630       ?GetObjectInstance@?$IteratorWrapper@PE$AAVRadio@Radios@Devices@Windows@@@Collections@NodeRT@@UEBAPE$AAVObject@Platform@@XZ 0000000180012630 f i _nodert_generated.obj
 0001:00011660       ?GetObjectInstance@?$VectorViewWrapper@PE$AAVRadio@Radios@Devices@Windows@@@Collections@NodeRT@@UEBAPE$AAVObject@Platform@@XZ 0000000180012660 f i _nodert_generated.obj
 0001:00011690       ?GetObjectInstance@Radio@Radios@Devices@Windows@NodeRT@@UEBAPE$AAVObject@Platform@@XZ 0000000180012690 f i _nodert_generated.obj
 0001:000116c0       ?GetRadiosAsync@IRadioStatics@Radios@Devices@Windows@@UE$AAAPE$AAU?$IAsyncOperation@PE$AAU?$IVectorView@PE$AAVRadio@Radios@Devices@Windows@@@Collections@Foundation@Windows@@@Foundation@4@XZ 00000001800126c0 f i _nodert_generated.obj
 0001:00011740       ?GetRadiosAsync@Radio@Radios@Devices@Windows@@SAPE$AAU?$IAsyncOperation@PE$AAU?$IVectorView@PE$AAVRadio@Radios@Devices@Windows@@@Collections@Foundation@Windows@@@Foundation@4@XZ 0000000180012740 f i _nodert_generated.obj
 0001:00011850       ?GetRadiosAsync@Radio@Radios@Devices@Windows@NodeRT@@CAXAEBV?$FunctionCallbackInfo@VValue@v8@@@Nan@@@Z 0000000180012850 f i _nodert_generated.obj
 0001:00011b60       ?GetResults@?$IAsyncOperation@PE$AAU?$IVectorView@PE$AAVRadio@Radios@Devices@Windows@@@Collections@Foundation@Windows@@@Foundation@Windows@@UE$AAAPE$AAU?$IVectorView@PE$AAVRadio@Radios@Devices@Windows@@@Collections@23@XZ 0000000180012b60 f i _nodert_generated.obj
 0001:00011be0       ?GetResults@?$IAsyncOperation@PE$AAVRadio@Radios@Devices@Windows@@@Foundation@Windows@@UE$AAAPE$AAVRadio@Radios@Devices@3@XZ 0000000180012be0 f i _nodert_generated.obj
 0001:00011c60       ?GetResults@?$IAsyncOperation@W4RadioAccessStatus@Radios@Devices@Windows@@@Foundation@Windows@@UE$AAA?AW4RadioAccessStatus@Radios@Devices@3@XZ 0000000180012c60 f i _nodert_generated.obj
 0001:00011da0       ?HasCurrentGetter@?$IteratorWrapper@PE$AAVRadio@Radios@Devices@Windows@@@Collections@NodeRT@@CAXV?$Local@VString@v8@@@v8@@AEBV?$PropertyCallbackInfo@VValue@v8@@@Nan@@@Z 0000000180012da0 f i _nodert_generated.obj
 0001:000121a0       ?IndexOf@?$IVectorView@PE$AAVRadio@Radios@Devices@Windows@@@Collections@Foundation@Windows@@UE$AAA_NPE$AAVRadio@Radios@Devices@4@PEAI@Z 00000001800131a0 f i _nodert_generated.obj
 0001:000121e0       ?IndexOf@?$VectorViewWrapper@PE$AAVRadio@Radios@Devices@Windows@@@Collections@NodeRT@@CAXAEBV?$FunctionCallbackInfo@VValue@v8@@@Nan@@@Z 00000001800131e0 f i _nodert_generated.obj
 0001:000127d0       ?Init@?$IteratorWrapper@PE$AAVRadio@Radios@Devices@Windows@@@Collections@NodeRT@@SAXXZ 00000001800137d0 f i _nodert_generated.obj
 0001:00012a70       ?Init@?$VectorViewWrapper@PE$AAVRadio@Radios@Devices@Windows@@@Collections@NodeRT@@SAXXZ 0000000180013a70 f i _nodert_generated.obj
 0001:00012e40       ?Init@Radio@Radios@Devices@Windows@NodeRT@@SAXV?$Local@VObject@v8@@@v8@@@Z 0000000180013e40 f i _nodert_generated.obj
 0001:00013440       ?InitRadio@Radios@Devices@Windows@NodeRT@@YAXV?$Local@VObject@v8@@@v8@@@Z 0000000180014440 f   _nodert_generated.obj
 0001:00013e90       ?Invoke@?$AsyncOperationCompletedHandler@PE$AAU?$IVectorView@PE$AAVRadio@Radios@Devices@Windows@@@Collections@Foundation@Windows@@@Foundation@Windows@@UE$AAAXPE$AAU?$IAsyncOperation@PE$AAU?$IVectorView@PE$AAVRadio@Radios@Devices@Windows@@@Collections@Foundation@Windows@@@23@W4AsyncStatus@23@@Z 0000000180014e90 f i _nodert_generated.obj
 0001:00013ee0       ?Invoke@?$AsyncOperationCompletedHandler@PE$AAVRadio@Radios@Devices@Windows@@@Foundation@Windows@@UE$AAAXPE$AAU?$IAsyncOperation@PE$AAVRadio@Radios@Devices@Windows@@@23@W4AsyncStatus@23@@Z 0000000180014ee0 f i _nodert_generated.obj
 0001:00013f30       ?Invoke@?$AsyncOperationCompletedHandler@W4RadioAccessStatus@Radios@Devices@Windows@@@Foundation@Windows@@UE$AAAXPE$AAU?$IAsyncOperation@W4RadioAccessStatus@Radios@Devices@Windows@@@23@W4AsyncStatus@23@@Z 0000000180014f30 f i _nodert_generated.obj
 0001:00013f80       ?Invoke@?$TypedEventHandler@PE$AAVRadio@Radios@Devices@Windows@@PE$AAVObject@Platform@@@Foundation@Windows@@UE$AAAXPE$AAVRadio@Radios@Devices@3@PE$AAVObject@Platform@@@Z 0000000180014f80 f i _nodert_generated.obj
 0001:00013fd0       ?Invoke@?$__abi_FunctorCapture@V<lambda_4826e3b284b53b5a99fdf233406a9e9a>@@XPE$AAU?$IAsyncOperation@PE$AAVRadio@Radios@Devices@Windows@@@Foundation@Windows@@W4AsyncStatus@34@@Details@Platform@@UEAAXPE$AAU?$IAsyncOperation@PE$AAVRadio@Radios@Devices@Windows@@@Foundation@Windows@@W4AsyncStatus@56@@Z 0000000180014fd0 f i _nodert_generated.obj
 0001:00013fe0       ?Invoke@?$__abi_FunctorCapture@V<lambda_74b109aa04c410395ed1b84aaba96129>@@XPE$AAU?$IAsyncOperation@PE$AAU?$IVectorView@PE$AAVRadio@Radios@Devices@Windows@@@Collections@Foundation@Windows@@@Foundation@Windows@@W4AsyncStatus@34@@Details@Platform@@UEAAXPE$AAU?$IAsyncOperation@PE$AAU?$IVectorView@PE$AAVRadio@Radios@Devices@Windows@@@Collections@Foundation@Windows@@@Foundation@Windows@@W4AsyncStatus@56@@Z 0000000180014fe0 f i _nodert_generated.obj
 0001:00013ff0       ?Invoke@?$__abi_FunctorCapture@V<lambda_76b0dc5acfdd88e398543629657656f2>@@XPE$AAU?$IAsyncOperation@W4RadioAccessStatus@Radios@Devices@Windows@@@Foundation@Windows@@W4AsyncStatus@34@@Details@Platform@@UEAAXPE$AAU?$IAsyncOperation@W4RadioAccessStatus@Radios@Devices@Windows@@@Foundation@Windows@@W4AsyncStatus@56@@Z 0000000180014ff0 f i _nodert_generated.obj
 0001:00014000       ?Invoke@?$__abi_FunctorCapture@V<lambda_fa493edce1d787976b8ef791772f712d>@@XPE$AAVRadio@Radios@Devices@Windows@@PE$AAVObject@Platform@@@Details@Platform@@UEAAXPE$AAVRadio@Radios@Devices@Windows@@PE$AAVObject@3@@Z 0000000180015000 f i _nodert_generated.obj
 0001:00014010       ?Invoke@__abi_IDelegate@?$AsyncOperationCompletedHandler@PE$AAU?$IVectorView@PE$AAVRadio@Radios@Devices@Windows@@@Collections@Foundation@Windows@@@Foundation@Windows@@UE$AAAXPE$AAU?$IAsyncOperation@PE$AAU?$IVectorView@PE$AAVRadio@Radios@Devices@Windows@@@Collections@Foundation@Windows@@@34@W4AsyncStatus@34@@Z 0000000180015010 f i _nodert_generated.obj
 0001:00014040       ?Invoke@__abi_IDelegate@?$AsyncOperationCompletedHandler@PE$AAVRadio@Radios@Devices@Windows@@@Foundation@Windows@@UE$AAAXPE$AAU?$IAsyncOperation@PE$AAVRadio@Radios@Devices@Windows@@@34@W4AsyncStatus@34@@Z 0000000180015040 f i _nodert_generated.obj
 0001:00014070       ?Invoke@__abi_IDelegate@?$AsyncOperationCompletedHandler@W4RadioAccessStatus@Radios@Devices@Windows@@@Foundation@Windows@@UE$AAAXPE$AAU?$IAsyncOperation@W4RadioAccessStatus@Radios@Devices@Windows@@@34@W4AsyncStatus@34@@Z 0000000180015070 f i _nodert_generated.obj
 0001:000140a0       ?Invoke@__abi_IDelegate@?$TypedEventHandler@PE$AAVRadio@Radios@Devices@Windows@@PE$AAVObject@Platform@@@Foundation@Windows@@UE$AAAXPE$AAVRadio@Radios@Devices@4@PE$AAVObject@Platform@@@Z 00000001800150a0 f i _nodert_generated.obj
 0001:000140d0       ?IsOpaqueWrapper@OpaqueWrapper@NodeRT@@SA_NV?$Local@VValue@v8@@@v8@@@Z 00000001800150d0 f i _nodert_generated.obj
 0001:000141a0       ?KindGetter@Radio@Radios@Devices@Windows@NodeRT@@CAXV?$Local@VString@v8@@@v8@@AEBV?$PropertyCallbackInfo@VValue@v8@@@Nan@@@Z 00000001800151a0 f i _nodert_generated.obj
 0001:000142c0       ?MakeCallback@Nan@@YA?AV?$Local@VValue@v8@@@v8@@V?$Local@VObject@v8@@@3@V?$Local@VString@v8@@@3@HPEAV23@@Z 00000001800152c0 f i _nodert_generated.obj
 0001:00014480       ?MoveNext@?$IIterator@PE$AAVRadio@Radios@Devices@Windows@@@Collections@Foundation@Windows@@UE$AAA_NXZ 0000000180015480 f i _nodert_generated.obj
 0001:000144b0       ?MoveNext@?$IteratorWrapper@PE$AAVRadio@Radios@Devices@Windows@@@Collections@NodeRT@@CAXAEBV?$FunctionCallbackInfo@VValue@v8@@@Nan@@@Z 00000001800154b0 f i _nodert_generated.obj
 0001:00014600       ?NameGetter@Radio@Radios@Devices@Windows@NodeRT@@CAXV?$Local@VString@v8@@@v8@@AEBV?$PropertyCallbackInfo@VValue@v8@@@Nan@@@Z 0000000180015600 f i _nodert_generated.obj
 0001:00014740       ?New@?$Factory@VFunctionTemplate@v8@@@imp@Nan@@SA?AV?$Local@VFunctionTemplate@v8@@@v8@@P6AXAEBV?$FunctionCallbackInfo@VValue@v8@@@3@@ZV?$Local@VValue@v8@@@5@V?$Local@VSignature@v8@@@5@@Z 0000000180015740 f i _nodert_generated.obj
 0001:00014930       ?New@?$IteratorWrapper@PE$AAVRadio@Radios@Devices@Windows@@@Collections@NodeRT@@CAXAEBV?$FunctionCallbackInfo@VValue@v8@@@Nan@@@Z 0000000180015930 f i _nodert_generated.obj
 0001:00014a00       ?New@?$VectorViewWrapper@PE$AAVRadio@Radios@Devices@Windows@@@Collections@NodeRT@@CAXAEBV?$FunctionCallbackInfo@VValue@v8@@@Nan@@@Z 0000000180015a00 f i _nodert_generated.obj
 0001:00014ad0       ?New@Radio@Radios@Devices@Windows@NodeRT@@CAXAEBV?$FunctionCallbackInfo@VValue@v8@@@Nan@@@Z 0000000180015ad0 f i _nodert_generated.obj
 0001:00015000       ?NewAsyncToken@TokenData@Async@NodeUtils@@SAPEAUuv_async_s@@V?$Local@VFunction@v8@@@v8@@V?$Local@VValue@v8@@@6@@Z 0000000180016000 f i _nodert_generated.obj
 0001:000150a0       ?NewAsyncToken@TokenData@Async@NodeUtils@@SAPEAUuv_async_s@@XZ 00000001800160a0 f i _nodert_generated.obj
 0001:00015130       ?NewInstance@Nan@@YA?AV?$MaybeLocal@VObject@v8@@@v8@@V?$Local@VFunction@v8@@@3@HQEAV?$Local@VValue@v8@@@3@@Z 0000000180016130 f i _nodert_generated.obj
 0001:00015200       ?NewInstance@Nan@@YA?AV?$MaybeLocal@VObject@v8@@@v8@@V?$Local@VObjectTemplate@v8@@@3@@Z 0000000180016200 f i _nodert_generated.obj
 0001:000152a0       ?PlacementFree@Heap@Details@Platform@@SAXPEAX0@Z 00000001800162a0 f i _nodert_generated.obj
 0001:000152b0       ?Ref@ObjectWrap@Nan@@MEAAXXZ 00000001800162b0 f i _nodert_generated.obj
 0001:00015300       ?Release@?$Agile@PE$AAU?$IVectorView@PE$AAVRadio@Radios@Devices@Windows@@@Collections@Foundation@Windows@@$00@Platform@@QEAAXXZ 0000000180016300 f i _nodert_generated.obj
 0001:000153c0       ?RemoveListener@Radio@Radios@Devices@Windows@NodeRT@@CAXAEBV?$FunctionCallbackInfo@VValue@v8@@@Nan@@@Z 00000001800163c0 f i _nodert_generated.obj
 0001:00015950       ?RequestAccessAsync@IRadioStatics@Radios@Devices@Windows@@UE$AAAPE$AAU?$IAsyncOperation@W4RadioAccessStatus@Radios@Devices@Windows@@@Foundation@4@XZ 0000000180016950 f i _nodert_generated.obj
 0001:000159d0       ?RequestAccessAsync@Radio@Radios@Devices@Windows@@SAPE$AAU?$IAsyncOperation@W4RadioAccessStatus@Radios@Devices@Windows@@@Foundation@4@XZ 00000001800169d0 f i _nodert_generated.obj
 0001:00015ae0       ?RequestAccessAsync@Radio@Radios@Devices@Windows@NodeRT@@CAXAEBV?$FunctionCallbackInfo@VValue@v8@@@Nan@@@Z 0000000180016ae0 f i _nodert_generated.obj
 0001:00015df0       ?RunCallbackOnMain@Async@NodeUtils@@SAXPEAUuv_async_s@@V?$function@$$A6AXV?$function@$$A6AXHPEAV?$Local@VValue@v8@@@v8@@@Z@std@@@Z@std@@@Z 0000000180016df0 f i _nodert_generated.obj
 0001:000160c0       ?RunOnMain@Async@NodeUtils@@SAXV?$function@$$A6AXXZ@std@@@Z 00000001800170c0 f i _nodert_generated.obj
 0001:000161c0       ?Set@Nan@@YA?AV?$Maybe@_N@v8@@V?$Local@VObject@v8@@@3@V?$Local@VValue@v8@@@3@1@Z 00000001800171c0 f i _nodert_generated.obj
 0001:00016270       ?SetAccessor@Nan@@YAXV?$Local@VObjectTemplate@v8@@@v8@@V?$Local@VString@v8@@@3@P6AX1AEBV?$PropertyCallbackInfo@VValue@v8@@@1@@ZP6AX1V?$Local@VValue@v8@@@3@AEBV?$PropertyCallbackInfo@X@1@@Z4W4AccessControl@3@W4PropertyAttribute@3@V?$Local@VAccessorSignature@v8@@@3@@Z 0000000180017270 f i _nodert_generated.obj
 0001:00016450       ?SetPrototype@Nan@@YA?AV?$Maybe@_N@v8@@V?$Local@VObject@v8@@@3@V?$Local@VValue@v8@@@3@@Z 0000000180017450 f i _nodert_generated.obj
 0001:000164e0       ?SetPrototypeMethod@Nan@@YAXV?$Local@VFunctionTemplate@v8@@@v8@@PEBDP6AXAEBV?$FunctionCallbackInfo@VValue@v8@@@1@@Z@Z 00000001800174e0 f i _nodert_generated.obj
 0001:00016630       ?SetStateAsync@IRadio@Radios@Devices@Windows@@UE$AAAPE$AAU?$IAsyncOperation@W4RadioAccessStatus@Radios@Devices@Windows@@@Foundation@4@W4RadioState@234@@Z 0000000180017630 f i _nodert_generated.obj
 0001:000166b0       ?SetStateAsync@Radio@Radios@Devices@Windows@NodeRT@@CAXAEBV?$FunctionCallbackInfo@VValue@v8@@@Nan@@@Z 00000001800176b0 f i _nodert_generated.obj
 0001:00016b90       ?SizeGetter@?$VectorViewWrapper@PE$AAVRadio@Radios@Devices@Windows@@@Collections@NodeRT@@CAXV?$Local@VString@v8@@@v8@@AEBV?$PropertyCallbackInfo@VValue@v8@@@Nan@@@Z 0000000180017b90 f i _nodert_generated.obj
 0001:00016ca0       ?StateGetter@Radio@Radios@Devices@Windows@NodeRT@@CAXV?$Local@VString@v8@@@v8@@AEBV?$PropertyCallbackInfo@VValue@v8@@@Nan@@@Z 0000000180017ca0 f i _nodert_generated.obj
 0001:00016dc0       ?ThrowError@Nan@@YAXV?$Local@VValue@v8@@@v8@@@Z 0000000180017dc0 f i _nodert_generated.obj
 0001:00016df0       ?Unref@ObjectWrap@Nan@@MEAAXXZ 0000000180017df0 f i _nodert_generated.obj
 0001:00016ec0       ?UnwrapRadio@Radios@Devices@Windows@NodeRT@@YAPE$AAVRadio@123@V?$Local@VValue@v8@@@v8@@@Z 0000000180017ec0 f   _nodert_generated.obj
 0001:00016f20       ?WaitUntilStateChangedTo@_TaskCollectionBaseImpl@details@Concurrency@@IEAAXW4_TaskCollectionState@123@@Z 0000000180017f20 f i _nodert_generated.obj
 0001:00016fe0       ?WeakCallback@ObjectWrap@Nan@@CAXAEBV?$WeakCallbackInfo@VObjectWrap@Nan@@@v8@@@Z 0000000180017fe0 f i _nodert_generated.obj
 0001:00017090       ?Wrap@ObjectWrap@Nan@@IEAAXV?$Local@VObject@v8@@@v8@@@Z 0000000180018090 f i _nodert_generated.obj
 0001:00017190       ?WrapRadio@Radios@Devices@Windows@NodeRT@@YA?AV?$Local@VValue@v8@@@v8@@PE$AAVRadio@123@@Z 0000000180018190 f   _nodert_generated.obj
 0001:000172b0       ?_Bridge@_TaskProcThunk@details@Concurrency@@SAXPEAX@Z 00000001800182b0 f i _nodert_generated.obj
 0001:00017330       ?_Buy@?$vector@PEAXV?$allocator@PEAX@std@@@std@@IEAA_N_K@Z 0000000180018330 f i _nodert_generated.obj
 0001:000173b0       ?_CallInContext@_ContextCallback@details@Concurrency@@QEBAXV?$function@$$A6AXXZ@std@@@Z 00000001800183b0 f i _nodert_generated.obj
 0001:00017460       ?_Callback@_PPLTaskChore@_DefaultPPLTaskScheduler@details@Concurrency@@CAXPEAX@Z 0000000180018460 f i _nodert_generated.obj
 0001:000174b0       ?_CancelAndRunContinuations@?$_Task_impl@E@details@Concurrency@@UEAA_N_N00AEBV?$shared_ptr@U_ExceptionHolder@details@Concurrency@@@std@@@Z 00000001800184b0 f i _nodert_generated.obj
 0001:000176e0       ?_CancelAndRunContinuations@?$_Task_impl@PE$AAU?$IVectorView@PE$AAVRadio@Radios@Devices@Windows@@@Collections@Foundation@Windows@@@details@Concurrency@@UEAA_N_N00AEBV?$shared_ptr@U_ExceptionHolder@details@Concurrency@@@std@@@Z 00000001800186e0 f i _nodert_generated.obj
 0001:00017910       ?_CancelAndRunContinuations@?$_Task_impl@PE$AAVRadio@Radios@Devices@Windows@@@details@Concurrency@@UEAA_N_N00AEBV?$shared_ptr@U_ExceptionHolder@details@Concurrency@@@std@@@Z 0000000180018910 f i _nodert_generated.obj
 0001:00017b40       ?_CancelAndRunContinuations@?$_Task_impl@W4RadioAccessStatus@Radios@Devices@Windows@@@details@Concurrency@@UEAA_N_N00AEBV?$shared_ptr@U_ExceptionHolder@details@Concurrency@@@std@@@Z 0000000180018b40 f i _nodert_generated.obj
 0001:00017d70       ?_CancelWithException@_Task_impl_base@details@Concurrency@@QEAA_NAEBVexception_ptr@std@@@Z 0000000180018d70 f i _nodert_generated.obj
 0001:00017e60       ?_CaptureCurrent@_ContextCallback@details@Concurrency@@SA?AV123@XZ 0000000180018e60 f i _nodert_generated.obj
 0001:00017eb0       ?_CaptureSingleFrameCallstack@_TaskCreationCallstack@details@Concurrency@@SA?AV123@PEAX@Z 0000000180018eb0 f i _nodert_generated.obj
 0001:00017ee0       ?_Complete@_TaskCollectionBaseImpl@details@Concurrency@@QEAAXXZ 0000000180018ee0 f i _nodert_generated.obj
 0001:00017f70       ?_Continue@?$_ContinuationTaskHandle@PE$AAU?$IVectorView@PE$AAVRadio@Radios@Devices@Windows@@@Collections@Foundation@Windows@@XV?$function@$$A6AXV?$task@PE$AAU?$IVectorView@PE$AAVRadio@Radios@Devices@Windows@@@Collections@Foundation@Windows@@@Concurrency@@@Z@std@@U?$integral_constant@_N$00@6@U_TypeSelectorNoAsync@details@Concurrency@@@?$task@PE$AAU?$IVectorView@PE$AAVRadio@Radios@Devices@Windows@@@Collections@Foundation@Windows@@@Concurrency@@QEBAXU?$integral_constant@_N$00@std@@U_TypeSelectorNoAsync@details@3@@Z 0000000180018f70 f i _nodert_generated.obj
 0001:000180f0       ?_Continue@?$_ContinuationTaskHandle@PE$AAVRadio@Radios@Devices@Windows@@XV?$function@$$A6AXV?$task@PE$AAVRadio@Radios@Devices@Windows@@@Concurrency@@@Z@std@@U?$integral_constant@_N$00@6@U_TypeSelectorNoAsync@details@Concurrency@@@?$task@PE$AAVRadio@Radios@Devices@Windows@@@Concurrency@@QEBAXU?$integral_constant@_N$00@std@@U_TypeSelectorNoAsync@details@3@@Z 00000001800190f0 f i _nodert_generated.obj
 0001:00018270       ?_Continue@?$_ContinuationTaskHandle@W4RadioAccessStatus@Radios@Devices@Windows@@XV?$function@$$A6AXV?$task@W4RadioAccessStatus@Radios@Devices@Windows@@@Concurrency@@@Z@std@@U?$integral_constant@_N$00@6@U_TypeSelectorNoAsync@details@Concurrency@@@?$task@W4RadioAccessStatus@Radios@Devices@Windows@@@Concurrency@@QEBAXU?$integral_constant@_N$00@std@@U_TypeSelectorNoAsync@details@3@@Z 0000000180019270 f i _nodert_generated.obj
 0001:000183f0       ?_Copy@?$_Func_impl@V<lambda_13c093ceb3cb7088042cb26732856e67>@@V?$allocator@H@std@@XV?$function@$$A6AXHPEAV?$Local@VValue@v8@@@v8@@@Z@3@@std@@EEBAPEAV?$_Func_base@XV?$function@$$A6AXHPEAV?$Local@VValue@v8@@@v8@@@Z@std@@@2@PEAX@Z 00000001800193f0 f i _nodert_generated.obj
 0001:00018410       ?_Copy@?$_Func_impl@V<lambda_1410bf25c1f3e34acba1e87129c0b837>@@V?$allocator@H@std@@XV?$function@$$A6AXHPEAV?$Local@VValue@v8@@@v8@@@Z@3@@std@@EEBAPEAV?$_Func_base@XV?$function@$$A6AXHPEAV?$Local@VValue@v8@@@v8@@@Z@std@@@2@PEAX@Z 0000000180019410 f i _nodert_generated.obj
 0001:00018490       ?_Copy@?$_Func_impl@V<lambda_199453e3251722af17cbed06cee0aa25>@@V?$allocator@H@std@@EV?$task@W4RadioAccessStatus@Radios@Devices@Windows@@@Concurrency@@@std@@EEBAPEAV?$_Func_base@EV?$task@W4RadioAccessStatus@Radios@Devices@Windows@@@Concurrency@@@2@PEAX@Z 0000000180019490 f i _nodert_generated.obj
 0001:000184a0       ?_Copy@?$_Func_impl@V<lambda_1af583cf6945007177c61d87505abd8e>@@V?$allocator@H@std@@XHPEAV?$Local@VValue@v8@@@v8@@@std@@EEBAPEAV?$_Func_base@XHPEAV?$Local@VValue@v8@@@v8@@@2@PEAX@Z 00000001800194a0 f i _nodert_generated.obj
 0001:000184d0       ?_Copy@?$_Func_impl@V<lambda_332ba2b9435369ab76e287351a81320b>@@V?$allocator@H@std@@XV?$function@$$A6AXHPEAV?$Local@VValue@v8@@@v8@@@Z@3@@std@@EEBAPEAV?$_Func_base@XV?$function@$$A6AXHPEAV?$Local@VValue@v8@@@v8@@@Z@std@@@2@PEAX@Z 00000001800194d0 f i _nodert_generated.obj
 0001:00018550       ?_Copy@?$_Func_impl@V<lambda_34c7f220960deee2386c1fdeeca0be56>@@V?$allocator@H@std@@X$$V@std@@EEBAPEAV?$_Func_base@X$$V@2@PEAX@Z 0000000180019550 f i _nodert_generated.obj
 0001:000185d0       ?_Copy@?$_Func_impl@V<lambda_367e91ba48007cd85cfc48a94120f671>@@V?$allocator@H@std@@X$$V@std@@EEBAPEAV?$_Func_base@X$$V@2@PEAX@Z 00000001800195d0 f i _nodert_generated.obj
 0001:00018650       ?_Copy@?$_Func_impl@V<lambda_6b3d546cb33cb2be9b0a401ff7fba40f>@@V?$allocator@H@std@@XV?$task@PE$AAU?$IVectorView@PE$AAVRadio@Radios@Devices@Windows@@@Collections@Foundation@Windows@@@Concurrency@@@std@@EEBAPEAV?$_Func_base@XV?$task@PE$AAU?$IVectorView@PE$AAVRadio@Radios@Devices@Windows@@@Collections@Foundation@Windows@@@Concurrency@@@2@PEAX@Z 0000000180019650 f i _nodert_generated.obj
 0001:00018680       ?_Copy@?$_Func_impl@V<lambda_6e721a9cc44c44771ffaa71ba9f88df1>@@V?$allocator@H@std@@XV?$function@$$A6AXHPEAV?$Local@VValue@v8@@@v8@@@Z@3@@std@@EEBAPEAV?$_Func_base@XV?$function@$$A6AXHPEAV?$Local@VValue@v8@@@v8@@@Z@std@@@2@PEAX@Z 0000000180019680 f i _nodert_generated.obj
 0001:00018700       ?_Copy@?$_Func_impl@V<lambda_73163a669fe347e5c4e2d28c36c6f8ca>@@V?$allocator@H@std@@EV?$task@PE$AAVRadio@Radios@Devices@Windows@@@Concurrency@@@std@@EEBAPEAV?$_Func_base@EV?$task@PE$AAVRadio@Radios@Devices@Windows@@@Concurrency@@@2@PEAX@Z 0000000180019700 f i _nodert_generated.obj
 0001:00018710       ?_Copy@?$_Func_impl@V<lambda_763529b0c7473cbc215a52d189ac9b18>@@V?$allocator@H@std@@X$$V@std@@EEBAPEAV?$_Func_base@X$$V@2@PEAX@Z 0000000180019710 f i _nodert_generated.obj
 0001:00018740       ?_Copy@?$_Func_impl@V<lambda_83ab8abb741bf007d1b5942dba04bfdd>@@V?$allocator@H@std@@EV?$task@PE$AAU?$IVectorView@PE$AAVRadio@Radios@Devices@Windows@@@Collections@Foundation@Windows@@@Concurrency@@@std@@EEBAPEAV?$_Func_base@EV?$task@PE$AAU?$IVectorView@PE$AAVRadio@Radios@Devices@Windows@@@Collections@Foundation@Windows@@@Concurrency@@@2@PEAX@Z 0000000180019740 f i _nodert_generated.obj
 0001:00018750       ?_Copy@?$_Func_impl@V<lambda_84fe49f24ae8de4bd96cfe7e2e397527>@@V?$allocator@H@std@@XV?$task@W4RadioAccessStatus@Radios@Devices@Windows@@@Concurrency@@@std@@EEBAPEAV?$_Func_base@XV?$task@W4RadioAccessStatus@Radios@Devices@Windows@@@Concurrency@@@2@PEAX@Z 0000000180019750 f i _nodert_generated.obj
 0001:00018780       ?_Copy@?$_Func_impl@V<lambda_86719af9e59bcf010981affea63e2ba5>@@V?$allocator@H@std@@X$$V@std@@EEBAPEAV?$_Func_base@X$$V@2@PEAX@Z 0000000180019780 f i _nodert_generated.obj
 0001:000187c0       ?_Copy@?$_Func_impl@V<lambda_9054500f7a0d601079f2287918e4d694>@@V?$allocator@H@std@@_NV?$Local@VValue@v8@@@v8@@@std@@EEBAPEAV?$_Func_base@_NV?$Local@VValue@v8@@@v8@@@2@PEAX@Z 00000001800197c0 f i _nodert_generated.obj
 0001:000187e0       ?_Copy@?$_Func_impl@V<lambda_923cdb2d6b6e10951a75b3af8d001269>@@V?$allocator@H@std@@XV?$function@$$A6AXHPEAV?$Local@VValue@v8@@@v8@@@Z@3@@std@@EEBAPEAV?$_Func_base@XV?$function@$$A6AXHPEAV?$Local@VValue@v8@@@v8@@@Z@std@@@2@PEAX@Z 00000001800197e0 f i _nodert_generated.obj
 0001:00018860       ?_Copy@?$_Func_impl@V<lambda_937a019cbae5299c9ee089aacd8953b7>@@V?$allocator@H@std@@XV?$function@$$A6AXHPEAV?$Local@VValue@v8@@@v8@@@Z@3@@std@@EEBAPEAV?$_Func_base@XV?$function@$$A6AXHPEAV?$Local@VValue@v8@@@v8@@@Z@std@@@2@PEAX@Z 0000000180019860 f i _nodert_generated.obj
 0001:000188e0       ?_Copy@?$_Func_impl@V<lambda_ae69dad4f0eec31d1194edef18f14e48>@@V?$allocator@H@std@@XV?$task@PE$AAVRadio@Radios@Devices@Windows@@@Concurrency@@@std@@EEBAPEAV?$_Func_base@XV?$task@PE$AAVRadio@Radios@Devices@Windows@@@Concurrency@@@2@PEAX@Z 00000001800198e0 f i _nodert_generated.obj
 0001:00018910       ?_Copy@?$_Func_impl@V<lambda_b053cd760f99e9a3b5b0a75bc506816c>@@V?$allocator@H@std@@V?$Local@VValue@v8@@@v8@@PE$AAVRadio@Radios@Devices@Windows@@@std@@EEBAPEAV?$_Func_base@V?$Local@VValue@v8@@@v8@@PE$AAVRadio@Radios@Devices@Windows@@@2@PEAX@Z 0000000180019910 f i _nodert_generated.obj
 0001:00018930       ?_Copy@?$_Func_impl@V<lambda_bd8db8e132653ed2b09381d83d27b969>@@V?$allocator@H@std@@XV?$function@$$A6AXHPEAV?$Local@VValue@v8@@@v8@@@Z@3@@std@@EEBAPEAV?$_Func_base@XV?$function@$$A6AXHPEAV?$Local@VValue@v8@@@v8@@@Z@std@@@2@PEAX@Z 0000000180019930 f i _nodert_generated.obj
 0001:00018950       ?_Copy@?$_Func_impl@V<lambda_be5e2ae45d9afcdad4d6af170ce6b1a9>@@V?$allocator@H@std@@XV?$function@$$A6AXHPEAV?$Local@VValue@v8@@@v8@@@Z@3@@std@@EEBAPEAV?$_Func_base@XV?$function@$$A6AXHPEAV?$Local@VValue@v8@@@v8@@@Z@std@@@2@PEAX@Z 0000000180019950 f i _nodert_generated.obj
 0001:000189d0       ?_Copy@?$_Func_impl@V<lambda_c806722195bf1298f17615890da7d503>@@V?$allocator@H@std@@PE$AAVRadio@Radios@Devices@Windows@@V?$Local@VValue@v8@@@v8@@@std@@EEBAPEAV?$_Func_base@PE$AAVRadio@Radios@Devices@Windows@@V?$Local@VValue@v8@@@v8@@@2@PEAX@Z 00000001800199d0 f i _nodert_generated.obj
 0001:000189f0       ?_Copy@?$_Func_impl@V<lambda_ccd993006fa69c8498fa84abf616a650>@@V?$allocator@H@std@@X$$V@std@@EEBAPEAV?$_Func_base@X$$V@2@PEAX@Z 00000001800199f0 f i _nodert_generated.obj
 0001:00018a20       ?_Copy@?$_Func_impl@V<lambda_e648a951913df07dc2c48aa4b13c28ad>@@V?$allocator@H@std@@X$$V@std@@EEBAPEAV?$_Func_base@X$$V@2@PEAX@Z 0000000180019a20 f i _nodert_generated.obj
 0001:00018aa0       ?_Copy@?$_Func_impl@V<lambda_e9d83560961a0709c8983a5a76f54321>@@V?$allocator@H@std@@X$$V@std@@EEBAPEAV?$_Func_base@X$$V@2@PEAX@Z 0000000180019aa0 f i _nodert_generated.obj
 0001:00018ad0       ?_Copy@?$_Func_impl@V<lambda_ee2800ccd2b011420c5de0c63356449b>@@V?$allocator@H@std@@X$$V@std@@EEBAPEAV?$_Func_base@X$$V@2@PEAX@Z 0000000180019ad0 f i _nodert_generated.obj
 0001:00018b00       ?_Copy@?$_Func_impl@V<lambda_f25c37099038263181b5186a3fa41b37>@@V?$allocator@H@std@@X$$V@std@@EEBAPEAV?$_Func_base@X$$V@2@PEAX@Z 0000000180019b00 f i _nodert_generated.obj
 0001:00018b70       ?_Copy@?$_Func_impl@V<lambda_f62ce569bcbb190725394d954e43b37a>@@V?$allocator@H@std@@XV?$task@W4RadioAccessStatus@Radios@Devices@Windows@@@Concurrency@@@std@@EEBAPEAV?$_Func_base@XV?$task@W4RadioAccessStatus@Radios@Devices@Windows@@@Concurrency@@@2@PEAX@Z 0000000180019b70 f i _nodert_generated.obj
 0001:00018ba0       ?_Copy@?$_Func_impl@V<lambda_f65fe7dd5d5c7d6beb441784825294a0>@@V?$allocator@H@std@@X$$V@std@@EEBAPEAV?$_Func_base@X$$V@2@PEAX@Z 0000000180019ba0 f i _nodert_generated.obj
 0001:00018bd0       ?_Copy@?$_Func_impl@V<lambda_fa74f712429373a3f78dc33742231903>@@V?$allocator@H@std@@X$$V@std@@EEBAPEAV?$_Func_base@X$$V@2@PEAX@Z 0000000180019bd0 f i _nodert_generated.obj
 0001:00018c00       ?_Copy@?$_Func_impl@V<lambda_fc55a96778b695da9907353a9fdacbca>@@V?$allocator@H@std@@X$$V@std@@EEBAPEAV?$_Func_base@X$$V@2@PEAX@Z 0000000180019c00 f i _nodert_generated.obj
 0001:00018c80       ?_Copy_exception@exception_ptr@std@@SA?AV12@PEAXPEBX@Z 0000000180019c80 f i _nodert_generated.obj
 0001:00018d20       ?_CreateImpl@?$task@E@Concurrency@@QEAAXPEAV_CancellationTokenState@details@2@Uscheduler_ptr@2@@Z 0000000180019d20 f i _nodert_generated.obj
 0001:00018eb0       ?_CreateImpl@?$task@PE$AAU?$IVectorView@PE$AAVRadio@Radios@Devices@Windows@@@Collections@Foundation@Windows@@@Concurrency@@QEAAXPEAV_CancellationTokenState@details@2@Uscheduler_ptr@2@@Z 0000000180019eb0 f i _nodert_generated.obj
 0001:00019040       ?_CreateImpl@?$task@PE$AAVRadio@Radios@Devices@Windows@@@Concurrency@@QEAAXPEAV_CancellationTokenState@details@2@Uscheduler_ptr@2@@Z 000000018001a040 f i _nodert_generated.obj
 0001:000191d0       ?_CreateImpl@?$task@W4RadioAccessStatus@Radios@Devices@Windows@@@Concurrency@@QEAAXPEAV_CancellationTokenState@details@2@Uscheduler_ptr@2@@Z 000000018001a1d0 f i _nodert_generated.obj
 0001:00019360       ?_CreateImpl@?$task@X@Concurrency@@QEAAXPEAV_CancellationTokenState@details@2@Uscheduler_ptr@2@@Z 000000018001a360 f i _nodert_generated.obj
 0001:00019430       ?_CreateOptions@_ThenImplOptions@details@Concurrency@@SA?AU123@AEBVtask_options@3@AEBVtask_continuation_context@3@AEBUscheduler_ptr@3@@Z 000000018001a430 f i _nodert_generated.obj
 0001:000198c0       ?_Current_exception@exception_ptr@std@@SA?AV12@XZ 000000018001a8c0 f i _nodert_generated.obj
 0001:000198f0       ?_Delete_this@?$_Func_impl@V<lambda_13c093ceb3cb7088042cb26732856e67>@@V?$allocator@H@std@@XV?$function@$$A6AXHPEAV?$Local@VValue@v8@@@v8@@@Z@3@@std@@EEAAX_N@Z 000000018001a8f0 f i _nodert_generated.obj
 0001:00019910       ?_Delete_this@?$_Func_impl@V<lambda_1410bf25c1f3e34acba1e87129c0b837>@@V?$allocator@H@std@@XV?$function@$$A6AXHPEAV?$Local@VValue@v8@@@v8@@@Z@3@@std@@EEAAX_N@Z 000000018001a910 f i _nodert_generated.obj
 0001:00019980       ?_Delete_this@?$_Func_impl@V<lambda_199453e3251722af17cbed06cee0aa25>@@V?$allocator@H@std@@EV?$task@W4RadioAccessStatus@Radios@Devices@Windows@@@Concurrency@@@std@@EEAAX_N@Z 000000018001a980 f i _nodert_generated.obj
 0001:00019a00       ?_Delete_this@?$_Func_impl@V<lambda_1af583cf6945007177c61d87505abd8e>@@V?$allocator@H@std@@XHPEAV?$Local@VValue@v8@@@v8@@@std@@EEAAX_N@Z 000000018001aa00 f i _nodert_generated.obj
 0001:00019a20       ?_Delete_this@?$_Func_impl@V<lambda_332ba2b9435369ab76e287351a81320b>@@V?$allocator@H@std@@XV?$function@$$A6AXHPEAV?$Local@VValue@v8@@@v8@@@Z@3@@std@@EEAAX_N@Z 000000018001aa20 f i _nodert_generated.obj
 0001:00019a90       ?_Delete_this@?$_Func_impl@V<lambda_34c7f220960deee2386c1fdeeca0be56>@@V?$allocator@H@std@@X$$V@std@@EEAAX_N@Z 000000018001aa90 f i _nodert_generated.obj
 0001:00019b00       ?_Delete_this@?$_Func_impl@V<lambda_367e91ba48007cd85cfc48a94120f671>@@V?$allocator@H@std@@X$$V@std@@EEAAX_N@Z 000000018001ab00 f i _nodert_generated.obj
 0001:00019b70       ?_Delete_this@?$_Func_impl@V<lambda_6b3d546cb33cb2be9b0a401ff7fba40f>@@V?$allocator@H@std@@XV?$task@PE$AAU?$IVectorView@PE$AAVRadio@Radios@Devices@Windows@@@Collections@Foundation@Windows@@@Concurrency@@@std@@EEAAX_N@Z 000000018001ab70 f i _nodert_generated.obj
 0001:00019b90       ?_Delete_this@?$_Func_impl@V<lambda_6e721a9cc44c44771ffaa71ba9f88df1>@@V?$allocator@H@std@@XV?$function@$$A6AXHPEAV?$Local@VValue@v8@@@v8@@@Z@3@@std@@EEAAX_N@Z 000000018001ab90 f i _nodert_generated.obj
 0001:00019c00       ?_Delete_this@?$_Func_impl@V<lambda_73163a669fe347e5c4e2d28c36c6f8ca>@@V?$allocator@H@std@@EV?$task@PE$AAVRadio@Radios@Devices@Windows@@@Concurrency@@@std@@EEAAX_N@Z 000000018001ac00 f i _nodert_generated.obj
 0001:00019c80       ?_Delete_this@?$_Func_impl@V<lambda_763529b0c7473cbc215a52d189ac9b18>@@V?$allocator@H@std@@X$$V@std@@EEAAX_N@Z 000000018001ac80 f i _nodert_generated.obj
 0001:00019ca0       ?_Delete_this@?$_Func_impl@V<lambda_83ab8abb741bf007d1b5942dba04bfdd>@@V?$allocator@H@std@@EV?$task@PE$AAU?$IVectorView@PE$AAVRadio@Radios@Devices@Windows@@@Collections@Foundation@Windows@@@Concurrency@@@std@@EEAAX_N@Z 000000018001aca0 f i _nodert_generated.obj
 0001:00019d20       ?_Delete_this@?$_Func_impl@V<lambda_84fe49f24ae8de4bd96cfe7e2e397527>@@V?$allocator@H@std@@XV?$task@W4RadioAccessStatus@Radios@Devices@Windows@@@Concurrency@@@std@@EEAAX_N@Z 000000018001ad20 f i _nodert_generated.obj
 0001:00019d40       ?_Delete_this@?$_Func_impl@V<lambda_86719af9e59bcf010981affea63e2ba5>@@V?$allocator@H@std@@X$$V@std@@EEAAX_N@Z 000000018001ad40 f i _nodert_generated.obj
 0001:00019da0       ?_Delete_this@?$_Func_impl@V<lambda_9054500f7a0d601079f2287918e4d694>@@V?$allocator@H@std@@_NV?$Local@VValue@v8@@@v8@@@std@@EEAAX_N@Z 000000018001ada0 f i _nodert_generated.obj
 0001:00019dc0       ?_Delete_this@?$_Func_impl@V<lambda_923cdb2d6b6e10951a75b3af8d001269>@@V?$allocator@H@std@@XV?$function@$$A6AXHPEAV?$Local@VValue@v8@@@v8@@@Z@3@@std@@EEAAX_N@Z 000000018001adc0 f i _nodert_generated.obj
 0001:00019e30       ?_Delete_this@?$_Func_impl@V<lambda_937a019cbae5299c9ee089aacd8953b7>@@V?$allocator@H@std@@XV?$function@$$A6AXHPEAV?$Local@VValue@v8@@@v8@@@Z@3@@std@@EEAAX_N@Z 000000018001ae30 f i _nodert_generated.obj
 0001:00019ea0       ?_Delete_this@?$_Func_impl@V<lambda_ae69dad4f0eec31d1194edef18f14e48>@@V?$allocator@H@std@@XV?$task@PE$AAVRadio@Radios@Devices@Windows@@@Concurrency@@@std@@EEAAX_N@Z 000000018001aea0 f i _nodert_generated.obj
 0001:00019ec0       ?_Delete_this@?$_Func_impl@V<lambda_b053cd760f99e9a3b5b0a75bc506816c>@@V?$allocator@H@std@@V?$Local@VValue@v8@@@v8@@PE$AAVRadio@Radios@Devices@Windows@@@std@@EEAAX_N@Z 000000018001aec0 f i _nodert_generated.obj
 0001:00019ee0       ?_Delete_this@?$_Func_impl@V<lambda_bd8db8e132653ed2b09381d83d27b969>@@V?$allocator@H@std@@XV?$function@$$A6AXHPEAV?$Local@VValue@v8@@@v8@@@Z@3@@std@@EEAAX_N@Z 000000018001aee0 f i _nodert_generated.obj
 0001:00019f00       ?_Delete_this@?$_Func_impl@V<lambda_be5e2ae45d9afcdad4d6af170ce6b1a9>@@V?$allocator@H@std@@XV?$function@$$A6AXHPEAV?$Local@VValue@v8@@@v8@@@Z@3@@std@@EEAAX_N@Z 000000018001af00 f i _nodert_generated.obj
 0001:00019f70       ?_Delete_this@?$_Func_impl@V<lambda_c806722195bf1298f17615890da7d503>@@V?$allocator@H@std@@PE$AAVRadio@Radios@Devices@Windows@@V?$Local@VValue@v8@@@v8@@@std@@EEAAX_N@Z 000000018001af70 f i _nodert_generated.obj
 0001:00019f90       ?_Delete_this@?$_Func_impl@V<lambda_ccd993006fa69c8498fa84abf616a650>@@V?$allocator@H@std@@X$$V@std@@EEAAX_N@Z 000000018001af90 f i _nodert_generated.obj
 0001:00019fb0       ?_Delete_this@?$_Func_impl@V<lambda_e648a951913df07dc2c48aa4b13c28ad>@@V?$allocator@H@std@@X$$V@std@@EEAAX_N@Z 000000018001afb0 f i _nodert_generated.obj
 0001:0001a020       ?_Delete_this@?$_Func_impl@V<lambda_e9d83560961a0709c8983a5a76f54321>@@V?$allocator@H@std@@X$$V@std@@EEAAX_N@Z 000000018001b020 f i _nodert_generated.obj
 0001:0001a040       ?_Delete_this@?$_Func_impl@V<lambda_ee2800ccd2b011420c5de0c63356449b>@@V?$allocator@H@std@@X$$V@std@@EEAAX_N@Z 000000018001b040 f i _nodert_generated.obj
 0001:0001a060       ?_Delete_this@?$_Func_impl@V<lambda_f25c37099038263181b5186a3fa41b37>@@V?$allocator@H@std@@X$$V@std@@EEAAX_N@Z 000000018001b060 f i _nodert_generated.obj
 0001:0001a0a0       ?_Delete_this@?$_Func_impl@V<lambda_f62ce569bcbb190725394d954e43b37a>@@V?$allocator@H@std@@XV?$task@W4RadioAccessStatus@Radios@Devices@Windows@@@Concurrency@@@std@@EEAAX_N@Z 000000018001b0a0 f i _nodert_generated.obj
 0001:0001a0c0       ?_Delete_this@?$_Func_impl@V<lambda_f65fe7dd5d5c7d6beb441784825294a0>@@V?$allocator@H@std@@X$$V@std@@EEAAX_N@Z 000000018001b0c0 f i _nodert_generated.obj
 0001:0001a0e0       ?_Delete_this@?$_Func_impl@V<lambda_fa74f712429373a3f78dc33742231903>@@V?$allocator@H@std@@X$$V@std@@EEAAX_N@Z 000000018001b0e0 f i _nodert_generated.obj
 0001:0001a100       ?_Delete_this@?$_Func_impl@V<lambda_fc55a96778b695da9907353a9fdacbca>@@V?$allocator@H@std@@X$$V@std@@EEAAX_N@Z 000000018001b100 f i _nodert_generated.obj
 0001:0001a140       ?_Delete_this@?$_Ref_count_del@V?$Persistent@VObject@v8@@V?$NonCopyablePersistentTraits@VObject@v8@@@2@@Nan@@V<lambda_7ce441e15ae9de863eea1ca9a10cae26>@@@std@@EEAAXXZ 000000018001b140 f i _nodert_generated.obj
 0001:0001a160       ?_Delete_this@?$_Ref_count_obj@U?$_Task_impl@E@details@Concurrency@@@std@@EEAAXXZ 000000018001b160 f i _nodert_generated.obj
 0001:0001a180       ?_Delete_this@?$_Ref_count_obj@U?$_Task_impl@PE$AAU?$IVectorView@PE$AAVRadio@Radios@Devices@Windows@@@Collections@Foundation@Windows@@@details@Concurrency@@@std@@EEAAXXZ 000000018001b180 f i _nodert_generated.obj
 0001:0001a1a0       ?_Delete_this@?$_Ref_count_obj@U?$_Task_impl@PE$AAVRadio@Radios@Devices@Windows@@@details@Concurrency@@@std@@EEAAXXZ 000000018001b1a0 f i _nodert_generated.obj
 0001:0001a1c0       ?_Delete_this@?$_Ref_count_obj@U?$_Task_impl@W4RadioAccessStatus@Radios@Devices@Windows@@@details@Concurrency@@@std@@EEAAXXZ 000000018001b1c0 f i _nodert_generated.obj
 0001:0001a1e0       ?_Delete_this@?$_Ref_count_obj@U_ExceptionHolder@details@Concurrency@@@std@@EEAAXXZ 000000018001b1e0 f i _nodert_generated.obj
 0001:0001a200       ?_DeregisterCallback@_CancellationTokenState@details@Concurrency@@QEAAXPEAV_CancellationTokenRegistration@23@@Z 000000018001b200 f i _nodert_generated.obj
 0001:0001a3f0       ?_Destroy@?$_Ref_count_del@V?$Persistent@VObject@v8@@V?$NonCopyablePersistentTraits@VObject@v8@@@2@@Nan@@V<lambda_7ce441e15ae9de863eea1ca9a10cae26>@@@std@@EEAAXXZ 000000018001b3f0 f i _nodert_generated.obj
 0001:0001a430       ?_Destroy@?$_Ref_count_obj@U?$_Task_impl@E@details@Concurrency@@@std@@EEAAXXZ 000000018001b430 f i _nodert_generated.obj
 0001:0001a440       ?_Destroy@?$_Ref_count_obj@U?$_Task_impl@PE$AAU?$IVectorView@PE$AAVRadio@Radios@Devices@Windows@@@Collections@Foundation@Windows@@@details@Concurrency@@@std@@EEAAXXZ 000000018001b440 f i _nodert_generated.obj
 0001:0001a450       ?_Destroy@?$_Ref_count_obj@U?$_Task_impl@PE$AAVRadio@Radios@Devices@Windows@@@details@Concurrency@@@std@@EEAAXXZ 000000018001b450 f i _nodert_generated.obj
 0001:0001a460       ?_Destroy@?$_Ref_count_obj@U?$_Task_impl@W4RadioAccessStatus@Radios@Devices@Windows@@@details@Concurrency@@@std@@EEAAXXZ 000000018001b460 f i _nodert_generated.obj
 0001:0001a470       ?_Destroy@?$_Ref_count_obj@U_ExceptionHolder@details@Concurrency@@@std@@EEAAXXZ 000000018001b470 f i _nodert_generated.obj
 0001:0001a480       ?_Destroy@_RefCounter@details@Concurrency@@MEAAXXZ 000000018001b480 f i _nodert_generated.obj
 0001:0001a4a0       ?_Do_call@?$_Func_impl@V<lambda_13c093ceb3cb7088042cb26732856e67>@@V?$allocator@H@std@@XV?$function@$$A6AXHPEAV?$Local@VValue@v8@@@v8@@@Z@3@@std@@EEAAX$$QEAV?$function@$$A6AXHPEAV?$Local@VValue@v8@@@v8@@@Z@2@@Z 000000018001b4a0 f i _nodert_generated.obj
 0001:0001a4d0       ?_Do_call@?$_Func_impl@V<lambda_1410bf25c1f3e34acba1e87129c0b837>@@V?$allocator@H@std@@XV?$function@$$A6AXHPEAV?$Local@VValue@v8@@@v8@@@Z@3@@std@@EEAAX$$QEAV?$function@$$A6AXHPEAV?$Local@VValue@v8@@@v8@@@Z@2@@Z 000000018001b4d0 f i _nodert_generated.obj
 0001:0001a500       ?_Do_call@?$_Func_impl@V<lambda_199453e3251722af17cbed06cee0aa25>@@V?$allocator@H@std@@EV?$task@W4RadioAccessStatus@Radios@Devices@Windows@@@Concurrency@@@std@@EEAAE$$QEAV?$task@W4RadioAccessStatus@Radios@Devices@Windows@@@Concurrency@@@Z 000000018001b500 f i _nodert_generated.obj
 0001:0001a540       ?_Do_call@?$_Func_impl@V<lambda_1af583cf6945007177c61d87505abd8e>@@V?$allocator@H@std@@XHPEAV?$Local@VValue@v8@@@v8@@@std@@EEAAX$$QEAH$$QEAPEAV?$Local@VValue@v8@@@v8@@@Z 000000018001b540 f i _nodert_generated.obj
 0001:0001a560       ?_Do_call@?$_Func_impl@V<lambda_332ba2b9435369ab76e287351a81320b>@@V?$allocator@H@std@@XV?$function@$$A6AXHPEAV?$Local@VValue@v8@@@v8@@@Z@3@@std@@EEAAX$$QEAV?$function@$$A6AXHPEAV?$Local@VValue@v8@@@v8@@@Z@2@@Z 000000018001b560 f i _nodert_generated.obj
 0001:0001a590       ?_Do_call@?$_Func_impl@V<lambda_34c7f220960deee2386c1fdeeca0be56>@@V?$allocator@H@std@@X$$V@std@@EEAAXXZ 000000018001b590 f i _nodert_generated.obj
 0001:0001a620       ?_Do_call@?$_Func_impl@V<lambda_367e91ba48007cd85cfc48a94120f671>@@V?$allocator@H@std@@X$$V@std@@EEAAXXZ 000000018001b620 f i _nodert_generated.obj
 0001:0001a6b0       ?_Do_call@?$_Func_impl@V<lambda_6b3d546cb33cb2be9b0a401ff7fba40f>@@V?$allocator@H@std@@XV?$task@PE$AAU?$IVectorView@PE$AAVRadio@Radios@Devices@Windows@@@Collections@Foundation@Windows@@@Concurrency@@@std@@EEAAX$$QEAV?$task@PE$AAU?$IVectorView@PE$AAVRadio@Radios@Devices@Windows@@@Collections@Foundation@Windows@@@Concurrency@@@Z 000000018001b6b0 f i _nodert_generated.obj
 0001:0001a6f0       ?_Do_call@?$_Func_impl@V<lambda_6e721a9cc44c44771ffaa71ba9f88df1>@@V?$allocator@H@std@@XV?$function@$$A6AXHPEAV?$Local@VValue@v8@@@v8@@@Z@3@@std@@EEAAX$$QEAV?$function@$$A6AXHPEAV?$Local@VValue@v8@@@v8@@@Z@2@@Z 000000018001b6f0 f i _nodert_generated.obj
 0001:0001a720       ?_Do_call@?$_Func_impl@V<lambda_73163a669fe347e5c4e2d28c36c6f8ca>@@V?$allocator@H@std@@EV?$task@PE$AAVRadio@Radios@Devices@Windows@@@Concurrency@@@std@@EEAAE$$QEAV?$task@PE$AAVRadio@Radios@Devices@Windows@@@Concurrency@@@Z 000000018001b720 f i _nodert_generated.obj
 0001:0001a760       ?_Do_call@?$_Func_impl@V<lambda_763529b0c7473cbc215a52d189ac9b18>@@V?$allocator@H@std@@X$$V@std@@EEAAXXZ 000000018001b760 f i _nodert_generated.obj
 0001:0001a770       ?_Do_call@?$_Func_impl@V<lambda_83ab8abb741bf007d1b5942dba04bfdd>@@V?$allocator@H@std@@EV?$task@PE$AAU?$IVectorView@PE$AAVRadio@Radios@Devices@Windows@@@Collections@Foundation@Windows@@@Concurrency@@@std@@EEAAE$$QEAV?$task@PE$AAU?$IVectorView@PE$AAVRadio@Radios@Devices@Windows@@@Collections@Foundation@Windows@@@Concurrency@@@Z 000000018001b770 f i _nodert_generated.obj
 0001:0001a7b0       ?_Do_call@?$_Func_impl@V<lambda_84fe49f24ae8de4bd96cfe7e2e397527>@@V?$allocator@H@std@@XV?$task@W4RadioAccessStatus@Radios@Devices@Windows@@@Concurrency@@@std@@EEAAX$$QEAV?$task@W4RadioAccessStatus@Radios@Devices@Windows@@@Concurrency@@@Z 000000018001b7b0 f i _nodert_generated.obj
 0001:0001a7f0       ?_Do_call@?$_Func_impl@V<lambda_86719af9e59bcf010981affea63e2ba5>@@V?$allocator@H@std@@X$$V@std@@EEAAXXZ 000000018001b7f0 f i _nodert_generated.obj
 0001:0001a800       ?_Do_call@?$_Func_impl@V<lambda_9054500f7a0d601079f2287918e4d694>@@V?$allocator@H@std@@_NV?$Local@VValue@v8@@@v8@@@std@@EEAA_N$$QEAV?$Local@VValue@v8@@@v8@@@Z 000000018001b800 f i _nodert_generated.obj
 0001:0001a810       ?_Do_call@?$_Func_impl@V<lambda_923cdb2d6b6e10951a75b3af8d001269>@@V?$allocator@H@std@@XV?$function@$$A6AXHPEAV?$Local@VValue@v8@@@v8@@@Z@3@@std@@EEAAX$$QEAV?$function@$$A6AXHPEAV?$Local@VValue@v8@@@v8@@@Z@2@@Z 000000018001b810 f i _nodert_generated.obj
 0001:0001a840       ?_Do_call@?$_Func_impl@V<lambda_937a019cbae5299c9ee089aacd8953b7>@@V?$allocator@H@std@@XV?$function@$$A6AXHPEAV?$Local@VValue@v8@@@v8@@@Z@3@@std@@EEAAX$$QEAV?$function@$$A6AXHPEAV?$Local@VValue@v8@@@v8@@@Z@2@@Z 000000018001b840 f i _nodert_generated.obj
 0001:0001a870       ?_Do_call@?$_Func_impl@V<lambda_ae69dad4f0eec31d1194edef18f14e48>@@V?$allocator@H@std@@XV?$task@PE$AAVRadio@Radios@Devices@Windows@@@Concurrency@@@std@@EEAAX$$QEAV?$task@PE$AAVRadio@Radios@Devices@Windows@@@Concurrency@@@Z 000000018001b870 f i _nodert_generated.obj
 0001:0001a8b0       ?_Do_call@?$_Func_impl@V<lambda_b053cd760f99e9a3b5b0a75bc506816c>@@V?$allocator@H@std@@V?$Local@VValue@v8@@@v8@@PE$AAVRadio@Radios@Devices@Windows@@@std@@EEAA?AV?$Local@VValue@v8@@@v8@@$$QEAPE$AAVRadio@Radios@Devices@Windows@@@Z 000000018001b8b0 f i _nodert_generated.obj
 0001:0001a8e0       ?_Do_call@?$_Func_impl@V<lambda_bd8db8e132653ed2b09381d83d27b969>@@V?$allocator@H@std@@XV?$function@$$A6AXHPEAV?$Local@VValue@v8@@@v8@@@Z@3@@std@@EEAAX$$QEAV?$function@$$A6AXHPEAV?$Local@VValue@v8@@@v8@@@Z@2@@Z 000000018001b8e0 f i _nodert_generated.obj
 0001:0001a910       ?_Do_call@?$_Func_impl@V<lambda_be5e2ae45d9afcdad4d6af170ce6b1a9>@@V?$allocator@H@std@@XV?$function@$$A6AXHPEAV?$Local@VValue@v8@@@v8@@@Z@3@@std@@EEAAX$$QEAV?$function@$$A6AXHPEAV?$Local@VValue@v8@@@v8@@@Z@2@@Z 000000018001b910 f i _nodert_generated.obj
 0001:0001a940       ?_Do_call@?$_Func_impl@V<lambda_c806722195bf1298f17615890da7d503>@@V?$allocator@H@std@@PE$AAVRadio@Radios@Devices@Windows@@V?$Local@VValue@v8@@@v8@@@std@@EEAAPE$AAVRadio@Radios@Devices@Windows@@$$QEAV?$Local@VValue@v8@@@v8@@@Z 000000018001b940 f i _nodert_generated.obj
 0001:0001a980       ?_Do_call@?$_Func_impl@V<lambda_ccd993006fa69c8498fa84abf616a650>@@V?$allocator@H@std@@X$$V@std@@EEAAXXZ 000000018001b980 f i _nodert_generated.obj
 0001:0001a990       ?_Do_call@?$_Func_impl@V<lambda_e648a951913df07dc2c48aa4b13c28ad>@@V?$allocator@H@std@@X$$V@std@@EEAAXXZ 000000018001b990 f i _nodert_generated.obj
 0001:0001aa20       ?_Do_call@?$_Func_impl@V<lambda_e9d83560961a0709c8983a5a76f54321>@@V?$allocator@H@std@@X$$V@std@@EEAAXXZ 000000018001ba20 f i _nodert_generated.obj
 0001:0001aa30       ?_Do_call@?$_Func_impl@V<lambda_ee2800ccd2b011420c5de0c63356449b>@@V?$allocator@H@std@@X$$V@std@@EEAAXXZ 000000018001ba30 f i _nodert_generated.obj
 0001:0001aa40       ?_Do_call@?$_Func_impl@V<lambda_f25c37099038263181b5186a3fa41b37>@@V?$allocator@H@std@@X$$V@std@@EEAAXXZ 000000018001ba40 f i _nodert_generated.obj
 0001:0001aa90       ?_Do_call@?$_Func_impl@V<lambda_f62ce569bcbb190725394d954e43b37a>@@V?$allocator@H@std@@XV?$task@W4RadioAccessStatus@Radios@Devices@Windows@@@Concurrency@@@std@@EEAAX$$QEAV?$task@W4RadioAccessStatus@Radios@Devices@Windows@@@Concurrency@@@Z 000000018001ba90 f i _nodert_generated.obj
 0001:0001aad0       ?_Do_call@?$_Func_impl@V<lambda_f65fe7dd5d5c7d6beb441784825294a0>@@V?$allocator@H@std@@X$$V@std@@EEAAXXZ 000000018001bad0 f i _nodert_generated.obj
 0001:0001aae0       ?_Do_call@?$_Func_impl@V<lambda_fa74f712429373a3f78dc33742231903>@@V?$allocator@H@std@@X$$V@std@@EEAAXXZ 000000018001bae0 f i _nodert_generated.obj
 0001:0001ab50       ?_Do_call@?$_Func_impl@V<lambda_fc55a96778b695da9907353a9fdacbca>@@V?$allocator@H@std@@X$$V@std@@EEAAXXZ 000000018001bb50 f i _nodert_generated.obj
 0001:0001ab60       ?_Doraise@exception@stdext@@MEBAXXZ 000000018001bb60 f i _nodert_generated.obj
 0001:0001ab70       ?_Doraise@runtime_error@std@@MEBAXXZ 000000018001bb70 f i _nodert_generated.obj
 0001:0001aba0       ?_Exec@?$_CancellationTokenCallback@V<lambda_be3e5d9dce35d2c8dbfa8485373731d5>@@@details@Concurrency@@MEAAXXZ 000000018001bba0 f i _nodert_generated.obj
 0001:0001abb0       ?_FinalizeAndRunContinuations@?$_Task_impl@E@details@Concurrency@@QEAAXE@Z 000000018001bbb0 f i _nodert_generated.obj
 0001:0001ac60       ?_FinalizeAndRunContinuations@?$_Task_impl@PE$AAU?$IVectorView@PE$AAVRadio@Radios@Devices@Windows@@@Collections@Foundation@Windows@@@details@Concurrency@@QEAAXPE$AAU?$IVectorView@PE$AAVRadio@Radios@Devices@Windows@@@Collections@Foundation@Windows@@@Z 000000018001bc60 f i _nodert_generated.obj
 0001:0001ad60       ?_FinalizeAndRunContinuations@?$_Task_impl@PE$AAVRadio@Radios@Devices@Windows@@@details@Concurrency@@QEAAXPE$AAVRadio@Radios@Devices@Windows@@@Z 000000018001bd60 f i _nodert_generated.obj
 0001:0001ae90       ?_FinalizeAndRunContinuations@?$_Task_impl@W4RadioAccessStatus@Radios@Devices@Windows@@@details@Concurrency@@QEAAXW4RadioAccessStatus@Radios@Devices@Windows@@@Z 000000018001be90 f i _nodert_generated.obj
 0001:0001af40       ?_Get@?$_Func_impl@V<lambda_13c093ceb3cb7088042cb26732856e67>@@V?$allocator@H@std@@XV?$function@$$A6AXHPEAV?$Local@VValue@v8@@@v8@@@Z@3@@std@@EEBAPEBXXZ 000000018001bf40 f i _nodert_generated.obj
 0001:0001af50       ?_Get@?$_Func_impl@V<lambda_1410bf25c1f3e34acba1e87129c0b837>@@V?$allocator@H@std@@XV?$function@$$A6AXHPEAV?$Local@VValue@v8@@@v8@@@Z@3@@std@@EEBAPEBXXZ 000000018001bf50 f i _nodert_generated.obj
 0001:0001af60       ?_Get@?$_Func_impl@V<lambda_199453e3251722af17cbed06cee0aa25>@@V?$allocator@H@std@@EV?$task@W4RadioAccessStatus@Radios@Devices@Windows@@@Concurrency@@@std@@EEBAPEBXXZ 000000018001bf60 f i _nodert_generated.obj
 0001:0001af70       ?_Get@?$_Func_impl@V<lambda_1af583cf6945007177c61d87505abd8e>@@V?$allocator@H@std@@XHPEAV?$Local@VValue@v8@@@v8@@@std@@EEBAPEBXXZ 000000018001bf70 f i _nodert_generated.obj
 0001:0001af80       ?_Get@?$_Func_impl@V<lambda_332ba2b9435369ab76e287351a81320b>@@V?$allocator@H@std@@XV?$function@$$A6AXHPEAV?$Local@VValue@v8@@@v8@@@Z@3@@std@@EEBAPEBXXZ 000000018001bf80 f i _nodert_generated.obj
 0001:0001af90       ?_Get@?$_Func_impl@V<lambda_34c7f220960deee2386c1fdeeca0be56>@@V?$allocator@H@std@@X$$V@std@@EEBAPEBXXZ 000000018001bf90 f i _nodert_generated.obj
 0001:0001afa0       ?_Get@?$_Func_impl@V<lambda_367e91ba48007cd85cfc48a94120f671>@@V?$allocator@H@std@@X$$V@std@@EEBAPEBXXZ 000000018001bfa0 f i _nodert_generated.obj
 0001:0001afb0       ?_Get@?$_Func_impl@V<lambda_6b3d546cb33cb2be9b0a401ff7fba40f>@@V?$allocator@H@std@@XV?$task@PE$AAU?$IVectorView@PE$AAVRadio@Radios@Devices@Windows@@@Collections@Foundation@Windows@@@Concurrency@@@std@@EEBAPEBXXZ 000000018001bfb0 f i _nodert_generated.obj
 0001:0001afc0       ?_Get@?$_Func_impl@V<lambda_6e721a9cc44c44771ffaa71ba9f88df1>@@V?$allocator@H@std@@XV?$function@$$A6AXHPEAV?$Local@VValue@v8@@@v8@@@Z@3@@std@@EEBAPEBXXZ 000000018001bfc0 f i _nodert_generated.obj
 0001:0001afd0       ?_Get@?$_Func_impl@V<lambda_73163a669fe347e5c4e2d28c36c6f8ca>@@V?$allocator@H@std@@EV?$task@PE$AAVRadio@Radios@Devices@Windows@@@Concurrency@@@std@@EEBAPEBXXZ 000000018001bfd0 f i _nodert_generated.obj
 0001:0001afe0       ?_Get@?$_Func_impl@V<lambda_763529b0c7473cbc215a52d189ac9b18>@@V?$allocator@H@std@@X$$V@std@@EEBAPEBXXZ 000000018001bfe0 f i _nodert_generated.obj
 0001:0001aff0       ?_Get@?$_Func_impl@V<lambda_83ab8abb741bf007d1b5942dba04bfdd>@@V?$allocator@H@std@@EV?$task@PE$AAU?$IVectorView@PE$AAVRadio@Radios@Devices@Windows@@@Collections@Foundation@Windows@@@Concurrency@@@std@@EEBAPEBXXZ 000000018001bff0 f i _nodert_generated.obj
 0001:0001b000       ?_Get@?$_Func_impl@V<lambda_84fe49f24ae8de4bd96cfe7e2e397527>@@V?$allocator@H@std@@XV?$task@W4RadioAccessStatus@Radios@Devices@Windows@@@Concurrency@@@std@@EEBAPEBXXZ 000000018001c000 f i _nodert_generated.obj
 0001:0001b010       ?_Get@?$_Func_impl@V<lambda_86719af9e59bcf010981affea63e2ba5>@@V?$allocator@H@std@@X$$V@std@@EEBAPEBXXZ 000000018001c010 f i _nodert_generated.obj
 0001:0001b020       ?_Get@?$_Func_impl@V<lambda_9054500f7a0d601079f2287918e4d694>@@V?$allocator@H@std@@_NV?$Local@VValue@v8@@@v8@@@std@@EEBAPEBXXZ 000000018001c020 f i _nodert_generated.obj
 0001:0001b030       ?_Get@?$_Func_impl@V<lambda_923cdb2d6b6e10951a75b3af8d001269>@@V?$allocator@H@std@@XV?$function@$$A6AXHPEAV?$Local@VValue@v8@@@v8@@@Z@3@@std@@EEBAPEBXXZ 000000018001c030 f i _nodert_generated.obj
 0001:0001b040       ?_Get@?$_Func_impl@V<lambda_937a019cbae5299c9ee089aacd8953b7>@@V?$allocator@H@std@@XV?$function@$$A6AXHPEAV?$Local@VValue@v8@@@v8@@@Z@3@@std@@EEBAPEBXXZ 000000018001c040 f i _nodert_generated.obj
 0001:0001b050       ?_Get@?$_Func_impl@V<lambda_ae69dad4f0eec31d1194edef18f14e48>@@V?$allocator@H@std@@XV?$task@PE$AAVRadio@Radios@Devices@Windows@@@Concurrency@@@std@@EEBAPEBXXZ 000000018001c050 f i _nodert_generated.obj
 0001:0001b060       ?_Get@?$_Func_impl@V<lambda_b053cd760f99e9a3b5b0a75bc506816c>@@V?$allocator@H@std@@V?$Local@VValue@v8@@@v8@@PE$AAVRadio@Radios@Devices@Windows@@@std@@EEBAPEBXXZ 000000018001c060 f i _nodert_generated.obj
 0001:0001b070       ?_Get@?$_Func_impl@V<lambda_bd8db8e132653ed2b09381d83d27b969>@@V?$allocator@H@std@@XV?$function@$$A6AXHPEAV?$Local@VValue@v8@@@v8@@@Z@3@@std@@EEBAPEBXXZ 000000018001c070 f i _nodert_generated.obj
 0001:0001b080       ?_Get@?$_Func_impl@V<lambda_be5e2ae45d9afcdad4d6af170ce6b1a9>@@V?$allocator@H@std@@XV?$function@$$A6AXHPEAV?$Local@VValue@v8@@@v8@@@Z@3@@std@@EEBAPEBXXZ 000000018001c080 f i _nodert_generated.obj
 0001:0001b090       ?_Get@?$_Func_impl@V<lambda_c806722195bf1298f17615890da7d503>@@V?$allocator@H@std@@PE$AAVRadio@Radios@Devices@Windows@@V?$Local@VValue@v8@@@v8@@@std@@EEBAPEBXXZ 000000018001c090 f i _nodert_generated.obj
 0001:0001b0a0       ?_Get@?$_Func_impl@V<lambda_ccd993006fa69c8498fa84abf616a650>@@V?$allocator@H@std@@X$$V@std@@EEBAPEBXXZ 000000018001c0a0 f i _nodert_generated.obj
 0001:0001b0b0       ?_Get@?$_Func_impl@V<lambda_e648a951913df07dc2c48aa4b13c28ad>@@V?$allocator@H@std@@X$$V@std@@EEBAPEBXXZ 000000018001c0b0 f i _nodert_generated.obj
 0001:0001b0c0       ?_Get@?$_Func_impl@V<lambda_e9d83560961a0709c8983a5a76f54321>@@V?$allocator@H@std@@X$$V@std@@EEBAPEBXXZ 000000018001c0c0 f i _nodert_generated.obj
 0001:0001b0d0       ?_Get@?$_Func_impl@V<lambda_ee2800ccd2b011420c5de0c63356449b>@@V?$allocator@H@std@@X$$V@std@@EEBAPEBXXZ 000000018001c0d0 f i _nodert_generated.obj
 0001:0001b0e0       ?_Get@?$_Func_impl@V<lambda_f25c37099038263181b5186a3fa41b37>@@V?$allocator@H@std@@X$$V@std@@EEBAPEBXXZ 000000018001c0e0 f i _nodert_generated.obj
 0001:0001b0f0       ?_Get@?$_Func_impl@V<lambda_f62ce569bcbb190725394d954e43b37a>@@V?$allocator@H@std@@XV?$task@W4RadioAccessStatus@Radios@Devices@Windows@@@Concurrency@@@std@@EEBAPEBXXZ 000000018001c0f0 f i _nodert_generated.obj
 0001:0001b100       ?_Get@?$_Func_impl@V<lambda_f65fe7dd5d5c7d6beb441784825294a0>@@V?$allocator@H@std@@X$$V@std@@EEBAPEBXXZ 000000018001c100 f i _nodert_generated.obj
 0001:0001b110       ?_Get@?$_Func_impl@V<lambda_fa74f712429373a3f78dc33742231903>@@V?$allocator@H@std@@X$$V@std@@EEBAPEBXXZ 000000018001c110 f i _nodert_generated.obj
 0001:0001b120       ?_Get@?$_Func_impl@V<lambda_fc55a96778b695da9907353a9fdacbca>@@V?$allocator@H@std@@X$$V@std@@EEBAPEBXXZ 000000018001c120 f i _nodert_generated.obj
 0001:0001b130       ?_GetScheduler@_TaskCollectionBaseImpl@details@Concurrency@@QEBA?AUscheduler_ptr@3@XZ 000000018001c130 f i _nodert_generated.obj
 0001:0001b1a0       ?_GetScheduler@_Task_impl_base@details@Concurrency@@QEBA?AUscheduler_ptr@3@XZ 000000018001c1a0 f i _nodert_generated.obj
 0001:0001b1d0       ?_GetStaticAmbientSchedulerRef@details@Concurrency@@YAAEAV?$shared_ptr@Uscheduler_interface@Concurrency@@@std@@XZ 000000018001c1d0 f i _nodert_generated.obj
 0001:0001b260       ?_GetTaskCreationCallstack@_Task_impl_base@details@Concurrency@@QEAA?AV_TaskCreationCallstack@23@XZ 000000018001c260 f i _nodert_generated.obj
 0001:0001b2b0       ?_GetTaskImplBase@?$_PPLTaskHandle@EU?$_ContinuationTaskHandle@PE$AAU?$IVectorView@PE$AAVRadio@Radios@Devices@Windows@@@Collections@Foundation@Windows@@XV?$function@$$A6AXV?$task@PE$AAU?$IVectorView@PE$AAVRadio@Radios@Devices@Windows@@@Collections@Foundation@Windows@@@Concurrency@@@Z@std@@U?$integral_constant@_N$00@6@U_TypeSelectorNoAsync@details@Concurrency@@@?$task@PE$AAU?$IVectorView@PE$AAVRadio@Radios@Devices@Windows@@@Collections@Foundation@Windows@@@Concurrency@@U_ContinuationTaskHandleBase@details@3@@details@Concurrency@@UEBA?AV?$shared_ptr@U_Task_impl_base@details@Concurrency@@@std@@XZ 000000018001c2b0 f i _nodert_generated.obj
 0001:0001b300       ?_GetTaskImplBase@?$_PPLTaskHandle@EU?$_ContinuationTaskHandle@PE$AAVRadio@Radios@Devices@Windows@@XV?$function@$$A6AXV?$task@PE$AAVRadio@Radios@Devices@Windows@@@Concurrency@@@Z@std@@U?$integral_constant@_N$00@6@U_TypeSelectorNoAsync@details@Concurrency@@@?$task@PE$AAVRadio@Radios@Devices@Windows@@@Concurrency@@U_ContinuationTaskHandleBase@details@3@@details@Concurrency@@UEBA?AV?$shared_ptr@U_Task_impl_base@details@Concurrency@@@std@@XZ 000000018001c300 f i _nodert_generated.obj
 0001:0001b350       ?_GetTaskImplBase@?$_PPLTaskHandle@EU?$_ContinuationTaskHandle@W4RadioAccessStatus@Radios@Devices@Windows@@XV?$function@$$A6AXV?$task@W4RadioAccessStatus@Radios@Devices@Windows@@@Concurrency@@@Z@std@@U?$integral_constant@_N$00@6@U_TypeSelectorNoAsync@details@Concurrency@@@?$task@W4RadioAccessStatus@Radios@Devices@Windows@@@Concurrency@@U_ContinuationTaskHandleBase@details@3@@details@Concurrency@@UEBA?AV?$shared_ptr@U_Task_impl_base@details@Concurrency@@@std@@XZ 000000018001c350 f i _nodert_generated.obj
 0001:0001b3a0       ?_Get_deleter@?$_Ref_count_del@V?$Persistent@VObject@v8@@V?$NonCopyablePersistentTraits@VObject@v8@@@2@@Nan@@V<lambda_7ce441e15ae9de863eea1ca9a10cae26>@@@std@@UEBAPEAXAEBVtype_info@@@Z 000000018001c3a0 f i _nodert_generated.obj
 0001:0001b3e0       ?_Get_deleter@_Ref_count_base@std@@UEBAPEAXAEBVtype_info@@@Z 000000018001c3e0 f i _nodert_generated.obj
 0001:0001b3f0       ?_Invoke@_CancellationTokenRegistration@details@Concurrency@@AEAAXXZ 000000018001c3f0 f i _nodert_generated.obj
 0001:0001b4c0       ?_Make@?$_Task_ptr@E@details@Concurrency@@SA?AV?$shared_ptr@U?$_Task_impl@E@details@Concurrency@@@std@@PEAV_CancellationTokenState@23@Uscheduler_ptr@3@@Z 000000018001c4c0 f i _nodert_generated.obj
 0001:0001b570       ?_Make@?$_Task_ptr@PE$AAU?$IVectorView@PE$AAVRadio@Radios@Devices@Windows@@@Collections@Foundation@Windows@@@details@Concurrency@@SA?AV?$shared_ptr@U?$_Task_impl@PE$AAU?$IVectorView@PE$AAVRadio@Radios@Devices@Windows@@@Collections@Foundation@Windows@@@details@Concurrency@@@std@@PEAV_CancellationTokenState@23@Uscheduler_ptr@3@@Z 000000018001c570 f i _nodert_generated.obj
 0001:0001b620       ?_Make@?$_Task_ptr@PE$AAVRadio@Radios@Devices@Windows@@@details@Concurrency@@SA?AV?$shared_ptr@U?$_Task_impl@PE$AAVRadio@Radios@Devices@Windows@@@details@Concurrency@@@std@@PEAV_CancellationTokenState@23@Uscheduler_ptr@3@@Z 000000018001c620 f i _nodert_generated.obj
 0001:0001b6d0       ?_Make@?$_Task_ptr@W4RadioAccessStatus@Radios@Devices@Windows@@@details@Concurrency@@SA?AV?$shared_ptr@U?$_Task_impl@W4RadioAccessStatus@Radios@Devices@Windows@@@details@Concurrency@@@std@@PEAV_CancellationTokenState@23@Uscheduler_ptr@3@@Z 000000018001c6d0 f i _nodert_generated.obj
 0001:0001b780       ?_Move@?$_Func_impl@V<lambda_13c093ceb3cb7088042cb26732856e67>@@V?$allocator@H@std@@XV?$function@$$A6AXHPEAV?$Local@VValue@v8@@@v8@@@Z@3@@std@@EEAAPEAV?$_Func_base@XV?$function@$$A6AXHPEAV?$Local@VValue@v8@@@v8@@@Z@std@@@2@PEAX@Z 000000018001c780 f i _nodert_generated.obj
 0001:0001b7a0       ?_Move@?$_Func_impl@V<lambda_1410bf25c1f3e34acba1e87129c0b837>@@V?$allocator@H@std@@XV?$function@$$A6AXHPEAV?$Local@VValue@v8@@@v8@@@Z@3@@std@@EEAAPEAV?$_Func_base@XV?$function@$$A6AXHPEAV?$Local@VValue@v8@@@v8@@@Z@std@@@2@PEAX@Z 000000018001c7a0 f i _nodert_generated.obj
 0001:0001b820       ?_Move@?$_Func_impl@V<lambda_199453e3251722af17cbed06cee0aa25>@@V?$allocator@H@std@@EV?$task@W4RadioAccessStatus@Radios@Devices@Windows@@@Concurrency@@@std@@EEAAPEAV?$_Func_base@EV?$task@W4RadioAccessStatus@Radios@Devices@Windows@@@Concurrency@@@2@PEAX@Z 000000018001c820 f i _nodert_generated.obj
 0001:0001b8b0       ?_Move@?$_Func_impl@V<lambda_1af583cf6945007177c61d87505abd8e>@@V?$allocator@H@std@@XHPEAV?$Local@VValue@v8@@@v8@@@std@@EEAAPEAV?$_Func_base@XHPEAV?$Local@VValue@v8@@@v8@@@2@PEAX@Z 000000018001c8b0 f i _nodert_generated.obj
 0001:0001b8e0       ?_Move@?$_Func_impl@V<lambda_332ba2b9435369ab76e287351a81320b>@@V?$allocator@H@std@@XV?$function@$$A6AXHPEAV?$Local@VValue@v8@@@v8@@@Z@3@@std@@EEAAPEAV?$_Func_base@XV?$function@$$A6AXHPEAV?$Local@VValue@v8@@@v8@@@Z@std@@@2@PEAX@Z 000000018001c8e0 f i _nodert_generated.obj
 0001:0001b960       ?_Move@?$_Func_impl@V<lambda_34c7f220960deee2386c1fdeeca0be56>@@V?$allocator@H@std@@X$$V@std@@EEAAPEAV?$_Func_base@X$$V@2@PEAX@Z 000000018001c960 f i _nodert_generated.obj
 0001:0001b9e0       ?_Move@?$_Func_impl@V<lambda_367e91ba48007cd85cfc48a94120f671>@@V?$allocator@H@std@@X$$V@std@@EEAAPEAV?$_Func_base@X$$V@2@PEAX@Z 000000018001c9e0 f i _nodert_generated.obj
 0001:0001ba60       ?_Move@?$_Func_impl@V<lambda_6b3d546cb33cb2be9b0a401ff7fba40f>@@V?$allocator@H@std@@XV?$task@PE$AAU?$IVectorView@PE$AAVRadio@Radios@Devices@Windows@@@Collections@Foundation@Windows@@@Concurrency@@@std@@EEAAPEAV?$_Func_base@XV?$task@PE$AAU?$IVectorView@PE$AAVRadio@Radios@Devices@Windows@@@Collections@Foundation@Windows@@@Concurrency@@@2@PEAX@Z 000000018001ca60 f i _nodert_generated.obj
 0001:0001ba90       ?_Move@?$_Func_impl@V<lambda_6e721a9cc44c44771ffaa71ba9f88df1>@@V?$allocator@H@std@@XV?$function@$$A6AXHPEAV?$Local@VValue@v8@@@v8@@@Z@3@@std@@EEAAPEAV?$_Func_base@XV?$function@$$A6AXHPEAV?$Local@VValue@v8@@@v8@@@Z@std@@@2@PEAX@Z 000000018001ca90 f i _nodert_generated.obj
 0001:0001bb10       ?_Move@?$_Func_impl@V<lambda_73163a669fe347e5c4e2d28c36c6f8ca>@@V?$allocator@H@std@@EV?$task@PE$AAVRadio@Radios@Devices@Windows@@@Concurrency@@@std@@EEAAPEAV?$_Func_base@EV?$task@PE$AAVRadio@Radios@Devices@Windows@@@Concurrency@@@2@PEAX@Z 000000018001cb10 f i _nodert_generated.obj
 0001:0001bba0       ?_Move@?$_Func_impl@V<lambda_763529b0c7473cbc215a52d189ac9b18>@@V?$allocator@H@std@@X$$V@std@@EEAAPEAV?$_Func_base@X$$V@2@PEAX@Z 000000018001cba0 f i _nodert_generated.obj
 0001:0001bbd0       ?_Move@?$_Func_impl@V<lambda_83ab8abb741bf007d1b5942dba04bfdd>@@V?$allocator@H@std@@EV?$task@PE$AAU?$IVectorView@PE$AAVRadio@Radios@Devices@Windows@@@Collections@Foundation@Windows@@@Concurrency@@@std@@EEAAPEAV?$_Func_base@EV?$task@PE$AAU?$IVectorView@PE$AAVRadio@Radios@Devices@Windows@@@Collections@Foundation@Windows@@@Concurrency@@@2@PEAX@Z 000000018001cbd0 f i _nodert_generated.obj
 0001:0001bc60       ?_Move@?$_Func_impl@V<lambda_84fe49f24ae8de4bd96cfe7e2e397527>@@V?$allocator@H@std@@XV?$task@W4RadioAccessStatus@Radios@Devices@Windows@@@Concurrency@@@std@@EEAAPEAV?$_Func_base@XV?$task@W4RadioAccessStatus@Radios@Devices@Windows@@@Concurrency@@@2@PEAX@Z 000000018001cc60 f i _nodert_generated.obj
 0001:0001bc90       ?_Move@?$_Func_impl@V<lambda_86719af9e59bcf010981affea63e2ba5>@@V?$allocator@H@std@@X$$V@std@@EEAAPEAV?$_Func_base@X$$V@2@PEAX@Z 000000018001cc90 f i _nodert_generated.obj
 0001:0001bcd0       ?_Move@?$_Func_impl@V<lambda_9054500f7a0d601079f2287918e4d694>@@V?$allocator@H@std@@_NV?$Local@VValue@v8@@@v8@@@std@@EEAAPEAV?$_Func_base@_NV?$Local@VValue@v8@@@v8@@@2@PEAX@Z 000000018001ccd0 f i _nodert_generated.obj
 0001:0001bcf0       ?_Move@?$_Func_impl@V<lambda_923cdb2d6b6e10951a75b3af8d001269>@@V?$allocator@H@std@@XV?$function@$$A6AXHPEAV?$Local@VValue@v8@@@v8@@@Z@3@@std@@EEAAPEAV?$_Func_base@XV?$function@$$A6AXHPEAV?$Local@VValue@v8@@@v8@@@Z@std@@@2@PEAX@Z 000000018001ccf0 f i _nodert_generated.obj
 0001:0001bd70       ?_Move@?$_Func_impl@V<lambda_937a019cbae5299c9ee089aacd8953b7>@@V?$allocator@H@std@@XV?$function@$$A6AXHPEAV?$Local@VValue@v8@@@v8@@@Z@3@@std@@EEAAPEAV?$_Func_base@XV?$function@$$A6AXHPEAV?$Local@VValue@v8@@@v8@@@Z@std@@@2@PEAX@Z 000000018001cd70 f i _nodert_generated.obj
 0001:0001bdf0       ?_Move@?$_Func_impl@V<lambda_ae69dad4f0eec31d1194edef18f14e48>@@V?$allocator@H@std@@XV?$task@PE$AAVRadio@Radios@Devices@Windows@@@Concurrency@@@std@@EEAAPEAV?$_Func_base@XV?$task@PE$AAVRadio@Radios@Devices@Windows@@@Concurrency@@@2@PEAX@Z 000000018001cdf0 f i _nodert_generated.obj
 0001:0001be20       ?_Move@?$_Func_impl@V<lambda_b053cd760f99e9a3b5b0a75bc506816c>@@V?$allocator@H@std@@V?$Local@VValue@v8@@@v8@@PE$AAVRadio@Radios@Devices@Windows@@@std@@EEAAPEAV?$_Func_base@V?$Local@VValue@v8@@@v8@@PE$AAVRadio@Radios@Devices@Windows@@@2@PEAX@Z 000000018001ce20 f i _nodert_generated.obj
 0001:0001be40       ?_Move@?$_Func_impl@V<lambda_bd8db8e132653ed2b09381d83d27b969>@@V?$allocator@H@std@@XV?$function@$$A6AXHPEAV?$Local@VValue@v8@@@v8@@@Z@3@@std@@EEAAPEAV?$_Func_base@XV?$function@$$A6AXHPEAV?$Local@VValue@v8@@@v8@@@Z@std@@@2@PEAX@Z 000000018001ce40 f i _nodert_generated.obj
 0001:0001be60       ?_Move@?$_Func_impl@V<lambda_be5e2ae45d9afcdad4d6af170ce6b1a9>@@V?$allocator@H@std@@XV?$function@$$A6AXHPEAV?$Local@VValue@v8@@@v8@@@Z@3@@std@@EEAAPEAV?$_Func_base@XV?$function@$$A6AXHPEAV?$Local@VValue@v8@@@v8@@@Z@std@@@2@PEAX@Z 000000018001ce60 f i _nodert_generated.obj
 0001:0001bee0       ?_Move@?$_Func_impl@V<lambda_c806722195bf1298f17615890da7d503>@@V?$allocator@H@std@@PE$AAVRadio@Radios@Devices@Windows@@V?$Local@VValue@v8@@@v8@@@std@@EEAAPEAV?$_Func_base@PE$AAVRadio@Radios@Devices@Windows@@V?$Local@VValue@v8@@@v8@@@2@PEAX@Z 000000018001cee0 f i _nodert_generated.obj
 0001:0001bf00       ?_Move@?$_Func_impl@V<lambda_ccd993006fa69c8498fa84abf616a650>@@V?$allocator@H@std@@X$$V@std@@EEAAPEAV?$_Func_base@X$$V@2@PEAX@Z 000000018001cf00 f i _nodert_generated.obj
 0001:0001bf30       ?_Move@?$_Func_impl@V<lambda_e648a951913df07dc2c48aa4b13c28ad>@@V?$allocator@H@std@@X$$V@std@@EEAAPEAV?$_Func_base@X$$V@2@PEAX@Z 000000018001cf30 f i _nodert_generated.obj
 0001:0001bfb0       ?_Move@?$_Func_impl@V<lambda_e9d83560961a0709c8983a5a76f54321>@@V?$allocator@H@std@@X$$V@std@@EEAAPEAV?$_Func_base@X$$V@2@PEAX@Z 000000018001cfb0 f i _nodert_generated.obj
 0001:0001bfe0       ?_Move@?$_Func_impl@V<lambda_ee2800ccd2b011420c5de0c63356449b>@@V?$allocator@H@std@@X$$V@std@@EEAAPEAV?$_Func_base@X$$V@2@PEAX@Z 000000018001cfe0 f i _nodert_generated.obj
 0001:0001c010       ?_Move@?$_Func_impl@V<lambda_f25c37099038263181b5186a3fa41b37>@@V?$allocator@H@std@@X$$V@std@@EEAAPEAV?$_Func_base@X$$V@2@PEAX@Z 000000018001d010 f i _nodert_generated.obj
 0001:0001c060       ?_Move@?$_Func_impl@V<lambda_f62ce569bcbb190725394d954e43b37a>@@V?$allocator@H@std@@XV?$task@W4RadioAccessStatus@Radios@Devices@Windows@@@Concurrency@@@std@@EEAAPEAV?$_Func_base@XV?$task@W4RadioAccessStatus@Radios@Devices@Windows@@@Concurrency@@@2@PEAX@Z 000000018001d060 f i _nodert_generated.obj
 0001:0001c090       ?_Move@?$_Func_impl@V<lambda_f65fe7dd5d5c7d6beb441784825294a0>@@V?$allocator@H@std@@X$$V@std@@EEAAPEAV?$_Func_base@X$$V@2@PEAX@Z 000000018001d090 f i _nodert_generated.obj
 0001:0001c0c0       ?_Move@?$_Func_impl@V<lambda_fa74f712429373a3f78dc33742231903>@@V?$allocator@H@std@@X$$V@std@@EEAAPEAV?$_Func_base@X$$V@2@PEAX@Z 000000018001d0c0 f i _nodert_generated.obj
 0001:0001c0f0       ?_Move@?$_Func_impl@V<lambda_fc55a96778b695da9907353a9fdacbca>@@V?$allocator@H@std@@X$$V@std@@EEAAPEAV?$_Func_base@X$$V@2@PEAX@Z 000000018001d0f0 f i _nodert_generated.obj
 0001:0001c170       ?_NoCallOnDefaultTask_ErrorImpl@_DefaultTaskHelper@details@Concurrency@@SAXXZ 000000018001d170 f i _nodert_generated.obj
 0001:0001c1b0       ?_Perform@?$_Continuation_func_transformer@V?$task@PE$AAU?$IVectorView@PE$AAVRadio@Radios@Devices@Windows@@@Collections@Foundation@Windows@@@Concurrency@@X@Concurrency@@SA?AV?$function@$$A6AEV?$task@PE$AAU?$IVectorView@PE$AAVRadio@Radios@Devices@Windows@@@Collections@Foundation@Windows@@@Concurrency@@@Z@std@@V?$function@$$A6AXV?$task@PE$AAU?$IVectorView@PE$AAVRadio@Radios@Devices@Windows@@@Collections@Foundation@Windows@@@Concurrency@@@Z@4@@Z 000000018001d1b0 f i _nodert_generated.obj
 0001:0001c220       ?_Perform@?$_Continuation_func_transformer@V?$task@PE$AAVRadio@Radios@Devices@Windows@@@Concurrency@@X@Concurrency@@SA?AV?$function@$$A6AEV?$task@PE$AAVRadio@Radios@Devices@Windows@@@Concurrency@@@Z@std@@V?$function@$$A6AXV?$task@PE$AAVRadio@Radios@Devices@Windows@@@Concurrency@@@Z@4@@Z 000000018001d220 f i _nodert_generated.obj
 0001:0001c290       ?_Perform@?$_Continuation_func_transformer@V?$task@W4RadioAccessStatus@Radios@Devices@Windows@@@Concurrency@@X@Concurrency@@SA?AV?$function@$$A6AEV?$task@W4RadioAccessStatus@Radios@Devices@Windows@@@Concurrency@@@Z@std@@V?$function@$$A6AXV?$task@W4RadioAccessStatus@Radios@Devices@Windows@@@Concurrency@@@Z@4@@Z 000000018001d290 f i _nodert_generated.obj
 0001:0001c300       ?_Raise@exception@stdext@@QEBAXXZ 000000018001d300 f i _nodert_generated.obj
 0001:0001c350       ?_RegisterCallback@_CancellationTokenState@details@Concurrency@@QEAAXPEAV_CancellationTokenRegistration@23@@Z 000000018001d350 f i _nodert_generated.obj
 0001:0001c420       ?_RegisterCancellation@_Task_impl_base@details@Concurrency@@QEAAXV?$weak_ptr@U_Task_impl_base@details@Concurrency@@@std@@@Z 000000018001d420 f i _nodert_generated.obj
 0001:0001c510       ?_Reset0@?$_Ptr_base@U?$_Task_impl@E@details@Concurrency@@@std@@QEAAXPEAU?$_Task_impl@E@details@Concurrency@@PEAV_Ref_count_base@2@@Z 000000018001d510 f i _nodert_generated.obj
 0001:0001c5c0       ?_Reset0@?$_Ptr_base@U?$_Task_impl@PE$AAU?$IVectorView@PE$AAVRadio@Radios@Devices@Windows@@@Collections@Foundation@Windows@@@details@Concurrency@@@std@@QEAAXPEAU?$_Task_impl@PE$AAU?$IVectorView@PE$AAVRadio@Radios@Devices@Windows@@@Collections@Foundation@Windows@@@details@Concurrency@@PEAV_Ref_count_base@2@@Z 000000018001d5c0 f i _nodert_generated.obj
 0001:0001c670       ?_Reset0@?$_Ptr_base@U?$_Task_impl@PE$AAVRadio@Radios@Devices@Windows@@@details@Concurrency@@@std@@QEAAXPEAU?$_Task_impl@PE$AAVRadio@Radios@Devices@Windows@@@details@Concurrency@@PEAV_Ref_count_base@2@@Z 000000018001d670 f i _nodert_generated.obj
 0001:0001c720       ?_Reset0@?$_Ptr_base@U?$_Task_impl@W4RadioAccessStatus@Radios@Devices@Windows@@@details@Concurrency@@@std@@QEAAXPEAU?$_Task_impl@W4RadioAccessStatus@Radios@Devices@Windows@@@details@Concurrency@@PEAV_Ref_count_base@2@@Z 000000018001d720 f i _nodert_generated.obj
 0001:0001c7d0       ?_Reset0@?$_Ptr_base@U_ExceptionHolder@details@Concurrency@@@std@@QEAAXPEAU_ExceptionHolder@details@Concurrency@@PEAV_Ref_count_base@2@@Z 000000018001d7d0 f i _nodert_generated.obj
 0001:0001c880       ?_Reset0@?$_Ptr_base@U_Task_impl_base@details@Concurrency@@@std@@QEAAXPEAU_Task_impl_base@details@Concurrency@@PEAV_Ref_count_base@2@@Z 000000018001d880 f i _nodert_generated.obj
 0001:0001c930       ?_Reset0@?$_Ptr_base@Uscheduler_interface@Concurrency@@@std@@QEAAXPEAUscheduler_interface@Concurrency@@PEAV_Ref_count_base@2@@Z 000000018001d930 f i _nodert_generated.obj
 0001:0001c9e0       ?_Reset0@?$_Ptr_base@V?$Persistent@VObject@v8@@V?$NonCopyablePersistentTraits@VObject@v8@@@2@@Nan@@@std@@QEAAXPEAV?$Persistent@VObject@v8@@V?$NonCopyablePersistentTraits@VObject@v8@@@2@@Nan@@PEAV_Ref_count_base@2@@Z 000000018001d9e0 f i _nodert_generated.obj
 0001:0001ca90       ?_Reset_move@?$_Func_class@X$$V@std@@IEAAX$$QEAV12@@Z 000000018001da90 f i _nodert_generated.obj
 0001:0001cb20       ?_RethrowUserException@_ExceptionHolder@details@Concurrency@@QEAAXXZ 000000018001db20 f i _nodert_generated.obj
 0001:0001cb70       ?_RunChoreBridge@_TaskProcHandle@details@Concurrency@@SAXPEAX@Z 000000018001db70 f i _nodert_generated.obj
 0001:0001cbb0       ?_RunTask@_TaskCollectionBaseImpl@details@Concurrency@@SAXP6AXPEAX@Z0W4_TaskInliningMode@23@@Z 000000018001dbb0 f i _nodert_generated.obj
 0001:0001cca0       ?_RunTaskContinuations@_Task_impl_base@details@Concurrency@@QEAAXXZ 000000018001dca0 f i _nodert_generated.obj
 0001:0001cde0       ?_ScheduleContinuation@_Task_impl_base@details@Concurrency@@QEAAXPEAU_ContinuationTaskHandleBase@23@@Z 000000018001dde0 f i _nodert_generated.obj
 0001:0001d050       ?_ScheduleContinuationTask@_Task_impl_base@details@Concurrency@@QEAAXPEAU_ContinuationTaskHandleBase@23@@Z 000000018001e050 f i _nodert_generated.obj
 0001:0001d250       ?_ScheduleTask@_TaskCollectionBaseImpl@details@Concurrency@@QEAAXPEAU_TaskProcHandle@23@W4_TaskInliningMode@23@@Z 000000018001e250 f i _nodert_generated.obj
 0001:0001d2e0       ?_SetUnwrappedAsyncOp@?$_Task_impl@PE$AAU?$IVectorView@PE$AAVRadio@Radios@Devices@Windows@@@Collections@Foundation@Windows@@@details@Concurrency@@QEAAXPE$AAU?$IAsyncOperation@PE$AAU?$IVectorView@PE$AAVRadio@Radios@Devices@Windows@@@Collections@Foundation@Windows@@@Foundation@Windows@@@Z 000000018001e2e0 f i _nodert_generated.obj
 0001:0001d460       ?_SetUnwrappedAsyncOp@?$_Task_impl@PE$AAVRadio@Radios@Devices@Windows@@@details@Concurrency@@QEAAXPE$AAU?$IAsyncOperation@PE$AAVRadio@Radios@Devices@Windows@@@Foundation@Windows@@@Z 000000018001e460 f i _nodert_generated.obj
 0001:0001d5e0       ?_SetUnwrappedAsyncOp@?$_Task_impl@W4RadioAccessStatus@Radios@Devices@Windows@@@details@Concurrency@@QEAAXPE$AAU?$IAsyncOperation@W4RadioAccessStatus@Radios@Devices@Windows@@@Foundation@Windows@@@Z 000000018001e5e0 f i _nodert_generated.obj
 0001:0001d760       ?_Swap@?$_Func_class@X$$V@std@@IEAAXAEAV12@@Z 000000018001e760 f i _nodert_generated.obj
 0001:0001d890       ?_Target_type@?$_Func_impl@V<lambda_13c093ceb3cb7088042cb26732856e67>@@V?$allocator@H@std@@XV?$function@$$A6AXHPEAV?$Local@VValue@v8@@@v8@@@Z@3@@std@@EEBAAEBVtype_info@@XZ 000000018001e890 f i _nodert_generated.obj
 0001:0001d8a0       ?_Target_type@?$_Func_impl@V<lambda_1410bf25c1f3e34acba1e87129c0b837>@@V?$allocator@H@std@@XV?$function@$$A6AXHPEAV?$Local@VValue@v8@@@v8@@@Z@3@@std@@EEBAAEBVtype_info@@XZ 000000018001e8a0 f i _nodert_generated.obj
 0001:0001d8b0       ?_Target_type@?$_Func_impl@V<lambda_199453e3251722af17cbed06cee0aa25>@@V?$allocator@H@std@@EV?$task@W4RadioAccessStatus@Radios@Devices@Windows@@@Concurrency@@@std@@EEBAAEBVtype_info@@XZ 000000018001e8b0 f i _nodert_generated.obj
 0001:0001d8c0       ?_Target_type@?$_Func_impl@V<lambda_1af583cf6945007177c61d87505abd8e>@@V?$allocator@H@std@@XHPEAV?$Local@VValue@v8@@@v8@@@std@@EEBAAEBVtype_info@@XZ 000000018001e8c0 f i _nodert_generated.obj
 0001:0001d8d0       ?_Target_type@?$_Func_impl@V<lambda_332ba2b9435369ab76e287351a81320b>@@V?$allocator@H@std@@XV?$function@$$A6AXHPEAV?$Local@VValue@v8@@@v8@@@Z@3@@std@@EEBAAEBVtype_info@@XZ 000000018001e8d0 f i _nodert_generated.obj
 0001:0001d8e0       ?_Target_type@?$_Func_impl@V<lambda_34c7f220960deee2386c1fdeeca0be56>@@V?$allocator@H@std@@X$$V@std@@EEBAAEBVtype_info@@XZ 000000018001e8e0 f i _nodert_generated.obj
 0001:0001d8f0       ?_Target_type@?$_Func_impl@V<lambda_367e91ba48007cd85cfc48a94120f671>@@V?$allocator@H@std@@X$$V@std@@EEBAAEBVtype_info@@XZ 000000018001e8f0 f i _nodert_generated.obj
 0001:0001d900       ?_Target_type@?$_Func_impl@V<lambda_6b3d546cb33cb2be9b0a401ff7fba40f>@@V?$allocator@H@std@@XV?$task@PE$AAU?$IVectorView@PE$AAVRadio@Radios@Devices@Windows@@@Collections@Foundation@Windows@@@Concurrency@@@std@@EEBAAEBVtype_info@@XZ 000000018001e900 f i _nodert_generated.obj
 0001:0001d910       ?_Target_type@?$_Func_impl@V<lambda_6e721a9cc44c44771ffaa71ba9f88df1>@@V?$allocator@H@std@@XV?$function@$$A6AXHPEAV?$Local@VValue@v8@@@v8@@@Z@3@@std@@EEBAAEBVtype_info@@XZ 000000018001e910 f i _nodert_generated.obj
 0001:0001d920       ?_Target_type@?$_Func_impl@V<lambda_73163a669fe347e5c4e2d28c36c6f8ca>@@V?$allocator@H@std@@EV?$task@PE$AAVRadio@Radios@Devices@Windows@@@Concurrency@@@std@@EEBAAEBVtype_info@@XZ 000000018001e920 f i _nodert_generated.obj
 0001:0001d930       ?_Target_type@?$_Func_impl@V<lambda_763529b0c7473cbc215a52d189ac9b18>@@V?$allocator@H@std@@X$$V@std@@EEBAAEBVtype_info@@XZ 000000018001e930 f i _nodert_generated.obj
 0001:0001d940       ?_Target_type@?$_Func_impl@V<lambda_83ab8abb741bf007d1b5942dba04bfdd>@@V?$allocator@H@std@@EV?$task@PE$AAU?$IVectorView@PE$AAVRadio@Radios@Devices@Windows@@@Collections@Foundation@Windows@@@Concurrency@@@std@@EEBAAEBVtype_info@@XZ 000000018001e940 f i _nodert_generated.obj
 0001:0001d950       ?_Target_type@?$_Func_impl@V<lambda_84fe49f24ae8de4bd96cfe7e2e397527>@@V?$allocator@H@std@@XV?$task@W4RadioAccessStatus@Radios@Devices@Windows@@@Concurrency@@@std@@EEBAAEBVtype_info@@XZ 000000018001e950 f i _nodert_generated.obj
 0001:0001d960       ?_Target_type@?$_Func_impl@V<lambda_86719af9e59bcf010981affea63e2ba5>@@V?$allocator@H@std@@X$$V@std@@EEBAAEBVtype_info@@XZ 000000018001e960 f i _nodert_generated.obj
 0001:0001d970       ?_Target_type@?$_Func_impl@V<lambda_9054500f7a0d601079f2287918e4d694>@@V?$allocator@H@std@@_NV?$Local@VValue@v8@@@v8@@@std@@EEBAAEBVtype_info@@XZ 000000018001e970 f i _nodert_generated.obj
 0001:0001d980       ?_Target_type@?$_Func_impl@V<lambda_923cdb2d6b6e10951a75b3af8d001269>@@V?$allocator@H@std@@XV?$function@$$A6AXHPEAV?$Local@VValue@v8@@@v8@@@Z@3@@std@@EEBAAEBVtype_info@@XZ 000000018001e980 f i _nodert_generated.obj
 0001:0001d990       ?_Target_type@?$_Func_impl@V<lambda_937a019cbae5299c9ee089aacd8953b7>@@V?$allocator@H@std@@XV?$function@$$A6AXHPEAV?$Local@VValue@v8@@@v8@@@Z@3@@std@@EEBAAEBVtype_info@@XZ 000000018001e990 f i _nodert_generated.obj
 0001:0001d9a0       ?_Target_type@?$_Func_impl@V<lambda_ae69dad4f0eec31d1194edef18f14e48>@@V?$allocator@H@std@@XV?$task@PE$AAVRadio@Radios@Devices@Windows@@@Concurrency@@@std@@EEBAAEBVtype_info@@XZ 000000018001e9a0 f i _nodert_generated.obj
 0001:0001d9b0       ?_Target_type@?$_Func_impl@V<lambda_b053cd760f99e9a3b5b0a75bc506816c>@@V?$allocator@H@std@@V?$Local@VValue@v8@@@v8@@PE$AAVRadio@Radios@Devices@Windows@@@std@@EEBAAEBVtype_info@@XZ 000000018001e9b0 f i _nodert_generated.obj
 0001:0001d9c0       ?_Target_type@?$_Func_impl@V<lambda_bd8db8e132653ed2b09381d83d27b969>@@V?$allocator@H@std@@XV?$function@$$A6AXHPEAV?$Local@VValue@v8@@@v8@@@Z@3@@std@@EEBAAEBVtype_info@@XZ 000000018001e9c0 f i _nodert_generated.obj
 0001:0001d9d0       ?_Target_type@?$_Func_impl@V<lambda_be5e2ae45d9afcdad4d6af170ce6b1a9>@@V?$allocator@H@std@@XV?$function@$$A6AXHPEAV?$Local@VValue@v8@@@v8@@@Z@3@@std@@EEBAAEBVtype_info@@XZ 000000018001e9d0 f i _nodert_generated.obj
 0001:0001d9e0       ?_Target_type@?$_Func_impl@V<lambda_c806722195bf1298f17615890da7d503>@@V?$allocator@H@std@@PE$AAVRadio@Radios@Devices@Windows@@V?$Local@VValue@v8@@@v8@@@std@@EEBAAEBVtype_info@@XZ 000000018001e9e0 f i _nodert_generated.obj
 0001:0001d9f0       ?_Target_type@?$_Func_impl@V<lambda_ccd993006fa69c8498fa84abf616a650>@@V?$allocator@H@std@@X$$V@std@@EEBAAEBVtype_info@@XZ 000000018001e9f0 f i _nodert_generated.obj
 0001:0001da00       ?_Target_type@?$_Func_impl@V<lambda_e648a951913df07dc2c48aa4b13c28ad>@@V?$allocator@H@std@@X$$V@std@@EEBAAEBVtype_info@@XZ 000000018001ea00 f i _nodert_generated.obj
 0001:0001da10       ?_Target_type@?$_Func_impl@V<lambda_e9d83560961a0709c8983a5a76f54321>@@V?$allocator@H@std@@X$$V@std@@EEBAAEBVtype_info@@XZ 000000018001ea10 f i _nodert_generated.obj
 0001:0001da20       ?_Target_type@?$_Func_impl@V<lambda_ee2800ccd2b011420c5de0c63356449b>@@V?$allocator@H@std@@X$$V@std@@EEBAAEBVtype_info@@XZ 000000018001ea20 f i _nodert_generated.obj
 0001:0001da30       ?_Target_type@?$_Func_impl@V<lambda_f25c37099038263181b5186a3fa41b37>@@V?$allocator@H@std@@X$$V@std@@EEBAAEBVtype_info@@XZ 000000018001ea30 f i _nodert_generated.obj
 0001:0001da40       ?_Target_type@?$_Func_impl@V<lambda_f62ce569bcbb190725394d954e43b37a>@@V?$allocator@H@std@@XV?$task@W4RadioAccessStatus@Radios@Devices@Windows@@@Concurrency@@@std@@EEBAAEBVtype_info@@XZ 000000018001ea40 f i _nodert_generated.obj
 0001:0001da50       ?_Target_type@?$_Func_impl@V<lambda_f65fe7dd5d5c7d6beb441784825294a0>@@V?$allocator@H@std@@X$$V@std@@EEBAAEBVtype_info@@XZ 000000018001ea50 f i _nodert_generated.obj
 0001:0001da60       ?_Target_type@?$_Func_impl@V<lambda_fa74f712429373a3f78dc33742231903>@@V?$allocator@H@std@@X$$V@std@@EEBAAEBVtype_info@@XZ 000000018001ea60 f i _nodert_generated.obj
 0001:0001da70       ?_Target_type@?$_Func_impl@V<lambda_fc55a96778b695da9907353a9fdacbca>@@V?$allocator@H@std@@X$$V@std@@EEBAAEBVtype_info@@XZ 000000018001ea70 f i _nodert_generated.obj
 0001:0001da80       ?_Wait@_Task_impl_base@details@Concurrency@@QEAA?AW4task_group_status@3@XZ 000000018001ea80 f i _nodert_generated.obj
 0001:0001db60       ?__abi_AddRef@?$AsyncOperationCompletedHandler@PE$AAU?$IVectorView@PE$AAVRadio@Radios@Devices@Windows@@@Collections@Foundation@Windows@@@Foundation@Windows@@UE$AAAKXZ 000000018001eb60 f i _nodert_generated.obj
 0001:0001db94       ?__abi_AddRef@?$AsyncOperationCompletedHandler@PE$AAU?$IVectorView@PE$AAVRadio@Radios@Devices@Windows@@@Collections@Foundation@Windows@@@Foundation@Windows@@W7E$AAAKXZ 000000018001eb94 f i _nodert_generated.obj
 0001:0001dba0       ?__abi_AddRef@?$AsyncOperationCompletedHandler@PE$AAU?$IVectorView@PE$AAVRadio@Radios@Devices@Windows@@@Collections@Foundation@Windows@@@Foundation@Windows@@WBA@E$AAAKXZ 000000018001eba0 f i _nodert_generated.obj
 0001:0001dbb0       ?__abi_AddRef@?$AsyncOperationCompletedHandler@PE$AAVRadio@Radios@Devices@Windows@@@Foundation@Windows@@UE$AAAKXZ 000000018001ebb0 f i _nodert_generated.obj
 0001:0001dbe4       ?__abi_AddRef@?$AsyncOperationCompletedHandler@PE$AAVRadio@Radios@Devices@Windows@@@Foundation@Windows@@W7E$AAAKXZ 000000018001ebe4 f i _nodert_generated.obj
 0001:0001dbf0       ?__abi_AddRef@?$AsyncOperationCompletedHandler@PE$AAVRadio@Radios@Devices@Windows@@@Foundation@Windows@@WBA@E$AAAKXZ 000000018001ebf0 f i _nodert_generated.obj
 0001:0001dc00       ?__abi_AddRef@?$AsyncOperationCompletedHandler@W4RadioAccessStatus@Radios@Devices@Windows@@@Foundation@Windows@@UE$AAAKXZ 000000018001ec00 f i _nodert_generated.obj
 0001:0001dc34       ?__abi_AddRef@?$AsyncOperationCompletedHandler@W4RadioAccessStatus@Radios@Devices@Windows@@@Foundation@Windows@@W7E$AAAKXZ 000000018001ec34 f i _nodert_generated.obj
 0001:0001dc40       ?__abi_AddRef@?$AsyncOperationCompletedHandler@W4RadioAccessStatus@Radios@Devices@Windows@@@Foundation@Windows@@WBA@E$AAAKXZ 000000018001ec40 f i _nodert_generated.obj
 0001:0001dc50       ?__abi_AddRef@?$TypedEventHandler@PE$AAVRadio@Radios@Devices@Windows@@PE$AAVObject@Platform@@@Foundation@Windows@@UE$AAAKXZ 000000018001ec50 f i _nodert_generated.obj
 0001:0001dc84       ?__abi_AddRef@?$TypedEventHandler@PE$AAVRadio@Radios@Devices@Windows@@PE$AAVObject@Platform@@@Foundation@Windows@@W7E$AAAKXZ 000000018001ec84 f i _nodert_generated.obj
 0001:0001dc90       ?__abi_AddRef@?$TypedEventHandler@PE$AAVRadio@Radios@Devices@Windows@@PE$AAVObject@Platform@@@Foundation@Windows@@WBA@E$AAAKXZ 000000018001ec90 f i _nodert_generated.obj
 0001:0001dca0       ?__abi_GetIids@?$AsyncOperationCompletedHandler@PE$AAU?$IVectorView@PE$AAVRadio@Radios@Devices@Windows@@@Collections@Foundation@Windows@@@Foundation@Windows@@UE$AAAJPEAKPEAPEAVGuid@Platform@@@Z 000000018001eca0 f i _nodert_generated.obj
 0001:0001dd0c       ?__abi_GetIids@?$AsyncOperationCompletedHandler@PE$AAU?$IVectorView@PE$AAVRadio@Radios@Devices@Windows@@@Collections@Foundation@Windows@@@Foundation@Windows@@W7E$AAAJPEAKPEAPEAVGuid@Platform@@@Z 000000018001ed0c f i _nodert_generated.obj
 0001:0001dd18       ?__abi_GetIids@?$AsyncOperationCompletedHandler@PE$AAU?$IVectorView@PE$AAVRadio@Radios@Devices@Windows@@@Collections@Foundation@Windows@@@Foundation@Windows@@WBA@E$AAAJPEAKPEAPEAVGuid@Platform@@@Z 000000018001ed18 f i _nodert_generated.obj
 0001:0001dd30       ?__abi_GetIids@?$AsyncOperationCompletedHandler@PE$AAVRadio@Radios@Devices@Windows@@@Foundation@Windows@@UE$AAAJPEAKPEAPEAVGuid@Platform@@@Z 000000018001ed30 f i _nodert_generated.obj
 0001:0001dd9c       ?__abi_GetIids@?$AsyncOperationCompletedHandler@PE$AAVRadio@Radios@Devices@Windows@@@Foundation@Windows@@W7E$AAAJPEAKPEAPEAVGuid@Platform@@@Z 000000018001ed9c f i _nodert_generated.obj
 0001:0001dda8       ?__abi_GetIids@?$AsyncOperationCompletedHandler@PE$AAVRadio@Radios@Devices@Windows@@@Foundation@Windows@@WBA@E$AAAJPEAKPEAPEAVGuid@Platform@@@Z 000000018001eda8 f i _nodert_generated.obj
 0001:0001ddc0       ?__abi_GetIids@?$AsyncOperationCompletedHandler@W4RadioAccessStatus@Radios@Devices@Windows@@@Foundation@Windows@@UE$AAAJPEAKPEAPEAVGuid@Platform@@@Z 000000018001edc0 f i _nodert_generated.obj
 0001:0001de2c       ?__abi_GetIids@?$AsyncOperationCompletedHandler@W4RadioAccessStatus@Radios@Devices@Windows@@@Foundation@Windows@@W7E$AAAJPEAKPEAPEAVGuid@Platform@@@Z 000000018001ee2c f i _nodert_generated.obj
 0001:0001de38       ?__abi_GetIids@?$AsyncOperationCompletedHandler@W4RadioAccessStatus@Radios@Devices@Windows@@@Foundation@Windows@@WBA@E$AAAJPEAKPEAPEAVGuid@Platform@@@Z 000000018001ee38 f i _nodert_generated.obj
 0001:0001de50       ?__abi_GetIids@?$TypedEventHandler@PE$AAVRadio@Radios@Devices@Windows@@PE$AAVObject@Platform@@@Foundation@Windows@@UE$AAAJPEAKPEAPEAVGuid@Platform@@@Z 000000018001ee50 f i _nodert_generated.obj
 0001:0001debc       ?__abi_GetIids@?$TypedEventHandler@PE$AAVRadio@Radios@Devices@Windows@@PE$AAVObject@Platform@@@Foundation@Windows@@W7E$AAAJPEAKPEAPEAVGuid@Platform@@@Z 000000018001eebc f i _nodert_generated.obj
 0001:0001dec8       ?__abi_GetIids@?$TypedEventHandler@PE$AAVRadio@Radios@Devices@Windows@@PE$AAVObject@Platform@@@Foundation@Windows@@WBA@E$AAAJPEAKPEAPEAVGuid@Platform@@@Z 000000018001eec8 f i _nodert_generated.obj
 0001:0001dee0       ?__abi_GetRuntimeClassName@?$AsyncOperationCompletedHandler@PE$AAU?$IVectorView@PE$AAVRadio@Radios@Devices@Windows@@@Collections@Foundation@Windows@@@Foundation@Windows@@UE$AAAJPEAPEAUHSTRING__@@@Z 000000018001eee0 f i _nodert_generated.obj
 0001:0001defc       ?__abi_GetRuntimeClassName@?$AsyncOperationCompletedHandler@PE$AAU?$IVectorView@PE$AAVRadio@Radios@Devices@Windows@@@Collections@Foundation@Windows@@@Foundation@Windows@@W7E$AAAJPEAPEAUHSTRING__@@@Z 000000018001eefc f i _nodert_generated.obj
 0001:0001df08       ?__abi_GetRuntimeClassName@?$AsyncOperationCompletedHandler@PE$AAU?$IVectorView@PE$AAVRadio@Radios@Devices@Windows@@@Collections@Foundation@Windows@@@Foundation@Windows@@WBA@E$AAAJPEAPEAUHSTRING__@@@Z 000000018001ef08 f i _nodert_generated.obj
 0001:0001df20       ?__abi_GetRuntimeClassName@?$AsyncOperationCompletedHandler@PE$AAVRadio@Radios@Devices@Windows@@@Foundation@Windows@@UE$AAAJPEAPEAUHSTRING__@@@Z 000000018001ef20 f i _nodert_generated.obj
 0001:0001df3c       ?__abi_GetRuntimeClassName@?$AsyncOperationCompletedHandler@PE$AAVRadio@Radios@Devices@Windows@@@Foundation@Windows@@W7E$AAAJPEAPEAUHSTRING__@@@Z 000000018001ef3c f i _nodert_generated.obj
 0001:0001df48       ?__abi_GetRuntimeClassName@?$AsyncOperationCompletedHandler@PE$AAVRadio@Radios@Devices@Windows@@@Foundation@Windows@@WBA@E$AAAJPEAPEAUHSTRING__@@@Z 000000018001ef48 f i _nodert_generated.obj
 0001:0001df60       ?__abi_GetRuntimeClassName@?$AsyncOperationCompletedHandler@W4RadioAccessStatus@Radios@Devices@Windows@@@Foundation@Windows@@UE$AAAJPEAPEAUHSTRING__@@@Z 000000018001ef60 f i _nodert_generated.obj
 0001:0001df7c       ?__abi_GetRuntimeClassName@?$AsyncOperationCompletedHandler@W4RadioAccessStatus@Radios@Devices@Windows@@@Foundation@Windows@@W7E$AAAJPEAPEAUHSTRING__@@@Z 000000018001ef7c f i _nodert_generated.obj
 0001:0001df88       ?__abi_GetRuntimeClassName@?$AsyncOperationCompletedHandler@W4RadioAccessStatus@Radios@Devices@Windows@@@Foundation@Windows@@WBA@E$AAAJPEAPEAUHSTRING__@@@Z 000000018001ef88 f i _nodert_generated.obj
 0001:0001dfa0       ?__abi_GetRuntimeClassName@?$TypedEventHandler@PE$AAVRadio@Radios@Devices@Windows@@PE$AAVObject@Platform@@@Foundation@Windows@@UE$AAAJPEAPEAUHSTRING__@@@Z 000000018001efa0 f i _nodert_generated.obj
 0001:0001dfbc       ?__abi_GetRuntimeClassName@?$TypedEventHandler@PE$AAVRadio@Radios@Devices@Windows@@PE$AAVObject@Platform@@@Foundation@Windows@@W7E$AAAJPEAPEAUHSTRING__@@@Z 000000018001efbc f i _nodert_generated.obj
 0001:0001dfc8       ?__abi_GetRuntimeClassName@?$TypedEventHandler@PE$AAVRadio@Radios@Devices@Windows@@PE$AAVObject@Platform@@@Foundation@Windows@@WBA@E$AAAJPEAPEAUHSTRING__@@@Z 000000018001efc8 f i _nodert_generated.obj
 0001:0001dfe0       ?__abi_GetTrustLevel@?$AsyncOperationCompletedHandler@PE$AAU?$IVectorView@PE$AAVRadio@Radios@Devices@Windows@@@Collections@Foundation@Windows@@@Foundation@Windows@@UE$AAAJPEAW4__abi_TrustLevel@@@Z 000000018001efe0 f i _nodert_generated.obj
 0001:0001dfec       ?__abi_GetTrustLevel@?$AsyncOperationCompletedHandler@PE$AAU?$IVectorView@PE$AAVRadio@Radios@Devices@Windows@@@Collections@Foundation@Windows@@@Foundation@Windows@@W7E$AAAJPEAW4__abi_TrustLevel@@@Z 000000018001efec f i _nodert_generated.obj
 0001:0001dff8       ?__abi_GetTrustLevel@?$AsyncOperationCompletedHandler@PE$AAU?$IVectorView@PE$AAVRadio@Radios@Devices@Windows@@@Collections@Foundation@Windows@@@Foundation@Windows@@WBA@E$AAAJPEAW4__abi_TrustLevel@@@Z 000000018001eff8 f i _nodert_generated.obj
 0001:0001e010       ?__abi_GetTrustLevel@?$AsyncOperationCompletedHandler@PE$AAVRadio@Radios@Devices@Windows@@@Foundation@Windows@@UE$AAAJPEAW4__abi_TrustLevel@@@Z 000000018001f010 f i _nodert_generated.obj
 0001:0001e01c       ?__abi_GetTrustLevel@?$AsyncOperationCompletedHandler@PE$AAVRadio@Radios@Devices@Windows@@@Foundation@Windows@@W7E$AAAJPEAW4__abi_TrustLevel@@@Z 000000018001f01c f i _nodert_generated.obj
 0001:0001e028       ?__abi_GetTrustLevel@?$AsyncOperationCompletedHandler@PE$AAVRadio@Radios@Devices@Windows@@@Foundation@Windows@@WBA@E$AAAJPEAW4__abi_TrustLevel@@@Z 000000018001f028 f i _nodert_generated.obj
 0001:0001e040       ?__abi_GetTrustLevel@?$AsyncOperationCompletedHandler@W4RadioAccessStatus@Radios@Devices@Windows@@@Foundation@Windows@@UE$AAAJPEAW4__abi_TrustLevel@@@Z 000000018001f040 f i _nodert_generated.obj
 0001:0001e04c       ?__abi_GetTrustLevel@?$AsyncOperationCompletedHandler@W4RadioAccessStatus@Radios@Devices@Windows@@@Foundation@Windows@@W7E$AAAJPEAW4__abi_TrustLevel@@@Z 000000018001f04c f i _nodert_generated.obj
 0001:0001e058       ?__abi_GetTrustLevel@?$AsyncOperationCompletedHandler@W4RadioAccessStatus@Radios@Devices@Windows@@@Foundation@Windows@@WBA@E$AAAJPEAW4__abi_TrustLevel@@@Z 000000018001f058 f i _nodert_generated.obj
 0001:0001e070       ?__abi_GetTrustLevel@?$TypedEventHandler@PE$AAVRadio@Radios@Devices@Windows@@PE$AAVObject@Platform@@@Foundation@Windows@@UE$AAAJPEAW4__abi_TrustLevel@@@Z 000000018001f070 f i _nodert_generated.obj
 0001:0001e07c       ?__abi_GetTrustLevel@?$TypedEventHandler@PE$AAVRadio@Radios@Devices@Windows@@PE$AAVObject@Platform@@@Foundation@Windows@@W7E$AAAJPEAW4__abi_TrustLevel@@@Z 000000018001f07c f i _nodert_generated.obj
 0001:0001e088       ?__abi_GetTrustLevel@?$TypedEventHandler@PE$AAVRadio@Radios@Devices@Windows@@PE$AAVObject@Platform@@@Foundation@Windows@@WBA@E$AAAJPEAW4__abi_TrustLevel@@@Z 000000018001f088 f i _nodert_generated.obj
 0001:0001e0a0       ?__abi_QueryInterface@?$AsyncOperationCompletedHandler@PE$AAU?$IVectorView@PE$AAVRadio@Radios@Devices@Windows@@@Collections@Foundation@Windows@@@Foundation@Windows@@UE$AAAJAEAVGuid@Platform@@PEAPEAX@Z 000000018001f0a0 f i _nodert_generated.obj
 0001:0001e218       ?__abi_QueryInterface@?$AsyncOperationCompletedHandler@PE$AAU?$IVectorView@PE$AAVRadio@Radios@Devices@Windows@@@Collections@Foundation@Windows@@@Foundation@Windows@@W7E$AAAJAEAVGuid@Platform@@PEAPEAX@Z 000000018001f218 f i _nodert_generated.obj
 0001:0001e224       ?__abi_QueryInterface@?$AsyncOperationCompletedHandler@PE$AAU?$IVectorView@PE$AAVRadio@Radios@Devices@Windows@@@Collections@Foundation@Windows@@@Foundation@Windows@@WBA@E$AAAJAEAVGuid@Platform@@PEAPEAX@Z 000000018001f224 f i _nodert_generated.obj
 0001:0001e230       ?__abi_QueryInterface@?$AsyncOperationCompletedHandler@PE$AAVRadio@Radios@Devices@Windows@@@Foundation@Windows@@UE$AAAJAEAVGuid@Platform@@PEAPEAX@Z 000000018001f230 f i _nodert_generated.obj
 0001:0001e3a8       ?__abi_QueryInterface@?$AsyncOperationCompletedHandler@PE$AAVRadio@Radios@Devices@Windows@@@Foundation@Windows@@W7E$AAAJAEAVGuid@Platform@@PEAPEAX@Z 000000018001f3a8 f i _nodert_generated.obj
 0001:0001e3b4       ?__abi_QueryInterface@?$AsyncOperationCompletedHandler@PE$AAVRadio@Radios@Devices@Windows@@@Foundation@Windows@@WBA@E$AAAJAEAVGuid@Platform@@PEAPEAX@Z 000000018001f3b4 f i _nodert_generated.obj
 0001:0001e3c0       ?__abi_QueryInterface@?$AsyncOperationCompletedHandler@W4RadioAccessStatus@Radios@Devices@Windows@@@Foundation@Windows@@UE$AAAJAEAVGuid@Platform@@PEAPEAX@Z 000000018001f3c0 f i _nodert_generated.obj
 0001:0001e538       ?__abi_QueryInterface@?$AsyncOperationCompletedHandler@W4RadioAccessStatus@Radios@Devices@Windows@@@Foundation@Windows@@W7E$AAAJAEAVGuid@Platform@@PEAPEAX@Z 000000018001f538 f i _nodert_generated.obj
 0001:0001e544       ?__abi_QueryInterface@?$AsyncOperationCompletedHandler@W4RadioAccessStatus@Radios@Devices@Windows@@@Foundation@Windows@@WBA@E$AAAJAEAVGuid@Platform@@PEAPEAX@Z 000000018001f544 f i _nodert_generated.obj
 0001:0001e550       ?__abi_QueryInterface@?$TypedEventHandler@PE$AAVRadio@Radios@Devices@Windows@@PE$AAVObject@Platform@@@Foundation@Windows@@UE$AAAJAEAVGuid@Platform@@PEAPEAX@Z 000000018001f550 f i _nodert_generated.obj
 0001:0001e6c8       ?__abi_QueryInterface@?$TypedEventHandler@PE$AAVRadio@Radios@Devices@Windows@@PE$AAVObject@Platform@@@Foundation@Windows@@W7E$AAAJAEAVGuid@Platform@@PEAPEAX@Z 000000018001f6c8 f i _nodert_generated.obj
 0001:0001e6d4       ?__abi_QueryInterface@?$TypedEventHandler@PE$AAVRadio@Radios@Devices@Windows@@PE$AAVObject@Platform@@@Foundation@Windows@@WBA@E$AAAJAEAVGuid@Platform@@PEAPEAX@Z 000000018001f6d4 f i _nodert_generated.obj
 0001:0001e6e0       ?__abi_QueryInterface@__abi_FTMWeakRefData@@QEAAJAEAVGuid@Platform@@PEAPEAX@Z 000000018001f6e0 f i _nodert_generated.obj
 0001:0001e7e0       ?__abi_Release@?$AsyncOperationCompletedHandler@PE$AAU?$IVectorView@PE$AAVRadio@Radios@Devices@Windows@@@Collections@Foundation@Windows@@@Foundation@Windows@@UE$AAAKXZ 000000018001f7e0 f i _nodert_generated.obj
 0001:0001e8a4       ?__abi_Release@?$AsyncOperationCompletedHandler@PE$AAU?$IVectorView@PE$AAVRadio@Radios@Devices@Windows@@@Collections@Foundation@Windows@@@Foundation@Windows@@W7E$AAAKXZ 000000018001f8a4 f i _nodert_generated.obj
 0001:0001e8b0       ?__abi_Release@?$AsyncOperationCompletedHandler@PE$AAU?$IVectorView@PE$AAVRadio@Radios@Devices@Windows@@@Collections@Foundation@Windows@@@Foundation@Windows@@WBA@E$AAAKXZ 000000018001f8b0 f i _nodert_generated.obj
 0001:0001e8c0       ?__abi_Release@?$AsyncOperationCompletedHandler@PE$AAVRadio@Radios@Devices@Windows@@@Foundation@Windows@@UE$AAAKXZ 000000018001f8c0 f i _nodert_generated.obj
 0001:0001e984       ?__abi_Release@?$AsyncOperationCompletedHandler@PE$AAVRadio@Radios@Devices@Windows@@@Foundation@Windows@@W7E$AAAKXZ 000000018001f984 f i _nodert_generated.obj
 0001:0001e990       ?__abi_Release@?$AsyncOperationCompletedHandler@PE$AAVRadio@Radios@Devices@Windows@@@Foundation@Windows@@WBA@E$AAAKXZ 000000018001f990 f i _nodert_generated.obj
 0001:0001e9a0       ?__abi_Release@?$AsyncOperationCompletedHandler@W4RadioAccessStatus@Radios@Devices@Windows@@@Foundation@Windows@@UE$AAAKXZ 000000018001f9a0 f i _nodert_generated.obj
 0001:0001ea64       ?__abi_Release@?$AsyncOperationCompletedHandler@W4RadioAccessStatus@Radios@Devices@Windows@@@Foundation@Windows@@W7E$AAAKXZ 000000018001fa64 f i _nodert_generated.obj
 0001:0001ea70       ?__abi_Release@?$AsyncOperationCompletedHandler@W4RadioAccessStatus@Radios@Devices@Windows@@@Foundation@Windows@@WBA@E$AAAKXZ 000000018001fa70 f i _nodert_generated.obj
 0001:0001ea80       ?__abi_Release@?$TypedEventHandler@PE$AAVRadio@Radios@Devices@Windows@@PE$AAVObject@Platform@@@Foundation@Windows@@UE$AAAKXZ 000000018001fa80 f i _nodert_generated.obj
 0001:0001eb44       ?__abi_Release@?$TypedEventHandler@PE$AAVRadio@Radios@Devices@Windows@@PE$AAVObject@Platform@@@Foundation@Windows@@W7E$AAAKXZ 000000018001fb44 f i _nodert_generated.obj
 0001:0001eb50       ?__abi_Release@?$TypedEventHandler@PE$AAVRadio@Radios@Devices@Windows@@PE$AAVObject@Platform@@@Foundation@Windows@@WBA@E$AAAKXZ 000000018001fb50 f i _nodert_generated.obj
 0001:0001eb60       ?__abi_Release@ControlBlock@Details@Platform@@UEAAKXZ 000000018001fb60 f i _nodert_generated.obj
 0001:0001eba0       ?__abi_WinRTraiseException@@YAXJ@Z 000000018001fba0 f i _nodert_generated.obj
 0001:0001ecc0       ?__abi_Windows_Foundation_?$AsyncOperationCompletedHandler@PE$AAU?$IVectorView@PE$AAVRadio@Radios@Devices@Windows@@@Collections@Foundation@Windows@@___abi_IDelegate____abi_Invoke@?Q__abi_IDelegate@?$AsyncOperationCompletedHandler@PE$AAU?$IVectorView@PE$AAVRadio@Radios@Devices@Windows@@@Collections@Foundation@Windows@@@Foundation@Windows@@234@UE$AAAJPE$AAU?$IAsyncOperation@PE$AAU?$IVectorView@PE$AAVRadio@Radios@Devices@Windows@@@Collections@Foundation@Windows@@@34@W4AsyncStatus@34@@Z 000000018001fcc0 f i _nodert_generated.obj
 0001:0001ed30       ?__abi_Windows_Foundation_?$AsyncOperationCompletedHandler@PE$AAVRadio@Radios@Devices@Windows@@___abi_IDelegate____abi_Invoke@?Q__abi_IDelegate@?$AsyncOperationCompletedHandler@PE$AAVRadio@Radios@Devices@Windows@@@Foundation@Windows@@234@UE$AAAJPE$AAU?$IAsyncOperation@PE$AAVRadio@Radios@Devices@Windows@@@34@W4AsyncStatus@34@@Z 000000018001fd30 f i _nodert_generated.obj
 0001:0001eda0       ?__abi_Windows_Foundation_?$AsyncOperationCompletedHandler@W4RadioAccessStatus@Radios@Devices@Windows@@___abi_IDelegate____abi_Invoke@?Q__abi_IDelegate@?$AsyncOperationCompletedHandler@W4RadioAccessStatus@Radios@Devices@Windows@@@Foundation@Windows@@234@UE$AAAJPE$AAU?$IAsyncOperation@W4RadioAccessStatus@Radios@Devices@Windows@@@34@W4AsyncStatus@34@@Z 000000018001fda0 f i _nodert_generated.obj
 0001:0001ee10       ?__abi_Windows_Foundation_?$TypedEventHandler@PE$AAVRadio@Radios@Devices@Windows@@PE$AAVObject@Platform@@___abi_IDelegate____abi_Invoke@?Q__abi_IDelegate@?$TypedEventHandler@PE$AAVRadio@Radios@Devices@Windows@@PE$AAVObject@Platform@@@Foundation@Windows@@234@UE$AAAJPE$AAVRadio@Radios@Devices@4@PE$AAVObject@Platform@@@Z 000000018001fe10 f i _nodert_generated.obj
 0001:0001ee80       ?__abi_dtor@__abi_FTMWeakRefData@@QEAAXXZ 000000018001fe80 f i _nodert_generated.obj
 0001:0001ef50       ?__abi_winrt_ptr_dtor@@YAXQE$ADVObject@Platform@@@Z 000000018001ff50 f i _nodert_generated.obj
 0001:0001ef60       ?__abi_winrt_ptrto_string_ctor@@YAPEAXPE$ADVString@Platform@@@Z 000000018001ff60 f i _nodert_generated.obj
 0001:0001efa0       ?__abi_winrt_ptrto_string_dtor@@YAXQE$ADVString@Platform@@@Z 000000018001ffa0 f i _nodert_generated.obj
 0001:0001efb0       ?add@StateChanged@IRadio@Radios@Devices@Windows@@UE$AAA?AVEventRegistrationToken@Foundation@5@PE$AAV?$TypedEventHandler@PE$AAVRadio@Radios@Devices@Windows@@PE$AAVObject@Platform@@@75@@Z 000000018001ffb0 f i _nodert_generated.obj
 0001:0001eff0       ?allocate@?$allocator@PEAX@std@@QEAAPEAPEAX_K@Z 000000018001fff0 f i _nodert_generated.obj
 0001:0001f090       ?convert@?$ToFactory@H@imp@Nan@@SA?AV?$Maybe@H@v8@@V?$Local@VValue@v8@@@5@@Z 0000000180020090 f i _nodert_generated.obj
 0001:0001f130       ?convert@?$ToFactory@VInteger@v8@@@imp@Nan@@SA?AV?$MaybeLocal@VInteger@v8@@@v8@@V?$Local@VValue@v8@@@5@@Z 0000000180020130 f i _nodert_generated.obj
 0001:0001f1d0       ?convert@?$ToFactory@VObject@v8@@@imp@Nan@@SA?AV?$MaybeLocal@VObject@v8@@@v8@@V?$Local@VValue@v8@@@5@@Z 00000001800201d0 f i _nodert_generated.obj
 0001:0001f270       ?convert@?$ToFactory@VString@v8@@@imp@Nan@@SA?AV?$MaybeLocal@VString@v8@@@v8@@V?$Local@VValue@v8@@@5@@Z 0000000180020270 f i _nodert_generated.obj
 0001:0001f310       ?current_exception@std@@YA?AVexception_ptr@1@XZ 0000000180020310 f i _nodert_generated.obj
 0001:0001f330       ?deallocate@?$allocator@PEAX@std@@QEAAXPEAPEAX_K@Z 0000000180020330 f i _nodert_generated.obj
 0001:0001f3c0       ?get@?$task@PE$AAU?$IVectorView@PE$AAVRadio@Radios@Devices@Windows@@@Collections@Foundation@Windows@@@Concurrency@@QEBAPE$AAU?$IVectorView@PE$AAVRadio@Radios@Devices@Windows@@@Collections@Foundation@Windows@@XZ 00000001800203c0 f i _nodert_generated.obj
 0001:0001f470       ?get@?$task@PE$AAVRadio@Radios@Devices@Windows@@@Concurrency@@QEBAPE$AAVRadio@Radios@Devices@Windows@@XZ 0000000180020470 f i _nodert_generated.obj
 0001:0001f530       ?get@Current@?$IIterator@PE$AAVRadio@Radios@Devices@Windows@@@Collections@Foundation@Windows@@UE$AAAPE$AAVRadio@Radios@Devices@5@XZ 0000000180020530 f i _nodert_generated.obj
 0001:0001f5b0       ?get@ErrorCode@IAsyncInfo@Foundation@Windows@@UE$AAA?AVHResult@34@XZ 00000001800205b0 f i _nodert_generated.obj
 0001:0001f5f0       ?get@HasCurrent@?$IIterator@PE$AAVRadio@Radios@Devices@Windows@@@Collections@Foundation@Windows@@UE$AAA_NXZ 00000001800205f0 f i _nodert_generated.obj
 0001:0001f620       ?get@Kind@IRadio@Radios@Devices@Windows@@UE$AAA?AW4RadioKind@345@XZ 0000000180020620 f i _nodert_generated.obj
 0001:0001f660       ?get@Name@IRadio@Radios@Devices@Windows@@UE$AAAPE$AAVString@Platform@@XZ 0000000180020660 f i _nodert_generated.obj
 0001:0001f6e0       ?get@Size@?$IVectorView@PE$AAVRadio@Radios@Devices@Windows@@@Collections@Foundation@Windows@@UE$AAAIXZ 00000001800206e0 f i _nodert_generated.obj
 0001:0001f710       ?get@State@IRadio@Radios@Devices@Windows@@UE$AAA?AW4RadioState@345@XZ 0000000180020710 f i _nodert_generated.obj
 0001:0001f750       ?get@Value@?$IBox@_J@Platform@@UE$AAA_JXZ 0000000180020750 f i _nodert_generated.obj
 0001:0001f780       ?get_cancellation_token@task_options@Concurrency@@QEBA?AVcancellation_token@2@XZ 0000000180020780 f i _nodert_generated.obj
 0001:0001f7b0       ?get_continuation_context@task_options@Concurrency@@QEBA?AVtask_continuation_context@2@XZ 00000001800207b0 f i _nodert_generated.obj
 0001:0001f800       ?get_scheduler@task_options@Concurrency@@QEBA?AUscheduler_ptr@2@XZ 0000000180020800 f i _nodert_generated.obj
 0001:0001f860       ?invoke@?$_PPLTaskHandle@EU?$_ContinuationTaskHandle@PE$AAU?$IVectorView@PE$AAVRadio@Radios@Devices@Windows@@@Collections@Foundation@Windows@@XV?$function@$$A6AXV?$task@PE$AAU?$IVectorView@PE$AAVRadio@Radios@Devices@Windows@@@Collections@Foundation@Windows@@@Concurrency@@@Z@std@@U?$integral_constant@_N$00@6@U_TypeSelectorNoAsync@details@Concurrency@@@?$task@PE$AAU?$IVectorView@PE$AAVRadio@Radios@Devices@Windows@@@Collections@Foundation@Windows@@@Concurrency@@U_ContinuationTaskHandleBase@details@3@@details@Concurrency@@UEBAXXZ 0000000180020860 f i _nodert_generated.obj
 0001:0001f9a0       ?invoke@?$_PPLTaskHandle@EU?$_ContinuationTaskHandle@PE$AAVRadio@Radios@Devices@Windows@@XV?$function@$$A6AXV?$task@PE$AAVRadio@Radios@Devices@Windows@@@Concurrency@@@Z@std@@U?$integral_constant@_N$00@6@U_TypeSelectorNoAsync@details@Concurrency@@@?$task@PE$AAVRadio@Radios@Devices@Windows@@@Concurrency@@U_ContinuationTaskHandleBase@details@3@@details@Concurrency@@UEBAXXZ 00000001800209a0 f i _nodert_generated.obj
 0001:0001fae0       ?invoke@?$_PPLTaskHandle@EU?$_ContinuationTaskHandle@W4RadioAccessStatus@Radios@Devices@Windows@@XV?$function@$$A6AXV?$task@W4RadioAccessStatus@Radios@Devices@Windows@@@Concurrency@@@Z@std@@U?$integral_constant@_N$00@6@U_TypeSelectorNoAsync@details@Concurrency@@@?$task@W4RadioAccessStatus@Radios@Devices@Windows@@@Concurrency@@U_ContinuationTaskHandleBase@details@3@@details@Concurrency@@UEBAXXZ 0000000180020ae0 f i _nodert_generated.obj
 0001:0001fc20       ?lock@?$weak_ptr@U_Task_impl_base@details@Concurrency@@@std@@QEBA?AV?$shared_ptr@U_Task_impl_base@details@Concurrency@@@2@XZ 0000000180020c20 f i _nodert_generated.obj
 0001:0001fca0       ?none@cancellation_token@Concurrency@@SA?AV12@XZ 0000000180020ca0 f i _nodert_generated.obj
 0001:0001fcc0       ?push_back@TokenRegistrationContainer@_CancellationTokenState@details@Concurrency@@QEAAXPEAV_CancellationTokenRegistration@34@@Z 0000000180020cc0 f i _nodert_generated.obj
 0001:0001fd40       ?remove@StateChanged@IRadio@Radios@Devices@Windows@@UE$AAAXVEventRegistrationToken@Foundation@5@@Z 0000000180020d40 f i _nodert_generated.obj
 0001:0001fd70       ?reset@?$shared_ptr@U?$_Task_impl@PE$AAU?$IVectorView@PE$AAVRadio@Radios@Devices@Windows@@@Collections@Foundation@Windows@@@details@Concurrency@@@std@@QEAAXXZ 0000000180020d70 f i _nodert_generated.obj
 0001:0001fdf0       ?reset@?$shared_ptr@U?$_Task_impl@PE$AAVRadio@Radios@Devices@Windows@@@details@Concurrency@@@std@@QEAAXXZ 0000000180020df0 f i _nodert_generated.obj
 0001:0001fe70       ?reset@?$shared_ptr@U?$_Task_impl@W4RadioAccessStatus@Radios@Devices@Windows@@@details@Concurrency@@@std@@QEAAXXZ 0000000180020e70 f i _nodert_generated.obj
 0001:0001fef0       ?schedule@_DefaultPPLTaskScheduler@details@Concurrency@@UEAAXP6AXPEAX@Z0@Z 0000000180020ef0 f i _nodert_generated.obj
 0001:0001ffe0       ?set@Completed@?$IAsyncOperation@PE$AAU?$IVectorView@PE$AAVRadio@Radios@Devices@Windows@@@Collections@Foundation@Windows@@@Foundation@Windows@@UE$AAAXPE$AAV?$AsyncOperationCompletedHandler@PE$AAU?$IVectorView@PE$AAVRadio@Radios@Devices@Windows@@@Collections@Foundation@Windows@@@34@@Z 0000000180020fe0 f i _nodert_generated.obj
 0001:00020010       ?set@Completed@?$IAsyncOperation@PE$AAVRadio@Radios@Devices@Windows@@@Foundation@Windows@@UE$AAAXPE$AAV?$AsyncOperationCompletedHandler@PE$AAVRadio@Radios@Devices@Windows@@@34@@Z 0000000180021010 f i _nodert_generated.obj
 0001:00020040       ?set@Completed@?$IAsyncOperation@W4RadioAccessStatus@Radios@Devices@Windows@@@Foundation@Windows@@UE$AAAXPE$AAV?$AsyncOperationCompletedHandler@W4RadioAccessStatus@Radios@Devices@Windows@@@34@@Z 0000000180021040 f i _nodert_generated.obj
 0001:00020070       ?use_default@task_continuation_context@Concurrency@@SA?AV12@XZ 0000000180021070 f i _nodert_generated.obj
 0001:000200a0       ?what@bad_weak_ptr@std@@UEBAPEBDXZ 00000001800210a0 f i _nodert_generated.obj
 0001:000200b0       ?what@exception@stdext@@UEBAPEBDXZ 00000001800210b0 f i _nodert_generated.obj
 0001:000200d0       ??$New@VDate@v8@@N@Nan@@YA?AV?$MaybeLocal@VDate@v8@@@v8@@N@Z 00000001800210d0 f i NodeRtUtils.obj
 0001:000200f0       ??$New@VInteger@v8@@E@Nan@@YA?AV?$Local@VInteger@v8@@@v8@@E@Z 00000001800210f0 f i NodeRtUtils.obj
 0001:00020160       ??$New@VNumber@v8@@M@Nan@@YA?AV?$Local@VNumber@v8@@@v8@@M@Z 0000000180021160 f i NodeRtUtils.obj
 0001:000201b0       ??$New@VString@v8@@PEBG@Nan@@YA?AV?$MaybeLocal@VString@v8@@@v8@@PEBG@Z 00000001800211b0 f i NodeRtUtils.obj
 0001:00020200       ??1?$basic_string@_WU?$char_traits@_W@std@@V?$allocator@_W@2@@std@@QEAA@XZ 0000000180021200 f i NodeRtUtils.obj
 0001:00020260       ?CallCallbackInDomain@Utils@NodeRT@@YA?AV?$Local@VValue@v8@@@v8@@V?$Local@VObject@v8@@@4@HQEAV34@@Z 0000000180021260 f   NodeRtUtils.obj
 0001:00020300       ?CaseInsenstiveEquals@Utils@NodeRT@@YA_NPEB_W0@Z 0000000180021300 f   NodeRtUtils.obj
 0001:00020380       ?CaseInsenstiveEquals@Utils@NodeRT@@YA_NPEB_WPEBG@Z 0000000180021380 f   NodeRtUtils.obj
 0001:00020400       ?ColorFromJs@Utils@NodeRT@@YA?AVColor@UI@Windows@@V?$Local@VValue@v8@@@v8@@@Z 0000000180021400 f   NodeRtUtils.obj
 0001:000208b0       ?ColorToJs@Utils@NodeRT@@YA?AV?$Local@VObject@v8@@@v8@@VColor@UI@Windows@@@Z 00000001800218b0 f   NodeRtUtils.obj
 0001:00020ba0       ?CreateCallbackObjectInDomain@Utils@NodeRT@@YA?AV?$Local@VObject@v8@@@v8@@V?$Local@VFunction@v8@@@4@@Z 0000000180021ba0 f   NodeRtUtils.obj
 0001:00020e90       ?CreateExternalWinRTObject@Utils@NodeRT@@YA?AV?$Local@VValue@v8@@@v8@@PEBD0PE$AAVObject@Platform@@@Z 0000000180021e90 f   NodeRtUtils.obj
 0001:00021290       ?DateTimeFromJSDate@Utils@NodeRT@@YA?AVDateTime@Foundation@Windows@@V?$Local@VValue@v8@@@v8@@@Z 0000000180022290 f   NodeRtUtils.obj
 0001:000212e0       ?DateTimeToJS@Utils@NodeRT@@YA?AV?$Local@VDate@v8@@@v8@@VDateTime@Foundation@Windows@@@Z 00000001800222e0 f   NodeRtUtils.obj
 0001:00021350       ?ForceSet@Nan@@YA?AV?$Maybe@_N@v8@@V?$Local@VObject@v8@@@3@V?$Local@VValue@v8@@@3@1W4PropertyAttribute@3@@Z 0000000180022350 f i NodeRtUtils.obj
 0001:00021450       ?GetFirstChar@Utils@NodeRT@@YA_WV?$Local@VValue@v8@@@v8@@@Z 0000000180022450 f   NodeRtUtils.obj
 0001:00021510       ?GetHiddenValue@Utils@NodeRT@@YA?AV?$Local@VValue@v8@@@v8@@V?$Local@VObject@v8@@@4@V?$Local@VString@v8@@@4@@Z 0000000180022510 f   NodeRtUtils.obj
 0001:00021560       ?GetObjectInstance@Utils@NodeRT@@YAPE$AAVObject@Platform@@V?$Local@VValue@v8@@@v8@@@Z 0000000180022560 f   NodeRtUtils.obj
 0001:00021610       ?GuidFromJs@Utils@NodeRT@@YA?AVGuid@Platform@@V?$Local@VValue@v8@@@v8@@@Z 0000000180022610 f   NodeRtUtils.obj
 0001:000216e0       ?GuidToJs@Utils@NodeRT@@YA?AV?$Local@VString@v8@@@v8@@VGuid@Platform@@@Z 00000001800226e0 f   NodeRtUtils.obj
 0001:00021780       ?HResultFromJsInt32@Utils@NodeRT@@YA?AVHResult@Foundation@Windows@@H@Z 0000000180022780 f   NodeRtUtils.obj
 0001:00021790       ?Has@Nan@@YA?AV?$Maybe@_N@v8@@V?$Local@VObject@v8@@@3@V?$Local@VString@v8@@@3@@Z 0000000180022790 f i NodeRtUtils.obj
 0001:00021830       ?IsColor@Utils@NodeRT@@YA_NV?$Local@VValue@v8@@@v8@@@Z 0000000180022830 f   NodeRtUtils.obj
 0001:00021a50       ?IsGuid@Utils@NodeRT@@YA_NV?$Local@VValue@v8@@@v8@@@Z 0000000180022a50 f   NodeRtUtils.obj
 0001:00021a90       ?IsPoint@Utils@NodeRT@@YA_NV?$Local@VValue@v8@@@v8@@@Z 0000000180022a90 f   NodeRtUtils.obj
 0001:00021bc0       ?IsRect@Utils@NodeRT@@YA_NV?$Local@VValue@v8@@@v8@@@Z 0000000180022bc0 f   NodeRtUtils.obj
 0001:00021de0       ?IsSize@Utils@NodeRT@@YA_NV?$Local@VValue@v8@@@v8@@@Z 0000000180022de0 f   NodeRtUtils.obj
 0001:00021f10       ?IsWinRtWrapper@Utils@NodeRT@@YA_NV?$Local@VValue@v8@@@v8@@@Z 0000000180022f10 f   NodeRtUtils.obj
 0001:000220b0       ?JsStringFromChar@Utils@NodeRT@@YA?AV?$Local@VString@v8@@@v8@@_W@Z 00000001800230b0 f   NodeRtUtils.obj
 0001:00022120       ?New@?$Factory@VDate@v8@@@imp@Nan@@SA?AV?$MaybeLocal@VDate@v8@@@v8@@N@Z 0000000180023120 f i NodeRtUtils.obj
 0001:000221d0       ?NewString@Utils@NodeRT@@YA?AV?$Local@VString@v8@@@v8@@PEB_W@Z 00000001800231d0 f   NodeRtUtils.obj
 0001:00022240       ?PointFromJs@Utils@NodeRT@@YA?AVPoint@Foundation@Windows@@V?$Local@VValue@v8@@@v8@@@Z 0000000180023240 f   NodeRtUtils.obj
 0001:00022530       ?PointToJs@Utils@NodeRT@@YA?AV?$Local@VObject@v8@@@v8@@VPoint@Foundation@Windows@@@Z 0000000180023530 f   NodeRtUtils.obj
 0001:00022720       ?RectFromJs@Utils@NodeRT@@YA?AVRect@Foundation@Windows@@V?$Local@VValue@v8@@@v8@@@Z 0000000180023720 f   NodeRtUtils.obj
 0001:00022c00       ?RectToJs@Utils@NodeRT@@YA?AV?$Local@VObject@v8@@@v8@@VRect@Foundation@Windows@@@Z 0000000180023c00 f   NodeRtUtils.obj
 0001:000230d0       ?RegisterNameSpace@Utils@NodeRT@@YAXPEBDV?$Local@VValue@v8@@@v8@@@Z 00000001800240d0 f   NodeRtUtils.obj
 0001:00023320       ?SetHiddenValue@Utils@NodeRT@@YAXV?$Local@VObject@v8@@@v8@@V?$Local@VString@v8@@@4@V?$Local@VPrimitive@v8@@@4@@Z 0000000180024320 f   NodeRtUtils.obj
 0001:00023350       ?SetHiddenValueWithObject@Utils@NodeRT@@YAXV?$Local@VObject@v8@@@v8@@V?$Local@VString@v8@@@4@0@Z 0000000180024350 f   NodeRtUtils.obj
 0001:00023380       ?SizeFromJs@Utils@NodeRT@@YA?AVSize@Foundation@Windows@@V?$Local@VValue@v8@@@v8@@@Z 0000000180024380 f   NodeRtUtils.obj
 0001:00023670       ?SizeToJs@Utils@NodeRT@@YA?AV?$Local@VObject@v8@@@v8@@VSize@Foundation@Windows@@@Z 0000000180024670 f   NodeRtUtils.obj
 0001:00023860       ?StrToGuid@Utils@NodeRT@@YA_NV?$Local@VValue@v8@@@v8@@PEAU_GUID@@@Z 0000000180024860 f   NodeRtUtils.obj
 0001:00023a00       ?StringToWchar@Utils@NodeRT@@YAPEB_WAEAVValue@String@v8@@@Z 0000000180024a00 f   NodeRtUtils.obj
 0001:00023a10       ?ThrowWinRtExceptionInJs@Utils@NodeRT@@YAXPE$AAVException@Platform@@@Z 0000000180024a10 f   NodeRtUtils.obj
 0001:00023a60       ?TimeSpanFromMilli@Utils@NodeRT@@YA?AVTimeSpan@Foundation@Windows@@_J@Z 0000000180024a60 f   NodeRtUtils.obj
 0001:00023a70       ?V8StringToPlatformString@Utils@NodeRT@@YAPE$AAVString@Platform@@V?$Local@VValue@v8@@@v8@@@Z 0000000180024a70 f   NodeRtUtils.obj
 0001:00023af0       ?WinRtExceptionToJsError@Utils@NodeRT@@YA?AV?$Local@VValue@v8@@@v8@@PE$AAVException@Platform@@@Z 0000000180024af0 f   NodeRtUtils.obj
 0001:00023d30       ?_Copy@?$basic_string@_WU?$char_traits@_W@std@@V?$allocator@_W@2@@std@@QEAAX_K0@Z 0000000180024d30 f i NodeRtUtils.obj
 0001:00023e80       ?allocate@?$allocator@_W@std@@QEAAPEA_W_K@Z 0000000180024e80 f i NodeRtUtils.obj
 0001:00023f20       ?append@?$basic_string@_WU?$char_traits@_W@std@@V?$allocator@_W@2@@std@@QEAAAEAV12@AEBV12@_K1@Z 0000000180024f20 f i NodeRtUtils.obj
 0001:00024090       ?append@?$basic_string@_WU?$char_traits@_W@std@@V?$allocator@_W@2@@std@@QEAAAEAV12@PEB_W_K@Z 0000000180025090 f i NodeRtUtils.obj
 0001:00024250       ?assign@?$basic_string@_WU?$char_traits@_W@std@@V?$allocator@_W@2@@std@@QEAAAEAV12@AEBV12@_K1@Z 0000000180025250 f i NodeRtUtils.obj
 0001:000243d0       ?assign@?$basic_string@_WU?$char_traits@_W@std@@V?$allocator@_W@2@@std@@QEAAAEAV12@PEB_W_K@Z 00000001800253d0 f i NodeRtUtils.obj
 0001:00024570       ?convert@?$ToFactory@I@imp@Nan@@SA?AV?$Maybe@I@v8@@V?$Local@VValue@v8@@@5@@Z 0000000180025570 f i NodeRtUtils.obj
 0001:00024610       ?convert@?$ToFactory@N@imp@Nan@@SA?AV?$Maybe@N@v8@@V?$Local@VValue@v8@@@5@@Z 0000000180025610 f i NodeRtUtils.obj
 0001:000246b0       ?deallocate@?$allocator@_W@std@@QEAAXPEA_W_K@Z 00000001800256b0 f i NodeRtUtils.obj
 0001:00024740       ?erase@?$basic_string@_WU?$char_traits@_W@std@@V?$allocator@_W@2@@std@@QEAAAEAV12@_K0@Z 0000000180025740 f i NodeRtUtils.obj
 0001:00024820       ?get@Black@Colors@UI@Windows@@SA?AVColor@34@XZ 0000000180025820 f i NodeRtUtils.obj
 0001:000248e0       ?get@Black@IColorsStatics@UI@Windows@@UE$AAA?AVColor@34@XZ 00000001800258e0 f i NodeRtUtils.obj
 0001:00024920       ??0OpaqueWrapper@NodeRT@@AEAA@PE$AAVObject@Platform@@@Z 0000000180025920 f i OpaqueWrapper.obj
 0001:00024990       ??_EOpaqueWrapper@NodeRT@@UEAAPEAXI@Z 0000000180025990 f i OpaqueWrapper.obj
 0001:00024990       ??_GOpaqueWrapper@NodeRT@@UEAAPEAXI@Z 0000000180025990 f i OpaqueWrapper.obj
 0001:00024a00       ?CreateOpaqueWrapper@NodeRT@@YA?AV?$Local@VValue@v8@@@v8@@PE$AAVObject@Platform@@@Z 0000000180025a00 f   OpaqueWrapper.obj
 0001:00024c90       ?GetObjectInstance@OpaqueWrapper@NodeRT@@UEBAPE$AAVObject@Platform@@XZ 0000000180025c90 f i OpaqueWrapper.obj
 0001:00024cc0       ?Init@OpaqueWrapper@NodeRT@@CAXXZ 0000000180025cc0 f   OpaqueWrapper.obj
 0001:00024e20       ?New@OpaqueWrapper@NodeRT@@CAXAEBV?$FunctionCallbackInfo@VValue@v8@@@Nan@@@Z 0000000180025e20 f   OpaqueWrapper.obj
 0001:00024ef0       ??8std@@YA_NAEBVBasicGeoposition@Geolocation@Devices@Windows@@0@Z 0000000180025ef0 f   CollectionsConverterUtils.obj
 0001:00024f30       ??8std@@YA_NAEBVSortEntry@Search@Storage@Windows@@0@Z 0000000180025f30 f   CollectionsConverterUtils.obj
 0001:00024f80       ??8std@@YA_NAEBVTextSegment@Text@Data@Windows@@0@Z 0000000180025f80 f   CollectionsConverterUtils.obj
 0001:00024fa0       ??8std@@YA_NAEBVTimeSpan@Foundation@Windows@@0@Z 0000000180025fa0 f   CollectionsConverterUtils.obj
 0001:00025012       GetModuleHandleA           0000000180026012 f   kernel32:KERNEL32.dll
 0001:00025018       CoInitializeEx             0000000180026018 f   ole32:ole32.dll
 0001:0002501e       CoGetContextToken          000000018002601e f   ole32:ole32.dll
 0001:00025024       StringFromCLSID            0000000180026024 f   ole32:ole32.dll
 0001:0002502a       CLSIDFromString            000000018002602a f   ole32:ole32.dll
 0001:00025030       CoTaskMemFree              0000000180026030 f   ole32:ole32.dll
 0001:00025036       __imp_load_??0HandleScope@v8@@QEAA@PEAVIsolate@1@@Z 0000000180026036 f   node:node.exe
 0001:00025042       __tailMerge_node_exe       0000000180026042 f i node:node.exe
 0001:000250bb       ??0HandleScope@v8@@QEAA@PEAVIsolate@1@@Z 00000001800260bb f   node:node.exe
 0001:000250c1       __imp_load_??1HandleScope@v8@@QEAA@XZ 00000001800260c1 f   node:node.exe
 0001:000250cd       ??1HandleScope@v8@@QEAA@XZ 00000001800260cd f   node:node.exe
 0001:000250d3       __imp_load_?CreateHandle@HandleScope@v8@@KAPEAPEAVObject@internal@2@PEAVIsolate@42@PEAV342@@Z 00000001800260d3 f   node:node.exe
 0001:000250df       ?CreateHandle@HandleScope@v8@@KAPEAPEAVObject@internal@2@PEAVIsolate@42@PEAV342@@Z 00000001800260df f   node:node.exe
 0001:000250e5       __imp_load_?CreateHandle@HandleScope@v8@@CAPEAPEAVObject@internal@2@PEAVNeverReadOnlySpaceObject@42@PEAV342@@Z 00000001800260e5 f   node:node.exe
 0001:000250f1       ?CreateHandle@HandleScope@v8@@CAPEAPEAVObject@internal@2@PEAVNeverReadOnlySpaceObject@42@PEAV342@@Z 00000001800260f1 f   node:node.exe
 0001:000250f7       __imp_load_??0EscapableHandleScope@v8@@QEAA@PEAVIsolate@1@@Z 00000001800260f7 f   node:node.exe
 0001:00025103       ??0EscapableHandleScope@v8@@QEAA@PEAVIsolate@1@@Z 0000000180026103 f   node:node.exe
 0001:00025109       __imp_load_??1EscapableHandleScope@v8@@QEAA@XZ 0000000180026109 f   node:node.exe
 0001:00025115       ??1EscapableHandleScope@v8@@QEAA@XZ 0000000180026115 f   node:node.exe
 0001:0002511b       __imp_load_?Escape@EscapableHandleScope@v8@@AEAAPEAPEAVObject@internal@2@PEAPEAV342@@Z 000000018002611b f   node:node.exe
 0001:00025127       ?Escape@EscapableHandleScope@v8@@AEAAPEAPEAVObject@internal@2@PEAPEAV342@@Z 0000000180026127 f   node:node.exe
 0001:0002512d       __imp_load_?IsFunction@Value@v8@@QEBA_NXZ 000000018002612d f   node:node.exe
 0001:00025139       ?IsFunction@Value@v8@@QEBA_NXZ 0000000180026139 f   node:node.exe
 0001:0002513f       __imp_load_?IsObject@Value@v8@@QEBA_NXZ 000000018002613f f   node:node.exe
 0001:0002514b       ?IsObject@Value@v8@@QEBA_NXZ 000000018002614b f   node:node.exe
 0001:00025151       __imp_load_?IsBoolean@Value@v8@@QEBA_NXZ 0000000180026151 f   node:node.exe
 0001:0002515d       ?IsBoolean@Value@v8@@QEBA_NXZ 000000018002615d f   node:node.exe
 0001:00025163       __imp_load_?IsInt32@Value@v8@@QEBA_NXZ 0000000180026163 f   node:node.exe
 0001:0002516f       ?IsInt32@Value@v8@@QEBA_NXZ 000000018002616f f   node:node.exe
 0001:00025175       __imp_load_?IsUint32@Value@v8@@QEBA_NXZ 0000000180026175 f   node:node.exe
 0001:00025181       ?IsUint32@Value@v8@@QEBA_NXZ 0000000180026181 f   node:node.exe
 0001:00025187       __imp_load_?ToString@Value@v8@@QEBA?AV?$MaybeLocal@VString@v8@@@2@V?$Local@VContext@v8@@@2@@Z 0000000180026187 f   node:node.exe
 0001:00025193       ?ToString@Value@v8@@QEBA?AV?$MaybeLocal@VString@v8@@@2@V?$Local@VContext@v8@@@2@@Z 0000000180026193 f   node:node.exe
 0001:00025199       __imp_load_?ToObject@Value@v8@@QEBA?AV?$MaybeLocal@VObject@v8@@@2@V?$Local@VContext@v8@@@2@@Z 0000000180026199 f   node:node.exe
 0001:000251a5       ?ToObject@Value@v8@@QEBA?AV?$MaybeLocal@VObject@v8@@@2@V?$Local@VContext@v8@@@2@@Z 00000001800261a5 f   node:node.exe
 0001:000251ab       __imp_load_?ToInteger@Value@v8@@QEBA?AV?$MaybeLocal@VInteger@v8@@@2@V?$Local@VContext@v8@@@2@@Z 00000001800261ab f   node:node.exe
 0001:000251b7       ?ToInteger@Value@v8@@QEBA?AV?$MaybeLocal@VInteger@v8@@@2@V?$Local@VContext@v8@@@2@@Z 00000001800261b7 f   node:node.exe
 0001:000251bd       __imp_load_?Int32Value@Value@v8@@QEBA?AV?$Maybe@H@2@V?$Local@VContext@v8@@@2@@Z 00000001800261bd f   node:node.exe
 0001:000251c9       ?Int32Value@Value@v8@@QEBA?AV?$Maybe@H@2@V?$Local@VContext@v8@@@2@@Z 00000001800261c9 f   node:node.exe
 0001:000251cf       __imp_load_?Uint32Value@Value@v8@@QEBAIXZ 00000001800261cf f   node:node.exe
 0001:000251db       ?Uint32Value@Value@v8@@QEBAIXZ 00000001800261db f   node:node.exe
 0001:000251e1       __imp_load_?Equals@Value@v8@@QEBA_NV?$Local@VValue@v8@@@2@@Z 00000001800261e1 f   node:node.exe
 0001:000251ed       ?Equals@Value@v8@@QEBA_NV?$Local@VValue@v8@@@2@@Z 00000001800261ed f   node:node.exe
 0001:000251f3       __imp_load_?Equals@Value@v8@@QEBA?AV?$Maybe@_N@2@V?$Local@VContext@v8@@@2@V?$Local@VValue@v8@@@2@@Z 00000001800261f3 f   node:node.exe
 0001:000251ff       ?Equals@Value@v8@@QEBA?AV?$Maybe@_N@2@V?$Local@VContext@v8@@@2@V?$Local@VValue@v8@@@2@@Z 00000001800261ff f   node:node.exe
 0001:00025205       __imp_load_?NewFromUtf8@String@v8@@SA?AV?$MaybeLocal@VString@v8@@@2@PEAVIsolate@2@PEBDW4NewStringType@2@H@Z 0000000180026205 f   node:node.exe
 0001:00025211       ?NewFromUtf8@String@v8@@SA?AV?$MaybeLocal@VString@v8@@@2@PEAVIsolate@2@PEBDW4NewStringType@2@H@Z 0000000180026211 f   node:node.exe
 0001:00025217       __imp_load_?Concat@String@v8@@SA?AV?$Local@VString@v8@@@2@V32@0@Z 0000000180026217 f   node:node.exe
 0001:00025223       ?Concat@String@v8@@SA?AV?$Local@VString@v8@@@2@V32@0@Z 0000000180026223 f   node:node.exe
 0001:00025229       __imp_load_??0Value@String@v8@@QEAA@V?$Local@VValue@v8@@@2@@Z 0000000180026229 f   node:node.exe
 0001:00025235       ??0Value@String@v8@@QEAA@V?$Local@VValue@v8@@@2@@Z 0000000180026235 f   node:node.exe
 0001:0002523b       __imp_load_??1Value@String@v8@@QEAA@XZ 000000018002623b f   node:node.exe
 0001:00025247       ??1Value@String@v8@@QEAA@XZ 0000000180026247 f   node:node.exe
 0001:0002524d       __imp_load_?New@Integer@v8@@SA?AV?$Local@VInteger@v8@@@2@PEAVIsolate@2@H@Z 000000018002624d f   node:node.exe
 0001:00025259       ?New@Integer@v8@@SA?AV?$Local@VInteger@v8@@@2@PEAVIsolate@2@H@Z 0000000180026259 f   node:node.exe
 0001:0002525f       __imp_load_?NewFromUnsigned@Integer@v8@@SA?AV?$Local@VInteger@v8@@@2@PEAVIsolate@2@I@Z 000000018002625f f   node:node.exe
 0001:0002526b       ?NewFromUnsigned@Integer@v8@@SA?AV?$Local@VInteger@v8@@@2@PEAVIsolate@2@I@Z 000000018002626b f   node:node.exe
 0001:00025271       __imp_load_?Set@Object@v8@@QEAA?AV?$Maybe@_N@2@V?$Local@VContext@v8@@@2@V?$Local@VValue@v8@@@2@1@Z 0000000180026271 f   node:node.exe
 0001:0002527d       ?Set@Object@v8@@QEAA?AV?$Maybe@_N@2@V?$Local@VContext@v8@@@2@V?$Local@VValue@v8@@@2@1@Z 000000018002627d f   node:node.exe
 0001:00025283       __imp_load_?Get@Object@v8@@QEAA?AV?$Local@VValue@v8@@@2@V32@@Z 0000000180026283 f   node:node.exe
 0001:0002528f       ?Get@Object@v8@@QEAA?AV?$Local@VValue@v8@@@2@V32@@Z 000000018002628f f   node:node.exe
 0001:00025295       __imp_load_?Get@Object@v8@@QEAA?AV?$MaybeLocal@VValue@v8@@@2@V?$Local@VContext@v8@@@2@V?$Local@VValue@v8@@@2@@Z 0000000180026295 f   node:node.exe
 0001:000252a1       ?Get@Object@v8@@QEAA?AV?$MaybeLocal@VValue@v8@@@2@V?$Local@VContext@v8@@@2@V?$Local@VValue@v8@@@2@@Z 00000001800262a1 f   node:node.exe
 0001:000252a7       __imp_load_?Delete@Object@v8@@QEAA?AV?$Maybe@_N@2@V?$Local@VContext@v8@@@2@V?$Local@VValue@v8@@@2@@Z 00000001800262a7 f   node:node.exe
 0001:000252b3       ?Delete@Object@v8@@QEAA?AV?$Maybe@_N@2@V?$Local@VContext@v8@@@2@V?$Local@VValue@v8@@@2@@Z 00000001800262b3 f   node:node.exe
 0001:000252b9       __imp_load_?SetPrototype@Object@v8@@QEAA?AV?$Maybe@_N@2@V?$Local@VContext@v8@@@2@V?$Local@VValue@v8@@@2@@Z 00000001800262b9 f   node:node.exe
 0001:000252c5       ?SetPrototype@Object@v8@@QEAA?AV?$Maybe@_N@2@V?$Local@VContext@v8@@@2@V?$Local@VValue@v8@@@2@@Z 00000001800262c5 f   node:node.exe
 0001:000252cb       __imp_load_?InternalFieldCount@Object@v8@@QEAAHXZ 00000001800262cb f   node:node.exe
 0001:000252d7       ?InternalFieldCount@Object@v8@@QEAAHXZ 00000001800262d7 f   node:node.exe
 0001:000252dd       __imp_load_?SetInternalField@Object@v8@@QEAAXHV?$Local@VValue@v8@@@2@@Z 00000001800262dd f   node:node.exe
 0001:000252e9       ?SetInternalField@Object@v8@@QEAAXHV?$Local@VValue@v8@@@2@@Z 00000001800262e9 f   node:node.exe
 0001:000252ef       __imp_load_?SetAlignedPointerInInternalField@Object@v8@@QEAAXHPEAX@Z 00000001800262ef f   node:node.exe
 0001:000252fb       ?SetAlignedPointerInInternalField@Object@v8@@QEAAXHPEAX@Z 00000001800262fb f   node:node.exe
 0001:00025301       __imp_load_?New@Object@v8@@SA?AV?$Local@VObject@v8@@@2@PEAVIsolate@2@@Z 0000000180026301 f   node:node.exe
 0001:0002530d       ?New@Object@v8@@SA?AV?$Local@VObject@v8@@@2@PEAVIsolate@2@@Z 000000018002630d f   node:node.exe
 0001:00025313       __imp_load_?SlowGetInternalField@Object@v8@@AEAA?AV?$Local@VValue@v8@@@2@H@Z 0000000180026313 f   node:node.exe
 0001:0002531f       ?SlowGetInternalField@Object@v8@@AEAA?AV?$Local@VValue@v8@@@2@H@Z 000000018002631f f   node:node.exe
 0001:00025325       __imp_load_?SlowGetAlignedPointerFromInternalField@Object@v8@@AEAAPEAXH@Z 0000000180026325 f   node:node.exe
 0001:00025331       ?SlowGetAlignedPointerFromInternalField@Object@v8@@AEAAPEAXH@Z 0000000180026331 f   node:node.exe
 0001:00025337       __imp_load_?NewInstance@Function@v8@@QEBA?AV?$MaybeLocal@VObject@v8@@@2@V?$Local@VContext@v8@@@2@HQEAV?$Local@VValue@v8@@@2@@Z 0000000180026337 f   node:node.exe
 0001:00025343       ?NewInstance@Function@v8@@QEBA?AV?$MaybeLocal@VObject@v8@@@2@V?$Local@VContext@v8@@@2@HQEAV?$Local@VValue@v8@@@2@@Z 0000000180026343 f   node:node.exe
 0001:00025349       __imp_load_?New@External@v8@@SA?AV?$Local@VExternal@v8@@@2@PEAVIsolate@2@PEAX@Z 0000000180026349 f   node:node.exe
 0001:00025355       ?New@External@v8@@SA?AV?$Local@VExternal@v8@@@2@PEAVIsolate@2@PEAX@Z 0000000180026355 f   node:node.exe
 0001:0002535b       __imp_load_?Value@External@v8@@QEBAPEAXXZ 000000018002635b f   node:node.exe
 0001:00025367       ?Value@External@v8@@QEBAPEAXXZ 0000000180026367 f   node:node.exe
 0001:0002536d       __imp_load_?Set@Template@v8@@QEAAXV?$Local@VName@v8@@@2@V?$Local@VData@v8@@@2@W4PropertyAttribute@2@@Z 000000018002636d f   node:node.exe
 0001:00025379       ?Set@Template@v8@@QEAAXV?$Local@VName@v8@@@2@V?$Local@VData@v8@@@2@W4PropertyAttribute@2@@Z 0000000180026379 f   node:node.exe
 0001:0002537f       __imp_load_?New@FunctionTemplate@v8@@SA?AV?$Local@VFunctionTemplate@v8@@@2@PEAVIsolate@2@P6AXAEBV?$FunctionCallbackInfo@VValue@v8@@@2@@ZV?$Local@VValue@v8@@@2@V?$Local@VSignature@v8@@@2@HW4ConstructorBehavior@2@W4SideEffectType@2@@Z 000000018002637f f   node:node.exe
 0001:0002538b       ?New@FunctionTemplate@v8@@SA?AV?$Local@VFunctionTemplate@v8@@@2@PEAVIsolate@2@P6AXAEBV?$FunctionCallbackInfo@VValue@v8@@@2@@ZV?$Local@VValue@v8@@@2@V?$Local@VSignature@v8@@@2@HW4ConstructorBehavior@2@W4SideEffectType@2@@Z 000000018002638b f   node:node.exe
 0001:00025391       __imp_load_?GetFunction@FunctionTemplate@v8@@QEAA?AV?$MaybeLocal@VFunction@v8@@@2@V?$Local@VContext@v8@@@2@@Z 0000000180026391 f   node:node.exe
 0001:0002539d       ?GetFunction@FunctionTemplate@v8@@QEAA?AV?$MaybeLocal@VFunction@v8@@@2@V?$Local@VContext@v8@@@2@@Z 000000018002639d f   node:node.exe
 0001:000253a3       __imp_load_?InstanceTemplate@FunctionTemplate@v8@@QEAA?AV?$Local@VObjectTemplate@v8@@@2@XZ 00000001800263a3 f   node:node.exe
 0001:000253af       ?InstanceTemplate@FunctionTemplate@v8@@QEAA?AV?$Local@VObjectTemplate@v8@@@2@XZ 00000001800263af f   node:node.exe
 0001:000253b5       __imp_load_?PrototypeTemplate@FunctionTemplate@v8@@QEAA?AV?$Local@VObjectTemplate@v8@@@2@XZ 00000001800263b5 f   node:node.exe
 0001:000253c1       ?PrototypeTemplate@FunctionTemplate@v8@@QEAA?AV?$Local@VObjectTemplate@v8@@@2@XZ 00000001800263c1 f   node:node.exe
 0001:000253c7       __imp_load_?SetClassName@FunctionTemplate@v8@@QEAAXV?$Local@VString@v8@@@2@@Z 00000001800263c7 f   node:node.exe
 0001:000253d3       ?SetClassName@FunctionTemplate@v8@@QEAAXV?$Local@VString@v8@@@2@@Z 00000001800263d3 f   node:node.exe
 0001:000253d9       __imp_load_?HasInstance@FunctionTemplate@v8@@QEAA_NV?$Local@VValue@v8@@@2@@Z 00000001800263d9 f   node:node.exe
 0001:000253e5       ?HasInstance@FunctionTemplate@v8@@QEAA_NV?$Local@VValue@v8@@@2@@Z 00000001800263e5 f   node:node.exe
 0001:000253eb       __imp_load_?New@ObjectTemplate@v8@@SA?AV?$Local@VObjectTemplate@v8@@@2@PEAVIsolate@2@V?$Local@VFunctionTemplate@v8@@@2@@Z 00000001800263eb f   node:node.exe
 0001:000253f7       ?New@ObjectTemplate@v8@@SA?AV?$Local@VObjectTemplate@v8@@@2@PEAVIsolate@2@V?$Local@VFunctionTemplate@v8@@@2@@Z 00000001800263f7 f   node:node.exe
 0001:000253fd       __imp_load_?NewInstance@ObjectTemplate@v8@@QEAA?AV?$MaybeLocal@VObject@v8@@@2@V?$Local@VContext@v8@@@2@@Z 00000001800263fd f   node:node.exe
 0001:00025409       ?NewInstance@ObjectTemplate@v8@@QEAA?AV?$MaybeLocal@VObject@v8@@@2@V?$Local@VContext@v8@@@2@@Z 0000000180026409 f   node:node.exe
 0001:0002540f       __imp_load_?SetAccessor@ObjectTemplate@v8@@QEAAXV?$Local@VName@v8@@@2@P6AX0AEBV?$PropertyCallbackInfo@VValue@v8@@@2@@ZP6AX0V?$Local@VValue@v8@@@2@AEBV?$PropertyCallbackInfo@X@2@@Z3W4AccessControl@2@W4PropertyAttribute@2@V?$Local@VAccessorSignature@v8@@@2@W4SideEffectType@2@@Z 000000018002640f f   node:node.exe
 0001:0002541b       ?SetAccessor@ObjectTemplate@v8@@QEAAXV?$Local@VName@v8@@@2@P6AX0AEBV?$PropertyCallbackInfo@VValue@v8@@@2@@ZP6AX0V?$Local@VValue@v8@@@2@AEBV?$PropertyCallbackInfo@X@2@@Z3W4AccessControl@2@W4PropertyAttribute@2@V?$Local@VAccessorSignature@v8@@@2@W4SideEffectType@2@@Z 000000018002641b f   node:node.exe
 0001:00025421       __imp_load_?SetHandler@ObjectTemplate@v8@@QEAAXAEBUIndexedPropertyHandlerConfiguration@2@@Z 0000000180026421 f   node:node.exe
 0001:0002542d       ?SetHandler@ObjectTemplate@v8@@QEAAXAEBUIndexedPropertyHandlerConfiguration@2@@Z 000000018002642d f   node:node.exe
 0001:00025433       __imp_load_?SetInternalFieldCount@ObjectTemplate@v8@@QEAAXH@Z 0000000180026433 f   node:node.exe
 0001:0002543f       ?SetInternalFieldCount@ObjectTemplate@v8@@QEAAXH@Z 000000018002643f f   node:node.exe
 0001:00025445       __imp_load_?New@Signature@v8@@SA?AV?$Local@VSignature@v8@@@2@PEAVIsolate@2@V?$Local@VFunctionTemplate@v8@@@2@@Z 0000000180026445 f   node:node.exe
 0001:00025451       ?New@Signature@v8@@SA?AV?$Local@VSignature@v8@@@2@PEAVIsolate@2@V?$Local@VFunctionTemplate@v8@@@2@@Z 0000000180026451 f   node:node.exe
 0001:00025457       __imp_load_?Error@Exception@v8@@SA?AV?$Local@VValue@v8@@@2@V?$Local@VString@v8@@@2@@Z 0000000180026457 f   node:node.exe
 0001:00025463       ?Error@Exception@v8@@SA?AV?$Local@VValue@v8@@@2@V?$Local@VString@v8@@@2@@Z 0000000180026463 f   node:node.exe
 0001:00025469       __imp_load_?GetCurrent@Isolate@v8@@SAPEAV12@XZ 0000000180026469 f   node:node.exe
 0001:00025475       ?GetCurrent@Isolate@v8@@SAPEAV12@XZ 0000000180026475 f   node:node.exe
 0001:0002547b       __imp_load_?GetCurrentContext@Isolate@v8@@QEAA?AV?$Local@VContext@v8@@@2@XZ 000000018002647b f   node:node.exe
 0001:00025487       ?GetCurrentContext@Isolate@v8@@QEAA?AV?$Local@VContext@v8@@@2@XZ 0000000180026487 f   node:node.exe
 0001:0002548d       __imp_load_?ThrowException@Isolate@v8@@QEAA?AV?$Local@VValue@v8@@@2@V32@@Z 000000018002648d f   node:node.exe
 0001:00025499       ?ThrowException@Isolate@v8@@QEAA?AV?$Local@VValue@v8@@@2@V32@@Z 0000000180026499 f   node:node.exe
 0001:0002549f       __imp_load_?GlobalizeReference@V8@v8@@CAPEAPEAVObject@internal@2@PEAVIsolate@42@PEAPEAV342@@Z 000000018002649f f   node:node.exe
 0001:000254ab       ?GlobalizeReference@V8@v8@@CAPEAPEAVObject@internal@2@PEAVIsolate@42@PEAPEAV342@@Z 00000001800264ab f   node:node.exe
 0001:000254b1       __imp_load_?DisposeGlobal@V8@v8@@CAXPEAPEAVObject@internal@2@@Z 00000001800264b1 f   node:node.exe
 0001:000254bd       ?DisposeGlobal@V8@v8@@CAXPEAPEAVObject@internal@2@@Z 00000001800264bd f   node:node.exe
 0001:000254c3       __imp_load_?MakeWeak@V8@v8@@CAXPEAPEAVObject@internal@2@PEAXP6AXAEBV?$WeakCallbackInfo@X@2@@ZW4WeakCallbackType@2@@Z 00000001800264c3 f   node:node.exe
 0001:000254cf       ?MakeWeak@V8@v8@@CAXPEAPEAVObject@internal@2@PEAXP6AXAEBV?$WeakCallbackInfo@X@2@@ZW4WeakCallbackType@2@@Z 00000001800264cf f   node:node.exe
 0001:000254d5       __imp_load_?ClearWeak@V8@v8@@CAPEAXPEAPEAVObject@internal@2@@Z 00000001800264d5 f   node:node.exe
 0001:000254e1       ?ClearWeak@V8@v8@@CAPEAXPEAPEAVObject@internal@2@@Z 00000001800264e1 f   node:node.exe
 0001:000254e7       __imp_load_?ToLocalEmpty@V8@v8@@CAXXZ 00000001800264e7 f   node:node.exe
 0001:000254f3       ?ToLocalEmpty@V8@v8@@CAXXZ 00000001800264f3 f   node:node.exe
 0001:000254f9       __imp_load_??0TryCatch@v8@@QEAA@PEAVIsolate@1@@Z 00000001800264f9 f   node:node.exe
 0001:00025505       ??0TryCatch@v8@@QEAA@PEAVIsolate@1@@Z 0000000180026505 f   node:node.exe
 0001:0002550b       __imp_load_??1TryCatch@v8@@QEAA@XZ 000000018002650b f   node:node.exe
 0001:00025517       ??1TryCatch@v8@@QEAA@XZ    0000000180026517 f   node:node.exe
 0001:0002551d       __imp_load_?HasCaught@TryCatch@v8@@QEBA_NXZ 000000018002651d f   node:node.exe
 0001:00025529       ?HasCaught@TryCatch@v8@@QEBA_NXZ 0000000180026529 f   node:node.exe
 0001:0002552f       __imp_load_?Exception@TryCatch@v8@@QEBA?AV?$Local@VValue@v8@@@2@XZ 000000018002652f f   node:node.exe
 0001:0002553b       ?Exception@TryCatch@v8@@QEBA?AV?$Local@VValue@v8@@@2@XZ 000000018002653b f   node:node.exe
 0001:00025541       __imp_load_?Global@Context@v8@@QEAA?AV?$Local@VObject@v8@@@2@XZ 0000000180026541 f   node:node.exe
 0001:0002554d       ?Global@Context@v8@@QEAA?AV?$Local@VObject@v8@@@2@XZ 000000018002654d f   node:node.exe
 0001:00025553       __imp_load_uv_default_loop 0000000180026553 f   node:node.exe
 0001:0002555f       uv_default_loop            000000018002655f f   node:node.exe
 0001:00025565       __imp_load_uv_close        0000000180026565 f   node:node.exe
 0001:00025571       uv_close                   0000000180026571 f   node:node.exe
 0001:00025577       __imp_load_uv_async_init   0000000180026577 f   node:node.exe
 0001:00025583       uv_async_init              0000000180026583 f   node:node.exe
 0001:00025589       __imp_load_uv_async_send   0000000180026589 f   node:node.exe
 0001:00025595       uv_async_send              0000000180026595 f   node:node.exe
 0001:0002559b       __imp_load_node_module_register 000000018002659b f   node:node.exe
 0001:000255a7       node_module_register       00000001800265a7 f   node:node.exe
 0001:000255ad       __imp_load_?EmitAsyncInit@node@@YA?AUasync_context@1@PEAVIsolate@v8@@V?$Local@VObject@v8@@@4@V?$Local@VString@v8@@@4@N@Z 00000001800265ad f   node:node.exe
 0001:000255b9       ?EmitAsyncInit@node@@YA?AUasync_context@1@PEAVIsolate@v8@@V?$Local@VObject@v8@@@4@V?$Local@VString@v8@@@4@N@Z 00000001800265b9 f   node:node.exe
 0001:000255bf       __imp_load_?EmitAsyncDestroy@node@@YAXPEAVIsolate@v8@@Uasync_context@1@@Z 00000001800265bf f   node:node.exe
 0001:000255cb       ?EmitAsyncDestroy@node@@YAXPEAVIsolate@v8@@Uasync_context@1@@Z 00000001800265cb f   node:node.exe
 0001:000255d1       __imp_load_?MakeCallback@node@@YA?AV?$MaybeLocal@VValue@v8@@@v8@@PEAVIsolate@3@V?$Local@VObject@v8@@@3@V?$Local@VString@v8@@@3@HPEAV?$Local@VValue@v8@@@3@Uasync_context@1@@Z 00000001800265d1 f   node:node.exe
 0001:000255dd       ?MakeCallback@node@@YA?AV?$MaybeLocal@VValue@v8@@@v8@@PEAVIsolate@3@V?$Local@VObject@v8@@@3@V?$Local@VString@v8@@@3@HPEAV?$Local@VValue@v8@@@3@Uasync_context@1@@Z 00000001800265dd f   node:node.exe
 0001:000255e3       __imp_load_?IsTrue@Value@v8@@QEBA_NXZ 00000001800265e3 f   node:node.exe
 0001:000255ef       ?IsTrue@Value@v8@@QEBA_NXZ 00000001800265ef f   node:node.exe
 0001:000255f5       __imp_load_?IsName@Value@v8@@QEBA_NXZ 00000001800265f5 f   node:node.exe
 0001:00025601       ?IsName@Value@v8@@QEBA_NXZ 0000000180026601 f   node:node.exe
 0001:00025607       __imp_load_?IsDate@Value@v8@@QEBA_NXZ 0000000180026607 f   node:node.exe
 0001:00025613       ?IsDate@Value@v8@@QEBA_NXZ 0000000180026613 f   node:node.exe
 0001:00025619       __imp_load_?NumberValue@Value@v8@@QEBA?AV?$Maybe@N@2@V?$Local@VContext@v8@@@2@@Z 0000000180026619 f   node:node.exe
 0001:00025625       ?NumberValue@Value@v8@@QEBA?AV?$Maybe@N@2@V?$Local@VContext@v8@@@2@@Z 0000000180026625 f   node:node.exe
 0001:0002562b       __imp_load_?Uint32Value@Value@v8@@QEBA?AV?$Maybe@I@2@V?$Local@VContext@v8@@@2@@Z 000000018002662b f   node:node.exe
 0001:00025637       ?Uint32Value@Value@v8@@QEBA?AV?$Maybe@I@2@V?$Local@VContext@v8@@@2@@Z 0000000180026637 f   node:node.exe
 0001:0002563d       __imp_load_?IntegerValue@Value@v8@@QEBA_JXZ 000000018002663d f   node:node.exe
 0001:00025649       ?IntegerValue@Value@v8@@QEBA_JXZ 0000000180026649 f   node:node.exe
 0001:0002564f       __imp_load_?Length@String@v8@@QEBAHXZ 000000018002664f f   node:node.exe
 0001:0002565b       ?Length@String@v8@@QEBAHXZ 000000018002665b f   node:node.exe
 0001:00025661       __imp_load_?NewFromTwoByte@String@v8@@SA?AV?$MaybeLocal@VString@v8@@@2@PEAVIsolate@2@PEBGW4NewStringType@2@H@Z 0000000180026661 f   node:node.exe
 0001:0002566d       ?NewFromTwoByte@String@v8@@SA?AV?$MaybeLocal@VString@v8@@@2@PEAVIsolate@2@PEBGW4NewStringType@2@H@Z 000000018002666d f   node:node.exe
 0001:00025673       __imp_load_?New@Number@v8@@SA?AV?$Local@VNumber@v8@@@2@PEAVIsolate@2@N@Z 0000000180026673 f   node:node.exe
 0001:0002567f       ?New@Number@v8@@SA?AV?$Local@VNumber@v8@@@2@PEAVIsolate@2@N@Z 000000018002667f f   node:node.exe
 0001:00025685       __imp_load_?DefineOwnProperty@Object@v8@@QEAA?AV?$Maybe@_N@2@V?$Local@VContext@v8@@@2@V?$Local@VName@v8@@@2@V?$Local@VValue@v8@@@2@W4PropertyAttribute@2@@Z 0000000180026685 f   node:node.exe
 0001:00025691       ?DefineOwnProperty@Object@v8@@QEAA?AV?$Maybe@_N@2@V?$Local@VContext@v8@@@2@V?$Local@VName@v8@@@2@V?$Local@VValue@v8@@@2@W4PropertyAttribute@2@@Z 0000000180026691 f   node:node.exe
 0001:00025697       __imp_load_?Has@Object@v8@@QEAA?AV?$Maybe@_N@2@V?$Local@VContext@v8@@@2@V?$Local@VValue@v8@@@2@@Z 0000000180026697 f   node:node.exe
 0001:000256a3       ?Has@Object@v8@@QEAA?AV?$Maybe@_N@2@V?$Local@VContext@v8@@@2@V?$Local@VValue@v8@@@2@@Z 00000001800266a3 f   node:node.exe
 0001:000256a9       __imp_load_?New@Date@v8@@SA?AV?$MaybeLocal@VValue@v8@@@2@V?$Local@VContext@v8@@@2@N@Z 00000001800266a9 f   node:node.exe
 0001:000256b5       ?New@Date@v8@@SA?AV?$MaybeLocal@VValue@v8@@@2@V?$Local@VContext@v8@@@2@N@Z 00000001800266b5 f   node:node.exe
 0001:000256bc       ?Initialize@Details@Platform@@YAHXZ 00000001800266bc f   vccorlib:init.obj
 0001:00025724       ??$?9UIRestrictedErrorInfo@@@WRL@Microsoft@@YA_NAEBV?$ComPtr@UIRestrictedErrorInfo@@@01@$$T@Z 0000000180026724 f i vccorlib:init.obj
 0001:00025730       ??0?$Module@$00VInProcModule@Details@Platform@@@WRL@Microsoft@@IEAA@XZ 0000000180026730 f i vccorlib:init.obj
 0001:0002574c       ??0?$Module@$04VInProcModule@Details@Platform@@@WRL@Microsoft@@QEAA@XZ 000000018002674c f i vccorlib:init.obj
 0001:00025768       ??0?$SyncLockT@USRWLockExclusiveTraits@HandleTraits@Wrappers@WRL@Microsoft@@@Details@Wrappers@WRL@Microsoft@@IEAA@PEAU_RTL_SRWLOCK@@@Z 0000000180026768 f i vccorlib:init.obj
 0001:00025770       ??0Guid@Platform@@QEAA@IGGEEEEEEEE@Z 0000000180026770 f i vccorlib:init.obj
 0001:000257cc       ??0InProcModule@Details@Platform@@QEAA@XZ 00000001800267cc f i vccorlib:init.obj
 0001:00025800       ??0ModuleBase@Details@WRL@Microsoft@@QEAA@XZ 0000000180026800 f i vccorlib:init.obj
 0001:00025810       ??1?$Module@$00VInProcModule@Details@Platform@@@WRL@Microsoft@@UEAA@XZ 0000000180026810 f i vccorlib:init.obj
 0001:00025840       ??1?$Module@$04VInProcModule@Details@Platform@@@WRL@Microsoft@@UEAA@XZ 0000000180026840 f i vccorlib:init.obj
 0001:00025870       ??1?$SyncLockT@USRWLockExclusiveTraits@HandleTraits@Wrappers@WRL@Microsoft@@@Details@Wrappers@WRL@Microsoft@@QEAA@XZ 0000000180026870 f i vccorlib:init.obj
 0001:0002589c       ??1InProcModule@Details@Platform@@UEAA@XZ 000000018002689c f i vccorlib:init.obj
 0001:000258e4       ??1ModuleBase@Details@WRL@Microsoft@@UEAA@XZ 00000001800268e4 f i vccorlib:init.obj
 0001:000258f0       ??_E?$Module@$00VInProcModule@Details@Platform@@@WRL@Microsoft@@UEAAPEAXI@Z 00000001800268f0 f i vccorlib:init.obj
 0001:000258f0       ??_G?$Module@$00VInProcModule@Details@Platform@@@WRL@Microsoft@@UEAAPEAXI@Z 00000001800268f0 f i vccorlib:init.obj
 0001:00025950       ??_E?$Module@$04VInProcModule@Details@Platform@@@WRL@Microsoft@@UEAAPEAXI@Z 0000000180026950 f i vccorlib:init.obj
 0001:00025950       ??_G?$Module@$04VInProcModule@Details@Platform@@@WRL@Microsoft@@UEAAPEAXI@Z 0000000180026950 f i vccorlib:init.obj
 0001:000259b0       ??_GInProcModule@Details@Platform@@UEAAPEAXI@Z 00000001800269b0 f i vccorlib:init.obj
 0001:000259b0       ??_EInProcModule@Details@Platform@@UEAAPEAXI@Z 00000001800269b0 f i vccorlib:init.obj
 0001:00025a28       ?Cleanup@Details@Platform@@YAXXZ 0000000180026a28 f   vccorlib:init.obj
 0001:00025a38       ?Create@?$Module@$00VInProcModule@Details@Platform@@@WRL@Microsoft@@SAAEAVInProcModule@Details@Platform@@XZ 0000000180026a38 f i vccorlib:init.obj
 0001:00025ab8       ?DecrementObjectCount@?$Module@$00VInProcModule@Details@Platform@@@WRL@Microsoft@@UEAAKXZ 0000000180026ab8 f i vccorlib:init.obj
 0001:00025acc       ?Get@?$ComPtr@UIRestrictedErrorInfo@@@WRL@Microsoft@@QEBAPEAUIRestrictedErrorInfo@@XZ 0000000180026acc f i vccorlib:init.obj
 0001:00025ad0       ?GetFirstEntryPointer@ModuleBase@Details@WRL@Microsoft@@UEBAPEAPEBUCreatorMap@234@XZ 0000000180026ad0 f i vccorlib:init.obj
 0001:00025adc       ?GetInvalidValue@SRWLockExclusiveTraits@HandleTraits@Wrappers@WRL@Microsoft@@SAPEAU_RTL_SRWLOCK@@XZ 0000000180026adc f i vccorlib:init.obj
 0001:00025ae0       ?GetLastEntryPointer@ModuleBase@Details@WRL@Microsoft@@UEBAPEAPEBUCreatorMap@234@XZ 0000000180026ae0 f i vccorlib:init.obj
 0001:00025aec       ?GetLock@ModuleBase@Details@WRL@Microsoft@@UEBAPEAU_RTL_SRWLOCK@@XZ 0000000180026aec f i vccorlib:init.obj
 0001:00025af8       ?GetMidEntryPointer@ModuleBase@Details@WRL@Microsoft@@UEBAPEAPEBUCreatorMap@234@XZ 0000000180026af8 f i vccorlib:init.obj
 0001:00025b04       ?GetObjectCount@ModuleBase@Details@WRL@Microsoft@@UEBAKXZ 0000000180026b04 f i vccorlib:init.obj
 0001:00025b0c       ?GetWinRTExceptionInfo@Platform@@YAPEAU_WinRTExceptionInfo@1@PEAX@Z 0000000180026b0c f i vccorlib:init.obj
 0001:00025b14       ?IncrementObjectCount@?$Module@$00VInProcModule@Details@Platform@@@WRL@Microsoft@@UEAAKXZ 0000000180026b14 f i vccorlib:init.obj
 0001:00025b28       ?InternalUnlock@?$SyncLockT@USRWLockExclusiveTraits@HandleTraits@Wrappers@WRL@Microsoft@@@Details@Wrappers@WRL@Microsoft@@AEAAXXZ 0000000180026b28 f i vccorlib:init.obj
 0001:00025b54       ?IsLocked@?$SyncLockT@USRWLockExclusiveTraits@HandleTraits@Wrappers@WRL@Microsoft@@@Details@Wrappers@WRL@Microsoft@@QEBA_NXZ 0000000180026b54 f i vccorlib:init.obj
 0001:00025b60       ?IsServerNameEqual@Details@WRL@Microsoft@@YA_NPEBUCreatorMap@123@PEB_W@Z 0000000180026b60 f i vccorlib:init.obj
 0001:00025ba0       ?LockExclusive@SRWLock@Wrappers@WRL@Microsoft@@SA?AV?$SyncLockT@USRWLockExclusiveTraits@HandleTraits@Wrappers@WRL@Microsoft@@@Details@234@PEAU_RTL_SRWLOCK@@@Z 0000000180026ba0 f i vccorlib:init.obj
 0001:00025bd4       ?RegisterCOMObject@?$Module@$00VInProcModule@Details@Platform@@@WRL@Microsoft@@UEAAJPEB_WPEAU_GUID@@PEAPEAUIClassFactory@@PEAKI@Z 0000000180026bd4 f i vccorlib:init.obj
 0001:00025bdc       ?RegisterWinRTObject@?$Module@$00VInProcModule@Details@Platform@@@WRL@Microsoft@@UEAAJPEB_WPEAPEB_WPEAPEAU<unnamed-type-RO_REGISTRATION_COOKIE>@@I@Z 0000000180026bdc f i vccorlib:init.obj
 0001:00025be4       ?ReportUnhandledError@Details@Platform@@YAXPE$AAVException@2@@Z 0000000180026be4 f   vccorlib:init.obj
 0001:00025c20       ?TerminateMap@Details@WRL@Microsoft@@YA_NPEAVModuleBase@123@PEB_W_N@Z 0000000180026c20 f i vccorlib:init.obj
 0001:00025e10       ?Unlock@SRWLockExclusiveTraits@HandleTraits@Wrappers@WRL@Microsoft@@SAXPEAU_RTL_SRWLOCK@@@Z 0000000180026e10 f i vccorlib:init.obj
 0001:00025e18       ?UnregisterCOMObject@?$Module@$00VInProcModule@Details@Platform@@@WRL@Microsoft@@UEAAJPEB_WPEAKI@Z 0000000180026e18 f i vccorlib:init.obj
 0001:00025e20       ?UnregisterWinRTObject@?$Module@$00VInProcModule@Details@Platform@@@WRL@Microsoft@@UEAAJPEB_WPEAU<unnamed-type-RO_REGISTRATION_COOKIE>@@@Z 0000000180026e20 f i vccorlib:init.obj
 0001:00025e28       ?__abi_DecrementObjectCount@InProcModule@Details@Platform@@UEAAKXZ 0000000180026e28 f i vccorlib:init.obj
 0001:00025e3c       ?__abi_IncrementObjectCount@InProcModule@Details@Platform@@UEAAKXZ 0000000180026e3c f i vccorlib:init.obj
 0001:00025e50       ?__abi_ThrowIfFailed@@YAXJ@Z 0000000180026e50 f i vccorlib:init.obj
 0001:00025e68       ?__abi_winrt_cast_to@@YAPE$AAVObject@Platform@@_NPE$AAV12@AEBU_GUID@@@Z 0000000180026e68 f i vccorlib:init.obj
 0001:00025efc       ?__abi_winrt_ptr_ctor@@YAPEAXQE$ADVObject@Platform@@@Z 0000000180026efc f i vccorlib:init.obj
 0001:00025f40       RoReportUnhandledError     0000000180026f40 f   vccorlib:init.obj
 0001:00025fe6       ?__abi_translateCurrentException@@YAJ_N@Z 0000000180026fe6 f   vccorlib:vccorlib140.DLL
 0001:00025fec       ?__getIids@__winRT@@YAJHPEAKPEBU__s_GUID@@PEAPEAVGuid@Platform@@@Z 0000000180026fec f   vccorlib:compiler.obj
 0001:00025ff4       ?__windowsCreateString@__winRT@@YAJPEB_WHPEAPEAUHSTRING__@@@Z 0000000180026ff4 f   vccorlib:compiler.obj
 0001:00025ffc       ?FlushFactoryCache@Module@Platform@@SAXXZ 0000000180026ffc f   vccorlib:activation.obj
 0001:00026004       ?__getActivationFactoryByPCWSTR@__winRT@@YAJPEAXAEAVGuid@Platform@@PEAPEAX@Z 0000000180027004 f   vccorlib:activation.obj
 0001:0002600a       ?__abi_WinRTraiseNotImplementedException@@YAXXZ 000000018002700a f   vccorlib:vccorlib140.DLL
 0001:00026010       ?__abi_WinRTraiseInvalidCastException@@YAXXZ 0000000180027010 f   vccorlib:vccorlib140.DLL
 0001:00026016       ?__abi_WinRTraiseNullReferenceException@@YAXXZ 0000000180027016 f   vccorlib:vccorlib140.DLL
 0001:0002601c       ?__abi_WinRTraiseOperationCanceledException@@YAXXZ 000000018002701c f   vccorlib:vccorlib140.DLL
 0001:00026022       ?__abi_WinRTraiseFailureException@@YAXXZ 0000000180027022 f   vccorlib:vccorlib140.DLL
 0001:00026028       ?__abi_WinRTraiseAccessDeniedException@@YAXXZ 0000000180027028 f   vccorlib:vccorlib140.DLL
 0001:0002602e       ?__abi_WinRTraiseOutOfMemoryException@@YAXXZ 000000018002702e f   vccorlib:vccorlib140.DLL
 0001:00026034       ?__abi_WinRTraiseInvalidArgumentException@@YAXXZ 0000000180027034 f   vccorlib:vccorlib140.DLL
 0001:0002603a       ?__abi_WinRTraiseOutOfBoundsException@@YAXXZ 000000018002703a f   vccorlib:vccorlib140.DLL
 0001:00026040       ?__abi_WinRTraiseChangedStateException@@YAXXZ 0000000180027040 f   vccorlib:vccorlib140.DLL
 0001:00026046       ?__abi_WinRTraiseClassNotRegisteredException@@YAXXZ 0000000180027046 f   vccorlib:vccorlib140.DLL
 0001:0002604c       ?__abi_WinRTraiseWrongThreadException@@YAXXZ 000000018002704c f   vccorlib:vccorlib140.DLL
 0001:00026052       ?__abi_WinRTraiseDisconnectedException@@YAXXZ 0000000180027052 f   vccorlib:vccorlib140.DLL
 0001:00026058       ?__abi_WinRTraiseObjectDisposedException@@YAXXZ 0000000180027058 f   vccorlib:vccorlib140.DLL
 0001:0002605e       ?__abi_WinRTraiseCOMException@@YAXJ@Z 000000018002705e f   vccorlib:vccorlib140.DLL
 0001:00026064       ?ReleaseTarget@ControlBlock@Details@Platform@@AEAAXXZ 0000000180027064 f   vccorlib:vccorlib140.DLL
 0001:0002606a       ?Allocate@Heap@Details@Platform@@SAPEAX_K@Z 000000018002706a f   vccorlib:vccorlib140.DLL
 0001:00026070       ?Allocate@Heap@Details@Platform@@SAPEAX_K0@Z 0000000180027070 f   vccorlib:vccorlib140.DLL
 0001:00026076       ?Free@Heap@Details@Platform@@SAXPEAX@Z 0000000180027076 f   vccorlib:vccorlib140.DLL
 0001:0002607c       ?AlignedFree@Heap@Details@Platform@@SAXPEAX@Z 000000018002707c f   vccorlib:vccorlib140.DLL
 0001:00026082       ?AllocateException@Heap@Details@Platform@@SAPEAX_K0@Z 0000000180027082 f   vccorlib:vccorlib140.DLL
 0001:00026088       ??0Delegate@Platform@@QE$AAA@XZ 0000000180027088 f   vccorlib:vccorlib140.DLL
 0001:0002608e       ?ReCreateException@Exception@Platform@@SAPE$AAV12@H@Z 000000018002708e f   vccorlib:vccorlib140.DLL
 0001:00026094       ?GetObjectContext@Details@Platform@@YAPEAUIUnknown@@XZ 0000000180027094 f   vccorlib:vccorlib140.DLL
 0001:0002609a       ?GetProxyImpl@Details@Platform@@YAJPEAUIUnknown@@AEBU_GUID@@0PEAPEAU3@@Z 000000018002709a f   vccorlib:vccorlib140.DLL
 0001:000260a0       ?ReleaseInContextImpl@Details@Platform@@YAJPEAUIUnknown@@0@Z 00000001800270a0 f   vccorlib:vccorlib140.DLL
 0001:000260a6       ??0NullReferenceException@Platform@@QE$AAA@XZ 00000001800270a6 f   vccorlib:vccorlib140.DLL
 0001:000260ac       ?get@Message@Exception@Platform@@QE$AAAPE$AAVString@3@XZ 00000001800270ac f   vccorlib:vccorlib140.DLL
 0001:000260b2       ?get@Empty@Rect@Foundation@Windows@@SA?AV234@XZ 00000001800270b2 f   vccorlib:vccorlib140.DLL
 0001:000260b8       ?get@Right@Rect@Foundation@Windows@@QEAAMXZ 00000001800270b8 f   vccorlib:vccorlib140.DLL
 0001:000260be       ?get@Bottom@Rect@Foundation@Windows@@QEAAMXZ 00000001800270be f   vccorlib:vccorlib140.DLL
 0001:000260c4       ?InitializeData@Details@Platform@@YAJH@Z 00000001800270c4 f   vccorlib:vccorlib140.DLL
 0001:000260ca       ?UninitializeData@Details@Platform@@YAXH@Z 00000001800270ca f   vccorlib:vccorlib140.DLL
 0001:000260d0       ?GetIidsFn@@YAJHPEAKPEBU__s_GUID@@PEAPEAVGuid@Platform@@@Z 00000001800270d0 f   vccorlib:vccorlib140.DLL
 0001:000260d6       ?GetActivationFactoryByPCWSTR@@YAJPEAXAEAVGuid@Platform@@PEAPEAX@Z 00000001800270d6 f   vccorlib:vccorlib140.DLL
 0001:000260dc       ?FlushFactoryCache@@YAXXZ  00000001800270dc f   vccorlib:vccorlib140.DLL
 0001:000260e2       ?__ExceptionPtrCreate@@YAXPEAX@Z 00000001800270e2 f   msvcprt:MSVCP140.dll
 0001:000260e8       ?__ExceptionPtrDestroy@@YAXPEAX@Z 00000001800270e8 f   msvcprt:MSVCP140.dll
 0001:000260ee       ?__ExceptionPtrCopy@@YAXPEAXPEBX@Z 00000001800270ee f   msvcprt:MSVCP140.dll
 0001:000260f4       ?__ExceptionPtrCurrentException@@YAXPEAX@Z 00000001800270f4 f   msvcprt:MSVCP140.dll
 0001:000260fa       ?__ExceptionPtrRethrow@@YAXPEBX@Z 00000001800270fa f   msvcprt:MSVCP140.dll
 0001:00026100       ?__ExceptionPtrCopyException@@YAXPEAXPEBX1@Z 0000000180027100 f   msvcprt:MSVCP140.dll
 0001:00026106       ?_Xbad_alloc@std@@YAXXZ    0000000180027106 f   msvcprt:MSVCP140.dll
 0001:0002610c       ?_Xlength_error@std@@YAXPEBD@Z 000000018002710c f   msvcprt:MSVCP140.dll
 0001:00026112       _Mtx_init_in_situ          0000000180027112 f   msvcprt:MSVCP140.dll
 0001:00026118       _Mtx_destroy_in_situ       0000000180027118 f   msvcprt:MSVCP140.dll
 0001:0002611e       _Mtx_lock                  000000018002711e f   msvcprt:MSVCP140.dll
 0001:00026124       _Mtx_unlock                0000000180027124 f   msvcprt:MSVCP140.dll
 0001:0002612a       _Cnd_init_in_situ          000000018002712a f   msvcprt:MSVCP140.dll
 0001:00026130       _Cnd_destroy_in_situ       0000000180027130 f   msvcprt:MSVCP140.dll
 0001:00026136       _Cnd_wait                  0000000180027136 f   msvcprt:MSVCP140.dll
 0001:0002613c       _Cnd_broadcast             000000018002713c f   msvcprt:MSVCP140.dll
 0001:00026142       ?_Throw_C_error@std@@YAXH@Z 0000000180027142 f   msvcprt:MSVCP140.dll
 0001:00026148       ?_Xbad_function_call@std@@YAXXZ 0000000180027148 f   msvcprt:MSVCP140.dll
 0001:0002614e       ?_Schedule_chore@details@Concurrency@@YAHPEAU_Threadpool_chore@12@@Z 000000018002714e f   msvcprt:MSVCP140.dll
 0001:00026154       ?_Release_chore@details@Concurrency@@YAXPEAU_Threadpool_chore@12@@Z 0000000180027154 f   msvcprt:MSVCP140.dll
 0001:0002615a       ?_ReportUnobservedException@details@Concurrency@@YAXXZ 000000018002715a f   msvcprt:MSVCP140.dll
 0001:00026160       ?GetCurrentThreadId@platform@details@Concurrency@@YAJXZ 0000000180027160 f   msvcprt:MSVCP140.dll
 0001:00026166       ?_CallInContext@_ContextCallback@details@Concurrency@@QEBAXV?$function@$$A6AXXZ@std@@_N@Z 0000000180027166 f   msvcprt:MSVCP140.dll
 0001:0002616c       ?_Reset@_ContextCallback@details@Concurrency@@AEAAXXZ 000000018002716c f   msvcprt:MSVCP140.dll
 0001:00026172       ?_Assign@_ContextCallback@details@Concurrency@@AEAAXPEAX@Z 0000000180027172 f   msvcprt:MSVCP140.dll
 0001:00026178       ?_IsCurrentOriginSTA@_ContextCallback@details@Concurrency@@CA_NXZ 0000000180027178 f   msvcprt:MSVCP140.dll
 0001:0002617e       ?_Capture@_ContextCallback@details@Concurrency@@AEAAXXZ 000000018002717e f   msvcprt:MSVCP140.dll
 0001:00026184       ?ReportUnhandledError@_ExceptionHolder@details@Concurrency@@AEAAXXZ 0000000180027184 f   msvcprt:MSVCP140.dll
 0001:0002618a       ??0task_continuation_context@Concurrency@@AEAA@XZ 000000018002718a f   msvcprt:MSVCP140.dll
 0001:00026190       ?_LogScheduleTask@_TaskEventLogger@details@Concurrency@@QEAAX_N@Z 0000000180027190 f   msvcprt:MSVCP140.dll
 0001:00026196       ?_LogCancelTask@_TaskEventLogger@details@Concurrency@@QEAAXXZ 0000000180027196 f   msvcprt:MSVCP140.dll
 0001:0002619c       ?_LogTaskCompleted@_TaskEventLogger@details@Concurrency@@QEAAXXZ 000000018002719c f   msvcprt:MSVCP140.dll
 0001:000261a2       ?_LogTaskExecutionCompleted@_TaskEventLogger@details@Concurrency@@QEAAXXZ 00000001800271a2 f   msvcprt:MSVCP140.dll
 0001:000261a8       ?_LogWorkItemStarted@_TaskEventLogger@details@Concurrency@@QEAAXXZ 00000001800271a8 f   msvcprt:MSVCP140.dll
 0001:000261ae       ?_LogWorkItemCompleted@_TaskEventLogger@details@Concurrency@@QEAAXXZ 00000001800271ae f   msvcprt:MSVCP140.dll
 0001:000261b4       ?_IsNonBlockingThread@_Task_impl_base@details@Concurrency@@SA_NXZ 00000001800271b4 f   msvcprt:MSVCP140.dll
 0001:000261ba       ?_Xout_of_range@std@@YAXPEBD@Z 00000001800271ba f   msvcprt:MSVCP140.dll
 0001:000261c0       ??1type_info@@UEAA@XZ      00000001800271c0 f   MSVCRT:std_type_info_static.obj
 0001:000261d0       ??_Etype_info@@UEAAPEAXI@Z 00000001800271d0 f i MSVCRT:std_type_info_static.obj
 0001:000261d0       ??_Gtype_info@@UEAAPEAXI@Z 00000001800271d0 f i MSVCRT:std_type_info_static.obj
 0001:00026208       ??2@YAPEAX_K@Z             0000000180027208 f   MSVCRT:new_scalar.obj
 0001:00026254       ??3@YAXPEAX@Z              0000000180027254 f   MSVCRT:delete_scalar.obj
 0001:0002625c       ??3@YAXPEAX_K@Z            000000018002725c f   MSVCRT:delete_scalar_size.obj
 0001:00026264       ??_U@YAPEAX_K@Z            0000000180027264 f   MSVCRT:new_array.obj
 0001:0002626c       ??_V@YAXPEAX@Z             000000018002726c f   MSVCRT:delete_array.obj
 0001:00026274       ??$__crt_fast_decode_pointer@PEAP6AXXZ@@YAPEAP6AXXZQEAP6AXXZ@Z 0000000180027274 f i MSVCRT:utility.obj
 0001:00026290       ??$__crt_fast_encode_pointer@PEAP6AXXZ@@YAPEAP6AXXZQEAP6AXXZ@Z 0000000180027290 f i MSVCRT:utility.obj
 0001:000262b8       ?__crt_rotate_pointer_value@@YA_K_KH@Z 00000001800272b8 f i MSVCRT:utility.obj
 0001:000262c4       ?configure_argv@__scrt_narrow_argv_policy@@SAHXZ 00000001800272c4 f i MSVCRT:utility.obj
 0001:00026378       NtCurrentTeb               0000000180027378 f i MSVCRT:utility.obj
 0001:00026384       __scrt_acquire_startup_lock 0000000180027384 f   MSVCRT:utility.obj
 0001:000263cc       __scrt_dllmain_after_initialize_c 00000001800273cc f   MSVCRT:utility.obj
 0001:00026410       __scrt_dllmain_before_initialize_c 0000000180027410 f   MSVCRT:utility.obj
 0001:0002642c       __scrt_dllmain_crt_thread_attach 000000018002742c f   MSVCRT:utility.obj
 0001:00026460       __scrt_dllmain_crt_thread_detach 0000000180027460 f   MSVCRT:utility.obj
 0001:0002647c       __scrt_dllmain_exception_filter 000000018002747c f   MSVCRT:utility.obj
 0001:000264f8       __scrt_dllmain_uninitialize_c 00000001800274f8 f   MSVCRT:utility.obj
 0001:00026534       __scrt_dllmain_uninitialize_critical 0000000180027534 f   MSVCRT:utility.obj
 0001:00026550       __scrt_initialize_crt      0000000180027550 f   MSVCRT:utility.obj
 0001:000265ac       __scrt_initialize_onexit_tables 00000001800275ac f   MSVCRT:utility.obj
 0001:000266a8       __scrt_is_nonwritable_in_current_image 00000001800276a8 f   MSVCRT:utility.obj
 0001:00026768       __scrt_release_startup_lock 0000000180027768 f   MSVCRT:utility.obj
 0001:00026798       __scrt_uninitialize_crt    0000000180027798 f   MSVCRT:utility.obj
 0001:000267d0       _onexit                    00000001800277d0 f   MSVCRT:utility.obj
 0001:00026834       at_quick_exit              0000000180027834 f   MSVCRT:utility.obj
 0001:00026878       atexit                     0000000180027878 f   MSVCRT:utility.obj
 0001:000269fc       ??$__crt_fast_decode_pointer@P6AHPEAU_RTL_CONDITION_VARIABLE@@PEAU_RTL_CRITICAL_SECTION@@K@Z@@YAP6AHPEAU_RTL_CONDITION_VARIABLE@@PEAU_RTL_CRITICAL_SECTION@@K@ZQ6AH01K@Z@Z 00000001800279fc f i MSVCRT:thread_safe_statics.obj
 0001:00026a18       ??$__crt_fast_decode_pointer@P6AXPEAU_RTL_CONDITION_VARIABLE@@@Z@@YAP6AXPEAU_RTL_CONDITION_VARIABLE@@@ZQ6AX0@Z@Z 0000000180027a18 f i MSVCRT:thread_safe_statics.obj
 0001:00026a34       ??$__crt_fast_encode_pointer@P6AHPEAU_RTL_CONDITION_VARIABLE@@PEAU_RTL_CRITICAL_SECTION@@K@Z@@YAP6AHPEAU_RTL_CONDITION_VARIABLE@@PEAU_RTL_CRITICAL_SECTION@@K@ZQ6AH01K@Z@Z 0000000180027a34 f i MSVCRT:thread_safe_statics.obj
 0001:00026a5c       ??$__crt_fast_encode_pointer@P6AXPEAU_RTL_CONDITION_VARIABLE@@@Z@@YAP6AXPEAU_RTL_CONDITION_VARIABLE@@@ZQ6AX0@Z@Z 0000000180027a5c f i MSVCRT:thread_safe_statics.obj
 0001:00026ab8       _Init_thread_abort         0000000180027ab8 f   MSVCRT:thread_safe_statics.obj
 0001:00026af4       _Init_thread_footer        0000000180027af4 f   MSVCRT:thread_safe_statics.obj
 0001:00026b6c       _Init_thread_header        0000000180027b6c f   MSVCRT:thread_safe_statics.obj
 0001:00026bec       _Init_thread_lock          0000000180027bec f   MSVCRT:thread_safe_statics.obj
 0001:00026c00       _Init_thread_notify        0000000180027c00 f   MSVCRT:thread_safe_statics.obj
 0001:00026c74       _Init_thread_unlock        0000000180027c74 f   MSVCRT:thread_safe_statics.obj
 0001:00026c88       _Init_thread_wait          0000000180027c88 f   MSVCRT:thread_safe_statics.obj
 0001:00026d44       __GSHandlerCheck           0000000180027d44 f   MSVCRT:_gshandler_.obj
 0001:00026d68       __GSHandlerCheckCommon     0000000180027d68 f   MSVCRT:_gshandler_.obj
 0001:00026dd8       __GSHandlerCheck_EH        0000000180027dd8 f   MSVCRT:gshandlereh.obj
 0001:00026e90       __security_check_cookie    0000000180027e90 f   MSVCRT:_amdsecgs_.obj
 0001:000272e0       _CRT_INIT                  00000001800282e0 f   MSVCRT:dll_dllmain.obj
 0001:000272e8       _DllMainCRTStartup         00000001800282e8 f   MSVCRT:dll_dllmain.obj
 0001:00027334       _guard_check_icall         0000000180028334 f i MSVCRT:checkcfg.obj
 0001:0002733c       ??0bad_alloc@std@@AEAA@QEBD@Z 000000018002833c f i MSVCRT:throw_bad_alloc.obj
 0001:0002735c       ??0bad_alloc@std@@QEAA@AEBV01@@Z 000000018002835c f i MSVCRT:throw_bad_alloc.obj
 0001:000273ac       ??0bad_alloc@std@@QEAA@XZ  00000001800283ac f i MSVCRT:throw_bad_alloc.obj
 0001:000273d4       ??0bad_array_new_length@std@@QEAA@AEBV01@@Z 00000001800283d4 f i MSVCRT:throw_bad_alloc.obj
 0001:00027424       ??0bad_array_new_length@std@@QEAA@XZ 0000000180028424 f i MSVCRT:throw_bad_alloc.obj
 0001:0002744c       ??0exception@std@@QEAA@AEBV01@@Z 000000018002844c f i MSVCRT:throw_bad_alloc.obj
 0001:00027490       ??0exception@std@@QEAA@QEBDH@Z 0000000180028490 f i MSVCRT:throw_bad_alloc.obj
 0001:000274b0       ??1bad_alloc@std@@UEAA@XZ  00000001800284b0 f i MSVCRT:throw_bad_alloc.obj
 0001:000274c8       ??1bad_array_new_length@std@@UEAA@XZ 00000001800284c8 f i MSVCRT:throw_bad_alloc.obj
 0001:000274e0       ??1exception@std@@UEAA@XZ  00000001800284e0 f i MSVCRT:throw_bad_alloc.obj
 0001:000274f8       ??_Gbad_alloc@std@@UEAAPEAXI@Z 00000001800284f8 f i MSVCRT:throw_bad_alloc.obj
 0001:000274f8       ??_Ebad_alloc@std@@UEAAPEAXI@Z 00000001800284f8 f i MSVCRT:throw_bad_alloc.obj
 0001:0002754c       ??_Gbad_array_new_length@std@@UEAAPEAXI@Z 000000018002854c f i MSVCRT:throw_bad_alloc.obj
 0001:0002754c       ??_Ebad_array_new_length@std@@UEAAPEAXI@Z 000000018002854c f i MSVCRT:throw_bad_alloc.obj
 0001:000275a0       ??_Eexception@std@@UEAAPEAXI@Z 00000001800285a0 f i MSVCRT:throw_bad_alloc.obj
 0001:000275a0       ??_Gexception@std@@UEAAPEAXI@Z 00000001800285a0 f i MSVCRT:throw_bad_alloc.obj
 0001:000275f4       ?__scrt_throw_std_bad_alloc@@YAXXZ 00000001800285f4 f   MSVCRT:throw_bad_alloc.obj
 0001:0002761c       ?__scrt_throw_std_bad_array_new_length@@YAXXZ 000000018002861c f   MSVCRT:throw_bad_alloc.obj
 0001:00027644       ?what@exception@std@@UEBAPEBDXZ 0000000180028644 f i MSVCRT:throw_bad_alloc.obj
 0001:0002765c       __isa_available_init       000000018002865c f   MSVCRT:_cpu_disp_.obj
 0001:00027894       _get_startup_argv_mode     0000000180028894 f   MSVCRT:argv_mode.obj
 0001:0002789c       __scrt_is_ucrt_dll_in_use  000000018002889c f   MSVCRT:ucrt_detection.obj
 0001:000278ac       __crt_debugger_hook        00000001800288ac f   MSVCRT:utility_desktop.obj
 0001:000278b8       __scrt_fastfail            00000001800288b8 f   MSVCRT:utility_desktop.obj
 0001:00027a50       __scrt_get_show_window_mode 0000000180028a50 f   MSVCRT:utility_desktop.obj
 0001:00027a9c       __scrt_initialize_winrt    0000000180028a9c f   MSVCRT:utility_desktop.obj
 0001:00027aa0       __scrt_is_managed_app      0000000180028aa0 f   MSVCRT:utility_desktop.obj
 0001:00027b0c       __scrt_set_unhandled_exception_filter 0000000180028b0c f   MSVCRT:utility_desktop.obj
 0001:00027b20       __scrt_unhandled_exception_filter 0000000180028b20 f   MSVCRT:utility_desktop.obj
 0001:00027b68       __raise_securityfailure    0000000180028b68 f   MSVCRT:gs_report.obj
 0001:00027bac       __report_gsfailure         0000000180028bac f   MSVCRT:gs_report.obj
 0001:00027cb4       __report_rangecheckfailure 0000000180028cb4 f   MSVCRT:gs_report.obj
 0001:00027ccc       __report_securityfailure   0000000180028ccc f   MSVCRT:gs_report.obj
 0001:00027d90       __report_securityfailureEx 0000000180028d90 f   MSVCRT:gs_report.obj
 0001:00027ffc       __security_init_cookie     0000000180028ffc f   MSVCRT:gs_support.obj
 0001:000280d4       DllMain                    00000001800290d4 f   MSVCRT:dll_dllmain_stub.obj
 0001:00028100       ?__scrt_initialize_type_info@@YAXXZ 0000000180029100 f   MSVCRT:tncleanup.obj
 0001:00028114       ?__scrt_uninitialize_type_info@@YAXXZ 0000000180029114 f   MSVCRT:tncleanup.obj
 0001:00028124       __local_stdio_printf_options 0000000180029124 f i MSVCRT:default_local_stdio_options.obj
 0001:00028130       __local_stdio_scanf_options 0000000180029130 f i MSVCRT:default_local_stdio_options.obj
 0001:0002813c       __scrt_initialize_default_local_stdio_options 000000018002913c f   MSVCRT:default_local_stdio_options.obj
 0001:00028160       __scrt_get_dyn_tls_init_callback 0000000180029160 f   MSVCRT:dyn_tls_init.obj
 0001:0002816c       _RTC_Initialize            000000018002916c f   MSVCRT:_initsect_.obj
 0001:000281c8       _RTC_Terminate             00000001800291c8 f   MSVCRT:_initsect_.obj
 0001:00028224       _guard_check_icall_nop     0000000180029224 f i MSVCRT:guard_support.obj
 0001:00028228       _guard_icall_checks_enforced 0000000180029228 f i MSVCRT:guard_support.obj
 0001:00028250       _purecall                  0000000180029250 f   vcruntime:VCRUNTIME140.dll
 0001:00028256       __std_terminate            0000000180029256 f   vcruntime:VCRUNTIME140.dll
 0001:0002825c       memmove                    000000018002925c f   vcruntime:VCRUNTIME140.dll
 0001:00028262       __std_type_info_compare    0000000180029262 f   vcruntime:VCRUNTIME140.dll
 0001:00028268       _CxxThrowException         0000000180029268 f   vcruntime:VCRUNTIME140.dll
 0001:0002826e       __CxxFrameHandler3         000000018002926e f   vcruntime:VCRUNTIME140.dll
 0001:00028274       memcpy                     0000000180029274 f   vcruntime:VCRUNTIME140.dll
 0001:0002827a       __C_specific_handler       000000018002927a f   vcruntime:VCRUNTIME140.dll
 0001:00028280       __vcrt_InitializeCriticalSectionEx 0000000180029280 f   vcruntime:VCRUNTIME140.dll
 0001:00028286       __std_exception_copy       0000000180029286 f   vcruntime:VCRUNTIME140.dll
 0001:0002828c       __std_exception_destroy    000000018002928c f   vcruntime:VCRUNTIME140.dll
 0001:00028292       memset                     0000000180029292 f   vcruntime:VCRUNTIME140.dll
 0001:00028298       __std_type_info_destroy_list 0000000180029298 f   vcruntime:VCRUNTIME140.dll
 0001:0002829e       _invalid_parameter_noinfo_noreturn 000000018002929e f   ucrt:api-ms-win-crt-runtime-l1-1-0.dll
 0001:000282a4       _invoke_watson             00000001800292a4 f   ucrt:api-ms-win-crt-runtime-l1-1-0.dll
 0001:000282aa       _wassert                   00000001800292aa f   ucrt:api-ms-win-crt-runtime-l1-1-0.dll
 0001:000282b0       _wcsnicmp                  00000001800292b0 f   ucrt:api-ms-win-crt-string-l1-1-0.dll
 0001:000282b6       _stricmp                   00000001800292b6 f   ucrt:api-ms-win-crt-string-l1-1-0.dll
 0001:000282bc       wcslen                     00000001800292bc f   ucrt:api-ms-win-crt-string-l1-1-0.dll
 0001:000282bc       __Platform_wcslen          00000001800292bc f   ucrt:api-ms-win-crt-string-l1-1-0.dll
 0001:000282c2       _callnewh                  00000001800292c2 f   ucrt:api-ms-win-crt-heap-l1-1-0.dll
 0001:000282c8       malloc                     00000001800292c8 f   ucrt:api-ms-win-crt-heap-l1-1-0.dll
 0001:000282ce       free                       00000001800292ce f   ucrt:api-ms-win-crt-heap-l1-1-0.dll
 0001:000282d4       _seh_filter_dll            00000001800292d4 f   ucrt:api-ms-win-crt-runtime-l1-1-0.dll
 0001:000282da       _configure_narrow_argv     00000001800292da f   ucrt:api-ms-win-crt-runtime-l1-1-0.dll
 0001:000282e0       _initialize_narrow_environment 00000001800292e0 f   ucrt:api-ms-win-crt-runtime-l1-1-0.dll
 0001:000282e6       _initialize_onexit_table   00000001800292e6 f   ucrt:api-ms-win-crt-runtime-l1-1-0.dll
 0001:000282ec       _register_onexit_function  00000001800292ec f   ucrt:api-ms-win-crt-runtime-l1-1-0.dll
 0001:000282f2       _execute_onexit_table      00000001800292f2 f   ucrt:api-ms-win-crt-runtime-l1-1-0.dll
 0001:000282f8       _crt_atexit                00000001800292f8 f   ucrt:api-ms-win-crt-runtime-l1-1-0.dll
 0001:000282fe       _crt_at_quick_exit         00000001800292fe f   ucrt:api-ms-win-crt-runtime-l1-1-0.dll
 0001:00028304       _cexit                     0000000180029304 f   ucrt:api-ms-win-crt-runtime-l1-1-0.dll
 0001:0002830a       _initterm                  000000018002930a f   ucrt:api-ms-win-crt-runtime-l1-1-0.dll
 0001:00028310       _initterm_e                0000000180029310 f   ucrt:api-ms-win-crt-runtime-l1-1-0.dll
 0001:00028316       terminate                  0000000180029316 f   ucrt:api-ms-win-crt-runtime-l1-1-0.dll
 0001:0002831c       DecodePointer              000000018002931c f   kernel32:KERNEL32.dll
 0001:00028322       ReleaseSRWLockExclusive    0000000180029322 f   kernel32:KERNEL32.dll
 0001:00028328       AcquireSRWLockExclusive    0000000180029328 f   kernel32:KERNEL32.dll
 0001:0002832e       GetProcAddress             000000018002932e f   kernel32:KERNEL32.dll
 0001:00028334       LoadLibraryExW             0000000180029334 f   kernel32:KERNEL32.dll
 0001:0002833a       CloseHandle                000000018002933a f   kernel32:KERNEL32.dll
 0001:00028340       EnterCriticalSection       0000000180029340 f   kernel32:KERNEL32.dll
 0001:00028346       LeaveCriticalSection       0000000180029346 f   kernel32:KERNEL32.dll
 0001:0002834c       DeleteCriticalSection      000000018002934c f   kernel32:KERNEL32.dll
 0001:00028352       SetEvent                   0000000180029352 f   kernel32:KERNEL32.dll
 0001:00028358       ResetEvent                 0000000180029358 f   kernel32:KERNEL32.dll
 0001:0002835e       WaitForSingleObjectEx      000000018002935e f   kernel32:KERNEL32.dll
 0001:00028364       CreateEventW               0000000180029364 f   kernel32:KERNEL32.dll
 0001:0002836a       GetModuleHandleW           000000018002936a f   kernel32:KERNEL32.dll
 0001:00028370       RtlCaptureContext          0000000180029370 f   kernel32:KERNEL32.dll
 0001:00028376       RtlLookupFunctionEntry     0000000180029376 f   kernel32:KERNEL32.dll
 0001:0002837c       RtlVirtualUnwind           000000018002937c f   kernel32:KERNEL32.dll
 0001:00028382       IsDebuggerPresent          0000000180029382 f   kernel32:KERNEL32.dll
 0001:00028388       UnhandledExceptionFilter   0000000180029388 f   kernel32:KERNEL32.dll
 0001:0002838e       SetUnhandledExceptionFilter 000000018002938e f   kernel32:KERNEL32.dll
 0001:00028394       GetStartupInfoW            0000000180029394 f   kernel32:KERNEL32.dll
 0001:0002839a       IsProcessorFeaturePresent  000000018002939a f   kernel32:KERNEL32.dll
 0001:000283a0       GetCurrentProcess          00000001800293a0 f   kernel32:KERNEL32.dll
 0001:000283a6       TerminateProcess           00000001800293a6 f   kernel32:KERNEL32.dll
 0001:000283ac       QueryPerformanceCounter    00000001800293ac f   kernel32:KERNEL32.dll
 0001:000283b2       GetCurrentProcessId        00000001800293b2 f   kernel32:KERNEL32.dll
 0001:000283b8       GetCurrentThreadId         00000001800293b8 f   kernel32:KERNEL32.dll
 0001:000283be       GetSystemTimeAsFileTime    00000001800293be f   kernel32:KERNEL32.dll
 0001:000283c4       DisableThreadLibraryCalls  00000001800293c4 f   kernel32:KERNEL32.dll
 0001:000283ca       InitializeSListHead        00000001800293ca f   kernel32:KERNEL32.dll
 0001:000283d0       __Platform_CoCreateFreeThreadedMarshaler 00000001800293d0 f   ole32:ole32.dll
 0001:000283d0       CoCreateFreeThreadedMarshaler 00000001800293d0 f   ole32:ole32.dll
 0001:000283d8       ??$PFromRva@PEAP6A_JXZ@@YAPEAP6A_JXZK@Z 00000001800293d8 f i DelayImp:delayhlp.obj
 0001:000283e8       ??$PFromRva@PEAPEAUHINSTANCE__@@@@YAPEAPEAUHINSTANCE__@@K@Z 00000001800293e8 f i DelayImp:delayhlp.obj
 0001:000283f8       ??$PFromRva@PEAU_IMAGE_IMPORT_BY_NAME@@@@YAPEAU_IMAGE_IMPORT_BY_NAME@@K@Z 00000001800293f8 f i DelayImp:delayhlp.obj
 0001:00028408       ??$PFromRva@PEAU_IMAGE_THUNK_DATA64@@@@YAPEAU_IMAGE_THUNK_DATA64@@K@Z 0000000180029408 f i DelayImp:delayhlp.obj
 0001:00028418       ??$PFromRva@PEBD@@YAPEBDK@Z 0000000180029418 f i DelayImp:delayhlp.obj
 0001:00028428       ??$PFromRva@PEBUImgDelayDescr@@@@YAPEBUImgDelayDescr@@K@Z 0000000180029428 f i DelayImp:delayhlp.obj
 0001:00028438       ??$PFromRva@PEBU_IMAGE_THUNK_DATA64@@@@YAPEBU_IMAGE_THUNK_DATA64@@K@Z 0000000180029438 f i DelayImp:delayhlp.obj
 0001:00028448       ?CountOfImports@@YAIPEBU_IMAGE_THUNK_DATA64@@@Z 0000000180029448 f i DelayImp:delayhlp.obj
 0001:00028464       ?DloadAcquireSectionWriteAccess@@YAXXZ 0000000180029464 f i DelayImp:delayhlp.obj
 0001:0002854c       ?DloadGetSRWLockFunctionPointers@@YAEXZ 000000018002954c f i DelayImp:delayhlp.obj
 0001:00028610       ?DloadLock@@YAXXZ          0000000180029610 f i DelayImp:delayhlp.obj
 0001:00028678       ?DloadMakePermanentImageCommit@@YAXPEAX_K@Z 0000000180029678 f i DelayImp:delayhlp.obj
 0001:00028734       ?DloadObtainSection@@YAPEAXPEAK0@Z 0000000180029734 f i DelayImp:delayhlp.obj
 0001:000287f4       ?DloadProtectSection@@YAXKPEAK@Z 00000001800297f4 f i DelayImp:delayhlp.obj
 0001:000288a8       ?DloadReleaseSectionWriteAccess@@YAXXZ 00000001800298a8 f i DelayImp:delayhlp.obj
 0001:00028978       ?DloadUnlock@@YAXXZ        0000000180029978 f i DelayImp:delayhlp.obj
 0001:000289d8       ?IndexFromPImgThunkData@@YAIPEBU_IMAGE_THUNK_DATA64@@0@Z 00000001800299d8 f i DelayImp:delayhlp.obj
 0001:00028b6c       HRESULT_FROM_WIN32         0000000180029b6c f i DelayImp:delayhlp.obj
 0001:00028b80       ReadAcquire64              0000000180029b80 f i DelayImp:delayhlp.obj
 0001:00028b84       ReadPointerAcquire         0000000180029b84 f i DelayImp:delayhlp.obj
 0001:00028b88       WritePointerRelease        0000000180029b88 f i DelayImp:delayhlp.obj
 0001:00028b8c       WriteRelease64             0000000180029b8c f i DelayImp:delayhlp.obj
 0001:00028b90       __FUnloadDelayLoadedDLL2   0000000180029b90 f   DelayImp:delayhlp.obj
 0001:00028c78       __HrLoadAllImportsForDll   0000000180029c78 f   DelayImp:delayhlp.obj
 0001:00028d08       __delayLoadHelper2         0000000180029d08 f   DelayImp:delayhlp.obj
 0001:000290c0       SetRestrictedErrorInfo     000000018002a0c0 f   runtimeobject:api-ms-win-core-winrt-error-l1-1-0.dll
 0001:000290c6       RoFailFastWithErrorContext 000000018002a0c6 f   runtimeobject:api-ms-win-core-winrt-error-l1-1-0.dll
 0001:000290cc       __Platform_WindowsCreateString 000000018002a0cc f   runtimeobject:api-ms-win-core-winrt-string-l1-1-0.dll
 0001:000290cc       WindowsCreateString        000000018002a0cc f   runtimeobject:api-ms-win-core-winrt-string-l1-1-0.dll
 0001:000290d2       WindowsDeleteString        000000018002a0d2 f   runtimeobject:api-ms-win-core-winrt-string-l1-1-0.dll
 0001:000290d2       __Platform_WindowsDeleteString 000000018002a0d2 f   runtimeobject:api-ms-win-core-winrt-string-l1-1-0.dll
 0001:000290d8       __Platform_WindowsDuplicateString 000000018002a0d8 f   runtimeobject:api-ms-win-core-winrt-string-l1-1-0.dll
 0001:000290d8       WindowsDuplicateString     000000018002a0d8 f   runtimeobject:api-ms-win-core-winrt-string-l1-1-0.dll
 0001:000290de       __Platform_WindowsGetStringRawBuffer 000000018002a0de f   runtimeobject:api-ms-win-core-winrt-string-l1-1-0.dll
 0001:000290de       WindowsGetStringRawBuffer  000000018002a0de f   runtimeobject:api-ms-win-core-winrt-string-l1-1-0.dll
 0001:000290e4       __Platform_WindowsGetStringLen 000000018002a0e4 f   runtimeobject:api-ms-win-core-winrt-string-l1-1-0.dll
 0001:000290e4       WindowsGetStringLen        000000018002a0e4 f   runtimeobject:api-ms-win-core-winrt-string-l1-1-0.dll
 0001:000290ea       __Platform_WindowsCompareStringOrdinal 000000018002a0ea f   runtimeobject:api-ms-win-core-winrt-string-l1-1-0.dll
 0001:000290ea       WindowsCompareStringOrdinal 000000018002a0ea f   runtimeobject:api-ms-win-core-winrt-string-l1-1-0.dll
 0001:000290f0       RaiseException             000000018002a0f0 f   kernel32:KERNEL32.dll
 0001:000290f6       GetLastError               000000018002a0f6 f   kernel32:KERNEL32.dll
 0001:000290fc       GetSystemInfo              000000018002a0fc f   kernel32:KERNEL32.dll
 0001:00029102       VirtualProtect             000000018002a102 f   kernel32:KERNEL32.dll
 0001:00029108       VirtualQuery               000000018002a108 f   kernel32:KERNEL32.dll
 0001:0002910e       FreeLibrary                000000018002a10e f   kernel32:KERNEL32.dll
 0001:00029114       LoadLibraryExA             000000018002a114 f   kernel32:KERNEL32.dll
 0001:0002911c       __scrt_stub_for_acrt_initialize 000000018002a11c f   MSVCRT:ucrt_stubs.obj
 0001:0002911c       __acrt_initialize          000000018002a11c f   MSVCRT:ucrt_stubs.obj
 0001:0002911c       __vcrt_initialize          000000018002a11c f   MSVCRT:ucrt_stubs.obj
 0001:00029120       __acrt_thread_attach       000000018002a120 f   MSVCRT:ucrt_stubs.obj
 0001:00029120       __scrt_stub_for_acrt_thread_attach 000000018002a120 f   MSVCRT:ucrt_stubs.obj
 0001:00029120       __vcrt_thread_attach       000000018002a120 f   MSVCRT:ucrt_stubs.obj
 0001:00029124       __scrt_stub_for_acrt_thread_detach 000000018002a124 f   MSVCRT:ucrt_stubs.obj
 0001:00029124       __vcrt_thread_detach       000000018002a124 f   MSVCRT:ucrt_stubs.obj
 0001:00029124       __acrt_thread_detach       000000018002a124 f   MSVCRT:ucrt_stubs.obj
 0001:00029128       __acrt_uninitialize        000000018002a128 f   MSVCRT:ucrt_stubs.obj
 0001:00029128       __vcrt_uninitialize        000000018002a128 f   MSVCRT:ucrt_stubs.obj
 0001:00029128       __scrt_stub_for_acrt_uninitialize 000000018002a128 f   MSVCRT:ucrt_stubs.obj
 0001:0002912c       __vcrt_uninitialize_critical 000000018002a12c f   MSVCRT:ucrt_stubs.obj
 0001:0002912c       __acrt_uninitialize_critical 000000018002a12c f   MSVCRT:ucrt_stubs.obj
 0001:0002912c       __scrt_stub_for_acrt_uninitialize_critical 000000018002a12c f   MSVCRT:ucrt_stubs.obj
 0001:00029130       _is_c_termination_complete 000000018002a130 f   MSVCRT:ucrt_stubs.obj
 0001:00029130       __scrt_stub_for_is_c_termination_complete 000000018002a130 f   MSVCRT:ucrt_stubs.obj
 0001:0002ac80       _guard_dispatch_icall_nop  000000018002bc80 f   MSVCRT:_guard_dispatch_.obj
 0001:00030100       ??__F_S_scheduler@?1??_GetStaticAmbientSchedulerRef@details@Concurrency@@YAAEAV?$shared_ptr@Uscheduler_interface@Concurrency@@@std@@XZ@YAXXZ 0000000180031100 f i _nodert_generated.obj
 0001:000301f8       ??__Fmodule@?1??Create@?$Module@$00VInProcModule@Details@Platform@@@WRL@Microsoft@@SAAEAVInProcModule@Details@Platform@@XZ@YAXXZ 00000001800311f8 f i vccorlib:init.obj
 0002:00000000       __xc_a                     0000000180033000     MSVCRT:initializers.obj
 0002:00000240       _register_binding_         0000000180033240     _nodert_generated.obj
 0002:000003b8       __xc_z                     00000001800333b8     MSVCRT:initializers.obj
 0002:000004c8       __xi_a                     00000001800334c8     MSVCRT:initializers.obj
 0002:000006e8       __abi__initialize          00000001800336e8     vccorlib:init.obj
 0002:000007f8       __xi_z                     00000001800337f8     MSVCRT:initializers.obj
 0002:00000908       __xl_a                     0000000180033908     MSVCRT:tlssup.obj
 0002:00000910       __xl_z                     0000000180033910     MSVCRT:tlssup.obj
 0002:00000918       __xp_a                     0000000180033918     MSVCRT:initializers.obj
 0002:00000a28       __xp_z                     0000000180033a28     MSVCRT:initializers.obj
 0002:00000b38       __xt_a                     0000000180033b38     MSVCRT:initializers.obj
 0002:00000c48       __xt_z                     0000000180033c48     MSVCRT:initializers.obj
 0002:00000d60       __uuidof_?AV?$WriteOnlyArray@VPoint@Foundation@Windows@@$00@Platform@@ 0000000180033d60     _nodert_generated.obj
 0002:00000d78       __uuidof_?AV?$Array@PE$AAVString@Platform@@$00@Platform@@ 0000000180033d78     _nodert_generated.obj
 0002:00000d90       __uuidof_?AV?$WriteOnlyArray@M$00@Platform@@ 0000000180033d90     _nodert_generated.obj
 0002:00000da8       __uuidof_?AV?$Array@G$00@Platform@@ 0000000180033da8     _nodert_generated.obj
 0002:00000dc0       __uuidof_?AU__abi_IDelegate@?$AsyncOperationCompletedHandler@W4RadioAccessStatus@Radios@Devices@Windows@@@Foundation@Windows@@ 0000000180033dc0     _nodert_generated.obj
 0002:00000dd8       ??_C@_0BJ@CIOFOAKP@?4?4?2_nodert_generated?4cpp?$AA@ 0000000180033dd8     _nodert_generated.obj
 0002:00000df8       __uuidof_?AU__I?$Array@VPoint@Foundation@Windows@@$00PublicNonVirtuals@Platform@@ 0000000180033df8     _nodert_generated.obj
 0002:00000e10       ??_C@_07GGKKJCAC@binding?$AA@ 0000000180033e10     _nodert_generated.obj
 0002:00000e20       __uuidof_?AU__I?$_AsyncInfoImpl@PE$AAUIAsyncAction@Foundation@Windows@@VAsyncActionCompletedHandler@23@EPublicNonVirtuals@details@Concurrency@@ 0000000180033e20     _nodert_generated.obj
 0002:00000e38       __uuidof_?AU__I?$WriteOnlyArray@PE$AAVObject@Platform@@$00PublicNonVirtuals@Platform@@ 0000000180033e38     _nodert_generated.obj
 0002:00000e50       __uuidof_?AU__I?$Array@M$00PublicNonVirtuals@Platform@@ 0000000180033e50     _nodert_generated.obj
 0002:00000e68       __uuidof_?AV?$Array@VPoint@Foundation@Windows@@$00@Platform@@ 0000000180033e68     _nodert_generated.obj
 0002:00000e80       __uuidof_?AU?$_AsyncInfoImpl@PE$AAUIAsyncAction@Foundation@Windows@@VAsyncActionCompletedHandler@23@E@details@Concurrency@@ 0000000180033e80     _nodert_generated.obj
 0002:00000e98       __uuidof_?AU__I?$WriteOnlyArray@H$00PublicNonVirtuals@Platform@@ 0000000180033e98     _nodert_generated.obj
 0002:00000eb0       __uuidof_?AV?$WriteOnlyArray@PE$AAVObject@Platform@@$00@Platform@@ 0000000180033eb0     _nodert_generated.obj
 0002:00000ec8       __uuidof_?AV?$Array@M$00@Platform@@ 0000000180033ec8     _nodert_generated.obj
 0002:00000ee0       __uuidof_?AV?$WriteOnlyArray@H$00@Platform@@ 0000000180033ee0     _nodert_generated.obj
 0002:00000ef8       __uuidof_?AU__I_IAsyncActionToAsyncOperationConverterPublicNonVirtuals@details@Concurrency@@ 0000000180033ef8     _nodert_generated.obj
 0002:00000f10       __uuidof_?AU_IAsyncActionToAsyncOperationConverter@details@Concurrency@@ 0000000180033f10     _nodert_generated.obj
 0002:00000f28       __uuidof_?AU__I_ZipPublicNonVirtuals@details@Concurrency@@ 0000000180033f28     _nodert_generated.obj
 0002:00000f40       __uuidof_?AU__I?$Array@PE$AAVObject@Platform@@$00PublicNonVirtuals@Platform@@ 0000000180033f40     _nodert_generated.obj
 0002:00000f58       __uuidof_?AU__I?$WriteOnlyArray@VSize@Foundation@Windows@@$00PublicNonVirtuals@Platform@@ 0000000180033f58     _nodert_generated.obj
 0002:00000f70       __uuidof_?AV_Zip@details@Concurrency@@ 0000000180033f70     _nodert_generated.obj
 0002:00000f88       __uuidof_?AU__I?$Array@H$00PublicNonVirtuals@Platform@@ 0000000180033f88     _nodert_generated.obj
 0002:00000fa0       __uuidof_?AU__I?$WriteOnlyArray@N$00PublicNonVirtuals@Platform@@ 0000000180033fa0     _nodert_generated.obj
 0002:00000fb8       __uuidof_?AV?$WriteOnlyArray@VSize@Foundation@Windows@@$00@Platform@@ 0000000180033fb8     _nodert_generated.obj
 0002:00000fd0       __uuidof_?AV?$Array@PE$AAVObject@Platform@@$00@Platform@@ 0000000180033fd0     _nodert_generated.obj
 0002:00000fe8       __uuidof_?AV?$WriteOnlyArray@N$00@Platform@@ 0000000180033fe8     _nodert_generated.obj
 0002:00001000       __uuidof_?AV?$Box@_J@Platform@@ 0000000180034000     _nodert_generated.obj
 0002:00001018       __uuidof_?AV?$Array@H$00@Platform@@ 0000000180034018     _nodert_generated.obj
 0002:00001030       __uuidof_?AU__IVectorChangedEventArgsPublicNonVirtuals@Details@Collections@Platform@@ 0000000180034030     _nodert_generated.obj
 0002:00001048       __uuidof_?AVVectorChangedEventArgs@Details@Collections@Platform@@ 0000000180034048     _nodert_generated.obj
 0002:00001060       __uuidof_?AU__I?$Array@VSize@Foundation@Windows@@$00PublicNonVirtuals@Platform@@ 0000000180034060     _nodert_generated.obj
 0002:00001078       __uuidof_?AU__I?$Array@N$00PublicNonVirtuals@Platform@@ 0000000180034078     _nodert_generated.obj
 0002:00001090       __uuidof_?AU__I?$WriteOnlyArray@VGuid@Platform@@$00PublicNonVirtuals@Platform@@ 0000000180034090     _nodert_generated.obj
 0002:000010a8       __uuidof_?AU__abi_IDelegate@AsyncActionCompletedHandler@Foundation@Windows@@ 00000001800340a8     _nodert_generated.obj
 0002:000010c0       __uuidof_?AV?$Array@VSize@Foundation@Windows@@$00@Platform@@ 00000001800340c0     _nodert_generated.obj
 0002:000010d8       __uuidof_?AU__I?$WriteOnlyArray@I$00PublicNonVirtuals@Platform@@ 00000001800340d8     _nodert_generated.obj
 0002:000010f0       __uuidof_?AV?$WriteOnlyArray@VGuid@Platform@@$00@Platform@@ 00000001800340f0     _nodert_generated.obj
 0002:00001108       __uuidof_?AV?$Array@N$00@Platform@@ 0000000180034108     _nodert_generated.obj
 0002:00001120       __uuidof_?AV?$WriteOnlyArray@I$00@Platform@@ 0000000180034120     _nodert_generated.obj
 0002:00001138       __uuidof_?AU__ICustomValueTypePublicNonVirtuals@Details@Platform@@ 0000000180034138     _nodert_generated.obj
 0002:00001150       __uuidof_?AU__abi_IDelegate@?$AsyncOperationCompletedHandler@E@Foundation@Windows@@ 0000000180034150     _nodert_generated.obj
 0002:00001168       __uuidof_?AVCustomValueType@Details@Platform@@ 0000000180034168     _nodert_generated.obj
 0002:00001180       __uuidof_?AU__I?$Array@VGuid@Platform@@$00PublicNonVirtuals@Platform@@ 0000000180034180     _nodert_generated.obj
 0002:00001198       __uuidof_?AU__I?$WriteOnlyArray@VRect@Foundation@Windows@@$00PublicNonVirtuals@Platform@@ 0000000180034198     _nodert_generated.obj
 0002:000011b0       __uuidof_?AU__ICustomEnumPublicNonVirtuals@Details@Platform@@ 00000001800341b0     _nodert_generated.obj
 0002:000011c8       __uuidof_?AU__I?$WriteOnlyArray@_W$00PublicNonVirtuals@Platform@@ 00000001800341c8     _nodert_generated.obj
 0002:000011e0       __uuidof_?AU__I?$Array@I$00PublicNonVirtuals@Platform@@ 00000001800341e0     _nodert_generated.obj
 0002:000011f8       __uuidof_?AV?$WriteOnlyArray@VRect@Foundation@Windows@@$00@Platform@@ 00000001800341f8     _nodert_generated.obj
 0002:00001210       __uuidof_?AV?$Array@VGuid@Platform@@$00@Platform@@ 0000000180034210     _nodert_generated.obj
 0002:00001228       __uuidof_?AVCustomEnum@Details@Platform@@ 0000000180034228     _nodert_generated.obj
 0002:00001240       __uuidof_?AV?$WriteOnlyArray@_W$00@Platform@@ 0000000180034240     _nodert_generated.obj
 0002:00001258       __uuidof_?AV?$Array@I$00@Platform@@ 0000000180034258     _nodert_generated.obj
 0002:00001270       __uuidof_?AU__I?$Array@VRect@Foundation@Windows@@$00PublicNonVirtuals@Platform@@ 0000000180034270     _nodert_generated.obj
 0002:00001288       __uuidof_?AU__I?$Array@_W$00PublicNonVirtuals@Platform@@ 0000000180034288     _nodert_generated.obj
 0002:000012a0       __uuidof_?AU__I?$WriteOnlyArray@VDateTime@Foundation@Windows@@$00PublicNonVirtuals@Platform@@ 00000001800342a0     _nodert_generated.obj
 0002:000012b8       __uuidof_?AV?$Array@VRect@Foundation@Windows@@$00@Platform@@ 00000001800342b8     _nodert_generated.obj
 0002:000012d0       __uuidof_?AU__I?$WriteOnlyArray@_J$00PublicNonVirtuals@Platform@@ 00000001800342d0     _nodert_generated.obj
 0002:000012e8       __uuidof_?AV?$WriteOnlyArray@VDateTime@Foundation@Windows@@$00@Platform@@ 00000001800342e8     _nodert_generated.obj
 0002:00001300       __uuidof_?AV?$Array@_W$00@Platform@@ 0000000180034300     _nodert_generated.obj
 0002:00001318       __uuidof_?AV?$WriteOnlyArray@_J$00@Platform@@ 0000000180034318     _nodert_generated.obj
 0002:00001330       __uuidof_?AU__abi_IDelegate@?$AsyncOperationCompletedHandler@PE$AAVRadio@Radios@Devices@Windows@@@Foundation@Windows@@ 0000000180034330     _nodert_generated.obj
 0002:00001348       __uuidof_?AU__I?$Array@VDateTime@Foundation@Windows@@$00PublicNonVirtuals@Platform@@ 0000000180034348     _nodert_generated.obj
 0002:00001360       __uuidof_?AU__I?$Array@_J$00PublicNonVirtuals@Platform@@ 0000000180034360     _nodert_generated.obj
 0002:00001378       __uuidof_?AU__I?$WriteOnlyArray@_N$00PublicNonVirtuals@Platform@@ 0000000180034378     _nodert_generated.obj
 0002:00001390       __uuidof_?AV?$Array@VDateTime@Foundation@Windows@@$00@Platform@@ 0000000180034390     _nodert_generated.obj
 0002:000013a8       __uuidof_?AU__I?$WriteOnlyArray@F$00PublicNonVirtuals@Platform@@ 00000001800343a8     _nodert_generated.obj
 0002:000013c0       __uuidof_?AV?$WriteOnlyArray@_N$00@Platform@@ 00000001800343c0     _nodert_generated.obj
 0002:000013d8       __uuidof_?AV?$Array@_J$00@Platform@@ 00000001800343d8     _nodert_generated.obj
 0002:000013f0       __uuidof_?AV?$WriteOnlyArray@F$00@Platform@@ 00000001800343f0     _nodert_generated.obj
 0002:00001408       __uuidof_?AU__I?$WriteOnlyArray@E$00PublicNonVirtuals@Platform@@ 0000000180034408     _nodert_generated.obj
 0002:00001420       __uuidof_?AV?$WriteOnlyArray@E$00@Platform@@ 0000000180034420     _nodert_generated.obj
 0002:00001438       __uuidof_?AU__I?$Array@_N$00PublicNonVirtuals@Platform@@ 0000000180034438     _nodert_generated.obj
 0002:00001450       __uuidof_?AU__I?$WriteOnlyArray@VTimeSpan@Foundation@Windows@@$00PublicNonVirtuals@Platform@@ 0000000180034450     _nodert_generated.obj
 0002:00001468       __uuidof_?AU__I?$WriteOnlyArray@_K$00PublicNonVirtuals@Platform@@ 0000000180034468     _nodert_generated.obj
 0002:00001480       __uuidof_?AU__I?$Array@F$00PublicNonVirtuals@Platform@@ 0000000180034480     _nodert_generated.obj
 0002:00001498       __uuidof_?AV?$WriteOnlyArray@VTimeSpan@Foundation@Windows@@$00@Platform@@ 0000000180034498     _nodert_generated.obj
 0002:000014b0       __uuidof_?AV?$Array@_N$00@Platform@@ 00000001800344b0     _nodert_generated.obj
 0002:000014c8       __uuidof_?AV?$WriteOnlyArray@_K$00@Platform@@ 00000001800344c8     _nodert_generated.obj
 0002:000014e0       __uuidof_?AV?$Array@F$00@Platform@@ 00000001800344e0     _nodert_generated.obj
 0002:000014f8       __uuidof_?AU__abi_IDelegate@BindableVectorChangedEventHandler@Interop@Xaml@UI@Windows@@ 00000001800344f8     _nodert_generated.obj
 0002:00001510       __uuidof_?AU__abi_IDelegate@?$AsyncOperationCompletedHandler@PE$AAU?$IVectorView@PE$AAVRadio@Radios@Devices@Windows@@@Collections@Foundation@Windows@@@Foundation@Windows@@ 0000000180034510     _nodert_generated.obj
 0002:00001528       __uuidof_?AU__I?$Array@VTimeSpan@Foundation@Windows@@$00PublicNonVirtuals@Platform@@ 0000000180034528     _nodert_generated.obj
 0002:00001540       __uuidof_?AU__I?$Array@E$00PublicNonVirtuals@Platform@@ 0000000180034540     _nodert_generated.obj
 0002:00001558       __uuidof_?AU__I?$WriteOnlyArray@PE$AAVString@Platform@@$00PublicNonVirtuals@Platform@@ 0000000180034558     _nodert_generated.obj
 0002:00001570       __uuidof_?AU__I?$Array@_K$00PublicNonVirtuals@Platform@@ 0000000180034570     _nodert_generated.obj
 0002:00001588       __uuidof_?AV?$Array@VTimeSpan@Foundation@Windows@@$00@Platform@@ 0000000180034588     _nodert_generated.obj
 0002:000015a0       __uuidof_?AU__I?$WriteOnlyArray@G$00PublicNonVirtuals@Platform@@ 00000001800345a0     _nodert_generated.obj
 0002:000015b8       ??_C@_0BJ@LJPDLIMA@__registrationTokenMap__?$AA@ 00000001800345b8     _nodert_generated.obj
 0002:000015d8       __uuidof_?AV?$Array@E$00@Platform@@ 00000001800345d8     _nodert_generated.obj
 0002:000015f0       __uuidof_?AV?$WriteOnlyArray@PE$AAVString@Platform@@$00@Platform@@ 00000001800345f0     _nodert_generated.obj
 0002:00001608       __uuidof_?AV?$Array@_K$00@Platform@@ 0000000180034608     _nodert_generated.obj
 0002:00001620       __uuidof_?AU__abi_IDelegate@?$TypedEventHandler@PE$AAVRadio@Radios@Devices@Windows@@PE$AAVObject@Platform@@@Foundation@Windows@@ 0000000180034620     _nodert_generated.obj
 0002:00001638       __uuidof_?AV?$WriteOnlyArray@G$00@Platform@@ 0000000180034638     _nodert_generated.obj
 0002:00001650       __uuidof_?AU__I?$WriteOnlyArray@VPoint@Foundation@Windows@@$00PublicNonVirtuals@Platform@@ 0000000180034650     _nodert_generated.obj
 0002:00001668       __uuidof_?AU__I?$Array@PE$AAVString@Platform@@$00PublicNonVirtuals@Platform@@ 0000000180034668     _nodert_generated.obj
 0002:00001680       __uuidof_?AU__I?$WriteOnlyArray@M$00PublicNonVirtuals@Platform@@ 0000000180034680     _nodert_generated.obj
 0002:00001698       __uuidof_?AU__I?$Array@G$00PublicNonVirtuals@Platform@@ 0000000180034698     _nodert_generated.obj
 0002:00005400       __uuidof_?AUIAgileObject@Details@Platform@@ 0000000180038400     _nodert_generated.obj
 0002:00005418       __uuidof_?AUIAsyncInfo@Foundation@Windows@@ 0000000180038418     _nodert_generated.obj
 0002:00005430       _GUID_00000003_0000_0000_c000_000000000046 0000000180038430     _nodert_generated.obj
 0002:00005448       _GUID_00000000_0000_0000_c000_000000000046 0000000180038448     _nodert_generated.obj
 0002:00005460       ??_C@_0BC@BDKFLDHL@unknown?5exception?$AA@ 0000000180038460     _nodert_generated.obj
 0002:00005478       ??_C@_07CIFAGBMG@unknown?$AA@ 0000000180038478     _nodert_generated.obj
 0002:00005488       ??_C@_0N@FJHHFFAF@bad_weak_ptr?$AA@ 0000000180038488     _nodert_generated.obj
 0002:00005498       ??_C@_1DG@OKCGPKIB@?$AAp?$AAe?$AAr?$AAs?$AAi?$AAs?$AAt?$AAe?$AAn?$AAt?$AA?$CI?$AA?$CJ?$AA?4?$AAI?$AAs?$AAN?$AAe?$AAa?$AAr?$AAD?$AAe?$AAa?$AAt?$AAh?$AA?$CI?$AA?$CJ?$AA?$AA@ 0000000180038498     _nodert_generated.obj
 0002:000054d8       ??_C@_1CO@EGNPJLKI@?$AAp?$AAe?$AAr?$AAs?$AAi?$AAs?$AAt?$AAe?$AAn?$AAt?$AA?$CI?$AA?$CJ?$AA?4?$AAI?$AAs?$AAE?$AAm?$AAp?$AAt?$AAy?$AA?$CI?$AA?$CJ?$AA?$AA@ 00000001800384d8     _nodert_generated.obj
 0002:00005510       ??_C@_1DA@FBGAEOIO@?$AA?$CB?$AAp?$AAe?$AAr?$AAs?$AAi?$AAs?$AAt?$AAe?$AAn?$AAt?$AA?$CI?$AA?$CJ?$AA?4?$AAI?$AAs?$AAE?$AAm?$AAp?$AAt?$AAy?$AA?$CI?$AA?$CJ?$AA?$AA@ 0000000180038510     _nodert_generated.obj
 0002:00005550       ??_C@_1CO@JCKLEFMA@?$AA?$CB?$AAp?$AAe?$AAr?$AAs?$AAi?$AAs?$AAt?$AAe?$AAn?$AAt?$AA?$CI?$AA?$CJ?$AA?4?$AAI?$AAs?$AAW?$AAe?$AAa?$AAk?$AA?$CI?$AA?$CJ?$AA?$AA@ 0000000180038550     _nodert_generated.obj
 0002:00005588       ??_C@_1BE@GMLLOIPJ@?$AAr?$AAe?$AAf?$AAs?$AA_?$AA?5?$AA?$DO?$AA?5?$AA0?$AA?$AA@ 0000000180038588     _nodert_generated.obj
 0002:000055a0       ??_C@_1CC@GBFLAAPF@?$AAw?$AAr?$AAa?$AAp?$AA?9?$AA?$DO?$AAr?$AAe?$AAf?$AAs?$AA_?$AA?5?$AA?$DN?$AA?$DN?$AA?5?$AA0?$AA?$AA@ 00000001800385a0     _nodert_generated.obj
 0002:000055c8       ??_C@_0BB@JPMJDPHD@nan?3makeCallback?$AA@ 00000001800385c8     _nodert_generated.obj
 0002:000055e0       ??_C@_1JI@JPIBEDCC@?$AAc?$AA?3?$AA?2?$AAu?$AAs?$AAe?$AAr?$AAs?$AA?2?$AAo?$AAo?$AAt?$AAu?$AAb?$AA?2?$AAd?$AAe?$AAs?$AAk?$AAt?$AAo?$AAp?$AA?2?$AAe?$AAl?$AAe?$AAc?$AAt?$AAr?$AAo?$AAn?$AA?9@ 00000001800385e0     _nodert_generated.obj
 0002:000056a0       ??_C@_1EC@MGGLMBLC@?$AAo?$AAb?$AAj?$AAe?$AAc?$AAt?$AA?9?$AA?$DO?$AAI?$AAn?$AAt?$AAe?$AAr?$AAn?$AAa?$AAl?$AAF?$AAi?$AAe?$AAl?$AAd?$AAC?$AAo?$AAu?$AAn?$AAt?$AA?$CI?$AA?$CJ?$AA?5?$AA?$DO?$AA?5?$AA0@ 00000001800386a0     _nodert_generated.obj
 0002:000056f0       ??_C@_1DI@ELDBKNAK@?$AAw?$AAr?$AAa?$AAp?$AA?9?$AA?$DO?$AAh?$AAa?$AAn?$AAd?$AAl?$AAe?$AA_?$AA?4?$AAI?$AAs?$AAN?$AAe?$AAa?$AAr?$AAD?$AAe?$AAa?$AAt?$AAh?$AA?$CI?$AA?$CJ?$AA?$AA@ 00000001800386f0     _nodert_generated.obj
 0002:00005738       ??_C@_0BM@DMDJGFCM@Fail?5to?5schedule?5the?5chore?$CB?$AA@ 0000000180038738     _nodert_generated.obj
 0002:00005760       ??_C@_0DN@ELCPICKL@This?5function?5cannot?5be?5called?5o@ 0000000180038760     _nodert_generated.obj
 0002:000057b0       ??_C@_0DD@NJEIIHCG@Illegal?5to?5wait?5on?5a?5task?5in?5a?5W@ 00000001800387b0     _nodert_generated.obj
 0002:000057f0       ??_C@_0BH@LAEGKBN@__winrtOpaqueWrapper__?$AA@ 00000001800387f0     _nodert_generated.obj
 0002:00005810       ??_C@_08PPIJGMPL@callback?$AA@ 0000000180038810     _nodert_generated.obj
 0002:00005820       ??_C@_07DEBHDLBL@process?$AA@ 0000000180038820     _nodert_generated.obj
 0002:0000582c       ??_C@_06LKIIGAOE@domain?$AA@ 000000018003882c     _nodert_generated.obj
 0002:00005838       ??_C@_0L@HHPKOBNC@RadioState?$AA@ 0000000180038838     _nodert_generated.obj
 0002:00005848       ??_C@_02LIELOMNJ@on?$AA@   0000000180038848     _nodert_generated.obj
 0002:0000584c       ??_C@_03MCADLMAF@off?$AA@  000000018003884c     _nodert_generated.obj
 0002:00005850       ??_C@_08BEHKFNNO@disabled?$AA@ 0000000180038850     _nodert_generated.obj
 0002:00005860       ??_C@_09HDHENHLL@RadioKind?$AA@ 0000000180038860     _nodert_generated.obj
 0002:0000586c       ??_C@_05BGEKGIIP@other?$AA@ 000000018003886c     _nodert_generated.obj
 0002:00005874       ??_C@_04PECJKNCI@wiFi?$AA@ 0000000180038874     _nodert_generated.obj
 0002:00005880       ??_C@_0BA@NDCAFMN@mobileBroadband?$AA@ 0000000180038880     _nodert_generated.obj
 0002:00005898       ??_C@_09FIEGKEPP@bluetooth?$AA@ 0000000180038898     _nodert_generated.obj
 0002:000058a4       ??_C@_02JDDKADH@fM?$AA@    00000001800388a4     _nodert_generated.obj
 0002:000058a8       ??_C@_0BC@EAFPLGKK@RadioAccessStatus?$AA@ 00000001800388a8     _nodert_generated.obj
 0002:000058c0       ??_C@_0M@MFMDLEDN@unspecified?$AA@ 00000001800388c0     _nodert_generated.obj
 0002:000058d0       ??_C@_07BHLLLGNC@allowed?$AA@ 00000001800388d0     _nodert_generated.obj
 0002:000058e0       ??_C@_0N@MGOAIPKM@deniedByUser?$AA@ 00000001800388e0     _nodert_generated.obj
 0002:000058f0       ??_C@_0P@OJHKJMDH@deniedBySystem?$AA@ 00000001800388f0     _nodert_generated.obj
 0002:00005904       ??_C@_05LKAOEOMO@Radio?$AA@ 0000000180038904     _nodert_generated.obj
 0002:00005910       ??_C@_0O@EIHAEGOG@setStateAsync?$AA@ 0000000180038910     _nodert_generated.obj
 0002:00005920       ??_C@_0M@GMNDPMBH@addListener?$AA@ 0000000180038920     _nodert_generated.obj
 0002:00005930       ??_C@_0P@NPMHMMOM@removeListener?$AA@ 0000000180038930     _nodert_generated.obj
 0002:00005944       ??_C@_04NCMJLOLO@kind?$AA@ 0000000180038944     _nodert_generated.obj
 0002:0000594c       ??_C@_04MEMAJGDJ@name?$AA@ 000000018003894c     _nodert_generated.obj
 0002:00005954       ??_C@_05HDBKIDE@state?$AA@ 0000000180038954     _nodert_generated.obj
 0002:00005960       ??_C@_08KIDHCPHN@castFrom?$AA@ 0000000180038960     _nodert_generated.obj
 0002:00005970       ??_C@_0BC@KIEAEFCG@getDeviceSelector?$AA@ 0000000180038970     _nodert_generated.obj
 0002:00005988       ??_C@_0P@FOGFFFAG@getRadiosAsync?$AA@ 0000000180038988     _nodert_generated.obj
 0002:000059a0       ??_C@_0M@EBDIOBPK@fromIdAsync?$AA@ 00000001800389a0     _nodert_generated.obj
 0002:000059b0       ??_C@_0BD@CADIHGEO@requestAccessAsync?$AA@ 00000001800389b0     _nodert_generated.obj
 0002:000059c8       __uuidof_?AV?$TypedEventHandler@PE$AAVRadio@Radios@Devices@Windows@@PE$AAVObject@Platform@@@Foundation@Windows@@ 00000001800389c8     _nodert_generated.obj
 0002:000059e0       __uuidof_?AVRadio@Radios@Devices@Windows@@ 00000001800389e0     _nodert_generated.obj
 0002:00005a00       ??_C@_1GC@KBHNNFGK@?$AAI?$AAn?$AAv?$AAa?$AAl?$AAi?$AAd?$AA?5?$AAa?$AAr?$AAg?$AAu?$AAm?$AAe?$AAn?$AAt?$AAs?$AA?0?$AA?5?$AAn?$AAo?$AA?5?$AAs?$AAu?$AAi?$AAt?$AAa?$AAb?$AAl?$AAe?$AA?5?$AAc@ 0000000180038a00     _nodert_generated.obj
 0002:00005a78       ??_C@_0BC@HNKGPEBE@__winRtInstance__?$AA@ 0000000180038a78     _nodert_generated.obj
 0002:00005a90       ??_C@_1LK@MDDHJJID@?$AAI?$AAn?$AAv?$AAa?$AAl?$AAi?$AAd?$AA?5?$AAa?$AAr?$AAg?$AAu?$AAm?$AAe?$AAn?$AAt?$AAs?$AA?0?$AA?5?$AAn?$AAo?$AA?5?$AAo?$AAb?$AAj?$AAe?$AAc?$AAt?$AA?5?$AAp?$AAr?$AAo@ 0000000180038a90     _nodert_generated.obj
 0002:00005b70       ??_C@_1EK@NFKCAPKC@?$AAB?$AAa?$AAd?$AA?5?$AAa?$AAr?$AAg?$AAu?$AAm?$AAe?$AAn?$AAt?$AAs?$AA?3?$AA?5?$AAN?$AAo?$AA?5?$AAc?$AAa?$AAl?$AAl?$AAb?$AAa?$AAc?$AAk?$AA?5?$AAw?$AAa?$AAs?$AA?5?$AAg@ 0000000180038b70     _nodert_generated.obj
 0002:00005bd0       ??_C@_1FE@FAFBJCBD@?$AAB?$AAa?$AAd?$AA?5?$AAa?$AAr?$AAg?$AAu?$AAm?$AAe?$AAn?$AAt?$AAs?$AA?3?$AA?5?$AAn?$AAo?$AA?5?$AAs?$AAu?$AAi?$AAt?$AAa?$AAb?$AAl?$AAe?$AA?5?$AAo?$AAv?$AAe?$AAr?$AAl@ 0000000180038bd0     _nodert_generated.obj
 0002:00005c38       __uuidof_?AU?$IIterable@PE$AAVRadio@Radios@Devices@Windows@@@Collections@Foundation@Windows@@ 0000000180038c38     _nodert_generated.obj
 0002:00005c50       __uuidof_?AU?$IVectorView@PE$AAVRadio@Radios@Devices@Windows@@@Collections@Foundation@Windows@@ 0000000180038c50     _nodert_generated.obj
 0002:00005c70       ??_C@_1JK@DNJLCGHE@?$AAw?$AAr?$AAo?$AAn?$AAg?$AA?5?$AAa?$AAr?$AAg?$AAu?$AAm?$AAe?$AAn?$AAt?$AAs?$AA?0?$AA?5?$AAe?$AAx?$AAp?$AAe?$AAc?$AAt?$AAe?$AAd?$AA?5?$AAa?$AAr?$AAg?$AAu?$AAm?$AAe@ 0000000180038c70     _nodert_generated.obj
 0002:00005d28       ??_C@_1BK@KICBJJMM@?$AAs?$AAt?$AAa?$AAt?$AAe?$AAC?$AAh?$AAa?$AAn?$AAg?$AAe?$AAd?$AA?$AA@ 0000000180038d28     _nodert_generated.obj
 0002:00005d50       ??_C@_1LG@DAHPAPIM@?$AAT?$AAh?$AAe?$AA?5?$AAc?$AAa?$AAl?$AAl?$AAe?$AAr?$AA?5?$AAo?$AAf?$AA?5?$AAt?$AAh?$AAi?$AAs?$AA?5?$AAm?$AAe?$AAt?$AAh?$AAo?$AAd?$AA?5?$AAi?$AAs?$AAn?$AA?8?$AAt?$AA?5@ 0000000180038d50     _nodert_generated.obj
 0002:00005e30       ??_C@_1EG@KBCEIIBD@?$AAg?$AAi?$AAv?$AAe?$AAn?$AA?5?$AAe?$AAv?$AAe?$AAn?$AAt?$AA?5?$AAn?$AAa?$AAm?$AAe?$AA?5?$AAi?$AAs?$AAn?$AA?8?$AAt?$AA?5?$AAs?$AAu?$AAp?$AAp?$AAo?$AAr?$AAt?$AAe?$AAd@ 0000000180038e30     _nodert_generated.obj
 0002:00005e90       ??_C@_1GE@DOIICCMG@?$AAw?$AAr?$AAo?$AAn?$AAg?$AA?5?$AAa?$AAr?$AAg?$AAu?$AAm?$AAe?$AAn?$AAt?$AAs?$AA?0?$AA?5?$AAe?$AAx?$AAp?$AAe?$AAc?$AAt?$AAe?$AAd?$AA?5?$AAa?$AA?5?$AAs?$AAt?$AAr?$AAi@ 0000000180038e90     _nodert_generated.obj
 0002:00005f08       ??_C@_0BH@OEPDILCB@Windows?4Devices?4Radios?$AA@ 0000000180038f08     _nodert_generated.obj
 0002:00005f30       ??_C@_1JK@FKNKGECC@?$AAW?$AAi?$AAn?$AAd?$AAo?$AAw?$AAs?$AA?4?$AAF?$AAo?$AAu?$AAn?$AAd?$AAa?$AAt?$AAi?$AAo?$AAn?$AA?4?$AAT?$AAy?$AAp?$AAe?$AAd?$AAE?$AAv?$AAe?$AAn?$AAt?$AAH?$AAa?$AAn@ 0000000180038f30     _nodert_generated.obj
 0002:00005fe8       ??_C@_1DK@PEFIBCGI@?$AAW?$AAi?$AAn?$AAd?$AAo?$AAw?$AAs?$AA?4?$AAD?$AAe?$AAv?$AAi?$AAc?$AAe?$AAs?$AA?4?$AAR?$AAa?$AAd?$AAi?$AAo?$AAs?$AA?4?$AAR?$AAa?$AAd?$AAi?$AAo?$AA?$AA@ 0000000180038fe8     _nodert_generated.obj
 0002:00006030       ??_C@_1EC@HNHEILEH@?$AAW?$AAi?$AAn?$AAd?$AAo?$AAw?$AAs?$AA?4?$AAF?$AAo?$AAu?$AAn?$AAd?$AAa?$AAt?$AAi?$AAo?$AAn?$AA?4?$AAP?$AAr?$AAo?$AAp?$AAe?$AAr?$AAt?$AAy?$AAV?$AAa?$AAl?$AAu?$AAe@ 0000000180039030     _nodert_generated.obj
 0002:00006080       _GUID_94ea2b94_e9cc_49e0_c0ff_ee64ca8f5b90 0000000180039080     _nodert_generated.obj
 0002:00006098       ??_C@_0CN@CFDLBABJ@Windows?3?3Foundation?3?3Collections@ 0000000180039098     _nodert_generated.obj
 0002:000060d0       ??_C@_07JGIDINKK@getMany?$AA@ 00000001800390d0     _nodert_generated.obj
 0002:000060dc       ??_C@_05NEEIPFEN@getAt?$AA@ 00000001800390dc     _nodert_generated.obj
 0002:000060e8       ??_C@_07KKKNJHGA@indexOf?$AA@ 00000001800390e8     _nodert_generated.obj
 0002:000060f4       ??_C@_05NIGAKFML@first?$AA@ 00000001800390f4     _nodert_generated.obj
 0002:000060fc       ??_C@_04IAGNFIBA@size?$AA@ 00000001800390fc     _nodert_generated.obj
 0002:00006104       ??_C@_06IJDLPEM@length?$AA@ 0000000180039104     _nodert_generated.obj
 0002:00006110       ??_C@_1CO@CKJHFEP@?$AAM?$AAe?$AAt?$AAh?$AAo?$AAd?$AA?5?$AAi?$AAs?$AAn?$AA?8?$AAt?$AA?5?$AAs?$AAu?$AAp?$AAp?$AAo?$AAr?$AAt?$AAe?$AAd?$AA?$AA@ 0000000180039110     _nodert_generated.obj
 0002:00006148       ??_C@_07GOBOHMJA@boolean?$AA@ 0000000180039148     _nodert_generated.obj
 0002:00006154       ??_C@_05FKHKFDID@index?$AA@ 0000000180039154     _nodert_generated.obj
 0002:00006160       ??_C@_1CA@EIFFEMAD@?$AAN?$AAo?$AAt?$AA?5?$AAi?$AAm?$AAp?$AAl?$AAe?$AAm?$AAe?$AAn?$AAt?$AAe?$AAd?$AA?$AA@ 0000000180039160     _nodert_generated.obj
 0002:00006188       ??_C@_0BD@OLBABOEK@vector?$DMT?$DO?5too?5long?$AA@ 0000000180039188     _nodert_generated.obj
 0002:000061a0       __uuidof_?AU?$IIterator@PE$AAVRadio@Radios@Devices@Windows@@@Collections@Foundation@Windows@@ 00000001800391a0     _nodert_generated.obj
 0002:000061b8       ??_C@_0CL@EPAAJAFM@Windows?3?3Foundation?3?3Collections@ 00000001800391b8     _nodert_generated.obj
 0002:000061f0       ??_C@_08JABKCAEO@moveNext?$AA@ 00000001800391f0     _nodert_generated.obj
 0002:00006200       ??_C@_07LKPDDKMO@current?$AA@ 0000000180039200     _nodert_generated.obj
 0002:00006210       ??_C@_0L@FADMNBDO@hasCurrent?$AA@ 0000000180039210     _nodert_generated.obj
 0002:00006220       ??_C@_1CE@LNAGEONJ@?$AA?$CB?$AAo?$AAb?$AAj?$AAe?$AAc?$AAt?$AA?4?$AAI?$AAs?$AAE?$AAm?$AAp?$AAt?$AAy?$AA?$CI?$AA?$CJ?$AA?$AA@ 0000000180039220     _nodert_generated.obj
 0002:00006250       __uuidof_?AU?$IBox@_J@Platform@@ 0000000180039250     _nodert_generated.obj
 0002:00006268       __uuidof_?AV?$AsyncOperationCompletedHandler@PE$AAVRadio@Radios@Devices@Windows@@@Foundation@Windows@@ 0000000180039268     _nodert_generated.obj
 0002:00006280       ??_C@_1KE@PCDCOCGC@?$AAW?$AAi?$AAn?$AAd?$AAo?$AAw?$AAs?$AA?4?$AAF?$AAo?$AAu?$AAn?$AAd?$AAa?$AAt?$AAi?$AAo?$AAn?$AA?4?$AAA?$AAs?$AAy?$AAn?$AAc?$AAO?$AAp?$AAe?$AAr?$AAa?$AAt?$AAi?$AAo@ 0000000180039280     _nodert_generated.obj
 0002:00006348       __uuidof_?AV?$AsyncOperationCompletedHandler@PE$AAU?$IVectorView@PE$AAVRadio@Radios@Devices@Windows@@@Collections@Foundation@Windows@@@Foundation@Windows@@ 0000000180039348     _nodert_generated.obj
 0002:00006360       ??_C@_1BAA@OPHGBHFM@?$AAW?$AAi?$AAn?$AAd?$AAo?$AAw?$AAs?$AA?4?$AAF?$AAo?$AAu?$AAn?$AAd?$AAa?$AAt?$AAi?$AAo?$AAn?$AA?4?$AAA?$AAs?$AAy?$AAn?$AAc?$AAO?$AAp?$AAe?$AAr?$AAa?$AAt?$AAi?$AAo@ 0000000180039360     _nodert_generated.obj
 0002:00006498       __uuidof_?AV?$AsyncOperationCompletedHandler@W4RadioAccessStatus@Radios@Devices@Windows@@@Foundation@Windows@@ 0000000180039498     _nodert_generated.obj
 0002:000064b0       ??_C@_1LM@MMDEBKG@?$AAW?$AAi?$AAn?$AAd?$AAo?$AAw?$AAs?$AA?4?$AAF?$AAo?$AAu?$AAn?$AAd?$AAa?$AAt?$AAi?$AAo?$AAn?$AA?4?$AAA?$AAs?$AAy?$AAn?$AAc?$AAO?$AAp?$AAe?$AAr?$AAa?$AAt?$AAi?$AAo@ 00000001800394b0     _nodert_generated.obj
 0002:00006598       __real@bff0000000000000    0000000180039598     _nodert_generated.obj
 0002:000068d8       ??_C@_0BA@JFNIOLAK@string?5too?5long?$AA@ 00000001800398d8     NodeRtUtils.obj
 0002:000068f0       ??_C@_07KPENDMPA@HRESULT?$AA@ 00000001800398f0     NodeRtUtils.obj
 0002:00006900       ??_C@_0BE@FOACCDKJ@__winRtNamespaces__?$AA@ 0000000180039900     NodeRtUtils.obj
 0002:00006920       ??_C@_1FG@NEAKPMBB@?$AAF?$AAa?$AAi?$AAl?$AAe?$AAd?$AA?5?$AAt?$AAo?$AA?5?$AAo?$AAb?$AAt?$AAa?$AAi?$AAn?$AA?5?$AAe?$AAx?$AAt?$AAe?$AAr?$AAn?$AAa?$AAl?$AA?5?$AAn?$AAa?$AAm?$AAe?$AAs?$AAp@ 0000000180039920     NodeRtUtils.obj
 0002:00006988       ??_C@_13GCIFAHHO@?$AA?$HL?$AA?$AA@ 0000000180039988     NodeRtUtils.obj
 0002:0000698c       ??_C@_13EHOOFIKC@?$AA?$HN?$AA?$AA@ 000000018003998c     NodeRtUtils.obj
 0002:00006990       ??_C@_01BBODEMC@G?$AA@     0000000180039990     NodeRtUtils.obj
 0002:00006994       ??_C@_01HMGJMAIH@B?$AA@    0000000180039994     NodeRtUtils.obj
 0002:00006998       ??_C@_01FHEEJDEE@A?$AA@    0000000180039998     NodeRtUtils.obj
 0002:0000699c       ??_C@_01DGKLNCNG@R?$AA@    000000018003999c     NodeRtUtils.obj
 0002:000069a0       ??_C@_1EG@IJKJPMJK@?$AAV?$AAa?$AAl?$AAu?$AAe?$AA?5?$AAt?$AAo?$AA?5?$AAs?$AAe?$AAt?$AA?5?$AAi?$AAs?$AA?5?$AAo?$AAf?$AA?5?$AAu?$AAn?$AAe?$AAx?$AAp?$AAe?$AAc?$AAt?$AAe?$AAd?$AA?5?$AAt?$AAy@ 00000001800399a0     NodeRtUtils.obj
 0002:000069f4       ??_C@_06PMMPCIPB@bottom?$AA@ 00000001800399f4     NodeRtUtils.obj
 0002:000069fc       ??_C@_06LNLHEAAG@height?$AA@ 00000001800399fc     NodeRtUtils.obj
 0002:00006a04       ??_C@_04GOOOJOPP@left?$AA@ 0000000180039a04     NodeRtUtils.obj
 0002:00006a0c       ??_C@_05DHJDAOHK@right?$AA@ 0000000180039a0c     NodeRtUtils.obj
 0002:00006a14       ??_C@_03FGFCOCMD@top?$AA@  0000000180039a14     NodeRtUtils.obj
 0002:00006a18       ??_C@_05IGKADHGO@width?$AA@ 0000000180039a18     NodeRtUtils.obj
 0002:00006a20       ??_C@_01FJMABOPO@x?$AA@    0000000180039a20     NodeRtUtils.obj
 0002:00006a24       ??_C@_01EANLCPLP@y?$AA@    0000000180039a24     NodeRtUtils.obj
 0002:00006a28       ??_C@_1CE@DGFPJLOL@?$AAW?$AAi?$AAn?$AAd?$AAo?$AAw?$AAs?$AA?4?$AAU?$AAI?$AA?4?$AAC?$AAo?$AAl?$AAo?$AAr?$AAs?$AA?$AA@ 0000000180039a28     NodeRtUtils.obj
 0002:00006a58       ??_C@_0BI@CFPLBAOH@invalid?5string?5position?$AA@ 0000000180039a58     NodeRtUtils.obj
 0002:00006a78       __real@40c3880000000000    0000000180039a78     NodeRtUtils.obj
 0002:00006a88       __real@42a52e616cd00000    0000000180039a88     NodeRtUtils.obj
 0002:00006b88       ??_C@_0O@CPBGCLBG@OpaqueWrapper?$AA@ 0000000180039b88     OpaqueWrapper.obj
 0002:00006b98       ??_C@_08HCOMDCCD@iojs?4exe?$AA@ 0000000180039b98     win_delay_load_hook.obj
 0002:00006ba8       ??_C@_08JDDNMFDB@node?4exe?$AA@ 0000000180039ba8     win_delay_load_hook.obj
 0002:00006bc0       __sz_node_exe              0000000180039bc0     node:node.exe
 0002:00006bd0       ??_C@_1BI@IDAOOPDH@?$AAc?$AAo?$AAm?$AAb?$AAa?$AAs?$AAe?$AA?4?$AAd?$AAl?$AAl?$AA?$AA@ 0000000180039bd0     vccorlib:init.obj
 0002:00006bf0       ??_C@_0BH@KOLHPPML@RoReportUnhandledError?$AA@ 0000000180039bf0     vccorlib:init.obj
 0002:00006c18       ??_7type_info@@6B@         0000000180039c18     MSVCRT:std_type_info_static.obj
 0002:00006c28       ??_C@_1BK@MGMFAEKH@?$AAk?$AAe?$AAr?$AAn?$AAe?$AAl?$AA3?$AA2?$AA?4?$AAd?$AAl?$AAl?$AA?$AA@ 0000000180039c28     MSVCRT:thread_safe_statics.obj
 0002:00006c48       ??_C@_0BM@HLJJNPAH@InitializeConditionVariable?$AA@ 0000000180039c48     MSVCRT:thread_safe_statics.obj
 0002:00006c70       ??_C@_0BJ@JEBJOJFJ@SleepConditionVariableCS?$AA@ 0000000180039c70     MSVCRT:thread_safe_statics.obj
 0002:00006c90       ??_C@_0BJ@PGPPEPCC@WakeAllConditionVariable?$AA@ 0000000180039c90     MSVCRT:thread_safe_statics.obj
 0002:00006cb0       _pRawDllMain               0000000180039cb0     MSVCRT:dll_dllmain.obj
 0002:00006cb0       _pDefaultRawDllMain        0000000180039cb0     MSVCRT:dll_dllmain.obj
 0002:00006cc8       ??_7exception@std@@6B@     0000000180039cc8     MSVCRT:throw_bad_alloc.obj
 0002:00006ce0       ??_C@_0BC@EOODALEL@Unknown?5exception?$AA@ 0000000180039ce0     MSVCRT:throw_bad_alloc.obj
 0002:00006d00       ??_7bad_alloc@std@@6B@     0000000180039d00     MSVCRT:throw_bad_alloc.obj
 0002:00006d18       ??_C@_0P@GHFPNOJB@bad?5allocation?$AA@ 0000000180039d18     MSVCRT:throw_bad_alloc.obj
 0002:00006d38       ??_7bad_array_new_length@std@@6B@ 0000000180039d38     MSVCRT:throw_bad_alloc.obj
 0002:00006d50       ??_C@_0BF@KINCDENJ@bad?5array?5new?5length?$AA@ 0000000180039d50     MSVCRT:throw_bad_alloc.obj
 0002:00006d88       ??_C@_1BK@DBDEIDLH@?$AAK?$AAE?$AAR?$AAN?$AAE?$AAL?$AA3?$AA2?$AA?4?$AAD?$AAL?$AAL?$AA?$AA@ 0000000180039d88     DelayImp:delayhlp.obj
 0002:00006da8       ??_C@_0BI@OMNLIJDB@AcquireSRWLockExclusive?$AA@ 0000000180039da8     DelayImp:delayhlp.obj
 0002:00006dc8       ??_C@_0BI@HMIEPCNJ@ReleaseSRWLockExclusive?$AA@ 0000000180039dc8     DelayImp:delayhlp.obj
 0002:00006de8       __pfnDliFailureHook2       0000000180039de8     DelayImp:delayhk1.obj
 0002:00006e00       _load_config_used          0000000180039e00     MSVCRT:loadcfg.obj
 0002:00007128       _tls_used                  000000018003a128     MSVCRT:tlssup.obj
 0002:00007258       ??_R3ModuleBase@Details@WRL@Microsoft@@8 000000018003a258     vccorlib:init.obj
 0002:00007270       ??_R2ModuleBase@Details@WRL@Microsoft@@8 000000018003a270     vccorlib:init.obj
 0002:00007280       ??_R1A@?0A@EA@ModuleBase@Details@WRL@Microsoft@@8 000000018003a280     vccorlib:init.obj
 0002:000072b0       ??_R4InProcModule@Details@Platform@@6B?$Module@$04VInProcModule@Details@Platform@@@WRL@Microsoft@@@ 000000018003a2b0     vccorlib:init.obj
 0002:000072e0       ??_R3InProcModule@Details@Platform@@8 000000018003a2e0     vccorlib:init.obj
 0002:000072f8       ??_R2InProcModule@Details@Platform@@8 000000018003a2f8     vccorlib:init.obj
 0002:00007330       ??_R1A@?0A@EA@InProcModule@Details@Platform@@8 000000018003a330     vccorlib:init.obj
 0002:00007360       ??_R1A@?0A@EA@?$Module@$04VInProcModule@Details@Platform@@@WRL@Microsoft@@8 000000018003a360     vccorlib:init.obj
 0002:00007390       ??_R3?$Module@$04VInProcModule@Details@Platform@@@WRL@Microsoft@@8 000000018003a390     vccorlib:init.obj
 0002:000073a8       ??_R2?$Module@$04VInProcModule@Details@Platform@@@WRL@Microsoft@@8 000000018003a3a8     vccorlib:init.obj
 0002:000073d0       ??_R1A@?0A@EA@?$Module@$00VInProcModule@Details@Platform@@@WRL@Microsoft@@8 000000018003a3d0     vccorlib:init.obj
 0002:00007400       ??_R3?$Module@$00VInProcModule@Details@Platform@@@WRL@Microsoft@@8 000000018003a400     vccorlib:init.obj
 0002:00007418       ??_R2?$Module@$00VInProcModule@Details@Platform@@@WRL@Microsoft@@8 000000018003a418     vccorlib:init.obj
 0002:00007430       ??_R17?0A@EA@__abi_Module@@8 000000018003a430     vccorlib:init.obj
 0002:00007460       ??_R3__abi_Module@@8       000000018003a460     vccorlib:init.obj
 0002:00007478       ??_R2__abi_Module@@8       000000018003a478     vccorlib:init.obj
 0002:00007488       ??_R1A@?0A@EA@__abi_Module@@8 000000018003a488     vccorlib:init.obj
 0002:000074b8       ??_R4InProcModule@Details@Platform@@6B__abi_Module@@@ 000000018003a4b8     vccorlib:init.obj
 0002:000074e8       ??_R4?$Module@$04VInProcModule@Details@Platform@@@WRL@Microsoft@@6B@ 000000018003a4e8     vccorlib:init.obj
 0002:00007518       ??_R4?$Module@$00VInProcModule@Details@Platform@@@WRL@Microsoft@@6B@ 000000018003a518     vccorlib:init.obj
 0002:00007548       ??_R4type_info@@6B@        000000018003a548     MSVCRT:std_type_info_static.obj
 0002:00007578       ??_R3type_info@@8          000000018003a578     MSVCRT:std_type_info_static.obj
 0002:00007590       ??_R2type_info@@8          000000018003a590     MSVCRT:std_type_info_static.obj
 0002:000075a0       ??_R1A@?0A@EA@type_info@@8 000000018003a5a0     MSVCRT:std_type_info_static.obj
 0002:000075d0       ??_R4exception@std@@6B@    000000018003a5d0     MSVCRT:throw_bad_alloc.obj
 0002:00007600       ??_R3exception@std@@8      000000018003a600     MSVCRT:throw_bad_alloc.obj
 0002:00007618       ??_R2exception@std@@8      000000018003a618     MSVCRT:throw_bad_alloc.obj
 0002:00007628       ??_R1A@?0A@EA@exception@std@@8 000000018003a628     MSVCRT:throw_bad_alloc.obj
 0002:00007658       ??_R4bad_alloc@std@@6B@    000000018003a658     MSVCRT:throw_bad_alloc.obj
 0002:00007688       ??_R3bad_alloc@std@@8      000000018003a688     MSVCRT:throw_bad_alloc.obj
 0002:000076a0       ??_R2bad_alloc@std@@8      000000018003a6a0     MSVCRT:throw_bad_alloc.obj
 0002:000076b8       ??_R1A@?0A@EA@bad_alloc@std@@8 000000018003a6b8     MSVCRT:throw_bad_alloc.obj
 0002:000076e8       ??_R4bad_array_new_length@std@@6B@ 000000018003a6e8     MSVCRT:throw_bad_alloc.obj
 0002:00007718       ??_R3bad_array_new_length@std@@8 000000018003a718     MSVCRT:throw_bad_alloc.obj
 0002:00007730       ??_R2bad_array_new_length@std@@8 000000018003a730     MSVCRT:throw_bad_alloc.obj
 0002:00007758       ??_R1A@?0A@EA@bad_array_new_length@std@@8 000000018003a758     MSVCRT:throw_bad_alloc.obj
 0002:00007a68       __rtc_iaa                  000000018003aa68     MSVCRT:_initsect_.obj
 0002:00007b78       __rtc_izz                  000000018003ab78     MSVCRT:_initsect_.obj
 0002:00007c88       __rtc_taa                  000000018003ac88     MSVCRT:_initsect_.obj
 0002:00007d98       __rtc_tzz                  000000018003ad98     MSVCRT:_initsect_.obj
 0002:00012700       _CT??_R0PE$AAVCOMException@Platform@@@88 0000000180045700     _nodert_generated.obj
 0002:00012728       _CT??_R0PE$AAVException@Platform@@@88 0000000180045728     _nodert_generated.obj
 0002:00012750       _CT??_R0PE$AAVObject@Platform@@@88 0000000180045750     _nodert_generated.obj
 0002:00012778       _CT??_R0PE$AAUIPrintable@Details@Platform@@@888 0000000180045778     _nodert_generated.obj
 0002:000127a0       _CT??_R0PE$AAVObject@Platform@@@888 00000001800457a0     _nodert_generated.obj
 0002:000127c8       _CT??_R0PE$AAUIEquatable@Details@Platform@@@8816 00000001800457c8     _nodert_generated.obj
 0002:000127f0       _CT??_R0PE$AAVObject@Platform@@@8816 00000001800457f0     _nodert_generated.obj
 0002:00012818       _CT??_R0PE$AAUIDisposable@Platform@@@8824 0000000180045818     _nodert_generated.obj
 0002:00012840       _CT??_R0PE$AAVObject@Platform@@@8824 0000000180045840     _nodert_generated.obj
 0002:00012868       _CT??_R0PEAX@88            0000000180045868     _nodert_generated.obj
 0002:00012890       _TI11PE$AAVNullReferenceException@Platform@@ 0000000180045890     _nodert_generated.obj
 0002:000128b0       _CTA11PE$AAVNullReferenceException@Platform@@ 00000001800458b0     _nodert_generated.obj
 0002:00012918       _CT??_R0PE$AAVNullReferenceException@Platform@@@88 0000000180045918     _nodert_generated.obj
 0002:00012940       _TI9PE$AAVException@Platform@@ 0000000180045940     _nodert_generated.obj
 0002:00012960       _CTA9PE$AAVException@Platform@@ 0000000180045960     _nodert_generated.obj
 0002:000129b8       _TI2?AVbad_alloc@std@@     00000001800459b8     MSVCRT:throw_bad_alloc.obj
 0002:000129d8       _CTA2?AVbad_alloc@std@@    00000001800459d8     MSVCRT:throw_bad_alloc.obj
 0002:000129f0       _CT??_R0?AVbad_alloc@std@@@8??0bad_alloc@std@@QEAA@AEBV01@@Z24 00000001800459f0     MSVCRT:throw_bad_alloc.obj
 0002:00012a18       _CT??_R0?AVexception@std@@@8??0exception@std@@QEAA@AEBV01@@Z24 0000000180045a18     MSVCRT:throw_bad_alloc.obj
 0002:00012a40       _TI3?AVbad_array_new_length@std@@ 0000000180045a40     MSVCRT:throw_bad_alloc.obj
 0002:00012a60       _CTA3?AVbad_array_new_length@std@@ 0000000180045a60     MSVCRT:throw_bad_alloc.obj
 0002:00012a80       _CT??_R0?AVbad_array_new_length@std@@@8??0bad_array_new_length@std@@QEAA@AEBV01@@Z24 0000000180045a80     MSVCRT:throw_bad_alloc.obj
 0003:00000040       ?REGISTRATION_TOKEN_MAP_PROPERTY_NAME@@3PEBDEB 0000000180046040     _nodert_generated.obj
 0003:00000058       ?__forceInstantiate1@@3PEAXEA 0000000180046058     _nodert_generated.obj
 0003:00000068       ??_7?$_Func_impl@V<lambda_bf7f2b711a6b55b30dfb35db79500e56>@@V?$allocator@H@std@@_NV?$Local@VValue@v8@@@v8@@@std@@6B@ 0000000180046068     _nodert_generated.obj
 0003:000000a8       ??_7?$_Func_base@_NV?$Local@VValue@v8@@@v8@@@std@@6B@ 00000001800460a8     _nodert_generated.obj
 0003:000000e8       ??_7__abi_CaptureBase@Details@Platform@@6B@ 00000001800460e8     _nodert_generated.obj
 0003:000000f8       ??_7exception@stdext@@6B@  00000001800460f8     _nodert_generated.obj
 0003:00000118       ??_7bad_weak_ptr@std@@6B@  0000000180046118     _nodert_generated.obj
 0003:00000138       ??_7_Ref_count_base@std@@6B@ 0000000180046138     _nodert_generated.obj
 0003:00000160       ??_7runtime_error@std@@6B@ 0000000180046160     _nodert_generated.obj
 0003:00000180       ??_7ObjectWrap@Nan@@6B@    0000000180046180     _nodert_generated.obj
 0003:000001a0       ??_7invalid_operation@Concurrency@@6B@ 00000001800461a0     _nodert_generated.obj
 0003:000001c0       ??_7task_canceled@Concurrency@@6B@ 00000001800461c0     _nodert_generated.obj
 0003:000001e0       ??_7_DefaultPPLTaskScheduler@details@Concurrency@@6B@ 00000001800461e0     _nodert_generated.obj
 0003:000001f0       ??_7_RefCounter@details@Concurrency@@6B@ 00000001800461f0     _nodert_generated.obj
 0003:00000208       ??_7_CancellationTokenRegistration@details@Concurrency@@6B@ 0000000180046208     _nodert_generated.obj
 0003:00000228       ??_7_TaskProcHandle@details@Concurrency@@6B@ 0000000180046228     _nodert_generated.obj
 0003:00000240       ??_7_ContinuationTaskHandleBase@details@Concurrency@@6B@ 0000000180046240     _nodert_generated.obj
 0003:00000260       ??_7_Task_impl_base@details@Concurrency@@6B@ 0000000180046260     _nodert_generated.obj
 0003:00000278       ??_7?$_CancellationTokenCallback@V<lambda_be3e5d9dce35d2c8dbfa8485373731d5>@@@details@Concurrency@@6B@ 0000000180046278     _nodert_generated.obj
 0003:00000298       ??_7?$_Task_impl@E@details@Concurrency@@6B@ 0000000180046298     _nodert_generated.obj
 0003:000002b0       ??_7WrapperBase@NodeRT@@6B@ 00000001800462b0     _nodert_generated.obj
 0003:000002d8       ??_7TokenData@Async@NodeUtils@@6B@ 00000001800462d8     _nodert_generated.obj
 0003:000002e8       ??_7Radio@Radios@Devices@Windows@NodeRT@@6B@ 00000001800462e8     _nodert_generated.obj
 0003:00000310       ??_7?$TypedEventHandler@PE$AAVRadio@Radios@Devices@Windows@@PE$AAVObject@Platform@@@Foundation@Windows@@6B__abi_IUnknown@@@ 0000000180046310     _nodert_generated.obj
 0003:00000340       ??_7?$TypedEventHandler@PE$AAVRadio@Radios@Devices@Windows@@PE$AAVObject@Platform@@@Foundation@Windows@@6BObject@Platform@@@ 0000000180046340     _nodert_generated.obj
 0003:00000380       ??_7?$TypedEventHandler@PE$AAVRadio@Radios@Devices@Windows@@PE$AAVObject@Platform@@@Foundation@Windows@@6B@ 0000000180046380     _nodert_generated.obj
 0003:000003c0       ??_7?$VectorViewWrapper@PE$AAVRadio@Radios@Devices@Windows@@@Collections@NodeRT@@6B@ 00000001800463c0     _nodert_generated.obj
 0003:000003e8       ??_7?$_Task_impl@PE$AAVRadio@Radios@Devices@Windows@@@details@Concurrency@@6B@ 00000001800463e8     _nodert_generated.obj
 0003:00000400       ??_7?$_Task_impl@PE$AAU?$IVectorView@PE$AAVRadio@Radios@Devices@Windows@@@Collections@Foundation@Windows@@@details@Concurrency@@6B@ 0000000180046400     _nodert_generated.obj
 0003:00000418       ??_7?$_Task_impl@W4RadioAccessStatus@Radios@Devices@Windows@@@details@Concurrency@@6B@ 0000000180046418     _nodert_generated.obj
 0003:00000430       ??_7?$_Func_base@XHPEAV?$Local@VValue@v8@@@v8@@@std@@6B@ 0000000180046430     _nodert_generated.obj
 0003:00000470       ??_7?$_Func_base@XV?$function@$$A6AXHPEAV?$Local@VValue@v8@@@v8@@@Z@std@@@std@@6B@ 0000000180046470     _nodert_generated.obj
 0003:000004b0       ??_7?$_Func_base@X$$V@std@@6B@ 00000001800464b0     _nodert_generated.obj
 0003:000004f0       ??_7?$_Func_base@PE$AAVRadio@Radios@Devices@Windows@@V?$Local@VValue@v8@@@v8@@@std@@6B@ 00000001800464f0     _nodert_generated.obj
 0003:00000530       ??_7?$_Func_base@V?$Local@VValue@v8@@@v8@@PE$AAVRadio@Radios@Devices@Windows@@@std@@6B@ 0000000180046530     _nodert_generated.obj
 0003:00000570       ??_7?$IteratorWrapper@PE$AAVRadio@Radios@Devices@Windows@@@Collections@NodeRT@@6B@ 0000000180046570     _nodert_generated.obj
 0003:00000598       ??_7?$_Ref_count_obj@U_ExceptionHolder@details@Concurrency@@@std@@6B@ 0000000180046598     _nodert_generated.obj
 0003:000005c0       ??_7?$__abi_FunctorCapture@V<lambda_fa493edce1d787976b8ef791772f712d>@@XPE$AAVRadio@Radios@Devices@Windows@@PE$AAVObject@Platform@@@Details@Platform@@6B@ 00000001800465c0     _nodert_generated.obj
 0003:000005d8       ??_7?$_Ref_count_obj@U?$_Task_impl@E@details@Concurrency@@@std@@6B@ 00000001800465d8     _nodert_generated.obj
 0003:00000600       ??_7?$_Func_base@XV?$task@PE$AAVRadio@Radios@Devices@Windows@@@Concurrency@@@std@@6B@ 0000000180046600     _nodert_generated.obj
 0003:00000640       ??_7?$_Func_base@XV?$task@PE$AAU?$IVectorView@PE$AAVRadio@Radios@Devices@Windows@@@Collections@Foundation@Windows@@@Concurrency@@@std@@6B@ 0000000180046640     _nodert_generated.obj
 0003:00000680       ??_7?$_Func_base@XV?$task@W4RadioAccessStatus@Radios@Devices@Windows@@@Concurrency@@@std@@6B@ 0000000180046680     _nodert_generated.obj
 0003:000006c0       ??_7?$_PPLTaskHandle@EU?$_ContinuationTaskHandle@W4RadioAccessStatus@Radios@Devices@Windows@@XV?$function@$$A6AXV?$task@W4RadioAccessStatus@Radios@Devices@Windows@@@Concurrency@@@Z@std@@U?$integral_constant@_N$00@6@U_TypeSelectorNoAsync@details@Concurrency@@@?$task@W4RadioAccessStatus@Radios@Devices@Windows@@@Concurrency@@U_ContinuationTaskHandleBase@details@3@@details@Concurrency@@6B@ 00000001800466c0     _nodert_generated.obj
 0003:000006e0       ??_7?$_ContinuationTaskHandle@W4RadioAccessStatus@Radios@Devices@Windows@@XV?$function@$$A6AXV?$task@W4RadioAccessStatus@Radios@Devices@Windows@@@Concurrency@@@Z@std@@U?$integral_constant@_N$00@6@U_TypeSelectorNoAsync@details@Concurrency@@@?$task@W4RadioAccessStatus@Radios@Devices@Windows@@@Concurrency@@6B@ 00000001800466e0     _nodert_generated.obj
 0003:00000700       ??_7?$_PPLTaskHandle@EU?$_ContinuationTaskHandle@PE$AAU?$IVectorView@PE$AAVRadio@Radios@Devices@Windows@@@Collections@Foundation@Windows@@XV?$function@$$A6AXV?$task@PE$AAU?$IVectorView@PE$AAVRadio@Radios@Devices@Windows@@@Collections@Foundation@Windows@@@Concurrency@@@Z@std@@U?$integral_constant@_N$00@6@U_TypeSelectorNoAsync@details@Concurrency@@@?$task@PE$AAU?$IVectorView@PE$AAVRadio@Radios@Devices@Windows@@@Collections@Foundation@Windows@@@Concurrency@@U_ContinuationTaskHandleBase@details@3@@details@Concurrency@@6B@ 0000000180046700     _nodert_generated.obj
 0003:00000720       ??_7?$_ContinuationTaskHandle@PE$AAU?$IVectorView@PE$AAVRadio@Radios@Devices@Windows@@@Collections@Foundation@Windows@@XV?$function@$$A6AXV?$task@PE$AAU?$IVectorView@PE$AAVRadio@Radios@Devices@Windows@@@Collections@Foundation@Windows@@@Concurrency@@@Z@std@@U?$integral_constant@_N$00@6@U_TypeSelectorNoAsync@details@Concurrency@@@?$task@PE$AAU?$IVectorView@PE$AAVRadio@Radios@Devices@Windows@@@Collections@Foundation@Windows@@@Concurrency@@6B@ 0000000180046720     _nodert_generated.obj
 0003:00000740       ??_7?$_PPLTaskHandle@EU?$_ContinuationTaskHandle@PE$AAVRadio@Radios@Devices@Windows@@XV?$function@$$A6AXV?$task@PE$AAVRadio@Radios@Devices@Windows@@@Concurrency@@@Z@std@@U?$integral_constant@_N$00@6@U_TypeSelectorNoAsync@details@Concurrency@@@?$task@PE$AAVRadio@Radios@Devices@Windows@@@Concurrency@@U_ContinuationTaskHandleBase@details@3@@details@Concurrency@@6B@ 0000000180046740     _nodert_generated.obj
 0003:00000760       ??_7?$_ContinuationTaskHandle@PE$AAVRadio@Radios@Devices@Windows@@XV?$function@$$A6AXV?$task@PE$AAVRadio@Radios@Devices@Windows@@@Concurrency@@@Z@std@@U?$integral_constant@_N$00@6@U_TypeSelectorNoAsync@details@Concurrency@@@?$task@PE$AAVRadio@Radios@Devices@Windows@@@Concurrency@@6B@ 0000000180046760     _nodert_generated.obj
 0003:00000780       ??_7?$_Ref_count_del@V?$Persistent@VObject@v8@@V?$NonCopyablePersistentTraits@VObject@v8@@@2@@Nan@@V<lambda_7ce441e15ae9de863eea1ca9a10cae26>@@@std@@6B@ 0000000180046780     _nodert_generated.obj
 0003:000007a8       ??_7?$_Func_base@EV?$task@W4RadioAccessStatus@Radios@Devices@Windows@@@Concurrency@@@std@@6B@ 00000001800467a8     _nodert_generated.obj
 0003:000007e8       ??_7?$_Func_base@EV?$task@PE$AAU?$IVectorView@PE$AAVRadio@Radios@Devices@Windows@@@Collections@Foundation@Windows@@@Concurrency@@@std@@6B@ 00000001800467e8     _nodert_generated.obj
 0003:00000828       ??_7?$_Func_base@EV?$task@PE$AAVRadio@Radios@Devices@Windows@@@Concurrency@@@std@@6B@ 0000000180046828     _nodert_generated.obj
 0003:00000868       ??_7?$_Func_impl@V<lambda_f25c37099038263181b5186a3fa41b37>@@V?$allocator@H@std@@X$$V@std@@6B@ 0000000180046868     _nodert_generated.obj
 0003:000008a8       ??_7?$_Func_impl@V<lambda_ee2800ccd2b011420c5de0c63356449b>@@V?$allocator@H@std@@X$$V@std@@6B@ 00000001800468a8     _nodert_generated.obj
 0003:000008e8       ??_7?$_Func_impl@V<lambda_1af583cf6945007177c61d87505abd8e>@@V?$allocator@H@std@@XHPEAV?$Local@VValue@v8@@@v8@@@std@@6B@ 00000001800468e8     _nodert_generated.obj
 0003:00000928       ??_7?$_Func_impl@V<lambda_fc55a96778b695da9907353a9fdacbca>@@V?$allocator@H@std@@X$$V@std@@6B@ 0000000180046928     _nodert_generated.obj
 0003:00000968       ??_7?$_Func_impl@V<lambda_bd8db8e132653ed2b09381d83d27b969>@@V?$allocator@H@std@@XV?$function@$$A6AXHPEAV?$Local@VValue@v8@@@v8@@@Z@3@@std@@6B@ 0000000180046968     _nodert_generated.obj
 0003:000009a8       ??_7?$_Func_impl@V<lambda_923cdb2d6b6e10951a75b3af8d001269>@@V?$allocator@H@std@@XV?$function@$$A6AXHPEAV?$Local@VValue@v8@@@v8@@@Z@3@@std@@6B@ 00000001800469a8     _nodert_generated.obj
 0003:000009e8       ??_7?$_Func_impl@V<lambda_b053cd760f99e9a3b5b0a75bc506816c>@@V?$allocator@H@std@@V?$Local@VValue@v8@@@v8@@PE$AAVRadio@Radios@Devices@Windows@@@std@@6B@ 00000001800469e8     _nodert_generated.obj
 0003:00000a28       ??_7?$_Func_impl@V<lambda_9054500f7a0d601079f2287918e4d694>@@V?$allocator@H@std@@_NV?$Local@VValue@v8@@@v8@@@std@@6B@ 0000000180046a28     _nodert_generated.obj
 0003:00000a68       ??_7?$_Func_impl@V<lambda_c806722195bf1298f17615890da7d503>@@V?$allocator@H@std@@PE$AAVRadio@Radios@Devices@Windows@@V?$Local@VValue@v8@@@v8@@@std@@6B@ 0000000180046a68     _nodert_generated.obj
 0003:00000aa8       ??_7?$_Func_impl@V<lambda_332ba2b9435369ab76e287351a81320b>@@V?$allocator@H@std@@XV?$function@$$A6AXHPEAV?$Local@VValue@v8@@@v8@@@Z@3@@std@@6B@ 0000000180046aa8     _nodert_generated.obj
 0003:00000ae8       ??_7?$_Func_impl@V<lambda_6e721a9cc44c44771ffaa71ba9f88df1>@@V?$allocator@H@std@@XV?$function@$$A6AXHPEAV?$Local@VValue@v8@@@v8@@@Z@3@@std@@6B@ 0000000180046ae8     _nodert_generated.obj
 0003:00000b28       ??_7?$_Func_impl@V<lambda_937a019cbae5299c9ee089aacd8953b7>@@V?$allocator@H@std@@XV?$function@$$A6AXHPEAV?$Local@VValue@v8@@@v8@@@Z@3@@std@@6B@ 0000000180046b28     _nodert_generated.obj
 0003:00000b68       ??_7?$_Func_impl@V<lambda_1410bf25c1f3e34acba1e87129c0b837>@@V?$allocator@H@std@@XV?$function@$$A6AXHPEAV?$Local@VValue@v8@@@v8@@@Z@3@@std@@6B@ 0000000180046b68     _nodert_generated.obj
 0003:00000ba8       ??_7?$_Func_impl@V<lambda_13c093ceb3cb7088042cb26732856e67>@@V?$allocator@H@std@@XV?$function@$$A6AXHPEAV?$Local@VValue@v8@@@v8@@@Z@3@@std@@6B@ 0000000180046ba8     _nodert_generated.obj
 0003:00000be8       ??_7?$_Func_impl@V<lambda_be5e2ae45d9afcdad4d6af170ce6b1a9>@@V?$allocator@H@std@@XV?$function@$$A6AXHPEAV?$Local@VValue@v8@@@v8@@@Z@3@@std@@6B@ 0000000180046be8     _nodert_generated.obj
 0003:00000c28       ??_7?$_Func_impl@V<lambda_fa74f712429373a3f78dc33742231903>@@V?$allocator@H@std@@X$$V@std@@6B@ 0000000180046c28     _nodert_generated.obj
 0003:00000c68       ??_7?$_Func_impl@V<lambda_86719af9e59bcf010981affea63e2ba5>@@V?$allocator@H@std@@X$$V@std@@6B@ 0000000180046c68     _nodert_generated.obj
 0003:00000ca8       ??_7?$_Func_impl@V<lambda_763529b0c7473cbc215a52d189ac9b18>@@V?$allocator@H@std@@X$$V@std@@6B@ 0000000180046ca8     _nodert_generated.obj
 0003:00000ce8       ??_7?$_Func_impl@V<lambda_ccd993006fa69c8498fa84abf616a650>@@V?$allocator@H@std@@X$$V@std@@6B@ 0000000180046ce8     _nodert_generated.obj
 0003:00000d28       ??_7?$_Func_impl@V<lambda_e9d83560961a0709c8983a5a76f54321>@@V?$allocator@H@std@@X$$V@std@@6B@ 0000000180046d28     _nodert_generated.obj
 0003:00000d68       ??_7?$_Func_impl@V<lambda_f65fe7dd5d5c7d6beb441784825294a0>@@V?$allocator@H@std@@X$$V@std@@6B@ 0000000180046d68     _nodert_generated.obj
 0003:00000da8       ??_7?$_Ref_count_obj@U?$_Task_impl@PE$AAVRadio@Radios@Devices@Windows@@@details@Concurrency@@@std@@6B@ 0000000180046da8     _nodert_generated.obj
 0003:00000dd0       ??_7?$_Ref_count_obj@U?$_Task_impl@PE$AAU?$IVectorView@PE$AAVRadio@Radios@Devices@Windows@@@Collections@Foundation@Windows@@@details@Concurrency@@@std@@6B@ 0000000180046dd0     _nodert_generated.obj
 0003:00000df8       ??_7?$_Ref_count_obj@U?$_Task_impl@W4RadioAccessStatus@Radios@Devices@Windows@@@details@Concurrency@@@std@@6B@ 0000000180046df8     _nodert_generated.obj
 0003:00000e20       ??_7?$_Func_impl@V<lambda_f62ce569bcbb190725394d954e43b37a>@@V?$allocator@H@std@@XV?$task@W4RadioAccessStatus@Radios@Devices@Windows@@@Concurrency@@@std@@6B@ 0000000180046e20     _nodert_generated.obj
 0003:00000e60       ??_7?$_Func_impl@V<lambda_6b3d546cb33cb2be9b0a401ff7fba40f>@@V?$allocator@H@std@@XV?$task@PE$AAU?$IVectorView@PE$AAVRadio@Radios@Devices@Windows@@@Collections@Foundation@Windows@@@Concurrency@@@std@@6B@ 0000000180046e60     _nodert_generated.obj
 0003:00000ea0       ??_7?$_Func_impl@V<lambda_ae69dad4f0eec31d1194edef18f14e48>@@V?$allocator@H@std@@XV?$task@PE$AAVRadio@Radios@Devices@Windows@@@Concurrency@@@std@@6B@ 0000000180046ea0     _nodert_generated.obj
 0003:00000ee0       ??_7?$_Func_impl@V<lambda_84fe49f24ae8de4bd96cfe7e2e397527>@@V?$allocator@H@std@@XV?$task@W4RadioAccessStatus@Radios@Devices@Windows@@@Concurrency@@@std@@6B@ 0000000180046ee0     _nodert_generated.obj
 0003:00000f20       ??_7?$AsyncOperationCompletedHandler@PE$AAVRadio@Radios@Devices@Windows@@@Foundation@Windows@@6B__abi_IUnknown@@@ 0000000180046f20     _nodert_generated.obj
 0003:00000f50       ??_7?$AsyncOperationCompletedHandler@PE$AAVRadio@Radios@Devices@Windows@@@Foundation@Windows@@6BObject@Platform@@@ 0000000180046f50     _nodert_generated.obj
 0003:00000f90       ??_7?$AsyncOperationCompletedHandler@PE$AAVRadio@Radios@Devices@Windows@@@Foundation@Windows@@6B@ 0000000180046f90     _nodert_generated.obj
 0003:00000fd0       ??_7?$AsyncOperationCompletedHandler@PE$AAU?$IVectorView@PE$AAVRadio@Radios@Devices@Windows@@@Collections@Foundation@Windows@@@Foundation@Windows@@6B__abi_IUnknown@@@ 0000000180046fd0     _nodert_generated.obj
 0003:00001000       ??_7?$AsyncOperationCompletedHandler@PE$AAU?$IVectorView@PE$AAVRadio@Radios@Devices@Windows@@@Collections@Foundation@Windows@@@Foundation@Windows@@6BObject@Platform@@@ 0000000180047000     _nodert_generated.obj
 0003:00001040       ??_7?$AsyncOperationCompletedHandler@PE$AAU?$IVectorView@PE$AAVRadio@Radios@Devices@Windows@@@Collections@Foundation@Windows@@@Foundation@Windows@@6B@ 0000000180047040     _nodert_generated.obj
 0003:00001080       ??_7?$AsyncOperationCompletedHandler@W4RadioAccessStatus@Radios@Devices@Windows@@@Foundation@Windows@@6B__abi_IUnknown@@@ 0000000180047080     _nodert_generated.obj
 0003:000010b0       ??_7?$AsyncOperationCompletedHandler@W4RadioAccessStatus@Radios@Devices@Windows@@@Foundation@Windows@@6BObject@Platform@@@ 00000001800470b0     _nodert_generated.obj
 0003:000010f0       ??_7?$AsyncOperationCompletedHandler@W4RadioAccessStatus@Radios@Devices@Windows@@@Foundation@Windows@@6B@ 00000001800470f0     _nodert_generated.obj
 0003:00001130       ??_7?$__abi_FunctorCapture@V<lambda_4826e3b284b53b5a99fdf233406a9e9a>@@XPE$AAU?$IAsyncOperation@PE$AAVRadio@Radios@Devices@Windows@@@Foundation@Windows@@W4AsyncStatus@34@@Details@Platform@@6B@ 0000000180047130     _nodert_generated.obj
 0003:00001148       ??_7?$__abi_FunctorCapture@V<lambda_74b109aa04c410395ed1b84aaba96129>@@XPE$AAU?$IAsyncOperation@PE$AAU?$IVectorView@PE$AAVRadio@Radios@Devices@Windows@@@Collections@Foundation@Windows@@@Foundation@Windows@@W4AsyncStatus@34@@Details@Platform@@6B@ 0000000180047148     _nodert_generated.obj
 0003:00001160       ??_7?$__abi_FunctorCapture@V<lambda_76b0dc5acfdd88e398543629657656f2>@@XPE$AAU?$IAsyncOperation@W4RadioAccessStatus@Radios@Devices@Windows@@@Foundation@Windows@@W4AsyncStatus@34@@Details@Platform@@6B@ 0000000180047160     _nodert_generated.obj
 0003:00001178       ??_7?$_Func_impl@V<lambda_73163a669fe347e5c4e2d28c36c6f8ca>@@V?$allocator@H@std@@EV?$task@PE$AAVRadio@Radios@Devices@Windows@@@Concurrency@@@std@@6B@ 0000000180047178     _nodert_generated.obj
 0003:000011b8       ??_7?$_Func_impl@V<lambda_83ab8abb741bf007d1b5942dba04bfdd>@@V?$allocator@H@std@@EV?$task@PE$AAU?$IVectorView@PE$AAVRadio@Radios@Devices@Windows@@@Collections@Foundation@Windows@@@Concurrency@@@std@@6B@ 00000001800471b8     _nodert_generated.obj
 0003:000011f8       ??_7?$_Func_impl@V<lambda_199453e3251722af17cbed06cee0aa25>@@V?$allocator@H@std@@EV?$task@W4RadioAccessStatus@Radios@Devices@Windows@@@Concurrency@@@std@@6B@ 00000001800471f8     _nodert_generated.obj
 0003:00001238       ??_7?$_Func_impl@V<lambda_34c7f220960deee2386c1fdeeca0be56>@@V?$allocator@H@std@@X$$V@std@@6B@ 0000000180047238     _nodert_generated.obj
 0003:00001278       ??_7?$_Func_impl@V<lambda_e648a951913df07dc2c48aa4b13c28ad>@@V?$allocator@H@std@@X$$V@std@@6B@ 0000000180047278     _nodert_generated.obj
 0003:000012b8       ??_7?$_Func_impl@V<lambda_367e91ba48007cd85cfc48a94120f671>@@V?$allocator@H@std@@X$$V@std@@6B@ 00000001800472b8     _nodert_generated.obj
 0003:000012f8       ??_7OpaqueWrapper@NodeRT@@6B@ 00000001800472f8     OpaqueWrapper.obj
 0003:00001320       __pfnDliNotifyHook2        0000000180047320     win_delay_load_hook.obj
 0003:00001338       ??_7?$Module@$00VInProcModule@Details@Platform@@@WRL@Microsoft@@6B@ 0000000180047338     vccorlib:init.obj
 0003:000013b8       ??_7?$Module@$04VInProcModule@Details@Platform@@@WRL@Microsoft@@6B@ 00000001800473b8     vccorlib:init.obj
 0003:00001438       ??_7InProcModule@Details@Platform@@6B?$Module@$04VInProcModule@Details@Platform@@@WRL@Microsoft@@@ 0000000180047438     vccorlib:init.obj
 0003:000014b8       ??_7InProcModule@Details@Platform@@6B__abi_Module@@@ 00000001800474b8     vccorlib:init.obj
 0003:000014cc       __scrt_native_dllmain_reason 00000001800474cc     MSVCRT:utility.obj
 0003:000014d0       _Init_global_epoch         00000001800474d0     MSVCRT:thread_safe_statics.obj
 0003:000014e0       __security_cookie          00000001800474e0     MSVCRT:gs_cookie.obj
 0003:000014e8       __security_cookie_complement 00000001800474e8     MSVCRT:gs_cookie.obj
 0003:000014f4       _fltused                   00000001800474f4     MSVCRT:dllsupp.obj
 0003:000014f8       __isa_available            00000001800474f8     MSVCRT:_cpu_disp_.obj
 0003:000014fc       __isa_enabled              00000001800474fc     MSVCRT:_cpu_disp_.obj
 0003:00001500       __memcpy_nt_iters          0000000180047500     MSVCRT:_cpu_disp_.obj
 0003:00001510       __scrt_ucrt_dll_is_in_use  0000000180047510     MSVCRT:ucrt_stubs.obj
 0003:000016d0       ??_R0?AV<lambda_bf7f2b711a6b55b30dfb35db79500e56>@@@8 00000001800476d0     _nodert_generated.obj
 0003:00001720       ??_R0PE$AAVCOMException@Platform@@@8 0000000180047720     _nodert_generated.obj
 0003:00001758       ??_R0PE$AAVException@Platform@@@8 0000000180047758     _nodert_generated.obj
 0003:00001790       ??_R0PE$AAVObject@Platform@@@8 0000000180047790     _nodert_generated.obj
 0003:000017c8       ??_R0PE$AAUIPrintable@Details@Platform@@@8 00000001800477c8     _nodert_generated.obj
 0003:00001808       ??_R0PE$AAUIEquatable@Details@Platform@@@8 0000000180047808     _nodert_generated.obj
 0003:00001848       ??_R0PE$AAUIDisposable@Platform@@@8 0000000180047848     _nodert_generated.obj
 0003:00001880       ??_R0PEAX@8                0000000180047880     _nodert_generated.obj
 0003:000018a0       ??_R0PE$AAVNullReferenceException@Platform@@@8 00000001800478a0     _nodert_generated.obj
 0003:000018f0       ??_R0?AV<lambda_7ce441e15ae9de863eea1ca9a10cae26>@@@8 00000001800478f0     _nodert_generated.obj
 0003:00001940       ??_R0?AV<lambda_f65fe7dd5d5c7d6beb441784825294a0>@@@8 0000000180047940     _nodert_generated.obj
 0003:00001990       ??_R0?AV<lambda_e9d83560961a0709c8983a5a76f54321>@@@8 0000000180047990     _nodert_generated.obj
 0003:000019e0       ??_R0?AV<lambda_ccd993006fa69c8498fa84abf616a650>@@@8 00000001800479e0     _nodert_generated.obj
 0003:00001a30       ??_R0?AV<lambda_763529b0c7473cbc215a52d189ac9b18>@@@8 0000000180047a30     _nodert_generated.obj
 0003:00001a80       ??_R0?AV<lambda_86719af9e59bcf010981affea63e2ba5>@@@8 0000000180047a80     _nodert_generated.obj
 0003:00001ad0       ??_R0?AV<lambda_fa74f712429373a3f78dc33742231903>@@@8 0000000180047ad0     _nodert_generated.obj
 0003:00001b20       ??_R0?AV<lambda_be5e2ae45d9afcdad4d6af170ce6b1a9>@@@8 0000000180047b20     _nodert_generated.obj
 0003:00001b70       ??_R0?AV<lambda_13c093ceb3cb7088042cb26732856e67>@@@8 0000000180047b70     _nodert_generated.obj
 0003:00001bc0       ??_R0?AV<lambda_1410bf25c1f3e34acba1e87129c0b837>@@@8 0000000180047bc0     _nodert_generated.obj
 0003:00001c10       ??_R0?AV<lambda_937a019cbae5299c9ee089aacd8953b7>@@@8 0000000180047c10     _nodert_generated.obj
 0003:00001c60       ??_R0?AV<lambda_6e721a9cc44c44771ffaa71ba9f88df1>@@@8 0000000180047c60     _nodert_generated.obj
 0003:00001cb0       ??_R0?AV<lambda_332ba2b9435369ab76e287351a81320b>@@@8 0000000180047cb0     _nodert_generated.obj
 0003:00001d00       ??_R0?AV<lambda_c806722195bf1298f17615890da7d503>@@@8 0000000180047d00     _nodert_generated.obj
 0003:00001d50       ??_R0?AV<lambda_9054500f7a0d601079f2287918e4d694>@@@8 0000000180047d50     _nodert_generated.obj
 0003:00001da0       ??_R0?AV<lambda_b053cd760f99e9a3b5b0a75bc506816c>@@@8 0000000180047da0     _nodert_generated.obj
 0003:00001df0       ??_R0?AV<lambda_923cdb2d6b6e10951a75b3af8d001269>@@@8 0000000180047df0     _nodert_generated.obj
 0003:00001e40       ??_R0?AV<lambda_bd8db8e132653ed2b09381d83d27b969>@@@8 0000000180047e40     _nodert_generated.obj
 0003:00001e90       ??_R0?AV<lambda_fc55a96778b695da9907353a9fdacbca>@@@8 0000000180047e90     _nodert_generated.obj
 0003:00001ee0       ??_R0?AV<lambda_1af583cf6945007177c61d87505abd8e>@@@8 0000000180047ee0     _nodert_generated.obj
 0003:00001f30       ??_R0?AV<lambda_ee2800ccd2b011420c5de0c63356449b>@@@8 0000000180047f30     _nodert_generated.obj
 0003:00001f80       ??_R0?AV<lambda_f25c37099038263181b5186a3fa41b37>@@@8 0000000180047f80     _nodert_generated.obj
 0003:00001fd0       ??_R0?AV<lambda_84fe49f24ae8de4bd96cfe7e2e397527>@@@8 0000000180047fd0     _nodert_generated.obj
 0003:00002020       ??_R0?AV<lambda_ae69dad4f0eec31d1194edef18f14e48>@@@8 0000000180048020     _nodert_generated.obj
 0003:00002070       ??_R0?AV<lambda_6b3d546cb33cb2be9b0a401ff7fba40f>@@@8 0000000180048070     _nodert_generated.obj
 0003:000020c0       ??_R0?AV<lambda_f62ce569bcbb190725394d954e43b37a>@@@8 00000001800480c0     _nodert_generated.obj
 0003:00002110       ??_R0?AV<lambda_199453e3251722af17cbed06cee0aa25>@@@8 0000000180048110     _nodert_generated.obj
 0003:00002160       ??_R0?AV<lambda_83ab8abb741bf007d1b5942dba04bfdd>@@@8 0000000180048160     _nodert_generated.obj
 0003:000021b0       ??_R0?AV<lambda_73163a669fe347e5c4e2d28c36c6f8ca>@@@8 00000001800481b0     _nodert_generated.obj
 0003:00002200       ??_R0?AV<lambda_367e91ba48007cd85cfc48a94120f671>@@@8 0000000180048200     _nodert_generated.obj
 0003:00002250       ??_R0?AV<lambda_e648a951913df07dc2c48aa4b13c28ad>@@@8 0000000180048250     _nodert_generated.obj
 0003:000022a0       ??_R0?AV<lambda_34c7f220960deee2386c1fdeeca0be56>@@@8 00000001800482a0     _nodert_generated.obj
 0003:000022f0       ??_R0?AVModuleBase@Details@WRL@Microsoft@@@8 00000001800482f0     vccorlib:init.obj
 0003:00002338       ??_R0?AVInProcModule@Details@Platform@@@8 0000000180048338     vccorlib:init.obj
 0003:00002380       ??_R0?AV?$Module@$04VInProcModule@Details@Platform@@@WRL@Microsoft@@@8 0000000180048380     vccorlib:init.obj
 0003:000023f0       ??_R0?AV?$Module@$00VInProcModule@Details@Platform@@@WRL@Microsoft@@@8 00000001800483f0     vccorlib:init.obj
 0003:00002458       ??_R0?AU__abi_Module@@@8   0000000180048458     vccorlib:init.obj
 0003:00002488       ??_R0?AVtype_info@@@8      0000000180048488     MSVCRT:std_type_info_static.obj
 0003:000024b0       ??_R0?AVbad_alloc@std@@@8  00000001800484b0     MSVCRT:throw_bad_alloc.obj
 0003:000024e0       ??_R0?AVexception@std@@@8  00000001800484e0     MSVCRT:throw_bad_alloc.obj
 0003:00002510       ??_R0?AVbad_array_new_length@std@@@8 0000000180048510     MSVCRT:throw_bad_alloc.obj
 0003:000026a0       ?__abi_no_factory_cache@@3U__abi___FactoryCache@@A 00000001800486a0     _nodert_generated.obj
 0003:000026b8       ?__winrt_GUID_NULL@Platform@@3VGuid@1@A 00000001800486b8     _nodert_generated.obj
 0003:000026d0       ?_S_scheduler@?1??_GetStaticAmbientSchedulerRef@details@Concurrency@@YAAEAV?$shared_ptr@Uscheduler_interface@Concurrency@@@std@@XZ@4V45@A 00000001800486d0     _nodert_generated.obj
 0003:000026e4       ?$TSS0@?1??_GetStaticAmbientSchedulerRef@details@Concurrency@@YAAEAV?$shared_ptr@Uscheduler_interface@Concurrency@@@std@@XZ@4HA 00000001800486e4     _nodert_generated.obj
 0003:000026f0       ?g_keyProp@Collections@NodeRT@@3V?$Persistent@VString@v8@@V?$NonCopyablePersistentTraits@VString@v8@@@2@@Nan@@A 00000001800486f0     _nodert_generated.obj
 0003:000026f8       ?s_constructorTemplate@Radio@Radios@Devices@Windows@NodeRT@@0V?$Persistent@VFunctionTemplate@v8@@V?$NonCopyablePersistentTraits@VFunctionTemplate@v8@@@2@@Nan@@A 00000001800486f8     _nodert_generated.obj
 0003:00002700       ?g_valueProp@Collections@NodeRT@@3V?$Persistent@VString@v8@@V?$NonCopyablePersistentTraits@VString@v8@@@2@@Nan@@A 0000000180048700     _nodert_generated.obj
 0003:00002768       ?s_constructorTemplate@?$VectorViewWrapper@PE$AAVRadio@Radios@Devices@Windows@@@Collections@NodeRT@@0V?$Persistent@VFunctionTemplate@v8@@V?$NonCopyablePersistentTraits@VFunctionTemplate@v8@@@2@@Nan@@A 0000000180048768     _nodert_generated.obj
 0003:00002778       ?s_constructorTemplate@?$IteratorWrapper@PE$AAVRadio@Radios@Devices@Windows@@@Collections@NodeRT@@0V?$Persistent@VFunctionTemplate@v8@@V?$NonCopyablePersistentTraits@VFunctionTemplate@v8@@@2@@Nan@@A 0000000180048778     _nodert_generated.obj
 0003:00002788       ?s_constructorTemplate@OpaqueWrapper@NodeRT@@0V?$Persistent@VFunctionTemplate@v8@@V?$NonCopyablePersistentTraits@VFunctionTemplate@v8@@@2@@Nan@@A 0000000180048788     OpaqueWrapper.obj
 0003:00002798       __hmod__node_exe           0000000180048798     node:node.exe
 0003:000027a0       ?__abi___threading_model@@3HA 00000001800487a0     vccorlib:init.obj
 0003:000027a4       ?bTestedRoReportUnhandledError@@3HA 00000001800487a4     vccorlib:init.obj
 0003:000027a8       ?RoReportUnhandledErrorFunc@@3P6AJPEAUIRestrictedErrorInfo@@@ZEA 00000001800487a8     vccorlib:init.obj
 0003:000027b0       ?__abi_module@@3PEAU__abi_Module@@EA 00000001800487b0     vccorlib:init.obj
 0003:000027b8       ?module_@Details@Platform@@3AEAVInProcModule@12@EA 00000001800487b8     vccorlib:init.obj
 0003:000027c8       ?moduleLock_@ModuleBase@Details@WRL@Microsoft@@0PEAXEA 00000001800487c8     vccorlib:init.obj
 0003:000027d4       ?objectCount_@ModuleBase@Details@WRL@Microsoft@@1KC 00000001800487d4     vccorlib:init.obj
 0003:000027d8       ?module_@ModuleBase@Details@WRL@Microsoft@@2PEAV1234@EA 00000001800487d8     vccorlib:init.obj
 0003:000027e8       ?module@?1??Create@?$Module@$00VInProcModule@Details@Platform@@@WRL@Microsoft@@SAAEAVInProcModule@Details@Platform@@XZ@4V567@A 00000001800487e8     vccorlib:init.obj
 0003:000027fc       ??_B?1??Create@?$Module@$00VInProcModule@Details@Platform@@@WRL@Microsoft@@SAAEAVInProcModule@Details@Platform@@XZ@51 00000001800487fc     vccorlib:init.obj
 0003:00002800       __scrt_current_native_startup_state 0000000180048800     MSVCRT:utility.obj
 0003:00002808       __scrt_native_startup_lock 0000000180048808     MSVCRT:utility.obj
 0003:000028a8       _tls_index                 00000001800488a8     MSVCRT:tlssup.obj
 0003:000028b0       __favor                    00000001800488b0     MSVCRT:_cpu_disp_.obj
 0003:000028b4       __scrt_debugger_hook_flag  00000001800488b4     MSVCRT:utility_desktop.obj
 0003:00002f50       ?__type_info_root_node@@3U__type_info_node@@A 0000000180048f50     MSVCRT:tncleanup.obj
 0003:00002f68       ?_OptionsStorage@?1??__local_stdio_printf_options@@9@4_KA 0000000180048f68     MSVCRT:default_local_stdio_options.obj
 0003:00002f78       ?_OptionsStorage@?1??__local_stdio_scanf_options@@9@4_KA 0000000180048f78     MSVCRT:default_local_stdio_options.obj
 0003:00002f88       ?DloadKernel32@@3PEAUHINSTANCE__@@EA 0000000180048f88     DelayImp:delayhlp.obj
 0003:00002f90       ?DloadAcquireSRWLockExclusive@@3P6AXPEA_K@ZEA 0000000180048f90     DelayImp:delayhlp.obj
 0003:00002f98       ?DloadReleaseSRWLockExclusive@@3P6AXPEA_K@ZEA 0000000180048f98     DelayImp:delayhlp.obj
 0003:00002fa0       ?DloadSrwLock@@3_KA        0000000180048fa0     DelayImp:delayhlp.obj
 0003:00002fa8       ?DloadSectionLockCount@@3KA 0000000180048fa8     DelayImp:delayhlp.obj
 0003:00002fac       ?DloadSectionOldProtection@@3KA 0000000180048fac     DelayImp:delayhlp.obj
 0003:00002fb0       ?DloadSectionCommitPermanent@@3KA 0000000180048fb0     DelayImp:delayhlp.obj
 0003:00002fc0       __dyn_tls_init_callback    0000000180048fc0     <common>
 0005:00000000       __imp_GetModuleHandleA     000000018004d000     kernel32:KERNEL32.dll
 0005:00000008       __imp_FreeLibrary          000000018004d008     kernel32:KERNEL32.dll
 0005:00000010       __imp_VirtualQuery         000000018004d010     kernel32:KERNEL32.dll
 0005:00000018       __imp_VirtualProtect       000000018004d018     kernel32:KERNEL32.dll
 0005:00000020       __imp_GetSystemInfo        000000018004d020     kernel32:KERNEL32.dll
 0005:00000028       __imp_GetLastError         000000018004d028     kernel32:KERNEL32.dll
 0005:00000030       __imp_RaiseException       000000018004d030     kernel32:KERNEL32.dll
 0005:00000038       __imp_InitializeSListHead  000000018004d038     kernel32:KERNEL32.dll
 0005:00000040       __imp_DisableThreadLibraryCalls 000000018004d040     kernel32:KERNEL32.dll
 0005:00000048       __imp_GetSystemTimeAsFileTime 000000018004d048     kernel32:KERNEL32.dll
 0005:00000050       __imp_GetCurrentThreadId   000000018004d050     kernel32:KERNEL32.dll
 0005:00000058       __imp_GetCurrentProcessId  000000018004d058     kernel32:KERNEL32.dll
 0005:00000060       __imp_QueryPerformanceCounter 000000018004d060     kernel32:KERNEL32.dll
 0005:00000068       __imp_TerminateProcess     000000018004d068     kernel32:KERNEL32.dll
 0005:00000070       __imp_GetCurrentProcess    000000018004d070     kernel32:KERNEL32.dll
 0005:00000078       __imp_IsProcessorFeaturePresent 000000018004d078     kernel32:KERNEL32.dll
 0005:00000080       __imp_GetStartupInfoW      000000018004d080     kernel32:KERNEL32.dll
 0005:00000088       __imp_SetUnhandledExceptionFilter 000000018004d088     kernel32:KERNEL32.dll
 0005:00000090       __imp_UnhandledExceptionFilter 000000018004d090     kernel32:KERNEL32.dll
 0005:00000098       __imp_IsDebuggerPresent    000000018004d098     kernel32:KERNEL32.dll
 0005:000000a0       __imp_RtlVirtualUnwind     000000018004d0a0     kernel32:KERNEL32.dll
 0005:000000a8       __imp_RtlLookupFunctionEntry 000000018004d0a8     kernel32:KERNEL32.dll
 0005:000000b0       __imp_RtlCaptureContext    000000018004d0b0     kernel32:KERNEL32.dll
 0005:000000b8       __imp_GetModuleHandleW     000000018004d0b8     kernel32:KERNEL32.dll
 0005:000000c0       __imp_CreateEventW         000000018004d0c0     kernel32:KERNEL32.dll
 0005:000000c8       __imp_WaitForSingleObjectEx 000000018004d0c8     kernel32:KERNEL32.dll
 0005:000000d0       __imp_ResetEvent           000000018004d0d0     kernel32:KERNEL32.dll
 0005:000000d8       __imp_SetEvent             000000018004d0d8     kernel32:KERNEL32.dll
 0005:000000e0       __imp_DeleteCriticalSection 000000018004d0e0     kernel32:KERNEL32.dll
 0005:000000e8       __imp_LeaveCriticalSection 000000018004d0e8     kernel32:KERNEL32.dll
 0005:000000f0       __imp_EnterCriticalSection 000000018004d0f0     kernel32:KERNEL32.dll
 0005:000000f8       __imp_CloseHandle          000000018004d0f8     kernel32:KERNEL32.dll
 0005:00000100       __imp_LoadLibraryExW       000000018004d100     kernel32:KERNEL32.dll
 0005:00000108       __imp_GetProcAddress       000000018004d108     kernel32:KERNEL32.dll
 0005:00000110       __imp_AcquireSRWLockExclusive 000000018004d110     kernel32:KERNEL32.dll
 0005:00000118       __imp_ReleaseSRWLockExclusive 000000018004d118     kernel32:KERNEL32.dll
 0005:00000120       __imp_DecodePointer        000000018004d120     kernel32:KERNEL32.dll
 0005:00000128       __imp_LoadLibraryExA       000000018004d128     kernel32:KERNEL32.dll
 0005:00000130       \177KERNEL32_NULL_THUNK_DATA 000000018004d130     kernel32:KERNEL32.dll
 0005:000001c0       __imp_?_Assign@_ContextCallback@details@Concurrency@@AEAAXPEAX@Z 000000018004d1c0     msvcprt:MSVCP140.dll
 0005:000001c8       __imp_?_Xout_of_range@std@@YAXPEBD@Z 000000018004d1c8     msvcprt:MSVCP140.dll
 0005:000001d0       __imp_?_Raise_handler@std@@3P6AXAEBVexception@stdext@@@ZEA 000000018004d1d0     msvcprt:MSVCP140.dll
 0005:000001d8       __imp_?_IsNonBlockingThread@_Task_impl_base@details@Concurrency@@SA_NXZ 000000018004d1d8     msvcprt:MSVCP140.dll
 0005:000001e0       __imp_?_LogWorkItemCompleted@_TaskEventLogger@details@Concurrency@@QEAAXXZ 000000018004d1e0     msvcprt:MSVCP140.dll
 0005:000001e8       __imp_?_LogWorkItemStarted@_TaskEventLogger@details@Concurrency@@QEAAXXZ 000000018004d1e8     msvcprt:MSVCP140.dll
 0005:000001f0       __imp_?_LogTaskExecutionCompleted@_TaskEventLogger@details@Concurrency@@QEAAXXZ 000000018004d1f0     msvcprt:MSVCP140.dll
 0005:000001f8       __imp_?__ExceptionPtrCreate@@YAXPEAX@Z 000000018004d1f8     msvcprt:MSVCP140.dll
 0005:00000200       __imp_?__ExceptionPtrDestroy@@YAXPEAX@Z 000000018004d200     msvcprt:MSVCP140.dll
 0005:00000208       __imp_?__ExceptionPtrCopy@@YAXPEAXPEBX@Z 000000018004d208     msvcprt:MSVCP140.dll
 0005:00000210       __imp_?__ExceptionPtrCurrentException@@YAXPEAX@Z 000000018004d210     msvcprt:MSVCP140.dll
 0005:00000218       __imp_?__ExceptionPtrRethrow@@YAXPEBX@Z 000000018004d218     msvcprt:MSVCP140.dll
 0005:00000220       __imp_?__ExceptionPtrCopyException@@YAXPEAXPEBX1@Z 000000018004d220     msvcprt:MSVCP140.dll
 0005:00000228       __imp_?_Xbad_alloc@std@@YAXXZ 000000018004d228     msvcprt:MSVCP140.dll
 0005:00000230       __imp_?_Xlength_error@std@@YAXPEBD@Z 000000018004d230     msvcprt:MSVCP140.dll
 0005:00000238       __imp__Mtx_init_in_situ    000000018004d238     msvcprt:MSVCP140.dll
 0005:00000240       __imp__Mtx_destroy_in_situ 000000018004d240     msvcprt:MSVCP140.dll
 0005:00000248       __imp__Mtx_lock            000000018004d248     msvcprt:MSVCP140.dll
 0005:00000250       __imp__Mtx_unlock          000000018004d250     msvcprt:MSVCP140.dll
 0005:00000258       __imp__Cnd_init_in_situ    000000018004d258     msvcprt:MSVCP140.dll
 0005:00000260       __imp__Cnd_destroy_in_situ 000000018004d260     msvcprt:MSVCP140.dll
 0005:00000268       __imp__Cnd_wait            000000018004d268     msvcprt:MSVCP140.dll
 0005:00000270       __imp__Cnd_broadcast       000000018004d270     msvcprt:MSVCP140.dll
 0005:00000278       __imp_?_Throw_C_error@std@@YAXH@Z 000000018004d278     msvcprt:MSVCP140.dll
 0005:00000280       __imp_?_Xbad_function_call@std@@YAXXZ 000000018004d280     msvcprt:MSVCP140.dll
 0005:00000288       __imp_?_Schedule_chore@details@Concurrency@@YAHPEAU_Threadpool_chore@12@@Z 000000018004d288     msvcprt:MSVCP140.dll
 0005:00000290       __imp_?_Release_chore@details@Concurrency@@YAXPEAU_Threadpool_chore@12@@Z 000000018004d290     msvcprt:MSVCP140.dll
 0005:00000298       __imp_?_ReportUnobservedException@details@Concurrency@@YAXXZ 000000018004d298     msvcprt:MSVCP140.dll
 0005:000002a0       __imp_?GetCurrentThreadId@platform@details@Concurrency@@YAJXZ 000000018004d2a0     msvcprt:MSVCP140.dll
 0005:000002a8       __imp_?_CallInContext@_ContextCallback@details@Concurrency@@QEBAXV?$function@$$A6AXXZ@std@@_N@Z 000000018004d2a8     msvcprt:MSVCP140.dll
 0005:000002b0       __imp_?_Reset@_ContextCallback@details@Concurrency@@AEAAXXZ 000000018004d2b0     msvcprt:MSVCP140.dll
 0005:000002b8       __imp_?_LogTaskCompleted@_TaskEventLogger@details@Concurrency@@QEAAXXZ 000000018004d2b8     msvcprt:MSVCP140.dll
 0005:000002c0       __imp_?_IsCurrentOriginSTA@_ContextCallback@details@Concurrency@@CA_NXZ 000000018004d2c0     msvcprt:MSVCP140.dll
 0005:000002c8       __imp_?_Capture@_ContextCallback@details@Concurrency@@AEAAXXZ 000000018004d2c8     msvcprt:MSVCP140.dll
 0005:000002d0       __imp_?ReportUnhandledError@_ExceptionHolder@details@Concurrency@@AEAAXXZ 000000018004d2d0     msvcprt:MSVCP140.dll
 0005:000002d8       __imp_??0task_continuation_context@Concurrency@@AEAA@XZ 000000018004d2d8     msvcprt:MSVCP140.dll
 0005:000002e0       __imp_?_LogScheduleTask@_TaskEventLogger@details@Concurrency@@QEAAX_N@Z 000000018004d2e0     msvcprt:MSVCP140.dll
 0005:000002e8       __imp_?_LogCancelTask@_TaskEventLogger@details@Concurrency@@QEAAXXZ 000000018004d2e8     msvcprt:MSVCP140.dll
 0005:000002f0       \177MSVCP140_NULL_THUNK_DATA 000000018004d2f0     msvcprt:MSVCP140.dll
 0005:00000380       __imp___std_exception_copy 000000018004d380     vcruntime:VCRUNTIME140.dll
 0005:00000388       __imp___std_exception_destroy 000000018004d388     vcruntime:VCRUNTIME140.dll
 0005:00000390       __imp_memset               000000018004d390     vcruntime:VCRUNTIME140.dll
 0005:00000398       __imp___std_type_info_destroy_list 000000018004d398     vcruntime:VCRUNTIME140.dll
 0005:000003a0       __imp___vcrt_InitializeCriticalSectionEx 000000018004d3a0     vcruntime:VCRUNTIME140.dll
 0005:000003a8       __imp__purecall            000000018004d3a8     vcruntime:VCRUNTIME140.dll
 0005:000003b0       __imp___C_specific_handler 000000018004d3b0     vcruntime:VCRUNTIME140.dll
 0005:000003b8       __imp___std_terminate      000000018004d3b8     vcruntime:VCRUNTIME140.dll
 0005:000003c0       __imp_memmove              000000018004d3c0     vcruntime:VCRUNTIME140.dll
 0005:000003c8       __imp___std_type_info_compare 000000018004d3c8     vcruntime:VCRUNTIME140.dll
 0005:000003d0       __imp__CxxThrowException   000000018004d3d0     vcruntime:VCRUNTIME140.dll
 0005:000003d8       __imp___CxxFrameHandler3   000000018004d3d8     vcruntime:VCRUNTIME140.dll
 0005:000003e0       __imp_memcpy               000000018004d3e0     vcruntime:VCRUNTIME140.dll
 0005:000003e8       \177VCRUNTIME140_NULL_THUNK_DATA 000000018004d3e8     vcruntime:VCRUNTIME140.dll
 0005:00000450       __imp_RoFailFastWithErrorContext 000000018004d450     runtimeobject:api-ms-win-core-winrt-error-l1-1-0.dll
 0005:00000458       __imp_SetRestrictedErrorInfo 000000018004d458     runtimeobject:api-ms-win-core-winrt-error-l1-1-0.dll
 0005:00000460       \177api-ms-win-core-winrt-error-l1-1-0_NULL_THUNK_DATA 000000018004d460     runtimeobject:api-ms-win-core-winrt-error-l1-1-0.dll
 0005:000004b8       __imp_WindowsCompareStringOrdinal 000000018004d4b8     runtimeobject:api-ms-win-core-winrt-string-l1-1-0.dll
 0005:000004c0       __imp_WindowsGetStringRawBuffer 000000018004d4c0     runtimeobject:api-ms-win-core-winrt-string-l1-1-0.dll
 0005:000004c8       __imp_WindowsCreateString  000000018004d4c8     runtimeobject:api-ms-win-core-winrt-string-l1-1-0.dll
 0005:000004d0       __imp_WindowsDuplicateString 000000018004d4d0     runtimeobject:api-ms-win-core-winrt-string-l1-1-0.dll
 0005:000004d8       __imp_WindowsDeleteString  000000018004d4d8     runtimeobject:api-ms-win-core-winrt-string-l1-1-0.dll
 0005:000004e0       __imp_WindowsGetStringLen  000000018004d4e0     runtimeobject:api-ms-win-core-winrt-string-l1-1-0.dll
 0005:000004e8       \177api-ms-win-core-winrt-string-l1-1-0_NULL_THUNK_DATA 000000018004d4e8     runtimeobject:api-ms-win-core-winrt-string-l1-1-0.dll
 0005:00000548       __imp_free                 000000018004d548     ucrt:api-ms-win-crt-heap-l1-1-0.dll
 0005:00000550       __imp_malloc               000000018004d550     ucrt:api-ms-win-crt-heap-l1-1-0.dll
 0005:00000558       __imp__callnewh            000000018004d558     ucrt:api-ms-win-crt-heap-l1-1-0.dll
 0005:00000560       \177api-ms-win-crt-heap-l1-1-0_NULL_THUNK_DATA 000000018004d560     ucrt:api-ms-win-crt-heap-l1-1-0.dll
 0005:000005b8       __imp__initterm_e          000000018004d5b8     ucrt:api-ms-win-crt-runtime-l1-1-0.dll
 0005:000005c0       __imp__invoke_watson       000000018004d5c0     ucrt:api-ms-win-crt-runtime-l1-1-0.dll
 0005:000005c8       __imp__seh_filter_dll      000000018004d5c8     ucrt:api-ms-win-crt-runtime-l1-1-0.dll
 0005:000005d0       __imp__configure_narrow_argv 000000018004d5d0     ucrt:api-ms-win-crt-runtime-l1-1-0.dll
 0005:000005d8       __imp__initialize_narrow_environment 000000018004d5d8     ucrt:api-ms-win-crt-runtime-l1-1-0.dll
 0005:000005e0       __imp__initialize_onexit_table 000000018004d5e0     ucrt:api-ms-win-crt-runtime-l1-1-0.dll
 0005:000005e8       __imp__register_onexit_function 000000018004d5e8     ucrt:api-ms-win-crt-runtime-l1-1-0.dll
 0005:000005f0       __imp__execute_onexit_table 000000018004d5f0     ucrt:api-ms-win-crt-runtime-l1-1-0.dll
 0005:000005f8       __imp__crt_atexit          000000018004d5f8     ucrt:api-ms-win-crt-runtime-l1-1-0.dll
 0005:00000600       __imp__crt_at_quick_exit   000000018004d600     ucrt:api-ms-win-crt-runtime-l1-1-0.dll
 0005:00000608       __imp__cexit               000000018004d608     ucrt:api-ms-win-crt-runtime-l1-1-0.dll
 0005:00000610       __imp__initterm            000000018004d610     ucrt:api-ms-win-crt-runtime-l1-1-0.dll
 0005:00000618       __imp__wassert             000000018004d618     ucrt:api-ms-win-crt-runtime-l1-1-0.dll
 0005:00000620       __imp_terminate            000000018004d620     ucrt:api-ms-win-crt-runtime-l1-1-0.dll
 0005:00000628       __imp__invalid_parameter_noinfo_noreturn 000000018004d628     ucrt:api-ms-win-crt-runtime-l1-1-0.dll
 0005:00000630       \177api-ms-win-crt-runtime-l1-1-0_NULL_THUNK_DATA 000000018004d630     ucrt:api-ms-win-crt-runtime-l1-1-0.dll
 0005:000006a0       __imp__wcsnicmp            000000018004d6a0     ucrt:api-ms-win-crt-string-l1-1-0.dll
 0005:000006a8       __imp__stricmp             000000018004d6a8     ucrt:api-ms-win-crt-string-l1-1-0.dll
 0005:000006b0       __imp_wcslen               000000018004d6b0     ucrt:api-ms-win-crt-string-l1-1-0.dll
 0005:000006b8       \177api-ms-win-crt-string-l1-1-0_NULL_THUNK_DATA 000000018004d6b8     ucrt:api-ms-win-crt-string-l1-1-0.dll
 0005:00000710       __imp_StringFromCLSID      000000018004d710     ole32:ole32.dll
 0005:00000718       __imp_CoGetContextToken    000000018004d718     ole32:ole32.dll
 0005:00000720       __imp_CoTaskMemFree        000000018004d720     ole32:ole32.dll
 0005:00000728       __imp_CLSIDFromString      000000018004d728     ole32:ole32.dll
 0005:00000730       __imp_CoCreateFreeThreadedMarshaler 000000018004d730     ole32:ole32.dll
 0005:00000738       __imp_CoInitializeEx       000000018004d738     ole32:ole32.dll
 0005:00000740       \177ole32_NULL_THUNK_DATA  000000018004d740     ole32:ole32.dll
 0005:000007a0       __imp_?Free@Heap@Details@Platform@@SAXPEAX@Z 000000018004d7a0     vccorlib:vccorlib140.DLL
 0005:000007a8       __imp_?Allocate@Heap@Details@Platform@@SAPEAX_K0@Z 000000018004d7a8     vccorlib:vccorlib140.DLL
 0005:000007b0       __imp_?Allocate@Heap@Details@Platform@@SAPEAX_K@Z 000000018004d7b0     vccorlib:vccorlib140.DLL
 0005:000007b8       __imp_?ReleaseTarget@ControlBlock@Details@Platform@@AEAAXXZ 000000018004d7b8     vccorlib:vccorlib140.DLL
 0005:000007c0       __imp_?__abi_WinRTraiseCOMException@@YAXJ@Z 000000018004d7c0     vccorlib:vccorlib140.DLL
 0005:000007c8       __imp_?AlignedFree@Heap@Details@Platform@@SAXPEAX@Z 000000018004d7c8     vccorlib:vccorlib140.DLL
 0005:000007d0       __imp_?__abi_WinRTraiseDisconnectedException@@YAXXZ 000000018004d7d0     vccorlib:vccorlib140.DLL
 0005:000007d8       __imp_?__abi_WinRTraiseWrongThreadException@@YAXXZ 000000018004d7d8     vccorlib:vccorlib140.DLL
 0005:000007e0       __imp_?__abi_WinRTraiseClassNotRegisteredException@@YAXXZ 000000018004d7e0     vccorlib:vccorlib140.DLL
 0005:000007e8       __imp_?__abi_WinRTraiseChangedStateException@@YAXXZ 000000018004d7e8     vccorlib:vccorlib140.DLL
 0005:000007f0       __imp_?__abi_WinRTraiseOutOfBoundsException@@YAXXZ 000000018004d7f0     vccorlib:vccorlib140.DLL
 0005:000007f8       __imp_?__abi_WinRTraiseInvalidArgumentException@@YAXXZ 000000018004d7f8     vccorlib:vccorlib140.DLL
 0005:00000800       __imp_?__abi_WinRTraiseOutOfMemoryException@@YAXXZ 000000018004d800     vccorlib:vccorlib140.DLL
 0005:00000808       __imp_?__abi_WinRTraiseAccessDeniedException@@YAXXZ 000000018004d808     vccorlib:vccorlib140.DLL
 0005:00000810       __imp_?__abi_WinRTraiseFailureException@@YAXXZ 000000018004d810     vccorlib:vccorlib140.DLL
 0005:00000818       __imp_?__abi_WinRTraiseOperationCanceledException@@YAXXZ 000000018004d818     vccorlib:vccorlib140.DLL
 0005:00000820       __imp_?__abi_WinRTraiseNullReferenceException@@YAXXZ 000000018004d820     vccorlib:vccorlib140.DLL
 0005:00000828       __imp_?__abi_WinRTraiseInvalidCastException@@YAXXZ 000000018004d828     vccorlib:vccorlib140.DLL
 0005:00000830       __imp_?__abi_WinRTraiseNotImplementedException@@YAXXZ 000000018004d830     vccorlib:vccorlib140.DLL
 0005:00000838       __imp_?__abi_translateCurrentException@@YAJ_N@Z 000000018004d838     vccorlib:vccorlib140.DLL
 0005:00000840       __imp_?AllocateException@Heap@Details@Platform@@SAPEAX_K0@Z 000000018004d840     vccorlib:vccorlib140.DLL
 0005:00000848       __imp_??0Delegate@Platform@@QE$AAA@XZ 000000018004d848     vccorlib:vccorlib140.DLL
 0005:00000850       __imp_?ReCreateException@Exception@Platform@@SAPE$AAV12@H@Z 000000018004d850     vccorlib:vccorlib140.DLL
 0005:00000858       __imp_?GetObjectContext@Details@Platform@@YAPEAUIUnknown@@XZ 000000018004d858     vccorlib:vccorlib140.DLL
 0005:00000860       __imp_?get@Right@Rect@Foundation@Windows@@QEAAMXZ 000000018004d860     vccorlib:vccorlib140.DLL
 0005:00000868       __imp_?FlushFactoryCache@@YAXXZ 000000018004d868     vccorlib:vccorlib140.DLL
 0005:00000870       __imp_?GetActivationFactoryByPCWSTR@@YAJPEAXAEAVGuid@Platform@@PEAPEAX@Z 000000018004d870     vccorlib:vccorlib140.DLL
 0005:00000878       __imp_?GetIidsFn@@YAJHPEAKPEBU__s_GUID@@PEAPEAVGuid@Platform@@@Z 000000018004d878     vccorlib:vccorlib140.DLL
 0005:00000880       __imp_?UninitializeData@Details@Platform@@YAXH@Z 000000018004d880     vccorlib:vccorlib140.DLL
 0005:00000888       __imp_?InitializeData@Details@Platform@@YAJH@Z 000000018004d888     vccorlib:vccorlib140.DLL
 0005:00000890       __imp_?GetProxyImpl@Details@Platform@@YAJPEAUIUnknown@@AEBU_GUID@@0PEAPEAU3@@Z 000000018004d890     vccorlib:vccorlib140.DLL
 0005:00000898       __imp_?ReleaseInContextImpl@Details@Platform@@YAJPEAUIUnknown@@0@Z 000000018004d898     vccorlib:vccorlib140.DLL
 0005:000008a0       __imp_??0NullReferenceException@Platform@@QE$AAA@XZ 000000018004d8a0     vccorlib:vccorlib140.DLL
 0005:000008a8       __imp_?get@Message@Exception@Platform@@QE$AAAPE$AAVString@3@XZ 000000018004d8a8     vccorlib:vccorlib140.DLL
 0005:000008b0       __imp_?get@Empty@Rect@Foundation@Windows@@SA?AV234@XZ 000000018004d8b0     vccorlib:vccorlib140.DLL
 0005:000008b8       __imp_?__abi_WinRTraiseObjectDisposedException@@YAXXZ 000000018004d8b8     vccorlib:vccorlib140.DLL
 0005:000008c0       __imp_?get@Bottom@Rect@Foundation@Windows@@QEAAMXZ 000000018004d8c0     vccorlib:vccorlib140.DLL
 0005:000008c8       \177vccorlib140_NULL_THUNK_DATA 000000018004d8c8     vccorlib:vccorlib140.DLL
 0005:00000958       __IMPORT_DESCRIPTOR_KERNEL32 000000018004d958     kernel32:KERNEL32.dll
 0005:0000096c       __IMPORT_DESCRIPTOR_ole32  000000018004d96c     ole32:ole32.dll
 0005:00000980       __IMPORT_DESCRIPTOR_vccorlib140 000000018004d980     vccorlib:vccorlib140.DLL
 0005:00000994       __IMPORT_DESCRIPTOR_MSVCP140 000000018004d994     msvcprt:MSVCP140.dll
 0005:000009a8       __IMPORT_DESCRIPTOR_VCRUNTIME140 000000018004d9a8     vcruntime:VCRUNTIME140.dll
 0005:000009bc       __IMPORT_DESCRIPTOR_api-ms-win-crt-runtime-l1-1-0 000000018004d9bc     ucrt:api-ms-win-crt-runtime-l1-1-0.dll
 0005:000009d0       __IMPORT_DESCRIPTOR_api-ms-win-crt-string-l1-1-0 000000018004d9d0     ucrt:api-ms-win-crt-string-l1-1-0.dll
 0005:000009e4       __IMPORT_DESCRIPTOR_api-ms-win-crt-heap-l1-1-0 000000018004d9e4     ucrt:api-ms-win-crt-heap-l1-1-0.dll
 0005:000009f8       __IMPORT_DESCRIPTOR_api-ms-win-core-winrt-error-l1-1-0 000000018004d9f8     runtimeobject:api-ms-win-core-winrt-error-l1-1-0.dll
 0005:00000a0c       __IMPORT_DESCRIPTOR_api-ms-win-core-winrt-string-l1-1-0 000000018004da0c     runtimeobject:api-ms-win-core-winrt-string-l1-1-0.dll
 0005:00000a20       __NULL_IMPORT_DESCRIPTOR   000000018004da20     kernel32:KERNEL32.dll
 0006:00000000       __DELAY_IMPORT_DESCRIPTOR_node_exe 0000000180050000     node:node.exe
 0006:00000020       __NULL_DELAY_IMPORT_DESCRIPTOR 0000000180050020     node:node.exe
 0006:000002f0       \177node_NULL_THUNK_DATA_DLN 00000001800502f0     node:node.exe
 0006:000003d0       __imp_??0HandleScope@v8@@QEAA@PEAVIsolate@1@@Z 00000001800503d0     node:node.exe
 0006:000003d8       __imp_??1HandleScope@v8@@QEAA@XZ 00000001800503d8     node:node.exe
 0006:000003e0       __imp_?CreateHandle@HandleScope@v8@@KAPEAPEAVObject@internal@2@PEAVIsolate@42@PEAV342@@Z 00000001800503e0     node:node.exe
 0006:000003e8       __imp_?CreateHandle@HandleScope@v8@@CAPEAPEAVObject@internal@2@PEAVNeverReadOnlySpaceObject@42@PEAV342@@Z 00000001800503e8     node:node.exe
 0006:000003f0       __imp_??0EscapableHandleScope@v8@@QEAA@PEAVIsolate@1@@Z 00000001800503f0     node:node.exe
 0006:000003f8       __imp_??1EscapableHandleScope@v8@@QEAA@XZ 00000001800503f8     node:node.exe
 0006:00000400       __imp_?Escape@EscapableHandleScope@v8@@AEAAPEAPEAVObject@internal@2@PEAPEAV342@@Z 0000000180050400     node:node.exe
 0006:00000408       __imp_?IsFunction@Value@v8@@QEBA_NXZ 0000000180050408     node:node.exe
 0006:00000410       __imp_?IsObject@Value@v8@@QEBA_NXZ 0000000180050410     node:node.exe
 0006:00000418       __imp_?IsBoolean@Value@v8@@QEBA_NXZ 0000000180050418     node:node.exe
 0006:00000420       __imp_?IsInt32@Value@v8@@QEBA_NXZ 0000000180050420     node:node.exe
 0006:00000428       __imp_?IsUint32@Value@v8@@QEBA_NXZ 0000000180050428     node:node.exe
 0006:00000430       __imp_?ToString@Value@v8@@QEBA?AV?$MaybeLocal@VString@v8@@@2@V?$Local@VContext@v8@@@2@@Z 0000000180050430     node:node.exe
 0006:00000438       __imp_?ToObject@Value@v8@@QEBA?AV?$MaybeLocal@VObject@v8@@@2@V?$Local@VContext@v8@@@2@@Z 0000000180050438     node:node.exe
 0006:00000440       __imp_?ToInteger@Value@v8@@QEBA?AV?$MaybeLocal@VInteger@v8@@@2@V?$Local@VContext@v8@@@2@@Z 0000000180050440     node:node.exe
 0006:00000448       __imp_?Int32Value@Value@v8@@QEBA?AV?$Maybe@H@2@V?$Local@VContext@v8@@@2@@Z 0000000180050448     node:node.exe
 0006:00000450       __imp_?Uint32Value@Value@v8@@QEBAIXZ 0000000180050450     node:node.exe
 0006:00000458       __imp_?Equals@Value@v8@@QEBA_NV?$Local@VValue@v8@@@2@@Z 0000000180050458     node:node.exe
 0006:00000460       __imp_?Equals@Value@v8@@QEBA?AV?$Maybe@_N@2@V?$Local@VContext@v8@@@2@V?$Local@VValue@v8@@@2@@Z 0000000180050460     node:node.exe
 0006:00000468       __imp_?NewFromUtf8@String@v8@@SA?AV?$MaybeLocal@VString@v8@@@2@PEAVIsolate@2@PEBDW4NewStringType@2@H@Z 0000000180050468     node:node.exe
 0006:00000470       __imp_?Concat@String@v8@@SA?AV?$Local@VString@v8@@@2@V32@0@Z 0000000180050470     node:node.exe
 0006:00000478       __imp_??0Value@String@v8@@QEAA@V?$Local@VValue@v8@@@2@@Z 0000000180050478     node:node.exe
 0006:00000480       __imp_??1Value@String@v8@@QEAA@XZ 0000000180050480     node:node.exe
 0006:00000488       __imp_?New@Integer@v8@@SA?AV?$Local@VInteger@v8@@@2@PEAVIsolate@2@H@Z 0000000180050488     node:node.exe
 0006:00000490       __imp_?NewFromUnsigned@Integer@v8@@SA?AV?$Local@VInteger@v8@@@2@PEAVIsolate@2@I@Z 0000000180050490     node:node.exe
 0006:00000498       __imp_?Set@Object@v8@@QEAA?AV?$Maybe@_N@2@V?$Local@VContext@v8@@@2@V?$Local@VValue@v8@@@2@1@Z 0000000180050498     node:node.exe
 0006:000004a0       __imp_?Get@Object@v8@@QEAA?AV?$Local@VValue@v8@@@2@V32@@Z 00000001800504a0     node:node.exe
 0006:000004a8       __imp_?Get@Object@v8@@QEAA?AV?$MaybeLocal@VValue@v8@@@2@V?$Local@VContext@v8@@@2@V?$Local@VValue@v8@@@2@@Z 00000001800504a8     node:node.exe
 0006:000004b0       __imp_?Delete@Object@v8@@QEAA?AV?$Maybe@_N@2@V?$Local@VContext@v8@@@2@V?$Local@VValue@v8@@@2@@Z 00000001800504b0     node:node.exe
 0006:000004b8       __imp_?SetPrototype@Object@v8@@QEAA?AV?$Maybe@_N@2@V?$Local@VContext@v8@@@2@V?$Local@VValue@v8@@@2@@Z 00000001800504b8     node:node.exe
 0006:000004c0       __imp_?InternalFieldCount@Object@v8@@QEAAHXZ 00000001800504c0     node:node.exe
 0006:000004c8       __imp_?SetInternalField@Object@v8@@QEAAXHV?$Local@VValue@v8@@@2@@Z 00000001800504c8     node:node.exe
 0006:000004d0       __imp_?SetAlignedPointerInInternalField@Object@v8@@QEAAXHPEAX@Z 00000001800504d0     node:node.exe
 0006:000004d8       __imp_?New@Object@v8@@SA?AV?$Local@VObject@v8@@@2@PEAVIsolate@2@@Z 00000001800504d8     node:node.exe
 0006:000004e0       __imp_?SlowGetInternalField@Object@v8@@AEAA?AV?$Local@VValue@v8@@@2@H@Z 00000001800504e0     node:node.exe
 0006:000004e8       __imp_?SlowGetAlignedPointerFromInternalField@Object@v8@@AEAAPEAXH@Z 00000001800504e8     node:node.exe
 0006:000004f0       __imp_?NewInstance@Function@v8@@QEBA?AV?$MaybeLocal@VObject@v8@@@2@V?$Local@VContext@v8@@@2@HQEAV?$Local@VValue@v8@@@2@@Z 00000001800504f0     node:node.exe
 0006:000004f8       __imp_?New@External@v8@@SA?AV?$Local@VExternal@v8@@@2@PEAVIsolate@2@PEAX@Z 00000001800504f8     node:node.exe
 0006:00000500       __imp_?Value@External@v8@@QEBAPEAXXZ 0000000180050500     node:node.exe
 0006:00000508       __imp_?Set@Template@v8@@QEAAXV?$Local@VName@v8@@@2@V?$Local@VData@v8@@@2@W4PropertyAttribute@2@@Z 0000000180050508     node:node.exe
 0006:00000510       __imp_?New@FunctionTemplate@v8@@SA?AV?$Local@VFunctionTemplate@v8@@@2@PEAVIsolate@2@P6AXAEBV?$FunctionCallbackInfo@VValue@v8@@@2@@ZV?$Local@VValue@v8@@@2@V?$Local@VSignature@v8@@@2@HW4ConstructorBehavior@2@W4SideEffectType@2@@Z 0000000180050510     node:node.exe
 0006:00000518       __imp_?GetFunction@FunctionTemplate@v8@@QEAA?AV?$MaybeLocal@VFunction@v8@@@2@V?$Local@VContext@v8@@@2@@Z 0000000180050518     node:node.exe
 0006:00000520       __imp_?InstanceTemplate@FunctionTemplate@v8@@QEAA?AV?$Local@VObjectTemplate@v8@@@2@XZ 0000000180050520     node:node.exe
 0006:00000528       __imp_?PrototypeTemplate@FunctionTemplate@v8@@QEAA?AV?$Local@VObjectTemplate@v8@@@2@XZ 0000000180050528     node:node.exe
 0006:00000530       __imp_?SetClassName@FunctionTemplate@v8@@QEAAXV?$Local@VString@v8@@@2@@Z 0000000180050530     node:node.exe
 0006:00000538       __imp_?HasInstance@FunctionTemplate@v8@@QEAA_NV?$Local@VValue@v8@@@2@@Z 0000000180050538     node:node.exe
 0006:00000540       __imp_?New@ObjectTemplate@v8@@SA?AV?$Local@VObjectTemplate@v8@@@2@PEAVIsolate@2@V?$Local@VFunctionTemplate@v8@@@2@@Z 0000000180050540     node:node.exe
 0006:00000548       __imp_?NewInstance@ObjectTemplate@v8@@QEAA?AV?$MaybeLocal@VObject@v8@@@2@V?$Local@VContext@v8@@@2@@Z 0000000180050548     node:node.exe
 0006:00000550       __imp_?SetAccessor@ObjectTemplate@v8@@QEAAXV?$Local@VName@v8@@@2@P6AX0AEBV?$PropertyCallbackInfo@VValue@v8@@@2@@ZP6AX0V?$Local@VValue@v8@@@2@AEBV?$PropertyCallbackInfo@X@2@@Z3W4AccessControl@2@W4PropertyAttribute@2@V?$Local@VAccessorSignature@v8@@@2@W4SideEffectType@2@@Z 0000000180050550     node:node.exe
 0006:00000558       __imp_?SetHandler@ObjectTemplate@v8@@QEAAXAEBUIndexedPropertyHandlerConfiguration@2@@Z 0000000180050558     node:node.exe
 0006:00000560       __imp_?SetInternalFieldCount@ObjectTemplate@v8@@QEAAXH@Z 0000000180050560     node:node.exe
 0006:00000568       __imp_?New@Signature@v8@@SA?AV?$Local@VSignature@v8@@@2@PEAVIsolate@2@V?$Local@VFunctionTemplate@v8@@@2@@Z 0000000180050568     node:node.exe
 0006:00000570       __imp_?Error@Exception@v8@@SA?AV?$Local@VValue@v8@@@2@V?$Local@VString@v8@@@2@@Z 0000000180050570     node:node.exe
 0006:00000578       __imp_?GetCurrent@Isolate@v8@@SAPEAV12@XZ 0000000180050578     node:node.exe
 0006:00000580       __imp_?GetCurrentContext@Isolate@v8@@QEAA?AV?$Local@VContext@v8@@@2@XZ 0000000180050580     node:node.exe
 0006:00000588       __imp_?ThrowException@Isolate@v8@@QEAA?AV?$Local@VValue@v8@@@2@V32@@Z 0000000180050588     node:node.exe
 0006:00000590       __imp_?GlobalizeReference@V8@v8@@CAPEAPEAVObject@internal@2@PEAVIsolate@42@PEAPEAV342@@Z 0000000180050590     node:node.exe
 0006:00000598       __imp_?DisposeGlobal@V8@v8@@CAXPEAPEAVObject@internal@2@@Z 0000000180050598     node:node.exe
 0006:000005a0       __imp_?MakeWeak@V8@v8@@CAXPEAPEAVObject@internal@2@PEAXP6AXAEBV?$WeakCallbackInfo@X@2@@ZW4WeakCallbackType@2@@Z 00000001800505a0     node:node.exe
 0006:000005a8       __imp_?ClearWeak@V8@v8@@CAPEAXPEAPEAVObject@internal@2@@Z 00000001800505a8     node:node.exe
 0006:000005b0       __imp_?ToLocalEmpty@V8@v8@@CAXXZ 00000001800505b0     node:node.exe
 0006:000005b8       __imp_??0TryCatch@v8@@QEAA@PEAVIsolate@1@@Z 00000001800505b8     node:node.exe
 0006:000005c0       __imp_??1TryCatch@v8@@QEAA@XZ 00000001800505c0     node:node.exe
 0006:000005c8       __imp_?HasCaught@TryCatch@v8@@QEBA_NXZ 00000001800505c8     node:node.exe
 0006:000005d0       __imp_?Exception@TryCatch@v8@@QEBA?AV?$Local@VValue@v8@@@2@XZ 00000001800505d0     node:node.exe
 0006:000005d8       __imp_?Global@Context@v8@@QEAA?AV?$Local@VObject@v8@@@2@XZ 00000001800505d8     node:node.exe
 0006:000005e0       __imp_uv_default_loop      00000001800505e0     node:node.exe
 0006:000005e8       __imp_uv_close             00000001800505e8     node:node.exe
 0006:000005f0       __imp_uv_async_init        00000001800505f0     node:node.exe
 0006:000005f8       __imp_uv_async_send        00000001800505f8     node:node.exe
 0006:00000600       __imp_node_module_register 0000000180050600     node:node.exe
 0006:00000608       __imp_?EmitAsyncInit@node@@YA?AUasync_context@1@PEAVIsolate@v8@@V?$Local@VObject@v8@@@4@V?$Local@VString@v8@@@4@N@Z 0000000180050608     node:node.exe
 0006:00000610       __imp_?EmitAsyncDestroy@node@@YAXPEAVIsolate@v8@@Uasync_context@1@@Z 0000000180050610     node:node.exe
 0006:00000618       __imp_?MakeCallback@node@@YA?AV?$MaybeLocal@VValue@v8@@@v8@@PEAVIsolate@3@V?$Local@VObject@v8@@@3@V?$Local@VString@v8@@@3@HPEAV?$Local@VValue@v8@@@3@Uasync_context@1@@Z 0000000180050618     node:node.exe
 0006:00000620       __imp_?IsTrue@Value@v8@@QEBA_NXZ 0000000180050620     node:node.exe
 0006:00000628       __imp_?IsName@Value@v8@@QEBA_NXZ 0000000180050628     node:node.exe
 0006:00000630       __imp_?IsDate@Value@v8@@QEBA_NXZ 0000000180050630     node:node.exe
 0006:00000638       __imp_?NumberValue@Value@v8@@QEBA?AV?$Maybe@N@2@V?$Local@VContext@v8@@@2@@Z 0000000180050638     node:node.exe
 0006:00000640       __imp_?Uint32Value@Value@v8@@QEBA?AV?$Maybe@I@2@V?$Local@VContext@v8@@@2@@Z 0000000180050640     node:node.exe
 0006:00000648       __imp_?IntegerValue@Value@v8@@QEBA_JXZ 0000000180050648     node:node.exe
 0006:00000650       __imp_?Length@String@v8@@QEBAHXZ 0000000180050650     node:node.exe
 0006:00000658       __imp_?NewFromTwoByte@String@v8@@SA?AV?$MaybeLocal@VString@v8@@@2@PEAVIsolate@2@PEBGW4NewStringType@2@H@Z 0000000180050658     node:node.exe
 0006:00000660       __imp_?New@Number@v8@@SA?AV?$Local@VNumber@v8@@@2@PEAVIsolate@2@N@Z 0000000180050660     node:node.exe
 0006:00000668       __imp_?DefineOwnProperty@Object@v8@@QEAA?AV?$Maybe@_N@2@V?$Local@VContext@v8@@@2@V?$Local@VName@v8@@@2@V?$Local@VValue@v8@@@2@W4PropertyAttribute@2@@Z 0000000180050668     node:node.exe
 0006:00000670       __imp_?Has@Object@v8@@QEAA?AV?$Maybe@_N@2@V?$Local@VContext@v8@@@2@V?$Local@VValue@v8@@@2@@Z 0000000180050670     node:node.exe
 0006:00000678       __imp_?New@Date@v8@@SA?AV?$MaybeLocal@VValue@v8@@@2@V?$Local@VContext@v8@@@2@N@Z 0000000180050678     node:node.exe
 0006:00000680       \177node_NULL_THUNK_DATA_DLA 0000000180050680     node:node.exe
 0006:00002210       \177node_NULL_THUNK_DATA_DLB 0000000180052210     node:node.exe
 0007:00000000       __pobjectentryfirst        0000000180053000     vccorlib:init.obj
 0007:00000110       __pobjectentrymid          0000000180053110     vccorlib:init.obj
 0007:00000220       __pobjectentrylast         0000000180053220     vccorlib:init.obj
 0009:00000000       _tls_start                 0000000180055000     MSVCRT:tlssup.obj
 0009:00000104       _Init_thread_epoch         0000000180055104     MSVCRT:thread_safe_statics.obj
 0009:00000208       _tls_end                   0000000180055208     MSVCRT:tlssup.obj
 000a:00000000       __guard_check_icall_fptr   0000000180056000     MSVCRT:guard_support.obj
 000a:00000010       __guard_dispatch_icall_fptr 0000000180056010     MSVCRT:guard_support.obj

 Exports

  ordinal    name

        1    _register_binding_
